
secure.elf:     file format elf32-littlearm


Disassembly of section .text:

00006000 <LOAD_ADR>:
    6000:	e320f000 	nop	{0}
    6004:	e320f000 	nop	{0}
    6008:	e320f000 	nop	{0}
    600c:	e320f000 	nop	{0}
    6010:	e320f000 	nop	{0}
    6014:	e320f000 	nop	{0}
    6018:	e320f000 	nop	{0}
    601c:	e320f000 	nop	{0}

00006020 <_start_secure>:
    6020:	ee100fb0 	mrc	15, 0, r0, cr0, cr0, {5}
    6024:	e2000003 	and	r0, r0, #3
    6028:	e3500000 	cmp	r0, #0
    602c:	1b000021 	blne	60b8 <gotosleep>
    6030:	f10e00d1 	cpsid	if,#17
    6034:	e3a0dc01 	mov	sp, #256	; 0x100
    6038:	f10e00d2 	cpsid	if,#18
    603c:	e3a0dc02 	mov	sp, #512	; 0x200
    6040:	f10e00d7 	cpsid	if,#23
    6044:	e3a0dc03 	mov	sp, #768	; 0x300
    6048:	f10e00db 	cpsid	if,#27
    604c:	e3a0db01 	mov	sp, #1024	; 0x400
    6050:	f10e00df 	cpsid	if,#31
    6054:	e3a0dc05 	mov	sp, #1280	; 0x500
    6058:	f10e00d6 	cpsid	if,#22
    605c:	e3a0d901 	mov	sp, #16384	; 0x4000
    6060:	f10e00d3 	cpsid	if,#19
    6064:	e3a0da05 	mov	sp, #20480	; 0x5000
    6068:	ee110f10 	mrc	15, 0, r0, cr1, cr0, {0}
    606c:	e3c00a02 	bic	r0, r0, #8192	; 0x2000
    6070:	e3c00a01 	bic	r0, r0, #4096	; 0x1000
    6074:	e3c00004 	bic	r0, r0, #4
    6078:	e3c00001 	bic	r0, r0, #1
    607c:	e3800901 	orr	r0, r0, #16384	; 0x4000
    6080:	ee010f10 	mcr	15, 0, r0, cr1, cr0, {0}
    6084:	ee110f30 	mrc	15, 0, r0, cr1, cr0, {1}
    6088:	ee110f10 	mrc	15, 0, r0, cr1, cr0, {0}
    608c:	e3c00004 	bic	r0, r0, #4
    6090:	e3c00a01 	bic	r0, r0, #4096	; 0x1000
    6094:	ee010f10 	mcr	15, 0, r0, cr1, cr0, {0}
    6098:	e3a00000 	mov	r0, #0
    609c:	ee080f17 	mcr	15, 0, r0, cr8, cr7, {0}
    60a0:	eb00000e 	bl	60e0 <secure_main>
    60a4:	eafffffe 	b	60a4 <_start_secure+0x84>

000060a8 <LED_ON>:
    60a8:	e59f0014 	ldr	r0, [pc, #20]	; 60c4 <gotosleep+0xc>
    60ac:	e3a01061 	mov	r1, #97	; 0x61
    60b0:	e5801000 	str	r1, [r0]
    60b4:	e12fff1e 	bx	lr

000060b8 <gotosleep>:
    60b8:	e320f003 	wfi
    60bc:	eafffffd 	b	60b8 <gotosleep>
    60c0:	e12fff1e 	bx	lr
    60c4:	e0001030 	and	r1, r0, r0, lsr r0
    60c8:	e320f000 	nop	{0}
    60cc:	e320f000 	nop	{0}
    60d0:	e320f000 	nop	{0}
    60d4:	e320f000 	nop	{0}
    60d8:	e320f000 	nop	{0}
    60dc:	e320f000 	nop	{0}

000060e0 <secure_main>:
    60e0:	e92d4810 	push	{r4, fp, lr}
    60e4:	e28db008 	add	fp, sp, #8
    60e8:	e24dd02c 	sub	sp, sp, #44	; 0x2c
    60ec:	e24ddd32 	sub	sp, sp, #3200	; 0xc80
    60f0:	e1a0300d 	mov	r3, sp
    60f4:	e283301f 	add	r3, r3, #31
    60f8:	e1a032a3 	lsr	r3, r3, #5
    60fc:	e1a04283 	lsl	r4, r3, #5
    6100:	e24b3034 	sub	r3, fp, #52	; 0x34
    6104:	e3a02000 	mov	r2, #0
    6108:	e5832000 	str	r2, [r3]
    610c:	e2833004 	add	r3, r3, #4
    6110:	e3a02000 	mov	r2, #0
    6114:	e5832000 	str	r2, [r3]
    6118:	e2833004 	add	r3, r3, #4
    611c:	e3a02000 	mov	r2, #0
    6120:	e5832000 	str	r2, [r3]
    6124:	e2833004 	add	r3, r3, #4
    6128:	e3a02000 	mov	r2, #0
    612c:	e5832000 	str	r2, [r3]
    6130:	e2833004 	add	r3, r3, #4
    6134:	e3a02000 	mov	r2, #0
    6138:	e5832000 	str	r2, [r3]
    613c:	e2833004 	add	r3, r3, #4
    6140:	e3a02000 	mov	r2, #0
    6144:	e5832000 	str	r2, [r3]
    6148:	e2833004 	add	r3, r3, #4
    614c:	e3a02000 	mov	r2, #0
    6150:	e5832000 	str	r2, [r3]
    6154:	e2833004 	add	r3, r3, #4
    6158:	e3a02000 	mov	r2, #0
    615c:	e5832000 	str	r2, [r3]
    6160:	e2833004 	add	r3, r3, #4
    6164:	e3a02000 	mov	r2, #0
    6168:	e5832000 	str	r2, [r3]
    616c:	e2833004 	add	r3, r3, #4
    6170:	e3a02000 	mov	r2, #0
    6174:	e5832000 	str	r2, [r3]
    6178:	e2833004 	add	r3, r3, #4
    617c:	eb000818 	bl	81e4 <uart_init>
    6180:	eb00074e 	bl	7ec0 <timer_init>
    6184:	e3a03000 	mov	r3, #0
    6188:	e3443160 	movt	r3, #16736	; 0x4160
    618c:	e5843000 	str	r3, [r4]
    6190:	e3a03000 	mov	r3, #0
    6194:	e5843004 	str	r3, [r4, #4]
    6198:	e3a03001 	mov	r3, #1
    619c:	e5843008 	str	r3, [r4, #8]
    61a0:	e3a03000 	mov	r3, #0
    61a4:	e584300c 	str	r3, [r4, #12]
    61a8:	e3a03201 	mov	r3, #268435456	; 0x10000000
    61ac:	e5843010 	str	r3, [r4, #16]
    61b0:	e3a03202 	mov	r3, #536870912	; 0x20000000
    61b4:	e5843018 	str	r3, [r4, #24]
    61b8:	e3a03003 	mov	r3, #3
    61bc:	e5843014 	str	r3, [r4, #20]
    61c0:	e1a00004 	mov	r0, r4
    61c4:	eb000a47 	bl	8ae8 <fmc_imageon_hdmi_framebuffer_init>
    61c8:	e3a03000 	mov	r3, #0
    61cc:	e1a00003 	mov	r0, r3
    61d0:	e24bd008 	sub	sp, fp, #8
    61d4:	e8bd8810 	pop	{r4, fp, pc}

000061d8 <skip_atoi>:
    61d8:	e52db004 	push	{fp}		; (str fp, [sp, #-4]!)
    61dc:	e28db000 	add	fp, sp, #0
    61e0:	e24dd014 	sub	sp, sp, #20
    61e4:	e50b0010 	str	r0, [fp, #-16]
    61e8:	e3a03000 	mov	r3, #0
    61ec:	e50b3008 	str	r3, [fp, #-8]
    61f0:	ea00000c 	b	6228 <skip_atoi+0x50>
    61f4:	e51b3008 	ldr	r3, [fp, #-8]
    61f8:	e1a03083 	lsl	r3, r3, #1
    61fc:	e1a02103 	lsl	r2, r3, #2
    6200:	e0832002 	add	r2, r3, r2
    6204:	e51b3010 	ldr	r3, [fp, #-16]
    6208:	e5933000 	ldr	r3, [r3]
    620c:	e2830001 	add	r0, r3, #1
    6210:	e51b1010 	ldr	r1, [fp, #-16]
    6214:	e5810000 	str	r0, [r1]
    6218:	e5d33000 	ldrb	r3, [r3]
    621c:	e0823003 	add	r3, r2, r3
    6220:	e2433030 	sub	r3, r3, #48	; 0x30
    6224:	e50b3008 	str	r3, [fp, #-8]
    6228:	e51b3010 	ldr	r3, [fp, #-16]
    622c:	e5933000 	ldr	r3, [r3]
    6230:	e5d33000 	ldrb	r3, [r3]
    6234:	e353002f 	cmp	r3, #47	; 0x2f
    6238:	9a000004 	bls	6250 <skip_atoi+0x78>
    623c:	e51b3010 	ldr	r3, [fp, #-16]
    6240:	e5933000 	ldr	r3, [r3]
    6244:	e5d33000 	ldrb	r3, [r3]
    6248:	e3530039 	cmp	r3, #57	; 0x39
    624c:	9affffe8 	bls	61f4 <skip_atoi+0x1c>
    6250:	e51b3008 	ldr	r3, [fp, #-8]
    6254:	e1a00003 	mov	r0, r3
    6258:	e24bd000 	sub	sp, fp, #0
    625c:	e49db004 	pop	{fp}		; (ldr fp, [sp], #4)
    6260:	e12fff1e 	bx	lr

00006264 <strnlen>:
    6264:	e52db004 	push	{fp}		; (str fp, [sp, #-4]!)
    6268:	e28db000 	add	fp, sp, #0
    626c:	e24dd014 	sub	sp, sp, #20
    6270:	e50b0010 	str	r0, [fp, #-16]
    6274:	e50b1014 	str	r1, [fp, #-20]	; 0xffffffec
    6278:	e51b3010 	ldr	r3, [fp, #-16]
    627c:	e50b3008 	str	r3, [fp, #-8]
    6280:	ea000002 	b	6290 <strnlen+0x2c>
    6284:	e51b3008 	ldr	r3, [fp, #-8]
    6288:	e2833001 	add	r3, r3, #1
    628c:	e50b3008 	str	r3, [fp, #-8]
    6290:	e51b3014 	ldr	r3, [fp, #-20]	; 0xffffffec
    6294:	e2432001 	sub	r2, r3, #1
    6298:	e50b2014 	str	r2, [fp, #-20]	; 0xffffffec
    629c:	e3530000 	cmp	r3, #0
    62a0:	0a000003 	beq	62b4 <strnlen+0x50>
    62a4:	e51b3008 	ldr	r3, [fp, #-8]
    62a8:	e5d33000 	ldrb	r3, [r3]
    62ac:	e3530000 	cmp	r3, #0
    62b0:	1afffff3 	bne	6284 <strnlen+0x20>
    62b4:	e51b2008 	ldr	r2, [fp, #-8]
    62b8:	e51b3010 	ldr	r3, [fp, #-16]
    62bc:	e0633002 	rsb	r3, r3, r2
    62c0:	e1a00003 	mov	r0, r3
    62c4:	e24bd000 	sub	sp, fp, #0
    62c8:	e49db004 	pop	{fp}		; (ldr fp, [sp], #4)
    62cc:	e12fff1e 	bx	lr

000062d0 <put_dec_trunc>:
    62d0:	e52db004 	push	{fp}		; (str fp, [sp, #-4]!)
    62d4:	e28db000 	add	fp, sp, #0
    62d8:	e24dd01c 	sub	sp, sp, #28
    62dc:	e50b0018 	str	r0, [fp, #-24]	; 0xffffffe8
    62e0:	e50b101c 	str	r1, [fp, #-28]	; 0xffffffe4
    62e4:	e51b301c 	ldr	r3, [fp, #-28]	; 0xffffffe4
    62e8:	e1a03223 	lsr	r3, r3, #4
    62ec:	e203300f 	and	r3, r3, #15
    62f0:	e50b3008 	str	r3, [fp, #-8]
    62f4:	e51b301c 	ldr	r3, [fp, #-28]	; 0xffffffe4
    62f8:	e1a03423 	lsr	r3, r3, #8
    62fc:	e203300f 	and	r3, r3, #15
    6300:	e50b300c 	str	r3, [fp, #-12]
    6304:	e51b301c 	ldr	r3, [fp, #-28]	; 0xffffffe4
    6308:	e1a03623 	lsr	r3, r3, #12
    630c:	e50b3010 	str	r3, [fp, #-16]
    6310:	e51b2010 	ldr	r2, [fp, #-16]
    6314:	e51b300c 	ldr	r3, [fp, #-12]
    6318:	e0822003 	add	r2, r2, r3
    631c:	e51b3008 	ldr	r3, [fp, #-8]
    6320:	e0823003 	add	r3, r2, r3
    6324:	e1a03083 	lsl	r3, r3, #1
    6328:	e1a02103 	lsl	r2, r3, #2
    632c:	e0632002 	rsb	r2, r3, r2
    6330:	e51b301c 	ldr	r3, [fp, #-28]	; 0xffffffe4
    6334:	e203300f 	and	r3, r3, #15
    6338:	e0823003 	add	r3, r2, r3
    633c:	e50b3014 	str	r3, [fp, #-20]	; 0xffffffec
    6340:	e51b3014 	ldr	r3, [fp, #-20]	; 0xffffffec
    6344:	e3a020cd 	mov	r2, #205	; 0xcd
    6348:	e0030392 	mul	r3, r2, r3
    634c:	e1a035a3 	lsr	r3, r3, #11
    6350:	e50b301c 	str	r3, [fp, #-28]	; 0xffffffe4
    6354:	e51b301c 	ldr	r3, [fp, #-28]	; 0xffffffe4
    6358:	e1a03083 	lsl	r3, r3, #1
    635c:	e1a02103 	lsl	r2, r3, #2
    6360:	e0833002 	add	r3, r3, r2
    6364:	e51b2014 	ldr	r2, [fp, #-20]	; 0xffffffec
    6368:	e0633002 	rsb	r3, r3, r2
    636c:	e50b3014 	str	r3, [fp, #-20]	; 0xffffffec
    6370:	e51b3018 	ldr	r3, [fp, #-24]	; 0xffffffe8
    6374:	e2832001 	add	r2, r3, #1
    6378:	e50b2018 	str	r2, [fp, #-24]	; 0xffffffe8
    637c:	e51b2014 	ldr	r2, [fp, #-20]	; 0xffffffec
    6380:	e6ef2072 	uxtb	r2, r2
    6384:	e2822030 	add	r2, r2, #48	; 0x30
    6388:	e6ef2072 	uxtb	r2, r2
    638c:	e5c32000 	strb	r2, [r3]
    6390:	e51b2010 	ldr	r2, [fp, #-16]
    6394:	e1a03002 	mov	r3, r2
    6398:	e1a03183 	lsl	r3, r3, #3
    639c:	e0831002 	add	r1, r3, r2
    63a0:	e51b200c 	ldr	r2, [fp, #-12]
    63a4:	e1a03002 	mov	r3, r2
    63a8:	e1a03103 	lsl	r3, r3, #2
    63ac:	e0833002 	add	r3, r3, r2
    63b0:	e0812003 	add	r2, r1, r3
    63b4:	e51b301c 	ldr	r3, [fp, #-28]	; 0xffffffe4
    63b8:	e0823003 	add	r3, r2, r3
    63bc:	e51b2008 	ldr	r2, [fp, #-8]
    63c0:	e0823003 	add	r3, r2, r3
    63c4:	e50b3008 	str	r3, [fp, #-8]
    63c8:	e51b3008 	ldr	r3, [fp, #-8]
    63cc:	e3530000 	cmp	r3, #0
    63d0:	0a00005d 	beq	654c <put_dec_trunc+0x27c>
    63d4:	e51b3008 	ldr	r3, [fp, #-8]
    63d8:	e3a020cd 	mov	r2, #205	; 0xcd
    63dc:	e0030392 	mul	r3, r2, r3
    63e0:	e1a035a3 	lsr	r3, r3, #11
    63e4:	e50b301c 	str	r3, [fp, #-28]	; 0xffffffe4
    63e8:	e51b301c 	ldr	r3, [fp, #-28]	; 0xffffffe4
    63ec:	e1a03083 	lsl	r3, r3, #1
    63f0:	e1a02103 	lsl	r2, r3, #2
    63f4:	e0833002 	add	r3, r3, r2
    63f8:	e51b2008 	ldr	r2, [fp, #-8]
    63fc:	e0633002 	rsb	r3, r3, r2
    6400:	e50b3008 	str	r3, [fp, #-8]
    6404:	e51b3018 	ldr	r3, [fp, #-24]	; 0xffffffe8
    6408:	e2832001 	add	r2, r3, #1
    640c:	e50b2018 	str	r2, [fp, #-24]	; 0xffffffe8
    6410:	e51b2008 	ldr	r2, [fp, #-8]
    6414:	e6ef2072 	uxtb	r2, r2
    6418:	e2822030 	add	r2, r2, #48	; 0x30
    641c:	e6ef2072 	uxtb	r2, r2
    6420:	e5c32000 	strb	r2, [r3]
    6424:	e51b300c 	ldr	r3, [fp, #-12]
    6428:	e1a02083 	lsl	r2, r3, #1
    642c:	e51b301c 	ldr	r3, [fp, #-28]	; 0xffffffe4
    6430:	e0823003 	add	r3, r2, r3
    6434:	e50b300c 	str	r3, [fp, #-12]
    6438:	e51b300c 	ldr	r3, [fp, #-12]
    643c:	e3530000 	cmp	r3, #0
    6440:	1a000002 	bne	6450 <put_dec_trunc+0x180>
    6444:	e51b3010 	ldr	r3, [fp, #-16]
    6448:	e3530000 	cmp	r3, #0
    644c:	0a00003e 	beq	654c <put_dec_trunc+0x27c>
    6450:	e51b100c 	ldr	r1, [fp, #-12]
    6454:	e1a02001 	mov	r2, r1
    6458:	e1a03102 	lsl	r3, r2, #2
    645c:	e1a02003 	mov	r2, r3
    6460:	e1a03102 	lsl	r3, r2, #2
    6464:	e0623003 	rsb	r3, r2, r3
    6468:	e0833001 	add	r3, r3, r1
    646c:	e1a033a3 	lsr	r3, r3, #7
    6470:	e50b301c 	str	r3, [fp, #-28]	; 0xffffffe4
    6474:	e51b301c 	ldr	r3, [fp, #-28]	; 0xffffffe4
    6478:	e1a03083 	lsl	r3, r3, #1
    647c:	e1a02103 	lsl	r2, r3, #2
    6480:	e0833002 	add	r3, r3, r2
    6484:	e51b200c 	ldr	r2, [fp, #-12]
    6488:	e0633002 	rsb	r3, r3, r2
    648c:	e50b300c 	str	r3, [fp, #-12]
    6490:	e51b3018 	ldr	r3, [fp, #-24]	; 0xffffffe8
    6494:	e2832001 	add	r2, r3, #1
    6498:	e50b2018 	str	r2, [fp, #-24]	; 0xffffffe8
    649c:	e51b200c 	ldr	r2, [fp, #-12]
    64a0:	e6ef2072 	uxtb	r2, r2
    64a4:	e2822030 	add	r2, r2, #48	; 0x30
    64a8:	e6ef2072 	uxtb	r2, r2
    64ac:	e5c32000 	strb	r2, [r3]
    64b0:	e51b3010 	ldr	r3, [fp, #-16]
    64b4:	e1a02103 	lsl	r2, r3, #2
    64b8:	e51b301c 	ldr	r3, [fp, #-28]	; 0xffffffe4
    64bc:	e0823003 	add	r3, r2, r3
    64c0:	e50b3010 	str	r3, [fp, #-16]
    64c4:	e51b3010 	ldr	r3, [fp, #-16]
    64c8:	e3530000 	cmp	r3, #0
    64cc:	0a00001e 	beq	654c <put_dec_trunc+0x27c>
    64d0:	e51b3010 	ldr	r3, [fp, #-16]
    64d4:	e3a020cd 	mov	r2, #205	; 0xcd
    64d8:	e0030392 	mul	r3, r2, r3
    64dc:	e1a035a3 	lsr	r3, r3, #11
    64e0:	e50b301c 	str	r3, [fp, #-28]	; 0xffffffe4
    64e4:	e51b301c 	ldr	r3, [fp, #-28]	; 0xffffffe4
    64e8:	e1a03083 	lsl	r3, r3, #1
    64ec:	e1a02103 	lsl	r2, r3, #2
    64f0:	e0833002 	add	r3, r3, r2
    64f4:	e51b2010 	ldr	r2, [fp, #-16]
    64f8:	e0633002 	rsb	r3, r3, r2
    64fc:	e50b3010 	str	r3, [fp, #-16]
    6500:	e51b3018 	ldr	r3, [fp, #-24]	; 0xffffffe8
    6504:	e2832001 	add	r2, r3, #1
    6508:	e50b2018 	str	r2, [fp, #-24]	; 0xffffffe8
    650c:	e51b2010 	ldr	r2, [fp, #-16]
    6510:	e6ef2072 	uxtb	r2, r2
    6514:	e2822030 	add	r2, r2, #48	; 0x30
    6518:	e6ef2072 	uxtb	r2, r2
    651c:	e5c32000 	strb	r2, [r3]
    6520:	e51b301c 	ldr	r3, [fp, #-28]	; 0xffffffe4
    6524:	e3530000 	cmp	r3, #0
    6528:	0a000007 	beq	654c <put_dec_trunc+0x27c>
    652c:	e51b3018 	ldr	r3, [fp, #-24]	; 0xffffffe8
    6530:	e2832001 	add	r2, r3, #1
    6534:	e50b2018 	str	r2, [fp, #-24]	; 0xffffffe8
    6538:	e51b201c 	ldr	r2, [fp, #-28]	; 0xffffffe4
    653c:	e6ef2072 	uxtb	r2, r2
    6540:	e2822030 	add	r2, r2, #48	; 0x30
    6544:	e6ef2072 	uxtb	r2, r2
    6548:	e5c32000 	strb	r2, [r3]
    654c:	e51b3018 	ldr	r3, [fp, #-24]	; 0xffffffe8
    6550:	e1a00003 	mov	r0, r3
    6554:	e24bd000 	sub	sp, fp, #0
    6558:	e49db004 	pop	{fp}		; (ldr fp, [sp], #4)
    655c:	e12fff1e 	bx	lr

00006560 <put_dec_full>:
    6560:	e52db004 	push	{fp}		; (str fp, [sp, #-4]!)
    6564:	e28db000 	add	fp, sp, #0
    6568:	e24dd01c 	sub	sp, sp, #28
    656c:	e50b0018 	str	r0, [fp, #-24]	; 0xffffffe8
    6570:	e50b101c 	str	r1, [fp, #-28]	; 0xffffffe4
    6574:	e51b301c 	ldr	r3, [fp, #-28]	; 0xffffffe4
    6578:	e1a03223 	lsr	r3, r3, #4
    657c:	e203300f 	and	r3, r3, #15
    6580:	e50b3008 	str	r3, [fp, #-8]
    6584:	e51b301c 	ldr	r3, [fp, #-28]	; 0xffffffe4
    6588:	e1a03423 	lsr	r3, r3, #8
    658c:	e203300f 	and	r3, r3, #15
    6590:	e50b300c 	str	r3, [fp, #-12]
    6594:	e51b301c 	ldr	r3, [fp, #-28]	; 0xffffffe4
    6598:	e1a03623 	lsr	r3, r3, #12
    659c:	e50b3010 	str	r3, [fp, #-16]
    65a0:	e51b2010 	ldr	r2, [fp, #-16]
    65a4:	e51b300c 	ldr	r3, [fp, #-12]
    65a8:	e0822003 	add	r2, r2, r3
    65ac:	e51b3008 	ldr	r3, [fp, #-8]
    65b0:	e0823003 	add	r3, r2, r3
    65b4:	e1a03083 	lsl	r3, r3, #1
    65b8:	e1a02103 	lsl	r2, r3, #2
    65bc:	e0632002 	rsb	r2, r3, r2
    65c0:	e51b301c 	ldr	r3, [fp, #-28]	; 0xffffffe4
    65c4:	e203300f 	and	r3, r3, #15
    65c8:	e0823003 	add	r3, r2, r3
    65cc:	e50b3014 	str	r3, [fp, #-20]	; 0xffffffec
    65d0:	e51b3014 	ldr	r3, [fp, #-20]	; 0xffffffec
    65d4:	e3a020cd 	mov	r2, #205	; 0xcd
    65d8:	e0030392 	mul	r3, r2, r3
    65dc:	e1a035a3 	lsr	r3, r3, #11
    65e0:	e50b301c 	str	r3, [fp, #-28]	; 0xffffffe4
    65e4:	e51b301c 	ldr	r3, [fp, #-28]	; 0xffffffe4
    65e8:	e1a03083 	lsl	r3, r3, #1
    65ec:	e1a02103 	lsl	r2, r3, #2
    65f0:	e0833002 	add	r3, r3, r2
    65f4:	e51b2014 	ldr	r2, [fp, #-20]	; 0xffffffec
    65f8:	e0633002 	rsb	r3, r3, r2
    65fc:	e50b3014 	str	r3, [fp, #-20]	; 0xffffffec
    6600:	e51b3018 	ldr	r3, [fp, #-24]	; 0xffffffe8
    6604:	e2832001 	add	r2, r3, #1
    6608:	e50b2018 	str	r2, [fp, #-24]	; 0xffffffe8
    660c:	e51b2014 	ldr	r2, [fp, #-20]	; 0xffffffec
    6610:	e6ef2072 	uxtb	r2, r2
    6614:	e2822030 	add	r2, r2, #48	; 0x30
    6618:	e6ef2072 	uxtb	r2, r2
    661c:	e5c32000 	strb	r2, [r3]
    6620:	e51b2010 	ldr	r2, [fp, #-16]
    6624:	e1a03002 	mov	r3, r2
    6628:	e1a03183 	lsl	r3, r3, #3
    662c:	e0831002 	add	r1, r3, r2
    6630:	e51b200c 	ldr	r2, [fp, #-12]
    6634:	e1a03002 	mov	r3, r2
    6638:	e1a03103 	lsl	r3, r3, #2
    663c:	e0833002 	add	r3, r3, r2
    6640:	e0812003 	add	r2, r1, r3
    6644:	e51b301c 	ldr	r3, [fp, #-28]	; 0xffffffe4
    6648:	e0823003 	add	r3, r2, r3
    664c:	e51b2008 	ldr	r2, [fp, #-8]
    6650:	e0823003 	add	r3, r2, r3
    6654:	e50b3008 	str	r3, [fp, #-8]
    6658:	e51b3008 	ldr	r3, [fp, #-8]
    665c:	e3a020cd 	mov	r2, #205	; 0xcd
    6660:	e0030392 	mul	r3, r2, r3
    6664:	e1a035a3 	lsr	r3, r3, #11
    6668:	e50b301c 	str	r3, [fp, #-28]	; 0xffffffe4
    666c:	e51b301c 	ldr	r3, [fp, #-28]	; 0xffffffe4
    6670:	e1a03083 	lsl	r3, r3, #1
    6674:	e1a02103 	lsl	r2, r3, #2
    6678:	e0833002 	add	r3, r3, r2
    667c:	e51b2008 	ldr	r2, [fp, #-8]
    6680:	e0633002 	rsb	r3, r3, r2
    6684:	e50b3008 	str	r3, [fp, #-8]
    6688:	e51b3018 	ldr	r3, [fp, #-24]	; 0xffffffe8
    668c:	e2832001 	add	r2, r3, #1
    6690:	e50b2018 	str	r2, [fp, #-24]	; 0xffffffe8
    6694:	e51b2008 	ldr	r2, [fp, #-8]
    6698:	e6ef2072 	uxtb	r2, r2
    669c:	e2822030 	add	r2, r2, #48	; 0x30
    66a0:	e6ef2072 	uxtb	r2, r2
    66a4:	e5c32000 	strb	r2, [r3]
    66a8:	e51b300c 	ldr	r3, [fp, #-12]
    66ac:	e1a02083 	lsl	r2, r3, #1
    66b0:	e51b301c 	ldr	r3, [fp, #-28]	; 0xffffffe4
    66b4:	e0823003 	add	r3, r2, r3
    66b8:	e50b300c 	str	r3, [fp, #-12]
    66bc:	e51b100c 	ldr	r1, [fp, #-12]
    66c0:	e1a02001 	mov	r2, r1
    66c4:	e1a03102 	lsl	r3, r2, #2
    66c8:	e1a02003 	mov	r2, r3
    66cc:	e1a03102 	lsl	r3, r2, #2
    66d0:	e0623003 	rsb	r3, r2, r3
    66d4:	e0833001 	add	r3, r3, r1
    66d8:	e1a033a3 	lsr	r3, r3, #7
    66dc:	e50b301c 	str	r3, [fp, #-28]	; 0xffffffe4
    66e0:	e51b301c 	ldr	r3, [fp, #-28]	; 0xffffffe4
    66e4:	e1a03083 	lsl	r3, r3, #1
    66e8:	e1a02103 	lsl	r2, r3, #2
    66ec:	e0833002 	add	r3, r3, r2
    66f0:	e51b200c 	ldr	r2, [fp, #-12]
    66f4:	e0633002 	rsb	r3, r3, r2
    66f8:	e50b300c 	str	r3, [fp, #-12]
    66fc:	e51b3018 	ldr	r3, [fp, #-24]	; 0xffffffe8
    6700:	e2832001 	add	r2, r3, #1
    6704:	e50b2018 	str	r2, [fp, #-24]	; 0xffffffe8
    6708:	e51b200c 	ldr	r2, [fp, #-12]
    670c:	e6ef2072 	uxtb	r2, r2
    6710:	e2822030 	add	r2, r2, #48	; 0x30
    6714:	e6ef2072 	uxtb	r2, r2
    6718:	e5c32000 	strb	r2, [r3]
    671c:	e51b3010 	ldr	r3, [fp, #-16]
    6720:	e1a02103 	lsl	r2, r3, #2
    6724:	e51b301c 	ldr	r3, [fp, #-28]	; 0xffffffe4
    6728:	e0823003 	add	r3, r2, r3
    672c:	e50b3010 	str	r3, [fp, #-16]
    6730:	e51b3010 	ldr	r3, [fp, #-16]
    6734:	e3a020cd 	mov	r2, #205	; 0xcd
    6738:	e0030392 	mul	r3, r2, r3
    673c:	e1a035a3 	lsr	r3, r3, #11
    6740:	e50b301c 	str	r3, [fp, #-28]	; 0xffffffe4
    6744:	e51b301c 	ldr	r3, [fp, #-28]	; 0xffffffe4
    6748:	e1a03083 	lsl	r3, r3, #1
    674c:	e1a02103 	lsl	r2, r3, #2
    6750:	e0833002 	add	r3, r3, r2
    6754:	e51b2010 	ldr	r2, [fp, #-16]
    6758:	e0633002 	rsb	r3, r3, r2
    675c:	e50b3010 	str	r3, [fp, #-16]
    6760:	e51b3018 	ldr	r3, [fp, #-24]	; 0xffffffe8
    6764:	e2832001 	add	r2, r3, #1
    6768:	e50b2018 	str	r2, [fp, #-24]	; 0xffffffe8
    676c:	e51b2010 	ldr	r2, [fp, #-16]
    6770:	e6ef2072 	uxtb	r2, r2
    6774:	e2822030 	add	r2, r2, #48	; 0x30
    6778:	e6ef2072 	uxtb	r2, r2
    677c:	e5c32000 	strb	r2, [r3]
    6780:	e51b3018 	ldr	r3, [fp, #-24]	; 0xffffffe8
    6784:	e2832001 	add	r2, r3, #1
    6788:	e50b2018 	str	r2, [fp, #-24]	; 0xffffffe8
    678c:	e51b201c 	ldr	r2, [fp, #-28]	; 0xffffffe4
    6790:	e6ef2072 	uxtb	r2, r2
    6794:	e2822030 	add	r2, r2, #48	; 0x30
    6798:	e6ef2072 	uxtb	r2, r2
    679c:	e5c32000 	strb	r2, [r3]
    67a0:	e51b3018 	ldr	r3, [fp, #-24]	; 0xffffffe8
    67a4:	e1a00003 	mov	r0, r3
    67a8:	e24bd000 	sub	sp, fp, #0
    67ac:	e49db004 	pop	{fp}		; (ldr fp, [sp], #4)
    67b0:	e12fff1e 	bx	lr

000067b4 <put_dec>:
    67b4:	e92d4800 	push	{fp, lr}
    67b8:	e28db004 	add	fp, sp, #4
    67bc:	e24dd018 	sub	sp, sp, #24
    67c0:	e50b0018 	str	r0, [fp, #-24]	; 0xffffffe8
    67c4:	e50b101c 	str	r1, [fp, #-28]	; 0xffffffe4
    67c8:	e51b201c 	ldr	r2, [fp, #-28]	; 0xffffffe4
    67cc:	e308369f 	movw	r3, #34463	; 0x869f
    67d0:	e3403001 	movt	r3, #1
    67d4:	e1520003 	cmp	r2, r3
    67d8:	8a000005 	bhi	67f4 <put_dec+0x40>
    67dc:	e51b301c 	ldr	r3, [fp, #-28]	; 0xffffffe4
    67e0:	e51b0018 	ldr	r0, [fp, #-24]	; 0xffffffe8
    67e4:	e1a01003 	mov	r1, r3
    67e8:	ebfffeb8 	bl	62d0 <put_dec_trunc>
    67ec:	e1a03000 	mov	r3, r0
    67f0:	ea00001e 	b	6870 <put_dec+0xbc>
    67f4:	e30836a0 	movw	r3, #34464	; 0x86a0
    67f8:	e3403001 	movt	r3, #1
    67fc:	e50b300c 	str	r3, [fp, #-12]
    6800:	e3a03000 	mov	r3, #0
    6804:	e3530000 	cmp	r3, #0
    6808:	1a00000c 	bne	6840 <put_dec+0x8c>
    680c:	e51b301c 	ldr	r3, [fp, #-28]	; 0xffffffe4
    6810:	e1a00003 	mov	r0, r3
    6814:	e51b100c 	ldr	r1, [fp, #-12]
    6818:	eb005167 	bl	1adbc <__aeabi_uidivmod>
    681c:	e1a03001 	mov	r3, r1
    6820:	e50b3008 	str	r3, [fp, #-8]
    6824:	e51b301c 	ldr	r3, [fp, #-28]	; 0xffffffe4
    6828:	e1a00003 	mov	r0, r3
    682c:	e51b100c 	ldr	r1, [fp, #-12]
    6830:	eb0050e6 	bl	1abd0 <__aeabi_uidiv>
    6834:	e1a03000 	mov	r3, r0
    6838:	e50b301c 	str	r3, [fp, #-28]	; 0xffffffe4
    683c:	ea000004 	b	6854 <put_dec+0xa0>
    6840:	e24b301c 	sub	r3, fp, #28
    6844:	e1a00003 	mov	r0, r3
    6848:	e51b100c 	ldr	r1, [fp, #-12]
    684c:	eb000467 	bl	79f0 <__div64_32>
    6850:	e50b0008 	str	r0, [fp, #-8]
    6854:	e51b3008 	ldr	r3, [fp, #-8]
    6858:	e50b3010 	str	r3, [fp, #-16]
    685c:	e51b0018 	ldr	r0, [fp, #-24]	; 0xffffffe8
    6860:	e51b1010 	ldr	r1, [fp, #-16]
    6864:	ebffff3d 	bl	6560 <put_dec_full>
    6868:	e50b0018 	str	r0, [fp, #-24]	; 0xffffffe8
    686c:	eaffffd5 	b	67c8 <put_dec+0x14>
    6870:	e1a00003 	mov	r0, r3
    6874:	e24bd004 	sub	sp, fp, #4
    6878:	e8bd8800 	pop	{fp, pc}

0000687c <number>:
    687c:	e92d4830 	push	{r4, r5, fp, lr}
    6880:	e28db00c 	add	fp, sp, #12
    6884:	e24dd070 	sub	sp, sp, #112	; 0x70
    6888:	e50b0070 	str	r0, [fp, #-112]	; 0xffffff90
    688c:	e50b1074 	str	r1, [fp, #-116]	; 0xffffff8c
    6890:	e14b27fc 	strd	r2, [fp, #-124]	; 0xffffff84
    6894:	e59b3010 	ldr	r3, [fp, #16]
    6898:	e2033040 	and	r3, r3, #64	; 0x40
    689c:	e3530000 	cmp	r3, #0
    68a0:	0a000004 	beq	68b8 <number+0x3c>
    68a4:	e59b3004 	ldr	r3, [fp, #4]
    68a8:	e353000a 	cmp	r3, #10
    68ac:	0a000001 	beq	68b8 <number+0x3c>
    68b0:	e3a03001 	mov	r3, #1
    68b4:	ea000000 	b	68bc <number+0x40>
    68b8:	e3a03000 	mov	r3, #0
    68bc:	e50b301c 	str	r3, [fp, #-28]	; 0xffffffe4
    68c0:	e59b3010 	ldr	r3, [fp, #16]
    68c4:	e6ef3073 	uxtb	r3, r3
    68c8:	e2033020 	and	r3, r3, #32
    68cc:	e54b301d 	strb	r3, [fp, #-29]	; 0xffffffe3
    68d0:	e59b3010 	ldr	r3, [fp, #16]
    68d4:	e2033010 	and	r3, r3, #16
    68d8:	e3530000 	cmp	r3, #0
    68dc:	0a000002 	beq	68ec <number+0x70>
    68e0:	e59b3010 	ldr	r3, [fp, #16]
    68e4:	e3c33001 	bic	r3, r3, #1
    68e8:	e58b3010 	str	r3, [fp, #16]
    68ec:	e3a03000 	mov	r3, #0
    68f0:	e54b300d 	strb	r3, [fp, #-13]
    68f4:	e59b3010 	ldr	r3, [fp, #16]
    68f8:	e2033002 	and	r3, r3, #2
    68fc:	e3530000 	cmp	r3, #0
    6900:	0a000020 	beq	6988 <number+0x10c>
    6904:	e14b27dc 	ldrd	r2, [fp, #-124]	; 0xffffff84
    6908:	e3520000 	cmp	r2, #0
    690c:	e2d33000 	sbcs	r3, r3, #0
    6910:	aa000009 	bge	693c <number+0xc0>
    6914:	e3a0302d 	mov	r3, #45	; 0x2d
    6918:	e54b300d 	strb	r3, [fp, #-13]
    691c:	e14b27dc 	ldrd	r2, [fp, #-124]	; 0xffffff84
    6920:	e2722000 	rsbs	r2, r2, #0
    6924:	e2e33000 	rsc	r3, r3, #0
    6928:	e14b27fc 	strd	r2, [fp, #-124]	; 0xffffff84
    692c:	e59b3008 	ldr	r3, [fp, #8]
    6930:	e2433001 	sub	r3, r3, #1
    6934:	e58b3008 	str	r3, [fp, #8]
    6938:	ea000012 	b	6988 <number+0x10c>
    693c:	e59b3010 	ldr	r3, [fp, #16]
    6940:	e2033004 	and	r3, r3, #4
    6944:	e3530000 	cmp	r3, #0
    6948:	0a000005 	beq	6964 <number+0xe8>
    694c:	e3a0302b 	mov	r3, #43	; 0x2b
    6950:	e54b300d 	strb	r3, [fp, #-13]
    6954:	e59b3008 	ldr	r3, [fp, #8]
    6958:	e2433001 	sub	r3, r3, #1
    695c:	e58b3008 	str	r3, [fp, #8]
    6960:	ea000008 	b	6988 <number+0x10c>
    6964:	e59b3010 	ldr	r3, [fp, #16]
    6968:	e2033008 	and	r3, r3, #8
    696c:	e3530000 	cmp	r3, #0
    6970:	0a000004 	beq	6988 <number+0x10c>
    6974:	e3a03020 	mov	r3, #32
    6978:	e54b300d 	strb	r3, [fp, #-13]
    697c:	e59b3008 	ldr	r3, [fp, #8]
    6980:	e2433001 	sub	r3, r3, #1
    6984:	e58b3008 	str	r3, [fp, #8]
    6988:	e51b301c 	ldr	r3, [fp, #-28]	; 0xffffffe4
    698c:	e3530000 	cmp	r3, #0
    6990:	0a000008 	beq	69b8 <number+0x13c>
    6994:	e59b3008 	ldr	r3, [fp, #8]
    6998:	e2433001 	sub	r3, r3, #1
    699c:	e58b3008 	str	r3, [fp, #8]
    69a0:	e59b3004 	ldr	r3, [fp, #4]
    69a4:	e3530010 	cmp	r3, #16
    69a8:	1a000002 	bne	69b8 <number+0x13c>
    69ac:	e59b3008 	ldr	r3, [fp, #8]
    69b0:	e2433001 	sub	r3, r3, #1
    69b4:	e58b3008 	str	r3, [fp, #8]
    69b8:	e3a03000 	mov	r3, #0
    69bc:	e50b3014 	str	r3, [fp, #-20]	; 0xffffffec
    69c0:	e14b27dc 	ldrd	r2, [fp, #-124]	; 0xffffff84
    69c4:	e1923003 	orrs	r3, r2, r3
    69c8:	1a000007 	bne	69ec <number+0x170>
    69cc:	e51b3014 	ldr	r3, [fp, #-20]	; 0xffffffec
    69d0:	e2832001 	add	r2, r3, #1
    69d4:	e50b2014 	str	r2, [fp, #-20]	; 0xffffffec
    69d8:	e24b200c 	sub	r2, fp, #12
    69dc:	e0823003 	add	r3, r2, r3
    69e0:	e3a02030 	mov	r2, #48	; 0x30
    69e4:	e543205c 	strb	r2, [r3, #-92]	; 0xffffffa4
    69e8:	ea000034 	b	6ac0 <number+0x244>
    69ec:	e59b3004 	ldr	r3, [fp, #4]
    69f0:	e353000a 	cmp	r3, #10
    69f4:	0a000027 	beq	6a98 <number+0x21c>
    69f8:	e59b3004 	ldr	r3, [fp, #4]
    69fc:	e2433001 	sub	r3, r3, #1
    6a00:	e50b3024 	str	r3, [fp, #-36]	; 0xffffffdc
    6a04:	e3a03003 	mov	r3, #3
    6a08:	e50b3018 	str	r3, [fp, #-24]	; 0xffffffe8
    6a0c:	e59b3004 	ldr	r3, [fp, #4]
    6a10:	e3530010 	cmp	r3, #16
    6a14:	1a000001 	bne	6a20 <number+0x1a4>
    6a18:	e3a03004 	mov	r3, #4
    6a1c:	e50b3018 	str	r3, [fp, #-24]	; 0xffffffe8
    6a20:	e51b2014 	ldr	r2, [fp, #-20]	; 0xffffffec
    6a24:	e2823001 	add	r3, r2, #1
    6a28:	e50b3014 	str	r3, [fp, #-20]	; 0xffffffec
    6a2c:	e55b307c 	ldrb	r3, [fp, #-124]	; 0xffffff84
    6a30:	e1a01003 	mov	r1, r3
    6a34:	e51b3024 	ldr	r3, [fp, #-36]	; 0xffffffdc
    6a38:	e0011003 	and	r1, r1, r3
    6a3c:	e30b3160 	movw	r3, #45408	; 0xb160
    6a40:	e3403001 	movt	r3, #1
    6a44:	e7d31001 	ldrb	r1, [r3, r1]
    6a48:	e55b301d 	ldrb	r3, [fp, #-29]	; 0xffffffe3
    6a4c:	e1813003 	orr	r3, r1, r3
    6a50:	e6ef1073 	uxtb	r1, r3
    6a54:	e24b300c 	sub	r3, fp, #12
    6a58:	e0833002 	add	r3, r3, r2
    6a5c:	e1a02001 	mov	r2, r1
    6a60:	e543205c 	strb	r2, [r3, #-92]	; 0xffffffa4
    6a64:	e14b27dc 	ldrd	r2, [fp, #-124]	; 0xffffff84
    6a68:	e51b1018 	ldr	r1, [fp, #-24]	; 0xffffffe8
    6a6c:	e261c020 	rsb	ip, r1, #32
    6a70:	e2410020 	sub	r0, r1, #32
    6a74:	e1a04132 	lsr	r4, r2, r1
    6a78:	e1844c13 	orr	r4, r4, r3, lsl ip
    6a7c:	e1844033 	orr	r4, r4, r3, lsr r0
    6a80:	e1a05133 	lsr	r5, r3, r1
    6a84:	e14b47fc 	strd	r4, [fp, #-124]	; 0xffffff84
    6a88:	e14b27dc 	ldrd	r2, [fp, #-124]	; 0xffffff84
    6a8c:	e1923003 	orrs	r3, r2, r3
    6a90:	1affffe2 	bne	6a20 <number+0x1a4>
    6a94:	ea000009 	b	6ac0 <number+0x244>
    6a98:	e51b307c 	ldr	r3, [fp, #-124]	; 0xffffff84
    6a9c:	e24b2068 	sub	r2, fp, #104	; 0x68
    6aa0:	e1a00002 	mov	r0, r2
    6aa4:	e1a01003 	mov	r1, r3
    6aa8:	ebffff41 	bl	67b4 <put_dec>
    6aac:	e1a03000 	mov	r3, r0
    6ab0:	e1a02003 	mov	r2, r3
    6ab4:	e24b3068 	sub	r3, fp, #104	; 0x68
    6ab8:	e0633002 	rsb	r3, r3, r2
    6abc:	e50b3014 	str	r3, [fp, #-20]	; 0xffffffec
    6ac0:	e51b2014 	ldr	r2, [fp, #-20]	; 0xffffffec
    6ac4:	e59b300c 	ldr	r3, [fp, #12]
    6ac8:	e1520003 	cmp	r2, r3
    6acc:	da000001 	ble	6ad8 <number+0x25c>
    6ad0:	e51b3014 	ldr	r3, [fp, #-20]	; 0xffffffec
    6ad4:	e58b300c 	str	r3, [fp, #12]
    6ad8:	e59b2008 	ldr	r2, [fp, #8]
    6adc:	e59b300c 	ldr	r3, [fp, #12]
    6ae0:	e0633002 	rsb	r3, r3, r2
    6ae4:	e58b3008 	str	r3, [fp, #8]
    6ae8:	e59b3010 	ldr	r3, [fp, #16]
    6aec:	e2033011 	and	r3, r3, #17
    6af0:	e3530000 	cmp	r3, #0
    6af4:	1a00000b 	bne	6b28 <number+0x2ac>
    6af8:	ea000004 	b	6b10 <number+0x294>
    6afc:	e51b3070 	ldr	r3, [fp, #-112]	; 0xffffff90
    6b00:	e2832001 	add	r2, r3, #1
    6b04:	e50b2070 	str	r2, [fp, #-112]	; 0xffffff90
    6b08:	e3a02020 	mov	r2, #32
    6b0c:	e5c32000 	strb	r2, [r3]
    6b10:	e59b3008 	ldr	r3, [fp, #8]
    6b14:	e2433001 	sub	r3, r3, #1
    6b18:	e58b3008 	str	r3, [fp, #8]
    6b1c:	e59b3008 	ldr	r3, [fp, #8]
    6b20:	e3530000 	cmp	r3, #0
    6b24:	aafffff4 	bge	6afc <number+0x280>
    6b28:	e55b300d 	ldrb	r3, [fp, #-13]
    6b2c:	e3530000 	cmp	r3, #0
    6b30:	0a000004 	beq	6b48 <number+0x2cc>
    6b34:	e51b3070 	ldr	r3, [fp, #-112]	; 0xffffff90
    6b38:	e2832001 	add	r2, r3, #1
    6b3c:	e50b2070 	str	r2, [fp, #-112]	; 0xffffff90
    6b40:	e55b200d 	ldrb	r2, [fp, #-13]
    6b44:	e5c32000 	strb	r2, [r3]
    6b48:	e51b301c 	ldr	r3, [fp, #-28]	; 0xffffffe4
    6b4c:	e3530000 	cmp	r3, #0
    6b50:	0a00000e 	beq	6b90 <number+0x314>
    6b54:	e51b3070 	ldr	r3, [fp, #-112]	; 0xffffff90
    6b58:	e2832001 	add	r2, r3, #1
    6b5c:	e50b2070 	str	r2, [fp, #-112]	; 0xffffff90
    6b60:	e3a02030 	mov	r2, #48	; 0x30
    6b64:	e5c32000 	strb	r2, [r3]
    6b68:	e59b3004 	ldr	r3, [fp, #4]
    6b6c:	e3530010 	cmp	r3, #16
    6b70:	1a000006 	bne	6b90 <number+0x314>
    6b74:	e51b3070 	ldr	r3, [fp, #-112]	; 0xffffff90
    6b78:	e2832001 	add	r2, r3, #1
    6b7c:	e50b2070 	str	r2, [fp, #-112]	; 0xffffff90
    6b80:	e55b201d 	ldrb	r2, [fp, #-29]	; 0xffffffe3
    6b84:	e3822058 	orr	r2, r2, #88	; 0x58
    6b88:	e6ef2072 	uxtb	r2, r2
    6b8c:	e5c32000 	strb	r2, [r3]
    6b90:	e59b3010 	ldr	r3, [fp, #16]
    6b94:	e2033010 	and	r3, r3, #16
    6b98:	e3530000 	cmp	r3, #0
    6b9c:	1a000013 	bne	6bf0 <number+0x374>
    6ba0:	e59b3010 	ldr	r3, [fp, #16]
    6ba4:	e2033001 	and	r3, r3, #1
    6ba8:	e3530000 	cmp	r3, #0
    6bac:	0a000001 	beq	6bb8 <number+0x33c>
    6bb0:	e3a03030 	mov	r3, #48	; 0x30
    6bb4:	ea000000 	b	6bbc <number+0x340>
    6bb8:	e3a03020 	mov	r3, #32
    6bbc:	e54b3025 	strb	r3, [fp, #-37]	; 0xffffffdb
    6bc0:	ea000004 	b	6bd8 <number+0x35c>
    6bc4:	e51b3070 	ldr	r3, [fp, #-112]	; 0xffffff90
    6bc8:	e2832001 	add	r2, r3, #1
    6bcc:	e50b2070 	str	r2, [fp, #-112]	; 0xffffff90
    6bd0:	e55b2025 	ldrb	r2, [fp, #-37]	; 0xffffffdb
    6bd4:	e5c32000 	strb	r2, [r3]
    6bd8:	e59b3008 	ldr	r3, [fp, #8]
    6bdc:	e2433001 	sub	r3, r3, #1
    6be0:	e58b3008 	str	r3, [fp, #8]
    6be4:	e59b3008 	ldr	r3, [fp, #8]
    6be8:	e3530000 	cmp	r3, #0
    6bec:	aafffff4 	bge	6bc4 <number+0x348>
    6bf0:	ea000004 	b	6c08 <number+0x38c>
    6bf4:	e51b3070 	ldr	r3, [fp, #-112]	; 0xffffff90
    6bf8:	e2832001 	add	r2, r3, #1
    6bfc:	e50b2070 	str	r2, [fp, #-112]	; 0xffffff90
    6c00:	e3a02030 	mov	r2, #48	; 0x30
    6c04:	e5c32000 	strb	r2, [r3]
    6c08:	e59b300c 	ldr	r3, [fp, #12]
    6c0c:	e2433001 	sub	r3, r3, #1
    6c10:	e58b300c 	str	r3, [fp, #12]
    6c14:	e59b200c 	ldr	r2, [fp, #12]
    6c18:	e51b3014 	ldr	r3, [fp, #-20]	; 0xffffffec
    6c1c:	e1520003 	cmp	r2, r3
    6c20:	aafffff3 	bge	6bf4 <number+0x378>
    6c24:	ea000007 	b	6c48 <number+0x3cc>
    6c28:	e51b3070 	ldr	r3, [fp, #-112]	; 0xffffff90
    6c2c:	e2832001 	add	r2, r3, #1
    6c30:	e50b2070 	str	r2, [fp, #-112]	; 0xffffff90
    6c34:	e24b1068 	sub	r1, fp, #104	; 0x68
    6c38:	e51b2014 	ldr	r2, [fp, #-20]	; 0xffffffec
    6c3c:	e0812002 	add	r2, r1, r2
    6c40:	e5d22000 	ldrb	r2, [r2]
    6c44:	e5c32000 	strb	r2, [r3]
    6c48:	e51b3014 	ldr	r3, [fp, #-20]	; 0xffffffec
    6c4c:	e2433001 	sub	r3, r3, #1
    6c50:	e50b3014 	str	r3, [fp, #-20]	; 0xffffffec
    6c54:	e51b3014 	ldr	r3, [fp, #-20]	; 0xffffffec
    6c58:	e3530000 	cmp	r3, #0
    6c5c:	aafffff1 	bge	6c28 <number+0x3ac>
    6c60:	ea000004 	b	6c78 <number+0x3fc>
    6c64:	e51b3070 	ldr	r3, [fp, #-112]	; 0xffffff90
    6c68:	e2832001 	add	r2, r3, #1
    6c6c:	e50b2070 	str	r2, [fp, #-112]	; 0xffffff90
    6c70:	e3a02020 	mov	r2, #32
    6c74:	e5c32000 	strb	r2, [r3]
    6c78:	e59b3008 	ldr	r3, [fp, #8]
    6c7c:	e2433001 	sub	r3, r3, #1
    6c80:	e58b3008 	str	r3, [fp, #8]
    6c84:	e59b3008 	ldr	r3, [fp, #8]
    6c88:	e3530000 	cmp	r3, #0
    6c8c:	aafffff4 	bge	6c64 <number+0x3e8>
    6c90:	e51b3070 	ldr	r3, [fp, #-112]	; 0xffffff90
    6c94:	e1a00003 	mov	r0, r3
    6c98:	e24bd00c 	sub	sp, fp, #12
    6c9c:	e8bd8830 	pop	{r4, r5, fp, pc}

00006ca0 <string>:
    6ca0:	e92d4800 	push	{fp, lr}
    6ca4:	e28db004 	add	fp, sp, #4
    6ca8:	e24dd018 	sub	sp, sp, #24
    6cac:	e50b0010 	str	r0, [fp, #-16]
    6cb0:	e50b1014 	str	r1, [fp, #-20]	; 0xffffffec
    6cb4:	e50b2018 	str	r2, [fp, #-24]	; 0xffffffe8
    6cb8:	e50b301c 	str	r3, [fp, #-28]	; 0xffffffe4
    6cbc:	e51b3018 	ldr	r3, [fp, #-24]	; 0xffffffe8
    6cc0:	e3530000 	cmp	r3, #0
    6cc4:	1a000002 	bne	6cd4 <string+0x34>
    6cc8:	e30b312c 	movw	r3, #45356	; 0xb12c
    6ccc:	e3403001 	movt	r3, #1
    6cd0:	e50b3018 	str	r3, [fp, #-24]	; 0xffffffe8
    6cd4:	e59b3004 	ldr	r3, [fp, #4]
    6cd8:	e51b0018 	ldr	r0, [fp, #-24]	; 0xffffffe8
    6cdc:	e1a01003 	mov	r1, r3
    6ce0:	ebfffd5f 	bl	6264 <strnlen>
    6ce4:	e1a03000 	mov	r3, r0
    6ce8:	e50b300c 	str	r3, [fp, #-12]
    6cec:	e59b3008 	ldr	r3, [fp, #8]
    6cf0:	e2033010 	and	r3, r3, #16
    6cf4:	e3530000 	cmp	r3, #0
    6cf8:	1a00000b 	bne	6d2c <string+0x8c>
    6cfc:	ea000004 	b	6d14 <string+0x74>
    6d00:	e51b3010 	ldr	r3, [fp, #-16]
    6d04:	e2832001 	add	r2, r3, #1
    6d08:	e50b2010 	str	r2, [fp, #-16]
    6d0c:	e3a02020 	mov	r2, #32
    6d10:	e5c32000 	strb	r2, [r3]
    6d14:	e51b301c 	ldr	r3, [fp, #-28]	; 0xffffffe4
    6d18:	e2432001 	sub	r2, r3, #1
    6d1c:	e50b201c 	str	r2, [fp, #-28]	; 0xffffffe4
    6d20:	e51b200c 	ldr	r2, [fp, #-12]
    6d24:	e1530002 	cmp	r3, r2
    6d28:	cafffff4 	bgt	6d00 <string+0x60>
    6d2c:	e3a03000 	mov	r3, #0
    6d30:	e50b3008 	str	r3, [fp, #-8]
    6d34:	ea00000a 	b	6d64 <string+0xc4>
    6d38:	e51b3010 	ldr	r3, [fp, #-16]
    6d3c:	e2832001 	add	r2, r3, #1
    6d40:	e50b2010 	str	r2, [fp, #-16]
    6d44:	e51b2018 	ldr	r2, [fp, #-24]	; 0xffffffe8
    6d48:	e2821001 	add	r1, r2, #1
    6d4c:	e50b1018 	str	r1, [fp, #-24]	; 0xffffffe8
    6d50:	e5d22000 	ldrb	r2, [r2]
    6d54:	e5c32000 	strb	r2, [r3]
    6d58:	e51b3008 	ldr	r3, [fp, #-8]
    6d5c:	e2833001 	add	r3, r3, #1
    6d60:	e50b3008 	str	r3, [fp, #-8]
    6d64:	e51b2008 	ldr	r2, [fp, #-8]
    6d68:	e51b300c 	ldr	r3, [fp, #-12]
    6d6c:	e1520003 	cmp	r2, r3
    6d70:	bafffff0 	blt	6d38 <string+0x98>
    6d74:	ea000004 	b	6d8c <string+0xec>
    6d78:	e51b3010 	ldr	r3, [fp, #-16]
    6d7c:	e2832001 	add	r2, r3, #1
    6d80:	e50b2010 	str	r2, [fp, #-16]
    6d84:	e3a02020 	mov	r2, #32
    6d88:	e5c32000 	strb	r2, [r3]
    6d8c:	e51b301c 	ldr	r3, [fp, #-28]	; 0xffffffe4
    6d90:	e2432001 	sub	r2, r3, #1
    6d94:	e50b201c 	str	r2, [fp, #-28]	; 0xffffffe4
    6d98:	e51b200c 	ldr	r2, [fp, #-12]
    6d9c:	e1530002 	cmp	r3, r2
    6da0:	cafffff4 	bgt	6d78 <string+0xd8>
    6da4:	e51b3010 	ldr	r3, [fp, #-16]
    6da8:	e1a00003 	mov	r0, r3
    6dac:	e24bd004 	sub	sp, fp, #4
    6db0:	e8bd8800 	pop	{fp, pc}

00006db4 <pointer>:
    6db4:	e92d4800 	push	{fp, lr}
    6db8:	e28db004 	add	fp, sp, #4
    6dbc:	e24dd028 	sub	sp, sp, #40	; 0x28
    6dc0:	e50b0010 	str	r0, [fp, #-16]
    6dc4:	e50b1014 	str	r1, [fp, #-20]	; 0xffffffec
    6dc8:	e50b2018 	str	r2, [fp, #-24]	; 0xffffffe8
    6dcc:	e50b301c 	str	r3, [fp, #-28]	; 0xffffffe4
    6dd0:	e51b301c 	ldr	r3, [fp, #-28]	; 0xffffffe4
    6dd4:	e1a02003 	mov	r2, r3
    6dd8:	e3a03000 	mov	r3, #0
    6ddc:	e14b20fc 	strd	r2, [fp, #-12]
    6de0:	e51b3010 	ldr	r3, [fp, #-16]
    6de4:	e5d33000 	ldrb	r3, [r3]
    6de8:	e3530061 	cmp	r3, #97	; 0x61
    6dec:	0a000002 	beq	6dfc <pointer+0x48>
    6df0:	e353006d 	cmp	r3, #109	; 0x6d
    6df4:	0a00000a 	beq	6e24 <pointer+0x70>
    6df8:	ea00000d 	b	6e34 <pointer+0x80>
    6dfc:	e59b300c 	ldr	r3, [fp, #12]
    6e00:	e3833041 	orr	r3, r3, #65	; 0x41
    6e04:	e58b300c 	str	r3, [fp, #12]
    6e08:	e3a03012 	mov	r3, #18
    6e0c:	e58b3004 	str	r3, [fp, #4]
    6e10:	e51b301c 	ldr	r3, [fp, #-28]	; 0xffffffe4
    6e14:	e1c320d0 	ldrd	r2, [r3]
    6e18:	e14b20fc 	strd	r2, [fp, #-12]
    6e1c:	e1a00000 	nop			; (mov r0, r0)
    6e20:	ea000003 	b	6e34 <pointer+0x80>
    6e24:	e59b300c 	ldr	r3, [fp, #12]
    6e28:	e3833040 	orr	r3, r3, #64	; 0x40
    6e2c:	e58b300c 	str	r3, [fp, #12]
    6e30:	e1a00000 	nop			; (mov r0, r0)
    6e34:	e59b300c 	ldr	r3, [fp, #12]
    6e38:	e3833020 	orr	r3, r3, #32
    6e3c:	e58b300c 	str	r3, [fp, #12]
    6e40:	e59b3004 	ldr	r3, [fp, #4]
    6e44:	e3730001 	cmn	r3, #1
    6e48:	1a000004 	bne	6e60 <pointer+0xac>
    6e4c:	e3a03008 	mov	r3, #8
    6e50:	e58b3004 	str	r3, [fp, #4]
    6e54:	e59b300c 	ldr	r3, [fp, #12]
    6e58:	e3833001 	orr	r3, r3, #1
    6e5c:	e58b300c 	str	r3, [fp, #12]
    6e60:	e3a03010 	mov	r3, #16
    6e64:	e58d3000 	str	r3, [sp]
    6e68:	e59b3004 	ldr	r3, [fp, #4]
    6e6c:	e58d3004 	str	r3, [sp, #4]
    6e70:	e59b3008 	ldr	r3, [fp, #8]
    6e74:	e58d3008 	str	r3, [sp, #8]
    6e78:	e59b300c 	ldr	r3, [fp, #12]
    6e7c:	e58d300c 	str	r3, [sp, #12]
    6e80:	e51b0014 	ldr	r0, [fp, #-20]	; 0xffffffec
    6e84:	e51b1018 	ldr	r1, [fp, #-24]	; 0xffffffe8
    6e88:	e14b20dc 	ldrd	r2, [fp, #-12]
    6e8c:	ebfffe7a 	bl	687c <number>
    6e90:	e1a03000 	mov	r3, r0
    6e94:	e1a00003 	mov	r0, r3
    6e98:	e24bd004 	sub	sp, fp, #4
    6e9c:	e8bd8800 	pop	{fp, pc}

00006ea0 <vsnprintf_internal>:
    6ea0:	e92d4800 	push	{fp, lr}
    6ea4:	e28db004 	add	fp, sp, #4
    6ea8:	e24dd050 	sub	sp, sp, #80	; 0x50
    6eac:	e50b0038 	str	r0, [fp, #-56]	; 0xffffffc8
    6eb0:	e50b103c 	str	r1, [fp, #-60]	; 0xffffffc4
    6eb4:	e50b2040 	str	r2, [fp, #-64]	; 0xffffffc0
    6eb8:	e50b3044 	str	r3, [fp, #-68]	; 0xffffffbc
    6ebc:	e51b2038 	ldr	r2, [fp, #-56]	; 0xffffffc8
    6ec0:	e51b303c 	ldr	r3, [fp, #-60]	; 0xffffffc4
    6ec4:	e0823003 	add	r3, r2, r3
    6ec8:	e50b3028 	str	r3, [fp, #-40]	; 0xffffffd8
    6ecc:	e51b3038 	ldr	r3, [fp, #-56]	; 0xffffffc8
    6ed0:	e50b3014 	str	r3, [fp, #-20]	; 0xffffffec
    6ed4:	ea00020d 	b	7710 <vsnprintf_internal+0x870>
    6ed8:	e51b3040 	ldr	r3, [fp, #-64]	; 0xffffffc0
    6edc:	e5d33000 	ldrb	r3, [r3]
    6ee0:	e3530025 	cmp	r3, #37	; 0x25
    6ee4:	0a000006 	beq	6f04 <vsnprintf_internal+0x64>
    6ee8:	e51b3014 	ldr	r3, [fp, #-20]	; 0xffffffec
    6eec:	e2832001 	add	r2, r3, #1
    6ef0:	e50b2014 	str	r2, [fp, #-20]	; 0xffffffec
    6ef4:	e51b2040 	ldr	r2, [fp, #-64]	; 0xffffffc0
    6ef8:	e5d22000 	ldrb	r2, [r2]
    6efc:	e5c32000 	strb	r2, [r3]
    6f00:	ea0001ff 	b	7704 <vsnprintf_internal+0x864>
    6f04:	e3a03000 	mov	r3, #0
    6f08:	e50b3018 	str	r3, [fp, #-24]	; 0xffffffe8
    6f0c:	e51b3040 	ldr	r3, [fp, #-64]	; 0xffffffc0
    6f10:	e2833001 	add	r3, r3, #1
    6f14:	e50b3040 	str	r3, [fp, #-64]	; 0xffffffc0
    6f18:	e51b3040 	ldr	r3, [fp, #-64]	; 0xffffffc0
    6f1c:	e5d33000 	ldrb	r3, [r3]
    6f20:	e2433020 	sub	r3, r3, #32
    6f24:	e3530010 	cmp	r3, #16
    6f28:	979ff103 	ldrls	pc, [pc, r3, lsl #2]
    6f2c:	ea000024 	b	6fc4 <vsnprintf_internal+0x124>
    6f30:	00006f94 	muleq	r0, r4, pc	; <UNPREDICTABLE>
    6f34:	00006fc4 	andeq	r6, r0, r4, asr #31
    6f38:	00006fc4 	andeq	r6, r0, r4, asr #31
    6f3c:	00006fa4 	andeq	r6, r0, r4, lsr #31
    6f40:	00006fc4 	andeq	r6, r0, r4, asr #31
    6f44:	00006fc4 	andeq	r6, r0, r4, asr #31
    6f48:	00006fc4 	andeq	r6, r0, r4, asr #31
    6f4c:	00006fc4 	andeq	r6, r0, r4, asr #31
    6f50:	00006fc4 	andeq	r6, r0, r4, asr #31
    6f54:	00006fc4 	andeq	r6, r0, r4, asr #31
    6f58:	00006fc4 	andeq	r6, r0, r4, asr #31
    6f5c:	00006f84 	andeq	r6, r0, r4, lsl #31
    6f60:	00006fc4 	andeq	r6, r0, r4, asr #31
    6f64:	00006f74 	andeq	r6, r0, r4, ror pc
    6f68:	00006fc4 	andeq	r6, r0, r4, asr #31
    6f6c:	00006fc4 	andeq	r6, r0, r4, asr #31
    6f70:	00006fb4 			; <UNDEFINED> instruction: 0x00006fb4
    6f74:	e51b3018 	ldr	r3, [fp, #-24]	; 0xffffffe8
    6f78:	e3833010 	orr	r3, r3, #16
    6f7c:	e50b3018 	str	r3, [fp, #-24]	; 0xffffffe8
    6f80:	eaffffe1 	b	6f0c <vsnprintf_internal+0x6c>
    6f84:	e51b3018 	ldr	r3, [fp, #-24]	; 0xffffffe8
    6f88:	e3833004 	orr	r3, r3, #4
    6f8c:	e50b3018 	str	r3, [fp, #-24]	; 0xffffffe8
    6f90:	eaffffdd 	b	6f0c <vsnprintf_internal+0x6c>
    6f94:	e51b3018 	ldr	r3, [fp, #-24]	; 0xffffffe8
    6f98:	e3833008 	orr	r3, r3, #8
    6f9c:	e50b3018 	str	r3, [fp, #-24]	; 0xffffffe8
    6fa0:	eaffffd9 	b	6f0c <vsnprintf_internal+0x6c>
    6fa4:	e51b3018 	ldr	r3, [fp, #-24]	; 0xffffffe8
    6fa8:	e3833040 	orr	r3, r3, #64	; 0x40
    6fac:	e50b3018 	str	r3, [fp, #-24]	; 0xffffffe8
    6fb0:	eaffffd5 	b	6f0c <vsnprintf_internal+0x6c>
    6fb4:	e51b3018 	ldr	r3, [fp, #-24]	; 0xffffffe8
    6fb8:	e3833001 	orr	r3, r3, #1
    6fbc:	e50b3018 	str	r3, [fp, #-24]	; 0xffffffe8
    6fc0:	eaffffd1 	b	6f0c <vsnprintf_internal+0x6c>
    6fc4:	e3e03000 	mvn	r3, #0
    6fc8:	e50b301c 	str	r3, [fp, #-28]	; 0xffffffe4
    6fcc:	e51b3040 	ldr	r3, [fp, #-64]	; 0xffffffc0
    6fd0:	e5d33000 	ldrb	r3, [r3]
    6fd4:	e353002f 	cmp	r3, #47	; 0x2f
    6fd8:	9a000008 	bls	7000 <vsnprintf_internal+0x160>
    6fdc:	e51b3040 	ldr	r3, [fp, #-64]	; 0xffffffc0
    6fe0:	e5d33000 	ldrb	r3, [r3]
    6fe4:	e3530039 	cmp	r3, #57	; 0x39
    6fe8:	8a000004 	bhi	7000 <vsnprintf_internal+0x160>
    6fec:	e24b3040 	sub	r3, fp, #64	; 0x40
    6ff0:	e1a00003 	mov	r0, r3
    6ff4:	ebfffc77 	bl	61d8 <skip_atoi>
    6ff8:	e50b001c 	str	r0, [fp, #-28]	; 0xffffffe4
    6ffc:	ea000014 	b	7054 <vsnprintf_internal+0x1b4>
    7000:	e51b3040 	ldr	r3, [fp, #-64]	; 0xffffffc0
    7004:	e5d33000 	ldrb	r3, [r3]
    7008:	e353002a 	cmp	r3, #42	; 0x2a
    700c:	1a000010 	bne	7054 <vsnprintf_internal+0x1b4>
    7010:	e51b3040 	ldr	r3, [fp, #-64]	; 0xffffffc0
    7014:	e2833001 	add	r3, r3, #1
    7018:	e50b3040 	str	r3, [fp, #-64]	; 0xffffffc0
    701c:	e51b3044 	ldr	r3, [fp, #-68]	; 0xffffffbc
    7020:	e2832004 	add	r2, r3, #4
    7024:	e50b2044 	str	r2, [fp, #-68]	; 0xffffffbc
    7028:	e5933000 	ldr	r3, [r3]
    702c:	e50b301c 	str	r3, [fp, #-28]	; 0xffffffe4
    7030:	e51b301c 	ldr	r3, [fp, #-28]	; 0xffffffe4
    7034:	e3530000 	cmp	r3, #0
    7038:	aa000005 	bge	7054 <vsnprintf_internal+0x1b4>
    703c:	e51b301c 	ldr	r3, [fp, #-28]	; 0xffffffe4
    7040:	e2633000 	rsb	r3, r3, #0
    7044:	e50b301c 	str	r3, [fp, #-28]	; 0xffffffe4
    7048:	e51b3018 	ldr	r3, [fp, #-24]	; 0xffffffe8
    704c:	e3833010 	orr	r3, r3, #16
    7050:	e50b3018 	str	r3, [fp, #-24]	; 0xffffffe8
    7054:	e3e03000 	mvn	r3, #0
    7058:	e50b3020 	str	r3, [fp, #-32]	; 0xffffffe0
    705c:	e51b3040 	ldr	r3, [fp, #-64]	; 0xffffffc0
    7060:	e5d33000 	ldrb	r3, [r3]
    7064:	e353002e 	cmp	r3, #46	; 0x2e
    7068:	1a000020 	bne	70f0 <vsnprintf_internal+0x250>
    706c:	e51b3040 	ldr	r3, [fp, #-64]	; 0xffffffc0
    7070:	e2833001 	add	r3, r3, #1
    7074:	e50b3040 	str	r3, [fp, #-64]	; 0xffffffc0
    7078:	e51b3040 	ldr	r3, [fp, #-64]	; 0xffffffc0
    707c:	e5d33000 	ldrb	r3, [r3]
    7080:	e353002f 	cmp	r3, #47	; 0x2f
    7084:	9a000008 	bls	70ac <vsnprintf_internal+0x20c>
    7088:	e51b3040 	ldr	r3, [fp, #-64]	; 0xffffffc0
    708c:	e5d33000 	ldrb	r3, [r3]
    7090:	e3530039 	cmp	r3, #57	; 0x39
    7094:	8a000004 	bhi	70ac <vsnprintf_internal+0x20c>
    7098:	e24b3040 	sub	r3, fp, #64	; 0x40
    709c:	e1a00003 	mov	r0, r3
    70a0:	ebfffc4c 	bl	61d8 <skip_atoi>
    70a4:	e50b0020 	str	r0, [fp, #-32]	; 0xffffffe0
    70a8:	ea00000b 	b	70dc <vsnprintf_internal+0x23c>
    70ac:	e51b3040 	ldr	r3, [fp, #-64]	; 0xffffffc0
    70b0:	e5d33000 	ldrb	r3, [r3]
    70b4:	e353002a 	cmp	r3, #42	; 0x2a
    70b8:	1a000007 	bne	70dc <vsnprintf_internal+0x23c>
    70bc:	e51b3040 	ldr	r3, [fp, #-64]	; 0xffffffc0
    70c0:	e2833001 	add	r3, r3, #1
    70c4:	e50b3040 	str	r3, [fp, #-64]	; 0xffffffc0
    70c8:	e51b3044 	ldr	r3, [fp, #-68]	; 0xffffffbc
    70cc:	e2832004 	add	r2, r3, #4
    70d0:	e50b2044 	str	r2, [fp, #-68]	; 0xffffffbc
    70d4:	e5933000 	ldr	r3, [r3]
    70d8:	e50b3020 	str	r3, [fp, #-32]	; 0xffffffe0
    70dc:	e51b3020 	ldr	r3, [fp, #-32]	; 0xffffffe0
    70e0:	e3530000 	cmp	r3, #0
    70e4:	aa000001 	bge	70f0 <vsnprintf_internal+0x250>
    70e8:	e3a03000 	mov	r3, #0
    70ec:	e50b3020 	str	r3, [fp, #-32]	; 0xffffffe0
    70f0:	e3e03000 	mvn	r3, #0
    70f4:	e50b3024 	str	r3, [fp, #-36]	; 0xffffffdc
    70f8:	e51b3040 	ldr	r3, [fp, #-64]	; 0xffffffc0
    70fc:	e5d33000 	ldrb	r3, [r3]
    7100:	e3530068 	cmp	r3, #104	; 0x68
    7104:	0a000013 	beq	7158 <vsnprintf_internal+0x2b8>
    7108:	e51b3040 	ldr	r3, [fp, #-64]	; 0xffffffc0
    710c:	e5d33000 	ldrb	r3, [r3]
    7110:	e353006c 	cmp	r3, #108	; 0x6c
    7114:	0a00000f 	beq	7158 <vsnprintf_internal+0x2b8>
    7118:	e51b3040 	ldr	r3, [fp, #-64]	; 0xffffffc0
    711c:	e5d33000 	ldrb	r3, [r3]
    7120:	e353004c 	cmp	r3, #76	; 0x4c
    7124:	0a00000b 	beq	7158 <vsnprintf_internal+0x2b8>
    7128:	e51b3040 	ldr	r3, [fp, #-64]	; 0xffffffc0
    712c:	e5d33000 	ldrb	r3, [r3]
    7130:	e353005a 	cmp	r3, #90	; 0x5a
    7134:	0a000007 	beq	7158 <vsnprintf_internal+0x2b8>
    7138:	e51b3040 	ldr	r3, [fp, #-64]	; 0xffffffc0
    713c:	e5d33000 	ldrb	r3, [r3]
    7140:	e353007a 	cmp	r3, #122	; 0x7a
    7144:	0a000003 	beq	7158 <vsnprintf_internal+0x2b8>
    7148:	e51b3040 	ldr	r3, [fp, #-64]	; 0xffffffc0
    714c:	e5d33000 	ldrb	r3, [r3]
    7150:	e3530074 	cmp	r3, #116	; 0x74
    7154:	1a000011 	bne	71a0 <vsnprintf_internal+0x300>
    7158:	e51b3040 	ldr	r3, [fp, #-64]	; 0xffffffc0
    715c:	e5d33000 	ldrb	r3, [r3]
    7160:	e50b3024 	str	r3, [fp, #-36]	; 0xffffffdc
    7164:	e51b3040 	ldr	r3, [fp, #-64]	; 0xffffffc0
    7168:	e2833001 	add	r3, r3, #1
    716c:	e50b3040 	str	r3, [fp, #-64]	; 0xffffffc0
    7170:	e51b3024 	ldr	r3, [fp, #-36]	; 0xffffffdc
    7174:	e353006c 	cmp	r3, #108	; 0x6c
    7178:	1a000008 	bne	71a0 <vsnprintf_internal+0x300>
    717c:	e51b3040 	ldr	r3, [fp, #-64]	; 0xffffffc0
    7180:	e5d33000 	ldrb	r3, [r3]
    7184:	e353006c 	cmp	r3, #108	; 0x6c
    7188:	1a000004 	bne	71a0 <vsnprintf_internal+0x300>
    718c:	e3a0304c 	mov	r3, #76	; 0x4c
    7190:	e50b3024 	str	r3, [fp, #-36]	; 0xffffffdc
    7194:	e51b3040 	ldr	r3, [fp, #-64]	; 0xffffffc0
    7198:	e2833001 	add	r3, r3, #1
    719c:	e50b3040 	str	r3, [fp, #-64]	; 0xffffffc0
    71a0:	e3a0300a 	mov	r3, #10
    71a4:	e50b3010 	str	r3, [fp, #-16]
    71a8:	e51b3040 	ldr	r3, [fp, #-64]	; 0xffffffc0
    71ac:	e5d33000 	ldrb	r3, [r3]
    71b0:	e2433025 	sub	r3, r3, #37	; 0x25
    71b4:	e3530053 	cmp	r3, #83	; 0x53
    71b8:	979ff103 	ldrls	pc, [pc, r3, lsl #2]
    71bc:	ea0000d4 	b	7514 <vsnprintf_internal+0x674>
    71c0:	000074c8 	andeq	r7, r0, r8, asr #9
    71c4:	00007514 	andeq	r7, r0, r4, lsl r5
    71c8:	00007514 	andeq	r7, r0, r4, lsl r5
    71cc:	00007514 	andeq	r7, r0, r4, lsl r5
    71d0:	00007514 	andeq	r7, r0, r4, lsl r5
    71d4:	00007514 	andeq	r7, r0, r4, lsl r5
    71d8:	00007514 	andeq	r7, r0, r4, lsl r5
    71dc:	00007514 	andeq	r7, r0, r4, lsl r5
    71e0:	00007514 	andeq	r7, r0, r4, lsl r5
    71e4:	00007514 	andeq	r7, r0, r4, lsl r5
    71e8:	00007514 	andeq	r7, r0, r4, lsl r5
    71ec:	00007514 	andeq	r7, r0, r4, lsl r5
    71f0:	00007514 	andeq	r7, r0, r4, lsl r5
    71f4:	00007514 	andeq	r7, r0, r4, lsl r5
    71f8:	00007514 	andeq	r7, r0, r4, lsl r5
    71fc:	00007514 	andeq	r7, r0, r4, lsl r5
    7200:	00007514 	andeq	r7, r0, r4, lsl r5
    7204:	00007514 	andeq	r7, r0, r4, lsl r5
    7208:	00007514 	andeq	r7, r0, r4, lsl r5
    720c:	00007514 	andeq	r7, r0, r4, lsl r5
    7210:	00007514 	andeq	r7, r0, r4, lsl r5
    7214:	00007514 	andeq	r7, r0, r4, lsl r5
    7218:	00007514 	andeq	r7, r0, r4, lsl r5
    721c:	00007514 	andeq	r7, r0, r4, lsl r5
    7220:	00007514 	andeq	r7, r0, r4, lsl r5
    7224:	00007514 	andeq	r7, r0, r4, lsl r5
    7228:	00007514 	andeq	r7, r0, r4, lsl r5
    722c:	00007514 	andeq	r7, r0, r4, lsl r5
    7230:	00007514 	andeq	r7, r0, r4, lsl r5
    7234:	00007514 	andeq	r7, r0, r4, lsl r5
    7238:	00007514 	andeq	r7, r0, r4, lsl r5
    723c:	00007514 	andeq	r7, r0, r4, lsl r5
    7240:	00007514 	andeq	r7, r0, r4, lsl r5
    7244:	00007514 	andeq	r7, r0, r4, lsl r5
    7248:	00007514 	andeq	r7, r0, r4, lsl r5
    724c:	00007514 	andeq	r7, r0, r4, lsl r5
    7250:	00007514 	andeq	r7, r0, r4, lsl r5
    7254:	00007514 	andeq	r7, r0, r4, lsl r5
    7258:	00007514 	andeq	r7, r0, r4, lsl r5
    725c:	00007514 	andeq	r7, r0, r4, lsl r5
    7260:	00007514 	andeq	r7, r0, r4, lsl r5
    7264:	00007514 	andeq	r7, r0, r4, lsl r5
    7268:	00007514 	andeq	r7, r0, r4, lsl r5
    726c:	00007514 	andeq	r7, r0, r4, lsl r5
    7270:	00007514 	andeq	r7, r0, r4, lsl r5
    7274:	00007514 	andeq	r7, r0, r4, lsl r5
    7278:	00007514 	andeq	r7, r0, r4, lsl r5
    727c:	00007514 	andeq	r7, r0, r4, lsl r5
    7280:	00007514 	andeq	r7, r0, r4, lsl r5
    7284:	00007514 	andeq	r7, r0, r4, lsl r5
    7288:	00007514 	andeq	r7, r0, r4, lsl r5
    728c:	000074f8 	strdeq	r7, [r0], -r8
    7290:	00007514 	andeq	r7, r0, r4, lsl r5
    7294:	00007514 	andeq	r7, r0, r4, lsl r5
    7298:	00007514 	andeq	r7, r0, r4, lsl r5
    729c:	00007514 	andeq	r7, r0, r4, lsl r5
    72a0:	00007514 	andeq	r7, r0, r4, lsl r5
    72a4:	00007514 	andeq	r7, r0, r4, lsl r5
    72a8:	00007514 	andeq	r7, r0, r4, lsl r5
    72ac:	00007514 	andeq	r7, r0, r4, lsl r5
    72b0:	00007514 	andeq	r7, r0, r4, lsl r5
    72b4:	00007514 	andeq	r7, r0, r4, lsl r5
    72b8:	00007310 	andeq	r7, r0, r0, lsl r3
    72bc:	00007504 	andeq	r7, r0, r4, lsl #10
    72c0:	00007514 	andeq	r7, r0, r4, lsl r5
    72c4:	00007514 	andeq	r7, r0, r4, lsl r5
    72c8:	00007514 	andeq	r7, r0, r4, lsl r5
    72cc:	00007514 	andeq	r7, r0, r4, lsl r5
    72d0:	00007504 	andeq	r7, r0, r4, lsl #10
    72d4:	00007514 	andeq	r7, r0, r4, lsl r5
    72d8:	00007514 	andeq	r7, r0, r4, lsl r5
    72dc:	00007514 	andeq	r7, r0, r4, lsl r5
    72e0:	00007514 	andeq	r7, r0, r4, lsl r5
    72e4:	00007464 	andeq	r7, r0, r4, ror #8
    72e8:	000074e0 	andeq	r7, r0, r0, ror #9
    72ec:	000073e0 	andeq	r7, r0, r0, ror #7
    72f0:	00007514 	andeq	r7, r0, r4, lsl r5
    72f4:	00007514 	andeq	r7, r0, r4, lsl r5
    72f8:	000073a8 	andeq	r7, r0, r8, lsr #7
    72fc:	00007514 	andeq	r7, r0, r4, lsl r5
    7300:	00007564 	andeq	r7, r0, r4, ror #10
    7304:	00007514 	andeq	r7, r0, r4, lsl r5
    7308:	00007514 	andeq	r7, r0, r4, lsl r5
    730c:	000074ec 	andeq	r7, r0, ip, ror #9
    7310:	e51b3018 	ldr	r3, [fp, #-24]	; 0xffffffe8
    7314:	e2033010 	and	r3, r3, #16
    7318:	e3530000 	cmp	r3, #0
    731c:	1a00000b 	bne	7350 <vsnprintf_internal+0x4b0>
    7320:	ea000004 	b	7338 <vsnprintf_internal+0x498>
    7324:	e51b3014 	ldr	r3, [fp, #-20]	; 0xffffffec
    7328:	e2832001 	add	r2, r3, #1
    732c:	e50b2014 	str	r2, [fp, #-20]	; 0xffffffec
    7330:	e3a02020 	mov	r2, #32
    7334:	e5c32000 	strb	r2, [r3]
    7338:	e51b301c 	ldr	r3, [fp, #-28]	; 0xffffffe4
    733c:	e2433001 	sub	r3, r3, #1
    7340:	e50b301c 	str	r3, [fp, #-28]	; 0xffffffe4
    7344:	e51b301c 	ldr	r3, [fp, #-28]	; 0xffffffe4
    7348:	e3530000 	cmp	r3, #0
    734c:	cafffff4 	bgt	7324 <vsnprintf_internal+0x484>
    7350:	e51b3014 	ldr	r3, [fp, #-20]	; 0xffffffec
    7354:	e2832001 	add	r2, r3, #1
    7358:	e50b2014 	str	r2, [fp, #-20]	; 0xffffffec
    735c:	e51b2044 	ldr	r2, [fp, #-68]	; 0xffffffbc
    7360:	e2821004 	add	r1, r2, #4
    7364:	e50b1044 	str	r1, [fp, #-68]	; 0xffffffbc
    7368:	e5922000 	ldr	r2, [r2]
    736c:	e6ef2072 	uxtb	r2, r2
    7370:	e5c32000 	strb	r2, [r3]
    7374:	ea000004 	b	738c <vsnprintf_internal+0x4ec>
    7378:	e51b3014 	ldr	r3, [fp, #-20]	; 0xffffffec
    737c:	e2832001 	add	r2, r3, #1
    7380:	e50b2014 	str	r2, [fp, #-20]	; 0xffffffec
    7384:	e3a02020 	mov	r2, #32
    7388:	e5c32000 	strb	r2, [r3]
    738c:	e51b301c 	ldr	r3, [fp, #-28]	; 0xffffffe4
    7390:	e2433001 	sub	r3, r3, #1
    7394:	e50b301c 	str	r3, [fp, #-28]	; 0xffffffe4
    7398:	e51b301c 	ldr	r3, [fp, #-28]	; 0xffffffe4
    739c:	e3530000 	cmp	r3, #0
    73a0:	cafffff4 	bgt	7378 <vsnprintf_internal+0x4d8>
    73a4:	ea0000d6 	b	7704 <vsnprintf_internal+0x864>
    73a8:	e51b3044 	ldr	r3, [fp, #-68]	; 0xffffffbc
    73ac:	e2832004 	add	r2, r3, #4
    73b0:	e50b2044 	str	r2, [fp, #-68]	; 0xffffffbc
    73b4:	e5932000 	ldr	r2, [r3]
    73b8:	e51b3020 	ldr	r3, [fp, #-32]	; 0xffffffe0
    73bc:	e58d3000 	str	r3, [sp]
    73c0:	e51b3018 	ldr	r3, [fp, #-24]	; 0xffffffe8
    73c4:	e58d3004 	str	r3, [sp, #4]
    73c8:	e51b0014 	ldr	r0, [fp, #-20]	; 0xffffffec
    73cc:	e51b1028 	ldr	r1, [fp, #-40]	; 0xffffffd8
    73d0:	e51b301c 	ldr	r3, [fp, #-28]	; 0xffffffe4
    73d4:	ebfffe31 	bl	6ca0 <string>
    73d8:	e50b0014 	str	r0, [fp, #-20]	; 0xffffffec
    73dc:	ea0000c8 	b	7704 <vsnprintf_internal+0x864>
    73e0:	e51b3040 	ldr	r3, [fp, #-64]	; 0xffffffc0
    73e4:	e2831001 	add	r1, r3, #1
    73e8:	e51b3044 	ldr	r3, [fp, #-68]	; 0xffffffbc
    73ec:	e2832004 	add	r2, r3, #4
    73f0:	e50b2044 	str	r2, [fp, #-68]	; 0xffffffbc
    73f4:	e593c000 	ldr	ip, [r3]
    73f8:	e51b301c 	ldr	r3, [fp, #-28]	; 0xffffffe4
    73fc:	e58d3000 	str	r3, [sp]
    7400:	e51b3020 	ldr	r3, [fp, #-32]	; 0xffffffe0
    7404:	e58d3004 	str	r3, [sp, #4]
    7408:	e51b3018 	ldr	r3, [fp, #-24]	; 0xffffffe8
    740c:	e58d3008 	str	r3, [sp, #8]
    7410:	e1a00001 	mov	r0, r1
    7414:	e51b1014 	ldr	r1, [fp, #-20]	; 0xffffffec
    7418:	e51b2028 	ldr	r2, [fp, #-40]	; 0xffffffd8
    741c:	e1a0300c 	mov	r3, ip
    7420:	ebfffe63 	bl	6db4 <pointer>
    7424:	e50b0014 	str	r0, [fp, #-20]	; 0xffffffec
    7428:	ea000002 	b	7438 <vsnprintf_internal+0x598>
    742c:	e51b3040 	ldr	r3, [fp, #-64]	; 0xffffffc0
    7430:	e2833001 	add	r3, r3, #1
    7434:	e50b3040 	str	r3, [fp, #-64]	; 0xffffffc0
    7438:	e51b3040 	ldr	r3, [fp, #-64]	; 0xffffffc0
    743c:	e2833001 	add	r3, r3, #1
    7440:	e5d33000 	ldrb	r3, [r3]
    7444:	e1a02003 	mov	r2, r3
    7448:	e30b302c 	movw	r3, #45100	; 0xb02c
    744c:	e3403001 	movt	r3, #1
    7450:	e7d33002 	ldrb	r3, [r3, r2]
    7454:	e2033007 	and	r3, r3, #7
    7458:	e3530000 	cmp	r3, #0
    745c:	1afffff2 	bne	742c <vsnprintf_internal+0x58c>
    7460:	ea0000a7 	b	7704 <vsnprintf_internal+0x864>
    7464:	e51b3024 	ldr	r3, [fp, #-36]	; 0xffffffdc
    7468:	e353006c 	cmp	r3, #108	; 0x6c
    746c:	1a00000a 	bne	749c <vsnprintf_internal+0x5fc>
    7470:	e51b3044 	ldr	r3, [fp, #-68]	; 0xffffffbc
    7474:	e2832004 	add	r2, r3, #4
    7478:	e50b2044 	str	r2, [fp, #-68]	; 0xffffffbc
    747c:	e5933000 	ldr	r3, [r3]
    7480:	e50b302c 	str	r3, [fp, #-44]	; 0xffffffd4
    7484:	e51b2014 	ldr	r2, [fp, #-20]	; 0xffffffec
    7488:	e51b3038 	ldr	r3, [fp, #-56]	; 0xffffffc8
    748c:	e0632002 	rsb	r2, r3, r2
    7490:	e51b302c 	ldr	r3, [fp, #-44]	; 0xffffffd4
    7494:	e5832000 	str	r2, [r3]
    7498:	ea000099 	b	7704 <vsnprintf_internal+0x864>
    749c:	e51b3044 	ldr	r3, [fp, #-68]	; 0xffffffbc
    74a0:	e2832004 	add	r2, r3, #4
    74a4:	e50b2044 	str	r2, [fp, #-68]	; 0xffffffbc
    74a8:	e5933000 	ldr	r3, [r3]
    74ac:	e50b3030 	str	r3, [fp, #-48]	; 0xffffffd0
    74b0:	e51b2014 	ldr	r2, [fp, #-20]	; 0xffffffec
    74b4:	e51b3038 	ldr	r3, [fp, #-56]	; 0xffffffc8
    74b8:	e0632002 	rsb	r2, r3, r2
    74bc:	e51b3030 	ldr	r3, [fp, #-48]	; 0xffffffd0
    74c0:	e5832000 	str	r2, [r3]
    74c4:	ea00008e 	b	7704 <vsnprintf_internal+0x864>
    74c8:	e51b3014 	ldr	r3, [fp, #-20]	; 0xffffffec
    74cc:	e2832001 	add	r2, r3, #1
    74d0:	e50b2014 	str	r2, [fp, #-20]	; 0xffffffec
    74d4:	e3a02025 	mov	r2, #37	; 0x25
    74d8:	e5c32000 	strb	r2, [r3]
    74dc:	ea000088 	b	7704 <vsnprintf_internal+0x864>
    74e0:	e3a03008 	mov	r3, #8
    74e4:	e50b3010 	str	r3, [fp, #-16]
    74e8:	ea00001e 	b	7568 <vsnprintf_internal+0x6c8>
    74ec:	e51b3018 	ldr	r3, [fp, #-24]	; 0xffffffe8
    74f0:	e3833020 	orr	r3, r3, #32
    74f4:	e50b3018 	str	r3, [fp, #-24]	; 0xffffffe8
    74f8:	e3a03010 	mov	r3, #16
    74fc:	e50b3010 	str	r3, [fp, #-16]
    7500:	ea000018 	b	7568 <vsnprintf_internal+0x6c8>
    7504:	e51b3018 	ldr	r3, [fp, #-24]	; 0xffffffe8
    7508:	e3833002 	orr	r3, r3, #2
    750c:	e50b3018 	str	r3, [fp, #-24]	; 0xffffffe8
    7510:	ea000013 	b	7564 <vsnprintf_internal+0x6c4>
    7514:	e51b3014 	ldr	r3, [fp, #-20]	; 0xffffffec
    7518:	e2832001 	add	r2, r3, #1
    751c:	e50b2014 	str	r2, [fp, #-20]	; 0xffffffec
    7520:	e3a02025 	mov	r2, #37	; 0x25
    7524:	e5c32000 	strb	r2, [r3]
    7528:	e51b3040 	ldr	r3, [fp, #-64]	; 0xffffffc0
    752c:	e5d33000 	ldrb	r3, [r3]
    7530:	e3530000 	cmp	r3, #0
    7534:	0a000006 	beq	7554 <vsnprintf_internal+0x6b4>
    7538:	e51b3014 	ldr	r3, [fp, #-20]	; 0xffffffec
    753c:	e2832001 	add	r2, r3, #1
    7540:	e50b2014 	str	r2, [fp, #-20]	; 0xffffffec
    7544:	e51b2040 	ldr	r2, [fp, #-64]	; 0xffffffc0
    7548:	e5d22000 	ldrb	r2, [r2]
    754c:	e5c32000 	strb	r2, [r3]
    7550:	ea00006b 	b	7704 <vsnprintf_internal+0x864>
    7554:	e51b3040 	ldr	r3, [fp, #-64]	; 0xffffffc0
    7558:	e2433001 	sub	r3, r3, #1
    755c:	e50b3040 	str	r3, [fp, #-64]	; 0xffffffc0
    7560:	ea000067 	b	7704 <vsnprintf_internal+0x864>
    7564:	e1a00000 	nop			; (mov r0, r0)
    7568:	e51b3024 	ldr	r3, [fp, #-36]	; 0xffffffdc
    756c:	e353004c 	cmp	r3, #76	; 0x4c
    7570:	1a000007 	bne	7594 <vsnprintf_internal+0x6f4>
    7574:	e51b3044 	ldr	r3, [fp, #-68]	; 0xffffffbc
    7578:	e2833007 	add	r3, r3, #7
    757c:	e3c33007 	bic	r3, r3, #7
    7580:	e2832008 	add	r2, r3, #8
    7584:	e50b2044 	str	r2, [fp, #-68]	; 0xffffffbc
    7588:	e1c320d0 	ldrd	r2, [r3]
    758c:	e14b20fc 	strd	r2, [fp, #-12]
    7590:	ea00004e 	b	76d0 <vsnprintf_internal+0x830>
    7594:	e51b3024 	ldr	r3, [fp, #-36]	; 0xffffffdc
    7598:	e353006c 	cmp	r3, #108	; 0x6c
    759c:	1a00000f 	bne	75e0 <vsnprintf_internal+0x740>
    75a0:	e51b3044 	ldr	r3, [fp, #-68]	; 0xffffffbc
    75a4:	e2832004 	add	r2, r3, #4
    75a8:	e50b2044 	str	r2, [fp, #-68]	; 0xffffffbc
    75ac:	e5933000 	ldr	r3, [r3]
    75b0:	e1a02003 	mov	r2, r3
    75b4:	e3a03000 	mov	r3, #0
    75b8:	e14b20fc 	strd	r2, [fp, #-12]
    75bc:	e51b3018 	ldr	r3, [fp, #-24]	; 0xffffffe8
    75c0:	e2033002 	and	r3, r3, #2
    75c4:	e3530000 	cmp	r3, #0
    75c8:	0a000040 	beq	76d0 <vsnprintf_internal+0x830>
    75cc:	e51b300c 	ldr	r3, [fp, #-12]
    75d0:	e1a02003 	mov	r2, r3
    75d4:	e1a03fc2 	asr	r3, r2, #31
    75d8:	e14b20fc 	strd	r2, [fp, #-12]
    75dc:	ea00003b 	b	76d0 <vsnprintf_internal+0x830>
    75e0:	e51b3024 	ldr	r3, [fp, #-36]	; 0xffffffdc
    75e4:	e353005a 	cmp	r3, #90	; 0x5a
    75e8:	0a000002 	beq	75f8 <vsnprintf_internal+0x758>
    75ec:	e51b3024 	ldr	r3, [fp, #-36]	; 0xffffffdc
    75f0:	e353007a 	cmp	r3, #122	; 0x7a
    75f4:	1a000007 	bne	7618 <vsnprintf_internal+0x778>
    75f8:	e51b3044 	ldr	r3, [fp, #-68]	; 0xffffffbc
    75fc:	e2832004 	add	r2, r3, #4
    7600:	e50b2044 	str	r2, [fp, #-68]	; 0xffffffbc
    7604:	e5933000 	ldr	r3, [r3]
    7608:	e1a02003 	mov	r2, r3
    760c:	e3a03000 	mov	r3, #0
    7610:	e14b20fc 	strd	r2, [fp, #-12]
    7614:	ea00002d 	b	76d0 <vsnprintf_internal+0x830>
    7618:	e51b3024 	ldr	r3, [fp, #-36]	; 0xffffffdc
    761c:	e3530074 	cmp	r3, #116	; 0x74
    7620:	1a000007 	bne	7644 <vsnprintf_internal+0x7a4>
    7624:	e51b3044 	ldr	r3, [fp, #-68]	; 0xffffffbc
    7628:	e2832004 	add	r2, r3, #4
    762c:	e50b2044 	str	r2, [fp, #-68]	; 0xffffffbc
    7630:	e5933000 	ldr	r3, [r3]
    7634:	e1a02003 	mov	r2, r3
    7638:	e3a03000 	mov	r3, #0
    763c:	e14b20fc 	strd	r2, [fp, #-12]
    7640:	ea000022 	b	76d0 <vsnprintf_internal+0x830>
    7644:	e51b3024 	ldr	r3, [fp, #-36]	; 0xffffffdc
    7648:	e3530068 	cmp	r3, #104	; 0x68
    764c:	1a000010 	bne	7694 <vsnprintf_internal+0x7f4>
    7650:	e51b3044 	ldr	r3, [fp, #-68]	; 0xffffffbc
    7654:	e2832004 	add	r2, r3, #4
    7658:	e50b2044 	str	r2, [fp, #-68]	; 0xffffffbc
    765c:	e5933000 	ldr	r3, [r3]
    7660:	e6ff3073 	uxth	r3, r3
    7664:	e6ff2073 	uxth	r2, r3
    7668:	e3a03000 	mov	r3, #0
    766c:	e14b20fc 	strd	r2, [fp, #-12]
    7670:	e51b3018 	ldr	r3, [fp, #-24]	; 0xffffffe8
    7674:	e2033002 	and	r3, r3, #2
    7678:	e3530000 	cmp	r3, #0
    767c:	0a000013 	beq	76d0 <vsnprintf_internal+0x830>
    7680:	e15b30bc 	ldrh	r3, [fp, #-12]
    7684:	e6bf2073 	sxth	r2, r3
    7688:	e1a03fc2 	asr	r3, r2, #31
    768c:	e14b20fc 	strd	r2, [fp, #-12]
    7690:	ea00000e 	b	76d0 <vsnprintf_internal+0x830>
    7694:	e51b3044 	ldr	r3, [fp, #-68]	; 0xffffffbc
    7698:	e2832004 	add	r2, r3, #4
    769c:	e50b2044 	str	r2, [fp, #-68]	; 0xffffffbc
    76a0:	e5933000 	ldr	r3, [r3]
    76a4:	e1a02003 	mov	r2, r3
    76a8:	e3a03000 	mov	r3, #0
    76ac:	e14b20fc 	strd	r2, [fp, #-12]
    76b0:	e51b3018 	ldr	r3, [fp, #-24]	; 0xffffffe8
    76b4:	e2033002 	and	r3, r3, #2
    76b8:	e3530000 	cmp	r3, #0
    76bc:	0a000003 	beq	76d0 <vsnprintf_internal+0x830>
    76c0:	e51b300c 	ldr	r3, [fp, #-12]
    76c4:	e1a02003 	mov	r2, r3
    76c8:	e1a03fc2 	asr	r3, r2, #31
    76cc:	e14b20fc 	strd	r2, [fp, #-12]
    76d0:	e51b3010 	ldr	r3, [fp, #-16]
    76d4:	e58d3000 	str	r3, [sp]
    76d8:	e51b301c 	ldr	r3, [fp, #-28]	; 0xffffffe4
    76dc:	e58d3004 	str	r3, [sp, #4]
    76e0:	e51b3020 	ldr	r3, [fp, #-32]	; 0xffffffe0
    76e4:	e58d3008 	str	r3, [sp, #8]
    76e8:	e51b3018 	ldr	r3, [fp, #-24]	; 0xffffffe8
    76ec:	e58d300c 	str	r3, [sp, #12]
    76f0:	e51b0014 	ldr	r0, [fp, #-20]	; 0xffffffec
    76f4:	e51b1028 	ldr	r1, [fp, #-40]	; 0xffffffd8
    76f8:	e14b20dc 	ldrd	r2, [fp, #-12]
    76fc:	ebfffc5e 	bl	687c <number>
    7700:	e50b0014 	str	r0, [fp, #-20]	; 0xffffffec
    7704:	e51b3040 	ldr	r3, [fp, #-64]	; 0xffffffc0
    7708:	e2833001 	add	r3, r3, #1
    770c:	e50b3040 	str	r3, [fp, #-64]	; 0xffffffc0
    7710:	e51b3040 	ldr	r3, [fp, #-64]	; 0xffffffc0
    7714:	e5d33000 	ldrb	r3, [r3]
    7718:	e3530000 	cmp	r3, #0
    771c:	1afffded 	bne	6ed8 <vsnprintf_internal+0x38>
    7720:	e51b3014 	ldr	r3, [fp, #-20]	; 0xffffffec
    7724:	e3a02000 	mov	r2, #0
    7728:	e5c32000 	strb	r2, [r3]
    772c:	e51b2014 	ldr	r2, [fp, #-20]	; 0xffffffec
    7730:	e51b3038 	ldr	r3, [fp, #-56]	; 0xffffffc8
    7734:	e0633002 	rsb	r3, r3, r2
    7738:	e1a00003 	mov	r0, r3
    773c:	e24bd004 	sub	sp, fp, #4
    7740:	e8bd8800 	pop	{fp, pc}

00007744 <vsprintf>:
    7744:	e92d4800 	push	{fp, lr}
    7748:	e28db004 	add	fp, sp, #4
    774c:	e24dd010 	sub	sp, sp, #16
    7750:	e50b0008 	str	r0, [fp, #-8]
    7754:	e50b100c 	str	r1, [fp, #-12]
    7758:	e50b2010 	str	r2, [fp, #-16]
    775c:	e51b0008 	ldr	r0, [fp, #-8]
    7760:	e3e01102 	mvn	r1, #-2147483648	; 0x80000000
    7764:	e51b200c 	ldr	r2, [fp, #-12]
    7768:	e51b3010 	ldr	r3, [fp, #-16]
    776c:	ebfffdcb 	bl	6ea0 <vsnprintf_internal>
    7770:	e1a03000 	mov	r3, r0
    7774:	e1a00003 	mov	r0, r3
    7778:	e24bd004 	sub	sp, fp, #4
    777c:	e8bd8800 	pop	{fp, pc}

00007780 <sprintf>:
    7780:	e92d000e 	push	{r1, r2, r3}
    7784:	e92d4800 	push	{fp, lr}
    7788:	e28db004 	add	fp, sp, #4
    778c:	e24dd014 	sub	sp, sp, #20
    7790:	e50b0014 	str	r0, [fp, #-20]	; 0xffffffec
    7794:	e28b3008 	add	r3, fp, #8
    7798:	e50b3010 	str	r3, [fp, #-16]
    779c:	e51b0014 	ldr	r0, [fp, #-20]	; 0xffffffec
    77a0:	e59b1004 	ldr	r1, [fp, #4]
    77a4:	e51b2010 	ldr	r2, [fp, #-16]
    77a8:	ebffffe5 	bl	7744 <vsprintf>
    77ac:	e50b000c 	str	r0, [fp, #-12]
    77b0:	e51b300c 	ldr	r3, [fp, #-12]
    77b4:	e1a00003 	mov	r0, r3
    77b8:	e24bd004 	sub	sp, fp, #4
    77bc:	e8bd4800 	pop	{fp, lr}
    77c0:	e28dd00c 	add	sp, sp, #12
    77c4:	e12fff1e 	bx	lr

000077c8 <printf>:
    77c8:	e92d000f 	push	{r0, r1, r2, r3}
    77cc:	e92d4800 	push	{fp, lr}
    77d0:	e28db004 	add	fp, sp, #4
    77d4:	e24ddf42 	sub	sp, sp, #264	; 0x108
    77d8:	e28b3008 	add	r3, fp, #8
    77dc:	e50b300c 	str	r3, [fp, #-12]
    77e0:	e24b3f43 	sub	r3, fp, #268	; 0x10c
    77e4:	e1a00003 	mov	r0, r3
    77e8:	e3a01c01 	mov	r1, #256	; 0x100
    77ec:	e59b2004 	ldr	r2, [fp, #4]
    77f0:	e51b300c 	ldr	r3, [fp, #-12]
    77f4:	eb0000ed 	bl	7bb0 <vscnprintf>
    77f8:	e1a03000 	mov	r3, r0
    77fc:	e50b3008 	str	r3, [fp, #-8]
    7800:	e24b3f43 	sub	r3, fp, #268	; 0x10c
    7804:	e1a00003 	mov	r0, r3
    7808:	eb000264 	bl	81a0 <uart_puts>
    780c:	e51b3008 	ldr	r3, [fp, #-8]
    7810:	e1a00003 	mov	r0, r3
    7814:	e24bd004 	sub	sp, fp, #4
    7818:	e8bd4800 	pop	{fp, lr}
    781c:	e28dd010 	add	sp, sp, #16
    7820:	e12fff1e 	bx	lr

00007824 <timer_printf>:
    7824:	e92d000f 	push	{r0, r1, r2, r3}
    7828:	e92d4800 	push	{fp, lr}
    782c:	e28db004 	add	fp, sp, #4
    7830:	e24ddf82 	sub	sp, sp, #520	; 0x208
    7834:	e3a03000 	mov	r3, #0
    7838:	e50b3008 	str	r3, [fp, #-8]
    783c:	e3a03000 	mov	r3, #0
    7840:	e50b300c 	str	r3, [fp, #-12]
    7844:	e28b3008 	add	r3, fp, #8
    7848:	e50b3010 	str	r3, [fp, #-16]
    784c:	e3a00000 	mov	r0, #0
    7850:	eb000169 	bl	7dfc <get_timer>
    7854:	e50b000c 	str	r0, [fp, #-12]
    7858:	e24b3f41 	sub	r3, fp, #260	; 0x104
    785c:	e1a00003 	mov	r0, r3
    7860:	e59b1004 	ldr	r1, [fp, #4]
    7864:	e51b2010 	ldr	r2, [fp, #-16]
    7868:	ebffffb5 	bl	7744 <vsprintf>
    786c:	e51b200c 	ldr	r2, [fp, #-12]
    7870:	e3043dd3 	movw	r3, #19923	; 0x4dd3
    7874:	e3413062 	movt	r3, #4194	; 0x1062
    7878:	e0832392 	umull	r2, r3, r2, r3
    787c:	e1a0e323 	lsr	lr, r3, #6
    7880:	e51b100c 	ldr	r1, [fp, #-12]
    7884:	e3043dd3 	movw	r3, #19923	; 0x4dd3
    7888:	e3413062 	movt	r3, #4194	; 0x1062
    788c:	e0832391 	umull	r2, r3, r1, r3
    7890:	e1a0c323 	lsr	ip, r3, #6
    7894:	e1a0200c 	mov	r2, ip
    7898:	e1a03102 	lsl	r3, r2, #2
    789c:	e1a02003 	mov	r2, r3
    78a0:	e1a03282 	lsl	r3, r2, #5
    78a4:	e0623003 	rsb	r3, r2, r3
    78a8:	e083300c 	add	r3, r3, ip
    78ac:	e1a03183 	lsl	r3, r3, #3
    78b0:	e063c001 	rsb	ip, r3, r1
    78b4:	e24b2f81 	sub	r2, fp, #516	; 0x204
    78b8:	e24b3f41 	sub	r3, fp, #260	; 0x104
    78bc:	e58d3000 	str	r3, [sp]
    78c0:	e1a00002 	mov	r0, r2
    78c4:	e30b1134 	movw	r1, #45364	; 0xb134
    78c8:	e3401001 	movt	r1, #1
    78cc:	e1a0200e 	mov	r2, lr
    78d0:	e1a0300c 	mov	r3, ip
    78d4:	ebffffa9 	bl	7780 <sprintf>
    78d8:	e1a03000 	mov	r3, r0
    78dc:	e50b3008 	str	r3, [fp, #-8]
    78e0:	e24b3f81 	sub	r3, fp, #516	; 0x204
    78e4:	e1a00003 	mov	r0, r3
    78e8:	eb00022c 	bl	81a0 <uart_puts>
    78ec:	e51b3008 	ldr	r3, [fp, #-8]
    78f0:	e1a00003 	mov	r0, r3
    78f4:	e24bd004 	sub	sp, fp, #4
    78f8:	e8bd4800 	pop	{fp, lr}
    78fc:	e28dd010 	add	sp, sp, #16
    7900:	e12fff1e 	bx	lr

00007904 <gtimer_printf>:
    7904:	e92d000f 	push	{r0, r1, r2, r3}
    7908:	e92d4800 	push	{fp, lr}
    790c:	e28db004 	add	fp, sp, #4
    7910:	e24ddf82 	sub	sp, sp, #520	; 0x208
    7914:	e3a03000 	mov	r3, #0
    7918:	e50b3008 	str	r3, [fp, #-8]
    791c:	e3a03000 	mov	r3, #0
    7920:	e50b300c 	str	r3, [fp, #-12]
    7924:	e28b3008 	add	r3, fp, #8
    7928:	e50b3010 	str	r3, [fp, #-16]
    792c:	e3a00000 	mov	r0, #0
    7930:	eb0001c6 	bl	8050 <gget_timer>
    7934:	e1a02000 	mov	r2, r0
    7938:	e1a03001 	mov	r3, r1
    793c:	e1a03002 	mov	r3, r2
    7940:	e50b300c 	str	r3, [fp, #-12]
    7944:	e24b3f41 	sub	r3, fp, #260	; 0x104
    7948:	e1a00003 	mov	r0, r3
    794c:	e59b1004 	ldr	r1, [fp, #4]
    7950:	e51b2010 	ldr	r2, [fp, #-16]
    7954:	ebffff7a 	bl	7744 <vsprintf>
    7958:	e51b200c 	ldr	r2, [fp, #-12]
    795c:	e3043dd3 	movw	r3, #19923	; 0x4dd3
    7960:	e3413062 	movt	r3, #4194	; 0x1062
    7964:	e0832392 	umull	r2, r3, r2, r3
    7968:	e1a0e323 	lsr	lr, r3, #6
    796c:	e51b100c 	ldr	r1, [fp, #-12]
    7970:	e3043dd3 	movw	r3, #19923	; 0x4dd3
    7974:	e3413062 	movt	r3, #4194	; 0x1062
    7978:	e0832391 	umull	r2, r3, r1, r3
    797c:	e1a0c323 	lsr	ip, r3, #6
    7980:	e1a0200c 	mov	r2, ip
    7984:	e1a03102 	lsl	r3, r2, #2
    7988:	e1a02003 	mov	r2, r3
    798c:	e1a03282 	lsl	r3, r2, #5
    7990:	e0623003 	rsb	r3, r2, r3
    7994:	e083300c 	add	r3, r3, ip
    7998:	e1a03183 	lsl	r3, r3, #3
    799c:	e063c001 	rsb	ip, r3, r1
    79a0:	e24b2f81 	sub	r2, fp, #516	; 0x204
    79a4:	e24b3f41 	sub	r3, fp, #260	; 0x104
    79a8:	e58d3000 	str	r3, [sp]
    79ac:	e1a00002 	mov	r0, r2
    79b0:	e30b1134 	movw	r1, #45364	; 0xb134
    79b4:	e3401001 	movt	r1, #1
    79b8:	e1a0200e 	mov	r2, lr
    79bc:	e1a0300c 	mov	r3, ip
    79c0:	ebffff6e 	bl	7780 <sprintf>
    79c4:	e1a03000 	mov	r3, r0
    79c8:	e50b3008 	str	r3, [fp, #-8]
    79cc:	e24b3f81 	sub	r3, fp, #516	; 0x204
    79d0:	e1a00003 	mov	r0, r3
    79d4:	eb0001f1 	bl	81a0 <uart_puts>
    79d8:	e51b3008 	ldr	r3, [fp, #-8]
    79dc:	e1a00003 	mov	r0, r3
    79e0:	e24bd004 	sub	sp, fp, #4
    79e4:	e8bd4800 	pop	{fp, lr}
    79e8:	e28dd010 	add	sp, sp, #16
    79ec:	e12fff1e 	bx	lr

000079f0 <__div64_32>:
    79f0:	e92d4830 	push	{r4, r5, fp, lr}
    79f4:	e28db00c 	add	fp, sp, #12
    79f8:	e24dd030 	sub	sp, sp, #48	; 0x30
    79fc:	e50b0038 	str	r0, [fp, #-56]	; 0xffffffc8
    7a00:	e50b103c 	str	r1, [fp, #-60]	; 0xffffffc4
    7a04:	e51b3038 	ldr	r3, [fp, #-56]	; 0xffffffc8
    7a08:	e1c320d0 	ldrd	r2, [r3]
    7a0c:	e14b21f4 	strd	r2, [fp, #-20]	; 0xffffffec
    7a10:	e51b303c 	ldr	r3, [fp, #-60]	; 0xffffffc4
    7a14:	e1a02003 	mov	r2, r3
    7a18:	e3a03000 	mov	r3, #0
    7a1c:	e14b21fc 	strd	r2, [fp, #-28]	; 0xffffffe4
    7a20:	e3a02001 	mov	r2, #1
    7a24:	e3a03000 	mov	r3, #0
    7a28:	e14b22fc 	strd	r2, [fp, #-44]	; 0xffffffd4
    7a2c:	e14b21d4 	ldrd	r2, [fp, #-20]	; 0xffffffec
    7a30:	e1a04003 	mov	r4, r3
    7a34:	e3a05000 	mov	r5, #0
    7a38:	e1a03004 	mov	r3, r4
    7a3c:	e50b3030 	str	r3, [fp, #-48]	; 0xffffffd0
    7a40:	e3a02000 	mov	r2, #0
    7a44:	e3a03000 	mov	r3, #0
    7a48:	e14b22f4 	strd	r2, [fp, #-36]	; 0xffffffdc
    7a4c:	e51b2030 	ldr	r2, [fp, #-48]	; 0xffffffd0
    7a50:	e51b303c 	ldr	r3, [fp, #-60]	; 0xffffffc4
    7a54:	e1520003 	cmp	r2, r3
    7a58:	3a00000f 	bcc	7a9c <__div64_32+0xac>
    7a5c:	e51b0030 	ldr	r0, [fp, #-48]	; 0xffffffd0
    7a60:	e51b103c 	ldr	r1, [fp, #-60]	; 0xffffffc4
    7a64:	eb004c59 	bl	1abd0 <__aeabi_uidiv>
    7a68:	e1a03000 	mov	r3, r0
    7a6c:	e50b3030 	str	r3, [fp, #-48]	; 0xffffffd0
    7a70:	e3a03000 	mov	r3, #0
    7a74:	e1a02003 	mov	r2, r3
    7a78:	e3a03000 	mov	r3, #0
    7a7c:	e14b22f4 	strd	r2, [fp, #-36]	; 0xffffffdc
    7a80:	e3a03000 	mov	r3, #0
    7a84:	e1a02003 	mov	r2, r3
    7a88:	e3a03000 	mov	r3, #0
    7a8c:	e14b01d4 	ldrd	r0, [fp, #-20]	; 0xffffffec
    7a90:	e0502002 	subs	r2, r0, r2
    7a94:	e0c13003 	sbc	r3, r1, r3
    7a98:	e14b21f4 	strd	r2, [fp, #-20]	; 0xffffffec
    7a9c:	ea000009 	b	7ac8 <__div64_32+0xd8>
    7aa0:	e14b01dc 	ldrd	r0, [fp, #-28]	; 0xffffffe4
    7aa4:	e14b21dc 	ldrd	r2, [fp, #-28]	; 0xffffffe4
    7aa8:	e0922000 	adds	r2, r2, r0
    7aac:	e0a33001 	adc	r3, r3, r1
    7ab0:	e14b21fc 	strd	r2, [fp, #-28]	; 0xffffffe4
    7ab4:	e14b02dc 	ldrd	r0, [fp, #-44]	; 0xffffffd4
    7ab8:	e14b22dc 	ldrd	r2, [fp, #-44]	; 0xffffffd4
    7abc:	e0922000 	adds	r2, r2, r0
    7ac0:	e0a33001 	adc	r3, r3, r1
    7ac4:	e14b22fc 	strd	r2, [fp, #-44]	; 0xffffffd4
    7ac8:	e14b21dc 	ldrd	r2, [fp, #-28]	; 0xffffffe4
    7acc:	e3520001 	cmp	r2, #1
    7ad0:	e2d33000 	sbcs	r3, r3, #0
    7ad4:	ba000004 	blt	7aec <__div64_32+0xfc>
    7ad8:	e14b01dc 	ldrd	r0, [fp, #-28]	; 0xffffffe4
    7adc:	e14b21d4 	ldrd	r2, [fp, #-20]	; 0xffffffec
    7ae0:	e1510003 	cmp	r1, r3
    7ae4:	01500002 	cmpeq	r0, r2
    7ae8:	3affffec 	bcc	7aa0 <__div64_32+0xb0>
    7aec:	e14b01d4 	ldrd	r0, [fp, #-20]	; 0xffffffec
    7af0:	e14b21dc 	ldrd	r2, [fp, #-28]	; 0xffffffe4
    7af4:	e1510003 	cmp	r1, r3
    7af8:	01500002 	cmpeq	r0, r2
    7afc:	3a000009 	bcc	7b28 <__div64_32+0x138>
    7b00:	e14b01d4 	ldrd	r0, [fp, #-20]	; 0xffffffec
    7b04:	e14b21dc 	ldrd	r2, [fp, #-28]	; 0xffffffe4
    7b08:	e0502002 	subs	r2, r0, r2
    7b0c:	e0c13003 	sbc	r3, r1, r3
    7b10:	e14b21f4 	strd	r2, [fp, #-20]	; 0xffffffec
    7b14:	e14b02d4 	ldrd	r0, [fp, #-36]	; 0xffffffdc
    7b18:	e14b22dc 	ldrd	r2, [fp, #-44]	; 0xffffffd4
    7b1c:	e0922000 	adds	r2, r2, r0
    7b20:	e0a33001 	adc	r3, r3, r1
    7b24:	e14b22f4 	strd	r2, [fp, #-36]	; 0xffffffdc
    7b28:	e14b21dc 	ldrd	r2, [fp, #-28]	; 0xffffffe4
    7b2c:	e1b030a3 	lsrs	r3, r3, #1
    7b30:	e1a02062 	rrx	r2, r2
    7b34:	e14b21fc 	strd	r2, [fp, #-28]	; 0xffffffe4
    7b38:	e14b22dc 	ldrd	r2, [fp, #-44]	; 0xffffffd4
    7b3c:	e1b030a3 	lsrs	r3, r3, #1
    7b40:	e1a02062 	rrx	r2, r2
    7b44:	e14b22fc 	strd	r2, [fp, #-44]	; 0xffffffd4
    7b48:	e14b22dc 	ldrd	r2, [fp, #-44]	; 0xffffffd4
    7b4c:	e1923003 	orrs	r3, r2, r3
    7b50:	1affffe5 	bne	7aec <__div64_32+0xfc>
    7b54:	e51b1038 	ldr	r1, [fp, #-56]	; 0xffffffc8
    7b58:	e14b22d4 	ldrd	r2, [fp, #-36]	; 0xffffffdc
    7b5c:	e1c120f0 	strd	r2, [r1]
    7b60:	e51b3014 	ldr	r3, [fp, #-20]	; 0xffffffec
    7b64:	e1a00003 	mov	r0, r3
    7b68:	e24bd00c 	sub	sp, fp, #12
    7b6c:	e8bd8830 	pop	{r4, r5, fp, pc}

00007b70 <vsnprintf>:
    7b70:	e92d4800 	push	{fp, lr}
    7b74:	e28db004 	add	fp, sp, #4
    7b78:	e24dd010 	sub	sp, sp, #16
    7b7c:	e50b0008 	str	r0, [fp, #-8]
    7b80:	e50b100c 	str	r1, [fp, #-12]
    7b84:	e50b2010 	str	r2, [fp, #-16]
    7b88:	e50b3014 	str	r3, [fp, #-20]	; 0xffffffec
    7b8c:	e51b0008 	ldr	r0, [fp, #-8]
    7b90:	e51b100c 	ldr	r1, [fp, #-12]
    7b94:	e51b2010 	ldr	r2, [fp, #-16]
    7b98:	e51b3014 	ldr	r3, [fp, #-20]	; 0xffffffec
    7b9c:	ebfffcbf 	bl	6ea0 <vsnprintf_internal>
    7ba0:	e1a03000 	mov	r3, r0
    7ba4:	e1a00003 	mov	r0, r3
    7ba8:	e24bd004 	sub	sp, fp, #4
    7bac:	e8bd8800 	pop	{fp, pc}

00007bb0 <vscnprintf>:
    7bb0:	e92d4800 	push	{fp, lr}
    7bb4:	e28db004 	add	fp, sp, #4
    7bb8:	e24dd018 	sub	sp, sp, #24
    7bbc:	e50b0010 	str	r0, [fp, #-16]
    7bc0:	e50b1014 	str	r1, [fp, #-20]	; 0xffffffec
    7bc4:	e50b2018 	str	r2, [fp, #-24]	; 0xffffffe8
    7bc8:	e50b301c 	str	r3, [fp, #-28]	; 0xffffffe4
    7bcc:	e51b0010 	ldr	r0, [fp, #-16]
    7bd0:	e51b1014 	ldr	r1, [fp, #-20]	; 0xffffffec
    7bd4:	e51b2018 	ldr	r2, [fp, #-24]	; 0xffffffe8
    7bd8:	e51b301c 	ldr	r3, [fp, #-28]	; 0xffffffe4
    7bdc:	ebffffe3 	bl	7b70 <vsnprintf>
    7be0:	e50b0008 	str	r0, [fp, #-8]
    7be4:	e51b2008 	ldr	r2, [fp, #-8]
    7be8:	e51b3014 	ldr	r3, [fp, #-20]	; 0xffffffec
    7bec:	e1520003 	cmp	r2, r3
    7bf0:	2a000001 	bcs	7bfc <vscnprintf+0x4c>
    7bf4:	e51b3008 	ldr	r3, [fp, #-8]
    7bf8:	ea000006 	b	7c18 <vscnprintf+0x68>
    7bfc:	e51b3014 	ldr	r3, [fp, #-20]	; 0xffffffec
    7c00:	e3530000 	cmp	r3, #0
    7c04:	0a000002 	beq	7c14 <vscnprintf+0x64>
    7c08:	e51b3014 	ldr	r3, [fp, #-20]	; 0xffffffec
    7c0c:	e2433001 	sub	r3, r3, #1
    7c10:	ea000000 	b	7c18 <vscnprintf+0x68>
    7c14:	e3a03000 	mov	r3, #0
    7c18:	e1a00003 	mov	r0, r3
    7c1c:	e24bd004 	sub	sp, fp, #4
    7c20:	e8bd8800 	pop	{fp, pc}

00007c24 <raise>:
    7c24:	e92d4800 	push	{fp, lr}
    7c28:	e28db004 	add	fp, sp, #4
    7c2c:	e24dd008 	sub	sp, sp, #8
    7c30:	e50b0008 	str	r0, [fp, #-8]
    7c34:	e30b0144 	movw	r0, #45380	; 0xb144
    7c38:	e3400001 	movt	r0, #1
    7c3c:	e51b1008 	ldr	r1, [fp, #-8]
    7c40:	ebfffee0 	bl	77c8 <printf>
    7c44:	e3a03000 	mov	r3, #0
    7c48:	e1a00003 	mov	r0, r3
    7c4c:	e24bd004 	sub	sp, fp, #4
    7c50:	e8bd8800 	pop	{fp, pc}

00007c54 <timer_read_counter>:
    7c54:	e52db004 	push	{fp}		; (str fp, [sp, #-4]!)
    7c58:	e28db000 	add	fp, sp, #0
    7c5c:	e3003604 	movw	r3, #1540	; 0x604
    7c60:	e34f38f0 	movt	r3, #63728	; 0xf8f0
    7c64:	e5933000 	ldr	r3, [r3]
    7c68:	e1e03003 	mvn	r3, r3
    7c6c:	e1a00003 	mov	r0, r3
    7c70:	e24bd000 	sub	sp, fp, #0
    7c74:	e49db004 	pop	{fp}		; (ldr fp, [sp], #4)
    7c78:	e12fff1e 	bx	lr

00007c7c <get_ticks>:
    7c7c:	e92d4830 	push	{r4, r5, fp, lr}
    7c80:	e28db00c 	add	fp, sp, #12
    7c84:	e24dd010 	sub	sp, sp, #16
    7c88:	e3a03000 	mov	r3, #0
    7c8c:	e50b3014 	str	r3, [fp, #-20]	; 0xffffffec
    7c90:	e3a03000 	mov	r3, #0
    7c94:	e50b3010 	str	r3, [fp, #-16]
    7c98:	ebffffed 	bl	7c54 <timer_read_counter>
    7c9c:	e50b0018 	str	r0, [fp, #-24]	; 0xffffffe8
    7ca0:	e51b2018 	ldr	r2, [fp, #-24]	; 0xffffffe8
    7ca4:	e51b3014 	ldr	r3, [fp, #-20]	; 0xffffffec
    7ca8:	e1520003 	cmp	r2, r3
    7cac:	2a000002 	bcs	7cbc <get_ticks+0x40>
    7cb0:	e51b3010 	ldr	r3, [fp, #-16]
    7cb4:	e2833001 	add	r3, r3, #1
    7cb8:	e50b3010 	str	r3, [fp, #-16]
    7cbc:	e51b3018 	ldr	r3, [fp, #-24]	; 0xffffffe8
    7cc0:	e50b3014 	str	r3, [fp, #-20]	; 0xffffffec
    7cc4:	e51b3010 	ldr	r3, [fp, #-16]
    7cc8:	e1a02003 	mov	r2, r3
    7ccc:	e3a03000 	mov	r3, #0
    7cd0:	e1a05002 	mov	r5, r2
    7cd4:	e3a04000 	mov	r4, #0
    7cd8:	e51b3014 	ldr	r3, [fp, #-20]	; 0xffffffec
    7cdc:	e1a02003 	mov	r2, r3
    7ce0:	e3a03000 	mov	r3, #0
    7ce4:	e1822004 	orr	r2, r2, r4
    7ce8:	e1833005 	orr	r3, r3, r5
    7cec:	e1a00002 	mov	r0, r2
    7cf0:	e1a01003 	mov	r1, r3
    7cf4:	e24bd00c 	sub	sp, fp, #12
    7cf8:	e8bd8830 	pop	{r4, r5, fp, pc}

00007cfc <tick_to_time>:
    7cfc:	e92d4bf0 	push	{r4, r5, r6, r7, r8, r9, fp, lr}
    7d00:	e28db01c 	add	fp, sp, #28
    7d04:	e24dd020 	sub	sp, sp, #32
    7d08:	e14b03f4 	strd	r0, [fp, #-52]	; 0xffffffcc
    7d0c:	e30d1e43 	movw	r1, #56899	; 0xde43
    7d10:	e3401013 	movt	r1, #19
    7d14:	e50b1024 	str	r1, [fp, #-36]	; 0xffffffdc
    7d18:	e14b03d4 	ldrd	r0, [fp, #-52]	; 0xffffffcc
    7d1c:	e14b03fc 	strd	r0, [fp, #-60]	; 0xffffffc4
    7d20:	e1a07101 	lsl	r7, r1, #2
    7d24:	e1877f20 	orr	r7, r7, r0, lsr #30
    7d28:	e1a06100 	lsl	r6, r0, #2
    7d2c:	e1a00006 	mov	r0, r6
    7d30:	e1a01007 	mov	r1, r7
    7d34:	e1a03281 	lsl	r3, r1, #5
    7d38:	e1833da0 	orr	r3, r3, r0, lsr #27
    7d3c:	e1a02280 	lsl	r2, r0, #5
    7d40:	e0522000 	subs	r2, r2, r0
    7d44:	e0c33001 	sbc	r3, r3, r1
    7d48:	e14b03dc 	ldrd	r0, [fp, #-60]	; 0xffffffc4
    7d4c:	e0900002 	adds	r0, r0, r2
    7d50:	e0a11003 	adc	r1, r1, r3
    7d54:	e1a02000 	mov	r2, r0
    7d58:	e1a03001 	mov	r3, r1
    7d5c:	e1a05183 	lsl	r5, r3, #3
    7d60:	e1855ea2 	orr	r5, r5, r2, lsr #29
    7d64:	e1a04182 	lsl	r4, r2, #3
    7d68:	e1a02004 	mov	r2, r4
    7d6c:	e1a03005 	mov	r3, r5
    7d70:	e14b23f4 	strd	r2, [fp, #-52]	; 0xffffffcc
    7d74:	e51b3024 	ldr	r3, [fp, #-36]	; 0xffffffdc
    7d78:	e50b3028 	str	r3, [fp, #-40]	; 0xffffffd8
    7d7c:	e14b23d4 	ldrd	r2, [fp, #-52]	; 0xffffffcc
    7d80:	e1a08003 	mov	r8, r3
    7d84:	e3a09000 	mov	r9, #0
    7d88:	e1983009 	orrs	r3, r8, r9
    7d8c:	1a000010 	bne	7dd4 <tick_to_time+0xd8>
    7d90:	e14b23d4 	ldrd	r2, [fp, #-52]	; 0xffffffcc
    7d94:	e1a03002 	mov	r3, r2
    7d98:	e1a00003 	mov	r0, r3
    7d9c:	e51b1028 	ldr	r1, [fp, #-40]	; 0xffffffd8
    7da0:	eb004c05 	bl	1adbc <__aeabi_uidivmod>
    7da4:	e1a03001 	mov	r3, r1
    7da8:	e50b3020 	str	r3, [fp, #-32]	; 0xffffffe0
    7dac:	e14b23d4 	ldrd	r2, [fp, #-52]	; 0xffffffcc
    7db0:	e1a03002 	mov	r3, r2
    7db4:	e1a00003 	mov	r0, r3
    7db8:	e51b1028 	ldr	r1, [fp, #-40]	; 0xffffffd8
    7dbc:	eb004b83 	bl	1abd0 <__aeabi_uidiv>
    7dc0:	e1a03000 	mov	r3, r0
    7dc4:	e1a02003 	mov	r2, r3
    7dc8:	e3a03000 	mov	r3, #0
    7dcc:	e14b23f4 	strd	r2, [fp, #-52]	; 0xffffffcc
    7dd0:	ea000004 	b	7de8 <tick_to_time+0xec>
    7dd4:	e24b3034 	sub	r3, fp, #52	; 0x34
    7dd8:	e1a00003 	mov	r0, r3
    7ddc:	e51b1028 	ldr	r1, [fp, #-40]	; 0xffffffd8
    7de0:	ebffff02 	bl	79f0 <__div64_32>
    7de4:	e50b0020 	str	r0, [fp, #-32]	; 0xffffffe0
    7de8:	e14b23d4 	ldrd	r2, [fp, #-52]	; 0xffffffcc
    7dec:	e1a00002 	mov	r0, r2
    7df0:	e1a01003 	mov	r1, r3
    7df4:	e24bd01c 	sub	sp, fp, #28
    7df8:	e8bd8bf0 	pop	{r4, r5, r6, r7, r8, r9, fp, pc}

00007dfc <get_timer>:
    7dfc:	e92d4800 	push	{fp, lr}
    7e00:	e28db004 	add	fp, sp, #4
    7e04:	e24dd008 	sub	sp, sp, #8
    7e08:	e50b0008 	str	r0, [fp, #-8]
    7e0c:	ebffff9a 	bl	7c7c <get_ticks>
    7e10:	e1a02000 	mov	r2, r0
    7e14:	e1a03001 	mov	r3, r1
    7e18:	e1a00002 	mov	r0, r2
    7e1c:	e1a01003 	mov	r1, r3
    7e20:	ebffffb5 	bl	7cfc <tick_to_time>
    7e24:	e1a02000 	mov	r2, r0
    7e28:	e1a03001 	mov	r3, r1
    7e2c:	e51b3008 	ldr	r3, [fp, #-8]
    7e30:	e0633002 	rsb	r3, r3, r2
    7e34:	e1a00003 	mov	r0, r3
    7e38:	e24bd004 	sub	sp, fp, #4
    7e3c:	e8bd8800 	pop	{fp, pc}

00007e40 <timer_get_us>:
    7e40:	e92d4bf0 	push	{r4, r5, r6, r7, r8, r9, fp, lr}
    7e44:	e28db01c 	add	fp, sp, #28
    7e48:	ebffff8b 	bl	7c7c <get_ticks>
    7e4c:	e1a02000 	mov	r2, r0
    7e50:	e1a03001 	mov	r3, r1
    7e54:	e1a09103 	lsl	r9, r3, #2
    7e58:	e1899f22 	orr	r9, r9, r2, lsr #30
    7e5c:	e1a08102 	lsl	r8, r2, #2
    7e60:	e1a02008 	mov	r2, r8
    7e64:	e1a03009 	mov	r3, r9
    7e68:	e1a05283 	lsl	r5, r3, #5
    7e6c:	e1855da2 	orr	r5, r5, r2, lsr #27
    7e70:	e1a04282 	lsl	r4, r2, #5
    7e74:	e0544002 	subs	r4, r4, r2
    7e78:	e0c55003 	sbc	r5, r5, r3
    7e7c:	e0944000 	adds	r4, r4, r0
    7e80:	e0a55001 	adc	r5, r5, r1
    7e84:	e1a07185 	lsl	r7, r5, #3
    7e88:	e1877ea4 	orr	r7, r7, r4, lsr #29
    7e8c:	e1a06184 	lsl	r6, r4, #3
    7e90:	e1a04006 	mov	r4, r6
    7e94:	e1a05007 	mov	r5, r7
    7e98:	e1a02004 	mov	r2, r4
    7e9c:	e1a03005 	mov	r3, r5
    7ea0:	e1a00002 	mov	r0, r2
    7ea4:	e1a01003 	mov	r1, r3
    7ea8:	ebffff93 	bl	7cfc <tick_to_time>
    7eac:	e1a02000 	mov	r2, r0
    7eb0:	e1a03001 	mov	r3, r1
    7eb4:	e1a03002 	mov	r3, r2
    7eb8:	e1a00003 	mov	r0, r3
    7ebc:	e8bd8bf0 	pop	{r4, r5, r6, r7, r8, r9, fp, pc}

00007ec0 <timer_init>:
    7ec0:	e52db004 	push	{fp}		; (str fp, [sp, #-4]!)
    7ec4:	e28db000 	add	fp, sp, #0
    7ec8:	e24dd00c 	sub	sp, sp, #12
    7ecc:	e3a03000 	mov	r3, #0
    7ed0:	e50b3008 	str	r3, [fp, #-8]
    7ed4:	e30f3f03 	movw	r3, #65283	; 0xff03
    7ed8:	e50b300c 	str	r3, [fp, #-12]
    7edc:	e30b3f24 	movw	r3, #48932	; 0xbf24
    7ee0:	e3403001 	movt	r3, #1
    7ee4:	e5933000 	ldr	r3, [r3]
    7ee8:	e1a02003 	mov	r2, r3
    7eec:	e3e03000 	mvn	r3, #0
    7ef0:	e5823000 	str	r3, [r2]
    7ef4:	e30b3f24 	movw	r3, #48932	; 0xbf24
    7ef8:	e3403001 	movt	r3, #1
    7efc:	e5933000 	ldr	r3, [r3]
    7f00:	e5933008 	ldr	r3, [r3, #8]
    7f04:	e50b3008 	str	r3, [fp, #-8]
    7f08:	e51b3008 	ldr	r3, [fp, #-8]
    7f0c:	e3c33cff 	bic	r3, r3, #65280	; 0xff00
    7f10:	e50b3008 	str	r3, [fp, #-8]
    7f14:	e51b2008 	ldr	r2, [fp, #-8]
    7f18:	e51b300c 	ldr	r3, [fp, #-12]
    7f1c:	e1823003 	orr	r3, r2, r3
    7f20:	e50b3008 	str	r3, [fp, #-8]
    7f24:	e30b3f24 	movw	r3, #48932	; 0xbf24
    7f28:	e3403001 	movt	r3, #1
    7f2c:	e5933000 	ldr	r3, [r3]
    7f30:	e2833008 	add	r3, r3, #8
    7f34:	e51b2008 	ldr	r2, [fp, #-8]
    7f38:	e5832000 	str	r2, [r3]
    7f3c:	e3a03000 	mov	r3, #0
    7f40:	e1a00003 	mov	r0, r3
    7f44:	e24bd000 	sub	sp, fp, #0
    7f48:	e49db004 	pop	{fp}		; (ldr fp, [sp], #4)
    7f4c:	e12fff1e 	bx	lr

00007f50 <gtimer_init>:
    7f50:	e52db004 	push	{fp}		; (str fp, [sp, #-4]!)
    7f54:	e28db000 	add	fp, sp, #0
    7f58:	e24dd00c 	sub	sp, sp, #12
    7f5c:	e3a03000 	mov	r3, #0
    7f60:	e50b3008 	str	r3, [fp, #-8]
    7f64:	e30f3f01 	movw	r3, #65281	; 0xff01
    7f68:	e50b300c 	str	r3, [fp, #-12]
    7f6c:	e3a03f82 	mov	r3, #520	; 0x208
    7f70:	e34f38f0 	movt	r3, #63728	; 0xf8f0
    7f74:	e51b200c 	ldr	r2, [fp, #-12]
    7f78:	e5832000 	str	r2, [r3]
    7f7c:	e3a03000 	mov	r3, #0
    7f80:	e1a00003 	mov	r0, r3
    7f84:	e24bd000 	sub	sp, fp, #0
    7f88:	e49db004 	pop	{fp}		; (ldr fp, [sp], #4)
    7f8c:	e12fff1e 	bx	lr

00007f90 <gtimer_read_counter>:
    7f90:	e52db004 	push	{fp}		; (str fp, [sp, #-4]!)
    7f94:	e28db000 	add	fp, sp, #0
    7f98:	e24dd01c 	sub	sp, sp, #28
    7f9c:	e3a03000 	mov	r3, #0
    7fa0:	e50b3008 	str	r3, [fp, #-8]
    7fa4:	e3a03000 	mov	r3, #0
    7fa8:	e50b300c 	str	r3, [fp, #-12]
    7fac:	e3a03000 	mov	r3, #0
    7fb0:	e50b3010 	str	r3, [fp, #-16]
    7fb4:	e3a02000 	mov	r2, #0
    7fb8:	e3a03000 	mov	r3, #0
    7fbc:	e14b21fc 	strd	r2, [fp, #-28]	; 0xffffffe4
    7fc0:	e3a03f81 	mov	r3, #516	; 0x204
    7fc4:	e34f38f0 	movt	r3, #63728	; 0xf8f0
    7fc8:	e5933000 	ldr	r3, [r3]
    7fcc:	e50b300c 	str	r3, [fp, #-12]
    7fd0:	e3a03c02 	mov	r3, #512	; 0x200
    7fd4:	e34f38f0 	movt	r3, #63728	; 0xf8f0
    7fd8:	e5933000 	ldr	r3, [r3]
    7fdc:	e50b3008 	str	r3, [fp, #-8]
    7fe0:	e3a03f81 	mov	r3, #516	; 0x204
    7fe4:	e34f38f0 	movt	r3, #63728	; 0xf8f0
    7fe8:	e5933000 	ldr	r3, [r3]
    7fec:	e50b3010 	str	r3, [fp, #-16]
    7ff0:	e51b200c 	ldr	r2, [fp, #-12]
    7ff4:	e51b3010 	ldr	r3, [fp, #-16]
    7ff8:	e1520003 	cmp	r2, r3
    7ffc:	0a000003 	beq	8010 <gtimer_read_counter+0x80>
    8000:	e3a03c02 	mov	r3, #512	; 0x200
    8004:	e34f38f0 	movt	r3, #63728	; 0xf8f0
    8008:	e5933000 	ldr	r3, [r3]
    800c:	e50b3008 	str	r3, [fp, #-8]
    8010:	e3a03f81 	mov	r3, #516	; 0x204
    8014:	e34f38f0 	movt	r3, #63728	; 0xf8f0
    8018:	e5933000 	ldr	r3, [r3]
    801c:	e50b300c 	str	r3, [fp, #-12]
    8020:	e3a02000 	mov	r2, #0
    8024:	e51b3008 	ldr	r3, [fp, #-8]
    8028:	e1823003 	orr	r3, r2, r3
    802c:	e1a02003 	mov	r2, r3
    8030:	e3a03000 	mov	r3, #0
    8034:	e14b21fc 	strd	r2, [fp, #-28]	; 0xffffffe4
    8038:	e14b21dc 	ldrd	r2, [fp, #-28]	; 0xffffffe4
    803c:	e1a00002 	mov	r0, r2
    8040:	e1a01003 	mov	r1, r3
    8044:	e24bd000 	sub	sp, fp, #0
    8048:	e49db004 	pop	{fp}		; (ldr fp, [sp], #4)
    804c:	e12fff1e 	bx	lr

00008050 <gget_timer>:
    8050:	e92d4800 	push	{fp, lr}
    8054:	e28db004 	add	fp, sp, #4
    8058:	e24dd008 	sub	sp, sp, #8
    805c:	e50b0008 	str	r0, [fp, #-8]
    8060:	ebffffca 	bl	7f90 <gtimer_read_counter>
    8064:	e1a02000 	mov	r2, r0
    8068:	e1a03001 	mov	r3, r1
    806c:	e1a00002 	mov	r0, r2
    8070:	e1a01003 	mov	r1, r3
    8074:	ebffff20 	bl	7cfc <tick_to_time>
    8078:	e51b3008 	ldr	r3, [fp, #-8]
    807c:	e1a02003 	mov	r2, r3
    8080:	e3a03000 	mov	r3, #0
    8084:	e0502002 	subs	r2, r0, r2
    8088:	e0c13003 	sbc	r3, r1, r3
    808c:	e1a00002 	mov	r0, r2
    8090:	e1a01003 	mov	r1, r3
    8094:	e24bd004 	sub	sp, fp, #4
    8098:	e8bd8800 	pop	{fp, pc}

0000809c <gtimer_get_us>:
    809c:	e92d4bf0 	push	{r4, r5, r6, r7, r8, r9, fp, lr}
    80a0:	e28db01c 	add	fp, sp, #28
    80a4:	ebffffb9 	bl	7f90 <gtimer_read_counter>
    80a8:	e1a02000 	mov	r2, r0
    80ac:	e1a03001 	mov	r3, r1
    80b0:	e1a09103 	lsl	r9, r3, #2
    80b4:	e1899f22 	orr	r9, r9, r2, lsr #30
    80b8:	e1a08102 	lsl	r8, r2, #2
    80bc:	e1a02008 	mov	r2, r8
    80c0:	e1a03009 	mov	r3, r9
    80c4:	e1a05283 	lsl	r5, r3, #5
    80c8:	e1855da2 	orr	r5, r5, r2, lsr #27
    80cc:	e1a04282 	lsl	r4, r2, #5
    80d0:	e0544002 	subs	r4, r4, r2
    80d4:	e0c55003 	sbc	r5, r5, r3
    80d8:	e0944000 	adds	r4, r4, r0
    80dc:	e0a55001 	adc	r5, r5, r1
    80e0:	e1a07185 	lsl	r7, r5, #3
    80e4:	e1877ea4 	orr	r7, r7, r4, lsr #29
    80e8:	e1a06184 	lsl	r6, r4, #3
    80ec:	e1a04006 	mov	r4, r6
    80f0:	e1a05007 	mov	r5, r7
    80f4:	e1a02004 	mov	r2, r4
    80f8:	e1a03005 	mov	r3, r5
    80fc:	e1a00002 	mov	r0, r2
    8100:	e1a01003 	mov	r1, r3
    8104:	ebfffefc 	bl	7cfc <tick_to_time>
    8108:	e1a02000 	mov	r2, r0
    810c:	e1a03001 	mov	r3, r1
    8110:	e1a00002 	mov	r0, r2
    8114:	e1a01003 	mov	r1, r3
    8118:	e8bd8bf0 	pop	{r4, r5, r6, r7, r8, r9, fp, pc}

0000811c <uart_putc>:
    811c:	e52db004 	push	{fp}		; (str fp, [sp, #-4]!)
    8120:	e28db000 	add	fp, sp, #0
    8124:	e24dd00c 	sub	sp, sp, #12
    8128:	e1a03000 	mov	r3, r0
    812c:	e54b3005 	strb	r3, [fp, #-5]
    8130:	e1a00000 	nop			; (mov r0, r0)
    8134:	e301302c 	movw	r3, #4140	; 0x102c
    8138:	e34e3000 	movt	r3, #57344	; 0xe000
    813c:	e5933000 	ldr	r3, [r3]
    8140:	e2033010 	and	r3, r3, #16
    8144:	e3530000 	cmp	r3, #0
    8148:	1afffff9 	bne	8134 <uart_putc+0x18>
    814c:	e55b3005 	ldrb	r3, [fp, #-5]
    8150:	e353000a 	cmp	r3, #10
    8154:	1a00000a 	bne	8184 <uart_putc+0x68>
    8158:	e3013030 	movw	r3, #4144	; 0x1030
    815c:	e34e3000 	movt	r3, #57344	; 0xe000
    8160:	e3a0200d 	mov	r2, #13
    8164:	e5832000 	str	r2, [r3]
    8168:	e1a00000 	nop			; (mov r0, r0)
    816c:	e301302c 	movw	r3, #4140	; 0x102c
    8170:	e34e3000 	movt	r3, #57344	; 0xe000
    8174:	e5933000 	ldr	r3, [r3]
    8178:	e2033010 	and	r3, r3, #16
    817c:	e3530000 	cmp	r3, #0
    8180:	1afffff9 	bne	816c <uart_putc+0x50>
    8184:	e3013030 	movw	r3, #4144	; 0x1030
    8188:	e34e3000 	movt	r3, #57344	; 0xe000
    818c:	e55b2005 	ldrb	r2, [fp, #-5]
    8190:	e5832000 	str	r2, [r3]
    8194:	e24bd000 	sub	sp, fp, #0
    8198:	e49db004 	pop	{fp}		; (ldr fp, [sp], #4)
    819c:	e12fff1e 	bx	lr

000081a0 <uart_puts>:
    81a0:	e92d4800 	push	{fp, lr}
    81a4:	e28db004 	add	fp, sp, #4
    81a8:	e24dd008 	sub	sp, sp, #8
    81ac:	e50b0008 	str	r0, [fp, #-8]
    81b0:	ea000005 	b	81cc <uart_puts+0x2c>
    81b4:	e51b3008 	ldr	r3, [fp, #-8]
    81b8:	e2832001 	add	r2, r3, #1
    81bc:	e50b2008 	str	r2, [fp, #-8]
    81c0:	e5d33000 	ldrb	r3, [r3]
    81c4:	e1a00003 	mov	r0, r3
    81c8:	ebffffd3 	bl	811c <uart_putc>
    81cc:	e51b3008 	ldr	r3, [fp, #-8]
    81d0:	e5d33000 	ldrb	r3, [r3]
    81d4:	e3530000 	cmp	r3, #0
    81d8:	1afffff5 	bne	81b4 <uart_puts+0x14>
    81dc:	e24bd004 	sub	sp, fp, #4
    81e0:	e8bd8800 	pop	{fp, pc}

000081e4 <uart_init>:
    81e4:	e52db004 	push	{fp}		; (str fp, [sp, #-4]!)
    81e8:	e28db000 	add	fp, sp, #0
    81ec:	e3a03a01 	mov	r3, #4096	; 0x1000
    81f0:	e34e3000 	movt	r3, #57344	; 0xe000
    81f4:	e3a02017 	mov	r2, #23
    81f8:	e5832000 	str	r2, [r3]
    81fc:	e3013004 	movw	r3, #4100	; 0x1004
    8200:	e34e3000 	movt	r3, #57344	; 0xe000
    8204:	e3a02020 	mov	r2, #32
    8208:	e5832000 	str	r2, [r3]
    820c:	e3013018 	movw	r3, #4120	; 0x1018
    8210:	e34e3000 	movt	r3, #57344	; 0xe000
    8214:	e3a02056 	mov	r2, #86	; 0x56
    8218:	e5832000 	str	r2, [r3]
    821c:	e3013034 	movw	r3, #4148	; 0x1034
    8220:	e34e3000 	movt	r3, #57344	; 0xe000
    8224:	e3a02004 	mov	r2, #4
    8228:	e5832000 	str	r2, [r3]
    822c:	e24bd000 	sub	sp, fp, #0
    8230:	e49db004 	pop	{fp}		; (ldr fp, [sp], #4)
    8234:	e12fff1e 	bx	lr

00008238 <fmc_iic_axi_init>:
    8238:	e92d4800 	push	{fp, lr}
    823c:	e28db004 	add	fp, sp, #4
    8240:	e24dd020 	sub	sp, sp, #32
    8244:	e50b0018 	str	r0, [fp, #-24]	; 0xffffffe8
    8248:	e50b101c 	str	r1, [fp, #-28]	; 0xffffffe4
    824c:	e50b2020 	str	r2, [fp, #-32]	; 0xffffffe0
    8250:	e3023710 	movw	r3, #10000	; 0x2710
    8254:	e50b3008 	str	r3, [fp, #-8]
    8258:	e51b3018 	ldr	r3, [fp, #-24]	; 0xffffffe8
    825c:	e2833028 	add	r3, r3, #40	; 0x28
    8260:	e50b300c 	str	r3, [fp, #-12]
    8264:	e51b300c 	ldr	r3, [fp, #-12]
    8268:	e51b2020 	ldr	r2, [fp, #-32]	; 0xffffffe0
    826c:	e5832000 	str	r2, [r3]
    8270:	e51b300c 	ldr	r3, [fp, #-12]
    8274:	e5933000 	ldr	r3, [r3]
    8278:	e1a00003 	mov	r0, r3
    827c:	eb004a2d 	bl	1ab38 <XIic_DynInit>
    8280:	e50b0010 	str	r0, [fp, #-16]
    8284:	e51b3010 	ldr	r3, [fp, #-16]
    8288:	e3530000 	cmp	r3, #0
    828c:	0a000004 	beq	82a4 <fmc_iic_axi_init+0x6c>
    8290:	e30b0170 	movw	r0, #45424	; 0xb170
    8294:	e3400001 	movt	r0, #1
    8298:	ebffffc0 	bl	81a0 <uart_puts>
    829c:	e3a03000 	mov	r3, #0
    82a0:	ea000035 	b	837c <fmc_iic_axi_init+0x144>
    82a4:	e51b300c 	ldr	r3, [fp, #-12]
    82a8:	e5933000 	ldr	r3, [r3]
    82ac:	e2833f41 	add	r3, r3, #260	; 0x104
    82b0:	e1a00003 	mov	r0, r3
    82b4:	eb001e83 	bl	fcc8 <Xil_In8>
    82b8:	e1a03000 	mov	r3, r0
    82bc:	e54b3011 	strb	r3, [fp, #-17]	; 0xffffffef
    82c0:	e55b3011 	ldrb	r3, [fp, #-17]	; 0xffffffef
    82c4:	e3c3303b 	bic	r3, r3, #59	; 0x3b
    82c8:	e54b3011 	strb	r3, [fp, #-17]	; 0xffffffef
    82cc:	e51b3008 	ldr	r3, [fp, #-8]
    82d0:	e2432001 	sub	r2, r3, #1
    82d4:	e50b2008 	str	r2, [fp, #-8]
    82d8:	e3530000 	cmp	r3, #0
    82dc:	0a000002 	beq	82ec <fmc_iic_axi_init+0xb4>
    82e0:	e55b3011 	ldrb	r3, [fp, #-17]	; 0xffffffef
    82e4:	e35300c0 	cmp	r3, #192	; 0xc0
    82e8:	1affffed 	bne	82a4 <fmc_iic_axi_init+0x6c>
    82ec:	e51b3018 	ldr	r3, [fp, #-24]	; 0xffffffe8
    82f0:	e3a02001 	mov	r2, #1
    82f4:	e5832000 	str	r2, [r3]
    82f8:	e51b3018 	ldr	r3, [fp, #-24]	; 0xffffffe8
    82fc:	e2833004 	add	r3, r3, #4
    8300:	e1a00003 	mov	r0, r3
    8304:	e51b101c 	ldr	r1, [fp, #-28]	; 0xffffffe4
    8308:	eb0004b6 	bl	95e8 <strcpy>
    830c:	e51b3018 	ldr	r3, [fp, #-24]	; 0xffffffe8
    8310:	e51b200c 	ldr	r2, [fp, #-12]
    8314:	e5832024 	str	r2, [r3, #36]	; 0x24
    8318:	e51b2018 	ldr	r2, [fp, #-24]	; 0xffffffe8
    831c:	e3083388 	movw	r3, #33672	; 0x8388
    8320:	e3403000 	movt	r3, #0
    8324:	e5823048 	str	r3, [r2, #72]	; 0x48
    8328:	e51b2018 	ldr	r2, [fp, #-24]	; 0xffffffe8
    832c:	e30833d8 	movw	r3, #33752	; 0x83d8
    8330:	e3403000 	movt	r3, #0
    8334:	e582304c 	str	r3, [r2, #76]	; 0x4c
    8338:	e51b2018 	ldr	r2, [fp, #-24]	; 0xffffffe8
    833c:	e3083538 	movw	r3, #34104	; 0x8538
    8340:	e3403000 	movt	r3, #0
    8344:	e5823050 	str	r3, [r2, #80]	; 0x50
    8348:	e51b2018 	ldr	r2, [fp, #-24]	; 0xffffffe8
    834c:	e3083420 	movw	r3, #33824	; 0x8420
    8350:	e3403000 	movt	r3, #0
    8354:	e5823054 	str	r3, [r2, #84]	; 0x54
    8358:	e51b2018 	ldr	r2, [fp, #-24]	; 0xffffffe8
    835c:	e30837b0 	movw	r3, #34736	; 0x87b0
    8360:	e3403000 	movt	r3, #0
    8364:	e5823058 	str	r3, [r2, #88]	; 0x58
    8368:	e51b2018 	ldr	r2, [fp, #-24]	; 0xffffffe8
    836c:	e3083684 	movw	r3, #34436	; 0x8684
    8370:	e3403000 	movt	r3, #0
    8374:	e582305c 	str	r3, [r2, #92]	; 0x5c
    8378:	e3a03001 	mov	r3, #1
    837c:	e1a00003 	mov	r0, r3
    8380:	e24bd004 	sub	sp, fp, #4
    8384:	e8bd8800 	pop	{fp, pc}

00008388 <fmc_iic_axi_GpoRead>:
    8388:	e92d4800 	push	{fp, lr}
    838c:	e28db004 	add	fp, sp, #4
    8390:	e24dd010 	sub	sp, sp, #16
    8394:	e50b0010 	str	r0, [fp, #-16]
    8398:	e50b1014 	str	r1, [fp, #-20]	; 0xffffffec
    839c:	e51b3010 	ldr	r3, [fp, #-16]
    83a0:	e5933024 	ldr	r3, [r3, #36]	; 0x24
    83a4:	e50b3008 	str	r3, [fp, #-8]
    83a8:	e51b3008 	ldr	r3, [fp, #-8]
    83ac:	e5933000 	ldr	r3, [r3]
    83b0:	e2833f49 	add	r3, r3, #292	; 0x124
    83b4:	e1a00003 	mov	r0, r3
    83b8:	eb001e58 	bl	fd20 <Xil_In32>
    83bc:	e1a02000 	mov	r2, r0
    83c0:	e51b3014 	ldr	r3, [fp, #-20]	; 0xffffffec
    83c4:	e5832000 	str	r2, [r3]
    83c8:	e3a03001 	mov	r3, #1
    83cc:	e1a00003 	mov	r0, r3
    83d0:	e24bd004 	sub	sp, fp, #4
    83d4:	e8bd8800 	pop	{fp, pc}

000083d8 <fmc_iic_axi_GpoWrite>:
    83d8:	e92d4800 	push	{fp, lr}
    83dc:	e28db004 	add	fp, sp, #4
    83e0:	e24dd010 	sub	sp, sp, #16
    83e4:	e50b0010 	str	r0, [fp, #-16]
    83e8:	e50b1014 	str	r1, [fp, #-20]	; 0xffffffec
    83ec:	e51b3010 	ldr	r3, [fp, #-16]
    83f0:	e5933024 	ldr	r3, [r3, #36]	; 0x24
    83f4:	e50b3008 	str	r3, [fp, #-8]
    83f8:	e51b3008 	ldr	r3, [fp, #-8]
    83fc:	e5933000 	ldr	r3, [r3]
    8400:	e2833f49 	add	r3, r3, #292	; 0x124
    8404:	e1a00003 	mov	r0, r3
    8408:	e51b1014 	ldr	r1, [fp, #-20]	; 0xffffffec
    840c:	eb001e65 	bl	fda8 <Xil_Out32>
    8410:	e3a03001 	mov	r3, #1
    8414:	e1a00003 	mov	r0, r3
    8418:	e24bd004 	sub	sp, fp, #4
    841c:	e8bd8800 	pop	{fp, pc}

00008420 <fmc_iic_axi_IicWrite>:
    8420:	e92d4800 	push	{fp, lr}
    8424:	e28db004 	add	fp, sp, #4
    8428:	e24dd028 	sub	sp, sp, #40	; 0x28
    842c:	e50b0018 	str	r0, [fp, #-24]	; 0xffffffe8
    8430:	e50b3020 	str	r3, [fp, #-32]	; 0xffffffe0
    8434:	e1a03001 	mov	r3, r1
    8438:	e54b3019 	strb	r3, [fp, #-25]	; 0xffffffe7
    843c:	e1a03002 	mov	r3, r2
    8440:	e54b301a 	strb	r3, [fp, #-26]	; 0xffffffe6
    8444:	e51b3018 	ldr	r3, [fp, #-24]	; 0xffffffe8
    8448:	e5933024 	ldr	r3, [r3, #36]	; 0x24
    844c:	e50b300c 	str	r3, [fp, #-12]
    8450:	e51b300c 	ldr	r3, [fp, #-12]
    8454:	e5933000 	ldr	r3, [r3]
    8458:	e2833f41 	add	r3, r3, #260	; 0x104
    845c:	e1a00003 	mov	r0, r3
    8460:	eb001e18 	bl	fcc8 <Xil_In8>
    8464:	e1a03000 	mov	r3, r0
    8468:	e54b300d 	strb	r3, [fp, #-13]
    846c:	e55b300d 	ldrb	r3, [fp, #-13]
    8470:	e3c3303b 	bic	r3, r3, #59	; 0x3b
    8474:	e54b300d 	strb	r3, [fp, #-13]
    8478:	e55b300d 	ldrb	r3, [fp, #-13]
    847c:	e35300c0 	cmp	r3, #192	; 0xc0
    8480:	1afffff2 	bne	8450 <fmc_iic_axi_IicWrite+0x30>
    8484:	e55b301a 	ldrb	r3, [fp, #-26]	; 0xffffffe6
    8488:	e54b3010 	strb	r3, [fp, #-16]
    848c:	e3a03000 	mov	r3, #0
    8490:	e54b3006 	strb	r3, [fp, #-6]
    8494:	ea00000b 	b	84c8 <fmc_iic_axi_IicWrite+0xa8>
    8498:	e55b3006 	ldrb	r3, [fp, #-6]
    849c:	e2833001 	add	r3, r3, #1
    84a0:	e55b2006 	ldrb	r2, [fp, #-6]
    84a4:	e51b1020 	ldr	r1, [fp, #-32]	; 0xffffffe0
    84a8:	e0812002 	add	r2, r1, r2
    84ac:	e5d22000 	ldrb	r2, [r2]
    84b0:	e24b1004 	sub	r1, fp, #4
    84b4:	e0813003 	add	r3, r1, r3
    84b8:	e543200c 	strb	r2, [r3, #-12]
    84bc:	e55b3006 	ldrb	r3, [fp, #-6]
    84c0:	e2833001 	add	r3, r3, #1
    84c4:	e54b3006 	strb	r3, [fp, #-6]
    84c8:	e55b2006 	ldrb	r2, [fp, #-6]
    84cc:	e5db3004 	ldrb	r3, [fp, #4]
    84d0:	e1520003 	cmp	r2, r3
    84d4:	3affffef 	bcc	8498 <fmc_iic_axi_IicWrite+0x78>
    84d8:	e51b300c 	ldr	r3, [fp, #-12]
    84dc:	e5930000 	ldr	r0, [r3]
    84e0:	e55b3019 	ldrb	r3, [fp, #-25]	; 0xffffffe7
    84e4:	e6ff1073 	uxth	r1, r3
    84e8:	e5db3004 	ldrb	r3, [fp, #4]
    84ec:	e2833001 	add	r3, r3, #1
    84f0:	e6efc073 	uxtb	ip, r3
    84f4:	e24b2010 	sub	r2, fp, #16
    84f8:	e3a03000 	mov	r3, #0
    84fc:	e58d3000 	str	r3, [sp]
    8500:	e1a0300c 	mov	r3, ip
    8504:	eb0048d9 	bl	1a870 <XIic_DynSend>
    8508:	e1a03000 	mov	r3, r0
    850c:	e54b3005 	strb	r3, [fp, #-5]
    8510:	e55b3005 	ldrb	r3, [fp, #-5]
    8514:	e3530000 	cmp	r3, #0
    8518:	1a000001 	bne	8524 <fmc_iic_axi_IicWrite+0x104>
    851c:	e3a03001 	mov	r3, #1
    8520:	e54b3005 	strb	r3, [fp, #-5]
    8524:	e55b3005 	ldrb	r3, [fp, #-5]
    8528:	e2433001 	sub	r3, r3, #1
    852c:	e1a00003 	mov	r0, r3
    8530:	e24bd004 	sub	sp, fp, #4
    8534:	e8bd8800 	pop	{fp, pc}

00008538 <fmc_iic_axi_IicRead>:
    8538:	e92d4800 	push	{fp, lr}
    853c:	e28db004 	add	fp, sp, #4
    8540:	e24dd030 	sub	sp, sp, #48	; 0x30
    8544:	e50b0020 	str	r0, [fp, #-32]	; 0xffffffe0
    8548:	e50b3028 	str	r3, [fp, #-40]	; 0xffffffd8
    854c:	e1a03001 	mov	r3, r1
    8550:	e54b3021 	strb	r3, [fp, #-33]	; 0xffffffdf
    8554:	e1a03002 	mov	r3, r2
    8558:	e54b3022 	strb	r3, [fp, #-34]	; 0xffffffde
    855c:	e3a03000 	mov	r3, #0
    8560:	e54b300d 	strb	r3, [fp, #-13]
    8564:	e3a03000 	mov	r3, #0
    8568:	e54b3005 	strb	r3, [fp, #-5]
    856c:	e3a03001 	mov	r3, #1
    8570:	e50b3014 	str	r3, [fp, #-20]	; 0xffffffec
    8574:	e3a03000 	mov	r3, #0
    8578:	e50b300c 	str	r3, [fp, #-12]
    857c:	e51b3020 	ldr	r3, [fp, #-32]	; 0xffffffe0
    8580:	e5933024 	ldr	r3, [r3, #36]	; 0x24
    8584:	e50b3018 	str	r3, [fp, #-24]	; 0xffffffe8
    8588:	e51b3018 	ldr	r3, [fp, #-24]	; 0xffffffe8
    858c:	e5933000 	ldr	r3, [r3]
    8590:	e2833f41 	add	r3, r3, #260	; 0x104
    8594:	e1a00003 	mov	r0, r3
    8598:	eb001dca 	bl	fcc8 <Xil_In8>
    859c:	e1a03000 	mov	r3, r0
    85a0:	e54b3019 	strb	r3, [fp, #-25]	; 0xffffffe7
    85a4:	e55b3019 	ldrb	r3, [fp, #-25]	; 0xffffffe7
    85a8:	e3c3303b 	bic	r3, r3, #59	; 0x3b
    85ac:	e54b3019 	strb	r3, [fp, #-25]	; 0xffffffe7
    85b0:	e55b3019 	ldrb	r3, [fp, #-25]	; 0xffffffe7
    85b4:	e35300c0 	cmp	r3, #192	; 0xc0
    85b8:	1afffff2 	bne	8588 <fmc_iic_axi_IicRead+0x50>
    85bc:	e51b3018 	ldr	r3, [fp, #-24]	; 0xffffffe8
    85c0:	e5933000 	ldr	r3, [r3]
    85c4:	e2833f41 	add	r3, r3, #260	; 0x104
    85c8:	e1a00003 	mov	r0, r3
    85cc:	eb001dbd 	bl	fcc8 <Xil_In8>
    85d0:	e1a03000 	mov	r3, r0
    85d4:	e54b3019 	strb	r3, [fp, #-25]	; 0xffffffe7
    85d8:	e55b3019 	ldrb	r3, [fp, #-25]	; 0xffffffe7
    85dc:	e2033004 	and	r3, r3, #4
    85e0:	e3530000 	cmp	r3, #0
    85e4:	1a00000a 	bne	8614 <fmc_iic_axi_IicRead+0xdc>
    85e8:	e51b3018 	ldr	r3, [fp, #-24]	; 0xffffffe8
    85ec:	e5930000 	ldr	r0, [r3]
    85f0:	e55b3021 	ldrb	r3, [fp, #-33]	; 0xffffffdf
    85f4:	e6ff1073 	uxth	r1, r3
    85f8:	e24b2022 	sub	r2, fp, #34	; 0x22
    85fc:	e3a03001 	mov	r3, #1
    8600:	e58d3000 	str	r3, [sp]
    8604:	e3a03001 	mov	r3, #1
    8608:	eb004898 	bl	1a870 <XIic_DynSend>
    860c:	e1a03000 	mov	r3, r0
    8610:	e54b3005 	strb	r3, [fp, #-5]
    8614:	e51b300c 	ldr	r3, [fp, #-12]
    8618:	e2833001 	add	r3, r3, #1
    861c:	e50b300c 	str	r3, [fp, #-12]
    8620:	e55b3005 	ldrb	r3, [fp, #-5]
    8624:	e3530001 	cmp	r3, #1
    8628:	0a000002 	beq	8638 <fmc_iic_axi_IicRead+0x100>
    862c:	e51b300c 	ldr	r3, [fp, #-12]
    8630:	e3530063 	cmp	r3, #99	; 0x63
    8634:	daffffe0 	ble	85bc <fmc_iic_axi_IicRead+0x84>
    8638:	e55b3005 	ldrb	r3, [fp, #-5]
    863c:	e3530000 	cmp	r3, #0
    8640:	1a000001 	bne	864c <fmc_iic_axi_IicRead+0x114>
    8644:	e55b3005 	ldrb	r3, [fp, #-5]
    8648:	ea00000a 	b	8678 <fmc_iic_axi_IicRead+0x140>
    864c:	e51b3018 	ldr	r3, [fp, #-24]	; 0xffffffe8
    8650:	e5931000 	ldr	r1, [r3]
    8654:	e55b2021 	ldrb	r2, [fp, #-33]	; 0xffffffdf
    8658:	e5db3004 	ldrb	r3, [fp, #4]
    865c:	e1a00001 	mov	r0, r1
    8660:	e1a01002 	mov	r1, r2
    8664:	e51b2028 	ldr	r2, [fp, #-40]	; 0xffffffd8
    8668:	eb0047f6 	bl	1a648 <XIic_DynRecv>
    866c:	e1a03000 	mov	r3, r0
    8670:	e54b300d 	strb	r3, [fp, #-13]
    8674:	e55b300d 	ldrb	r3, [fp, #-13]
    8678:	e1a00003 	mov	r0, r3
    867c:	e24bd004 	sub	sp, fp, #4
    8680:	e8bd8800 	pop	{fp, pc}

00008684 <fmc_iic_axi_IicEWrite>:
    8684:	e92d4800 	push	{fp, lr}
    8688:	e28db004 	add	fp, sp, #4
    868c:	e24dd028 	sub	sp, sp, #40	; 0x28
    8690:	e50b0018 	str	r0, [fp, #-24]	; 0xffffffe8
    8694:	e50b3020 	str	r3, [fp, #-32]	; 0xffffffe0
    8698:	e1a03001 	mov	r3, r1
    869c:	e54b3019 	strb	r3, [fp, #-25]	; 0xffffffe7
    86a0:	e14b21bc 	strh	r2, [fp, #-28]	; 0xffffffe4
    86a4:	e51b3018 	ldr	r3, [fp, #-24]	; 0xffffffe8
    86a8:	e5933024 	ldr	r3, [r3, #36]	; 0x24
    86ac:	e50b300c 	str	r3, [fp, #-12]
    86b0:	e51b300c 	ldr	r3, [fp, #-12]
    86b4:	e5933000 	ldr	r3, [r3]
    86b8:	e2833f41 	add	r3, r3, #260	; 0x104
    86bc:	e1a00003 	mov	r0, r3
    86c0:	eb001d80 	bl	fcc8 <Xil_In8>
    86c4:	e1a03000 	mov	r3, r0
    86c8:	e54b300d 	strb	r3, [fp, #-13]
    86cc:	e55b300d 	ldrb	r3, [fp, #-13]
    86d0:	e3c3303b 	bic	r3, r3, #59	; 0x3b
    86d4:	e54b300d 	strb	r3, [fp, #-13]
    86d8:	e55b300d 	ldrb	r3, [fp, #-13]
    86dc:	e35300c0 	cmp	r3, #192	; 0xc0
    86e0:	1afffff2 	bne	86b0 <fmc_iic_axi_IicEWrite+0x2c>
    86e4:	e15b31bc 	ldrh	r3, [fp, #-28]	; 0xffffffe4
    86e8:	e1a03423 	lsr	r3, r3, #8
    86ec:	e6ff3073 	uxth	r3, r3
    86f0:	e6ef3073 	uxtb	r3, r3
    86f4:	e54b3010 	strb	r3, [fp, #-16]
    86f8:	e15b31bc 	ldrh	r3, [fp, #-28]	; 0xffffffe4
    86fc:	e6ef3073 	uxtb	r3, r3
    8700:	e54b300f 	strb	r3, [fp, #-15]
    8704:	e3a03000 	mov	r3, #0
    8708:	e54b3006 	strb	r3, [fp, #-6]
    870c:	ea00000b 	b	8740 <fmc_iic_axi_IicEWrite+0xbc>
    8710:	e55b3006 	ldrb	r3, [fp, #-6]
    8714:	e2833002 	add	r3, r3, #2
    8718:	e55b2006 	ldrb	r2, [fp, #-6]
    871c:	e51b1020 	ldr	r1, [fp, #-32]	; 0xffffffe0
    8720:	e0812002 	add	r2, r1, r2
    8724:	e5d22000 	ldrb	r2, [r2]
    8728:	e24b1004 	sub	r1, fp, #4
    872c:	e0813003 	add	r3, r1, r3
    8730:	e543200c 	strb	r2, [r3, #-12]
    8734:	e55b3006 	ldrb	r3, [fp, #-6]
    8738:	e2833001 	add	r3, r3, #1
    873c:	e54b3006 	strb	r3, [fp, #-6]
    8740:	e55b2006 	ldrb	r2, [fp, #-6]
    8744:	e5db3004 	ldrb	r3, [fp, #4]
    8748:	e1520003 	cmp	r2, r3
    874c:	3affffef 	bcc	8710 <fmc_iic_axi_IicEWrite+0x8c>
    8750:	e51b300c 	ldr	r3, [fp, #-12]
    8754:	e5930000 	ldr	r0, [r3]
    8758:	e55b3019 	ldrb	r3, [fp, #-25]	; 0xffffffe7
    875c:	e6ff1073 	uxth	r1, r3
    8760:	e5db3004 	ldrb	r3, [fp, #4]
    8764:	e2833002 	add	r3, r3, #2
    8768:	e6efc073 	uxtb	ip, r3
    876c:	e24b2010 	sub	r2, fp, #16
    8770:	e3a03000 	mov	r3, #0
    8774:	e58d3000 	str	r3, [sp]
    8778:	e1a0300c 	mov	r3, ip
    877c:	eb00483b 	bl	1a870 <XIic_DynSend>
    8780:	e1a03000 	mov	r3, r0
    8784:	e54b3005 	strb	r3, [fp, #-5]
    8788:	e55b3005 	ldrb	r3, [fp, #-5]
    878c:	e3530000 	cmp	r3, #0
    8790:	1a000001 	bne	879c <fmc_iic_axi_IicEWrite+0x118>
    8794:	e3a03001 	mov	r3, #1
    8798:	e54b3005 	strb	r3, [fp, #-5]
    879c:	e55b3005 	ldrb	r3, [fp, #-5]
    87a0:	e2433001 	sub	r3, r3, #1
    87a4:	e1a00003 	mov	r0, r3
    87a8:	e24bd004 	sub	sp, fp, #4
    87ac:	e8bd8800 	pop	{fp, pc}

000087b0 <fmc_iic_axi_IicERead>:
    87b0:	e92d4800 	push	{fp, lr}
    87b4:	e28db004 	add	fp, sp, #4
    87b8:	e24dd030 	sub	sp, sp, #48	; 0x30
    87bc:	e50b0020 	str	r0, [fp, #-32]	; 0xffffffe0
    87c0:	e50b3028 	str	r3, [fp, #-40]	; 0xffffffd8
    87c4:	e1a03001 	mov	r3, r1
    87c8:	e54b3021 	strb	r3, [fp, #-33]	; 0xffffffdf
    87cc:	e14b22b4 	strh	r2, [fp, #-36]	; 0xffffffdc
    87d0:	e3a03000 	mov	r3, #0
    87d4:	e54b300d 	strb	r3, [fp, #-13]
    87d8:	e3a03000 	mov	r3, #0
    87dc:	e54b3005 	strb	r3, [fp, #-5]
    87e0:	e3a03001 	mov	r3, #1
    87e4:	e50b3014 	str	r3, [fp, #-20]	; 0xffffffec
    87e8:	e3a03000 	mov	r3, #0
    87ec:	e50b300c 	str	r3, [fp, #-12]
    87f0:	e51b3020 	ldr	r3, [fp, #-32]	; 0xffffffe0
    87f4:	e5933024 	ldr	r3, [r3, #36]	; 0x24
    87f8:	e50b3018 	str	r3, [fp, #-24]	; 0xffffffe8
    87fc:	e51b3018 	ldr	r3, [fp, #-24]	; 0xffffffe8
    8800:	e5933000 	ldr	r3, [r3]
    8804:	e2833f41 	add	r3, r3, #260	; 0x104
    8808:	e1a00003 	mov	r0, r3
    880c:	eb001d2d 	bl	fcc8 <Xil_In8>
    8810:	e1a03000 	mov	r3, r0
    8814:	e54b3019 	strb	r3, [fp, #-25]	; 0xffffffe7
    8818:	e55b3019 	ldrb	r3, [fp, #-25]	; 0xffffffe7
    881c:	e3c3303b 	bic	r3, r3, #59	; 0x3b
    8820:	e54b3019 	strb	r3, [fp, #-25]	; 0xffffffe7
    8824:	e55b3019 	ldrb	r3, [fp, #-25]	; 0xffffffe7
    8828:	e35300c0 	cmp	r3, #192	; 0xc0
    882c:	1afffff2 	bne	87fc <fmc_iic_axi_IicERead+0x4c>
    8830:	e15b32b4 	ldrh	r3, [fp, #-36]	; 0xffffffdc
    8834:	e1a03423 	lsr	r3, r3, #8
    8838:	e6ff3073 	uxth	r3, r3
    883c:	e6ef3073 	uxtb	r3, r3
    8840:	e54b301c 	strb	r3, [fp, #-28]	; 0xffffffe4
    8844:	e15b32b4 	ldrh	r3, [fp, #-36]	; 0xffffffdc
    8848:	e6ef3073 	uxtb	r3, r3
    884c:	e54b301b 	strb	r3, [fp, #-27]	; 0xffffffe5
    8850:	e51b3018 	ldr	r3, [fp, #-24]	; 0xffffffe8
    8854:	e5933000 	ldr	r3, [r3]
    8858:	e2833f41 	add	r3, r3, #260	; 0x104
    885c:	e1a00003 	mov	r0, r3
    8860:	eb001d18 	bl	fcc8 <Xil_In8>
    8864:	e1a03000 	mov	r3, r0
    8868:	e54b3019 	strb	r3, [fp, #-25]	; 0xffffffe7
    886c:	e55b3019 	ldrb	r3, [fp, #-25]	; 0xffffffe7
    8870:	e2033004 	and	r3, r3, #4
    8874:	e3530000 	cmp	r3, #0
    8878:	1a00000a 	bne	88a8 <fmc_iic_axi_IicERead+0xf8>
    887c:	e51b3018 	ldr	r3, [fp, #-24]	; 0xffffffe8
    8880:	e5930000 	ldr	r0, [r3]
    8884:	e55b3021 	ldrb	r3, [fp, #-33]	; 0xffffffdf
    8888:	e6ff1073 	uxth	r1, r3
    888c:	e24b201c 	sub	r2, fp, #28
    8890:	e3a03001 	mov	r3, #1
    8894:	e58d3000 	str	r3, [sp]
    8898:	e3a03002 	mov	r3, #2
    889c:	eb0047f3 	bl	1a870 <XIic_DynSend>
    88a0:	e1a03000 	mov	r3, r0
    88a4:	e54b3005 	strb	r3, [fp, #-5]
    88a8:	e51b300c 	ldr	r3, [fp, #-12]
    88ac:	e2833001 	add	r3, r3, #1
    88b0:	e50b300c 	str	r3, [fp, #-12]
    88b4:	e55b3005 	ldrb	r3, [fp, #-5]
    88b8:	e3530001 	cmp	r3, #1
    88bc:	0a000002 	beq	88cc <fmc_iic_axi_IicERead+0x11c>
    88c0:	e51b300c 	ldr	r3, [fp, #-12]
    88c4:	e3530063 	cmp	r3, #99	; 0x63
    88c8:	daffffe0 	ble	8850 <fmc_iic_axi_IicERead+0xa0>
    88cc:	e55b3005 	ldrb	r3, [fp, #-5]
    88d0:	e3530000 	cmp	r3, #0
    88d4:	1a000001 	bne	88e0 <fmc_iic_axi_IicERead+0x130>
    88d8:	e55b3005 	ldrb	r3, [fp, #-5]
    88dc:	ea00000a 	b	890c <fmc_iic_axi_IicERead+0x15c>
    88e0:	e51b3018 	ldr	r3, [fp, #-24]	; 0xffffffe8
    88e4:	e5931000 	ldr	r1, [r3]
    88e8:	e55b2021 	ldrb	r2, [fp, #-33]	; 0xffffffdf
    88ec:	e5db3004 	ldrb	r3, [fp, #4]
    88f0:	e1a00001 	mov	r0, r1
    88f4:	e1a01002 	mov	r1, r2
    88f8:	e51b2028 	ldr	r2, [fp, #-40]	; 0xffffffd8
    88fc:	eb004751 	bl	1a648 <XIic_DynRecv>
    8900:	e1a03000 	mov	r3, r0
    8904:	e54b300d 	strb	r3, [fp, #-13]
    8908:	e55b300d 	ldrb	r3, [fp, #-13]
    890c:	e1a00003 	mov	r0, r3
    8910:	e24bd004 	sub	sp, fp, #4
    8914:	e8bd8800 	pop	{fp, pc}

00008918 <memcpy_cus>:
    8918:	e52db004 	push	{fp}		; (str fp, [sp, #-4]!)
    891c:	e28db000 	add	fp, sp, #0
    8920:	e24dd024 	sub	sp, sp, #36	; 0x24
    8924:	e50b0018 	str	r0, [fp, #-24]	; 0xffffffe8
    8928:	e50b101c 	str	r1, [fp, #-28]	; 0xffffffe4
    892c:	e50b2020 	str	r2, [fp, #-32]	; 0xffffffe0
    8930:	e51b3018 	ldr	r3, [fp, #-24]	; 0xffffffe8
    8934:	e50b300c 	str	r3, [fp, #-12]
    8938:	e51b301c 	ldr	r3, [fp, #-28]	; 0xffffffe4
    893c:	e50b3010 	str	r3, [fp, #-16]
    8940:	e3a03000 	mov	r3, #0
    8944:	e50b3008 	str	r3, [fp, #-8]
    8948:	ea00000a 	b	8978 <memcpy_cus+0x60>
    894c:	e51b200c 	ldr	r2, [fp, #-12]
    8950:	e51b3008 	ldr	r3, [fp, #-8]
    8954:	e0823003 	add	r3, r2, r3
    8958:	e51b1010 	ldr	r1, [fp, #-16]
    895c:	e51b2008 	ldr	r2, [fp, #-8]
    8960:	e0812002 	add	r2, r1, r2
    8964:	e5d22000 	ldrb	r2, [r2]
    8968:	e5c32000 	strb	r2, [r3]
    896c:	e51b3008 	ldr	r3, [fp, #-8]
    8970:	e2833001 	add	r3, r3, #1
    8974:	e50b3008 	str	r3, [fp, #-8]
    8978:	e51b2008 	ldr	r2, [fp, #-8]
    897c:	e51b3020 	ldr	r3, [fp, #-32]	; 0xffffffe0
    8980:	e1520003 	cmp	r2, r3
    8984:	3afffff0 	bcc	894c <memcpy_cus+0x34>
    8988:	e51b3018 	ldr	r3, [fp, #-24]	; 0xffffffe8
    898c:	e1a00003 	mov	r0, r3
    8990:	e24bd000 	sub	sp, fp, #0
    8994:	e49db004 	pop	{fp}		; (ldr fp, [sp], #4)
    8998:	e12fff1e 	bx	lr

0000899c <XHls_macc_LookupConfig>:
    899c:	e52db004 	push	{fp}		; (str fp, [sp, #-4]!)
    89a0:	e28db000 	add	fp, sp, #0
    89a4:	e24dd014 	sub	sp, sp, #20
    89a8:	e1a03000 	mov	r3, r0
    89ac:	e14b30be 	strh	r3, [fp, #-14]
    89b0:	e3a03000 	mov	r3, #0
    89b4:	e50b3008 	str	r3, [fp, #-8]
    89b8:	e3a03000 	mov	r3, #0
    89bc:	e50b300c 	str	r3, [fp, #-12]
    89c0:	ea000012 	b	8a10 <XHls_macc_LookupConfig+0x74>
    89c4:	e30b3f28 	movw	r3, #48936	; 0xbf28
    89c8:	e3403001 	movt	r3, #1
    89cc:	e51b200c 	ldr	r2, [fp, #-12]
    89d0:	e1a02182 	lsl	r2, r2, #3
    89d4:	e0833002 	add	r3, r3, r2
    89d8:	e1d330b0 	ldrh	r3, [r3]
    89dc:	e15b20be 	ldrh	r2, [fp, #-14]
    89e0:	e1520003 	cmp	r2, r3
    89e4:	1a000006 	bne	8a04 <XHls_macc_LookupConfig+0x68>
    89e8:	e51b300c 	ldr	r3, [fp, #-12]
    89ec:	e1a02183 	lsl	r2, r3, #3
    89f0:	e30b3f28 	movw	r3, #48936	; 0xbf28
    89f4:	e3403001 	movt	r3, #1
    89f8:	e0823003 	add	r3, r2, r3
    89fc:	e50b3008 	str	r3, [fp, #-8]
    8a00:	ea000005 	b	8a1c <XHls_macc_LookupConfig+0x80>
    8a04:	e51b300c 	ldr	r3, [fp, #-12]
    8a08:	e2833001 	add	r3, r3, #1
    8a0c:	e50b300c 	str	r3, [fp, #-12]
    8a10:	e51b300c 	ldr	r3, [fp, #-12]
    8a14:	e3530000 	cmp	r3, #0
    8a18:	daffffe9 	ble	89c4 <XHls_macc_LookupConfig+0x28>
    8a1c:	e51b3008 	ldr	r3, [fp, #-8]
    8a20:	e1a00003 	mov	r0, r3
    8a24:	e24bd000 	sub	sp, fp, #0
    8a28:	e49db004 	pop	{fp}		; (ldr fp, [sp], #4)
    8a2c:	e12fff1e 	bx	lr

00008a30 <hls_macc_init>:
    8a30:	e92d4800 	push	{fp, lr}
    8a34:	e28db004 	add	fp, sp, #4
    8a38:	e24dd010 	sub	sp, sp, #16
    8a3c:	e50b0010 	str	r0, [fp, #-16]
    8a40:	e3a00000 	mov	r0, #0
    8a44:	ebffffd4 	bl	899c <XHls_macc_LookupConfig>
    8a48:	e50b0008 	str	r0, [fp, #-8]
    8a4c:	e51b3008 	ldr	r3, [fp, #-8]
    8a50:	e3530000 	cmp	r3, #0
    8a54:	1a000004 	bne	8a6c <hls_macc_init+0x3c>
    8a58:	e30b0194 	movw	r0, #45460	; 0xb194
    8a5c:	e3400001 	movt	r0, #1
    8a60:	ebfffdce 	bl	81a0 <uart_puts>
    8a64:	e3a03001 	mov	r3, #1
    8a68:	ea00000c 	b	8aa0 <hls_macc_init+0x70>
    8a6c:	e51b0010 	ldr	r0, [fp, #-16]
    8a70:	e51b1008 	ldr	r1, [fp, #-8]
    8a74:	eb003da0 	bl	180fc <XHls_macc_CfgInitialize>
    8a78:	e50b000c 	str	r0, [fp, #-12]
    8a7c:	e51b300c 	ldr	r3, [fp, #-12]
    8a80:	e3530000 	cmp	r3, #0
    8a84:	0a000004 	beq	8a9c <hls_macc_init+0x6c>
    8a88:	e30b01c8 	movw	r0, #45512	; 0xb1c8
    8a8c:	e3400001 	movt	r0, #1
    8a90:	ebfffdc2 	bl	81a0 <uart_puts>
    8a94:	e3a03001 	mov	r3, #1
    8a98:	ea000000 	b	8aa0 <hls_macc_init+0x70>
    8a9c:	e51b300c 	ldr	r3, [fp, #-12]
    8aa0:	e1a00003 	mov	r0, r3
    8aa4:	e24bd004 	sub	sp, fp, #4
    8aa8:	e8bd8800 	pop	{fp, pc}

00008aac <hls_macc_start>:
    8aac:	e92d4800 	push	{fp, lr}
    8ab0:	e28db004 	add	fp, sp, #4
    8ab4:	e24dd010 	sub	sp, sp, #16
    8ab8:	e50b0010 	str	r0, [fp, #-16]
    8abc:	e51b3010 	ldr	r3, [fp, #-16]
    8ac0:	e50b3008 	str	r3, [fp, #-8]
    8ac4:	e51b0008 	ldr	r0, [fp, #-8]
    8ac8:	e3a01001 	mov	r1, #1
    8acc:	eb0041c1 	bl	191d8 <XHls_macc_InterruptEnable>
    8ad0:	e51b0008 	ldr	r0, [fp, #-8]
    8ad4:	eb00415d 	bl	19050 <XHls_macc_InterruptGlobalEnable>
    8ad8:	e51b0008 	ldr	r0, [fp, #-8]
    8adc:	eb003dba 	bl	181cc <XHls_macc_Start>
    8ae0:	e24bd004 	sub	sp, fp, #4
    8ae4:	e8bd8800 	pop	{fp, pc}

00008ae8 <fmc_imageon_hdmi_framebuffer_init>:
    8ae8:	e92d4800 	push	{fp, lr}
    8aec:	e28db004 	add	fp, sp, #4
    8af0:	e24dd098 	sub	sp, sp, #152	; 0x98
    8af4:	e50b0090 	str	r0, [fp, #-144]	; 0xffffff70
    8af8:	e3a03000 	mov	r3, #0
    8afc:	e50b3038 	str	r3, [fp, #-56]	; 0xffffffc8
    8b00:	e3a03000 	mov	r3, #0
    8b04:	e50b3008 	str	r3, [fp, #-8]
    8b08:	e3a03a2f 	mov	r3, #192512	; 0x2f000
    8b0c:	e50b303c 	str	r3, [fp, #-60]	; 0xffffffc4
    8b10:	e3a03064 	mov	r3, #100	; 0x64
    8b14:	e50b300c 	str	r3, [fp, #-12]
    8b18:	e3a03000 	mov	r3, #0
    8b1c:	e50b3010 	str	r3, [fp, #-16]
    8b20:	e51b3090 	ldr	r3, [fp, #-144]	; 0xffffff70
    8b24:	e283201c 	add	r2, r3, #28
    8b28:	e51b3090 	ldr	r3, [fp, #-144]	; 0xffffff70
    8b2c:	e5933000 	ldr	r3, [r3]
    8b30:	e1a00002 	mov	r0, r2
    8b34:	e30b11f4 	movw	r1, #45556	; 0xb1f4
    8b38:	e3401001 	movt	r1, #1
    8b3c:	e1a02003 	mov	r2, r3
    8b40:	ebfffdbc 	bl	8238 <fmc_iic_axi_init>
    8b44:	e50b0040 	str	r0, [fp, #-64]	; 0xffffffc0
    8b48:	e51b3040 	ldr	r3, [fp, #-64]	; 0xffffffc0
    8b4c:	e3530000 	cmp	r3, #0
    8b50:	1a000002 	bne	8b60 <fmc_imageon_hdmi_framebuffer_init+0x78>
    8b54:	e30b0210 	movw	r0, #45584	; 0xb210
    8b58:	e3400001 	movt	r0, #1
    8b5c:	ebfffd8f 	bl	81a0 <uart_puts>
    8b60:	e51b3090 	ldr	r3, [fp, #-144]	; 0xffffff70
    8b64:	e283207c 	add	r2, r3, #124	; 0x7c
    8b68:	e51b3090 	ldr	r3, [fp, #-144]	; 0xffffff70
    8b6c:	e283301c 	add	r3, r3, #28
    8b70:	e1a00002 	mov	r0, r2
    8b74:	e30b1238 	movw	r1, #45624	; 0xb238
    8b78:	e3401001 	movt	r1, #1
    8b7c:	e1a02003 	mov	r2, r3
    8b80:	eb0002b2 	bl	9650 <fmc_imageon_init>
    8b84:	e51b3090 	ldr	r3, [fp, #-144]	; 0xffffff70
    8b88:	e5932bd0 	ldr	r2, [r3, #3024]	; 0xbd0
    8b8c:	e51b3090 	ldr	r3, [fp, #-144]	; 0xffffff70
    8b90:	e58320a8 	str	r2, [r3, #168]	; 0xa8
    8b94:	e51b3090 	ldr	r3, [fp, #-144]	; 0xffffff70
    8b98:	e283307c 	add	r3, r3, #124	; 0x7c
    8b9c:	e1a00003 	mov	r0, r3
    8ba0:	eb0003e8 	bl	9b48 <fmc_imageon_vclk_init>
    8ba4:	e51b3090 	ldr	r3, [fp, #-144]	; 0xffffff70
    8ba8:	e283307c 	add	r3, r3, #124	; 0x7c
    8bac:	e1a00003 	mov	r0, r3
    8bb0:	e3a01004 	mov	r1, #4
    8bb4:	eb000410 	bl	9bfc <fmc_imageon_vclk_config>
    8bb8:	e51b3090 	ldr	r3, [fp, #-144]	; 0xffffff70
    8bbc:	e283307c 	add	r3, r3, #124	; 0x7c
    8bc0:	e1a00003 	mov	r0, r3
    8bc4:	e3a01001 	mov	r1, #1
    8bc8:	e3a02001 	mov	r2, #1
    8bcc:	e30b3f30 	movw	r3, #48944	; 0xbf30
    8bd0:	e3403001 	movt	r3, #1
    8bd4:	eb0005bd 	bl	a2d0 <fmc_imageon_hdmii_init>
    8bd8:	e50b0040 	str	r0, [fp, #-64]	; 0xffffffc0
    8bdc:	e51b3040 	ldr	r3, [fp, #-64]	; 0xffffffc0
    8be0:	e3530000 	cmp	r3, #0
    8be4:	1a000002 	bne	8bf4 <fmc_imageon_hdmi_framebuffer_init+0x10c>
    8be8:	e30b0244 	movw	r0, #45636	; 0xb244
    8bec:	e3400001 	movt	r0, #1
    8bf0:	ebfffd6a 	bl	81a0 <uart_puts>
    8bf4:	e51b3090 	ldr	r3, [fp, #-144]	; 0xffffff70
    8bf8:	e283307c 	add	r3, r3, #124	; 0x7c
    8bfc:	e1a00003 	mov	r0, r3
    8c00:	e3a01004 	mov	r1, #4
    8c04:	eb0003fc 	bl	9bfc <fmc_imageon_vclk_config>
    8c08:	e3a00001 	mov	r0, #1
    8c0c:	eb001ce5 	bl	ffa8 <sleep>
    8c10:	e51b3090 	ldr	r3, [fp, #-144]	; 0xffffff70
    8c14:	e3a02005 	mov	r2, #5
    8c18:	e5832bdc 	str	r2, [r3, #3036]	; 0xbdc
    8c1c:	e51b3090 	ldr	r3, [fp, #-144]	; 0xffffff70
    8c20:	e3a02c05 	mov	r2, #1280	; 0x500
    8c24:	e5832bd4 	str	r2, [r3, #3028]	; 0xbd4
    8c28:	e51b3090 	ldr	r3, [fp, #-144]	; 0xffffff70
    8c2c:	e3a02e2d 	mov	r2, #720	; 0x2d0
    8c30:	e5832bd8 	str	r2, [r3, #3032]	; 0xbd8
    8c34:	e51b3090 	ldr	r3, [fp, #-144]	; 0xffffff70
    8c38:	e3a02000 	mov	r2, #0
    8c3c:	e5832be0 	str	r2, [r3, #3040]	; 0xbe0
    8c40:	e51b3090 	ldr	r3, [fp, #-144]	; 0xffffff70
    8c44:	e3a02000 	mov	r2, #0
    8c48:	e5832be4 	str	r2, [r3, #3044]	; 0xbe4
    8c4c:	e51b3090 	ldr	r3, [fp, #-144]	; 0xffffff70
    8c50:	e3a02000 	mov	r2, #0
    8c54:	e5832be8 	str	r2, [r3, #3048]	; 0xbe8
    8c58:	e51b3090 	ldr	r3, [fp, #-144]	; 0xffffff70
    8c5c:	e3a02008 	mov	r2, #8
    8c60:	e5832bec 	str	r2, [r3, #3052]	; 0xbec
    8c64:	e51b3090 	ldr	r3, [fp, #-144]	; 0xffffff70
    8c68:	e3a02c05 	mov	r2, #1280	; 0x500
    8c6c:	e5832bf0 	str	r2, [r3, #3056]	; 0xbf0
    8c70:	e51b3090 	ldr	r3, [fp, #-144]	; 0xffffff70
    8c74:	e3a0206e 	mov	r2, #110	; 0x6e
    8c78:	e5832bf4 	str	r2, [r3, #3060]	; 0xbf4
    8c7c:	e51b3090 	ldr	r3, [fp, #-144]	; 0xffffff70
    8c80:	e3a02028 	mov	r2, #40	; 0x28
    8c84:	e5832bf8 	str	r2, [r3, #3064]	; 0xbf8
    8c88:	e51b3090 	ldr	r3, [fp, #-144]	; 0xffffff70
    8c8c:	e3a02001 	mov	r2, #1
    8c90:	e5832c00 	str	r2, [r3, #3072]	; 0xc00
    8c94:	e51b3090 	ldr	r3, [fp, #-144]	; 0xffffff70
    8c98:	e3a020dc 	mov	r2, #220	; 0xdc
    8c9c:	e5832bfc 	str	r2, [r3, #3068]	; 0xbfc
    8ca0:	e51b3090 	ldr	r3, [fp, #-144]	; 0xffffff70
    8ca4:	e3a02e2d 	mov	r2, #720	; 0x2d0
    8ca8:	e5832c04 	str	r2, [r3, #3076]	; 0xc04
    8cac:	e51b3090 	ldr	r3, [fp, #-144]	; 0xffffff70
    8cb0:	e3a02005 	mov	r2, #5
    8cb4:	e5832c08 	str	r2, [r3, #3080]	; 0xc08
    8cb8:	e51b3090 	ldr	r3, [fp, #-144]	; 0xffffff70
    8cbc:	e3a02005 	mov	r2, #5
    8cc0:	e5832c0c 	str	r2, [r3, #3084]	; 0xc0c
    8cc4:	e51b3090 	ldr	r3, [fp, #-144]	; 0xffffff70
    8cc8:	e3a02001 	mov	r2, #1
    8ccc:	e5832c14 	str	r2, [r3, #3092]	; 0xc14
    8cd0:	e51b3090 	ldr	r3, [fp, #-144]	; 0xffffff70
    8cd4:	e3a02014 	mov	r2, #20
    8cd8:	e5832c10 	str	r2, [r3, #3088]	; 0xc10
    8cdc:	e51b3090 	ldr	r3, [fp, #-144]	; 0xffffff70
    8ce0:	e283207c 	add	r2, r3, #124	; 0x7c
    8ce4:	e51b3090 	ldr	r3, [fp, #-144]	; 0xffffff70
    8ce8:	e2833ebe 	add	r3, r3, #3040	; 0xbe0
    8cec:	e1a00002 	mov	r0, r2
    8cf0:	e3a01001 	mov	r1, #1
    8cf4:	e1a02003 	mov	r2, r3
    8cf8:	e3a03000 	mov	r3, #0
    8cfc:	eb00075d 	bl	aa78 <fmc_imageon_hdmio_init>
    8d00:	e50b0040 	str	r0, [fp, #-64]	; 0xffffffc0
    8d04:	e51b3040 	ldr	r3, [fp, #-64]	; 0xffffffc0
    8d08:	e3530000 	cmp	r3, #0
    8d0c:	1a000002 	bne	8d1c <fmc_imageon_hdmi_framebuffer_init+0x234>
    8d10:	e30b0274 	movw	r0, #45684	; 0xb274
    8d14:	e3400001 	movt	r0, #1
    8d18:	ebfffd20 	bl	81a0 <uart_puts>
    8d1c:	e51b3090 	ldr	r3, [fp, #-144]	; 0xffffff70
    8d20:	e5933014 	ldr	r3, [r3, #20]
    8d24:	e1a02003 	mov	r2, r3
    8d28:	e1a03682 	lsl	r3, r2, #13
    8d2c:	e1a02003 	mov	r2, r3
    8d30:	e1a03202 	lsl	r3, r2, #4
    8d34:	e0623003 	rsb	r3, r2, r3
    8d38:	e1a02203 	lsl	r2, r3, #4
    8d3c:	e0633002 	rsb	r3, r3, r2
    8d40:	e50b3044 	str	r3, [fp, #-68]	; 0xffffffbc
    8d44:	e51b3090 	ldr	r3, [fp, #-144]	; 0xffffff70
    8d48:	e5933010 	ldr	r3, [r3, #16]
    8d4c:	e50b3018 	str	r3, [fp, #-24]	; 0xffffffe8
    8d50:	e3a03000 	mov	r3, #0
    8d54:	e50b3014 	str	r3, [fp, #-20]	; 0xffffffec
    8d58:	ea00000c 	b	8d90 <fmc_imageon_hdmi_framebuffer_init+0x2a8>
    8d5c:	e51b3018 	ldr	r3, [fp, #-24]	; 0xffffffe8
    8d60:	e2832001 	add	r2, r3, #1
    8d64:	e50b2018 	str	r2, [fp, #-24]	; 0xffffffe8
    8d68:	e3e0207f 	mvn	r2, #127	; 0x7f
    8d6c:	e5c32000 	strb	r2, [r3]
    8d70:	e51b3018 	ldr	r3, [fp, #-24]	; 0xffffffe8
    8d74:	e2832001 	add	r2, r3, #1
    8d78:	e50b2018 	str	r2, [fp, #-24]	; 0xffffffe8
    8d7c:	e3a02000 	mov	r2, #0
    8d80:	e5c32000 	strb	r2, [r3]
    8d84:	e51b3014 	ldr	r3, [fp, #-20]	; 0xffffffec
    8d88:	e2833002 	add	r3, r3, #2
    8d8c:	e50b3014 	str	r3, [fp, #-20]	; 0xffffffec
    8d90:	e51b2014 	ldr	r2, [fp, #-20]	; 0xffffffec
    8d94:	e51b3044 	ldr	r3, [fp, #-68]	; 0xffffffbc
    8d98:	e1520003 	cmp	r2, r3
    8d9c:	3affffee 	bcc	8d5c <fmc_imageon_hdmi_framebuffer_init+0x274>
    8da0:	e51b3090 	ldr	r3, [fp, #-144]	; 0xffffff70
    8da4:	e5933010 	ldr	r3, [r3, #16]
    8da8:	e2833401 	add	r3, r3, #16777216	; 0x1000000
    8dac:	e50b301c 	str	r3, [fp, #-28]	; 0xffffffe4
    8db0:	e3a03000 	mov	r3, #0
    8db4:	e50b3014 	str	r3, [fp, #-20]	; 0xffffffec
    8db8:	ea00000c 	b	8df0 <fmc_imageon_hdmi_framebuffer_init+0x308>
    8dbc:	e51b301c 	ldr	r3, [fp, #-28]	; 0xffffffe4
    8dc0:	e2832001 	add	r2, r3, #1
    8dc4:	e50b201c 	str	r2, [fp, #-28]	; 0xffffffe4
    8dc8:	e3a02040 	mov	r2, #64	; 0x40
    8dcc:	e5c32000 	strb	r2, [r3]
    8dd0:	e51b301c 	ldr	r3, [fp, #-28]	; 0xffffffe4
    8dd4:	e2832001 	add	r2, r3, #1
    8dd8:	e50b201c 	str	r2, [fp, #-28]	; 0xffffffe4
    8ddc:	e3a02020 	mov	r2, #32
    8de0:	e5c32000 	strb	r2, [r3]
    8de4:	e51b3014 	ldr	r3, [fp, #-20]	; 0xffffffec
    8de8:	e2833002 	add	r3, r3, #2
    8dec:	e50b3014 	str	r3, [fp, #-20]	; 0xffffffec
    8df0:	e51b2014 	ldr	r2, [fp, #-20]	; 0xffffffec
    8df4:	e51b3044 	ldr	r3, [fp, #-68]	; 0xffffffbc
    8df8:	e1520003 	cmp	r2, r3
    8dfc:	3affffee 	bcc	8dbc <fmc_imageon_hdmi_framebuffer_init+0x2d4>
    8e00:	e51b3090 	ldr	r3, [fp, #-144]	; 0xffffff70
    8e04:	e593300c 	ldr	r3, [r3, #12]
    8e08:	e6ff2073 	uxth	r2, r3
    8e0c:	e51b3090 	ldr	r3, [fp, #-144]	; 0xffffff70
    8e10:	e2833e12 	add	r3, r3, #288	; 0x120
    8e14:	e1a00002 	mov	r0, r2
    8e18:	e1a01003 	mov	r1, r3
    8e1c:	eb000960 	bl	b3a4 <vfb_common_init>
    8e20:	e51b3090 	ldr	r3, [fp, #-144]	; 0xffffff70
    8e24:	e2830e12 	add	r0, r3, #288	; 0x120
    8e28:	e51b3090 	ldr	r3, [fp, #-144]	; 0xffffff70
    8e2c:	e2831d2a 	add	r1, r3, #2688	; 0xa80
    8e30:	e51b3090 	ldr	r3, [fp, #-144]	; 0xffffff70
    8e34:	e593ebdc 	ldr	lr, [r3, #3036]	; 0xbdc
    8e38:	e51b3090 	ldr	r3, [fp, #-144]	; 0xffffff70
    8e3c:	e593cbdc 	ldr	ip, [r3, #3036]	; 0xbdc
    8e40:	e51b3090 	ldr	r3, [fp, #-144]	; 0xffffff70
    8e44:	e5933010 	ldr	r3, [r3, #16]
    8e48:	e2832401 	add	r2, r3, #16777216	; 0x1000000
    8e4c:	e51b3090 	ldr	r3, [fp, #-144]	; 0xffffff70
    8e50:	e5933014 	ldr	r3, [r3, #20]
    8e54:	e58d2000 	str	r2, [sp]
    8e58:	e58d3004 	str	r3, [sp, #4]
    8e5c:	e1a0200e 	mov	r2, lr
    8e60:	e1a0300c 	mov	r3, ip
    8e64:	eb00099e 	bl	b4e4 <vfb_tx_init>
    8e68:	e51b3090 	ldr	r3, [fp, #-144]	; 0xffffff70
    8e6c:	e28320e0 	add	r2, r3, #224	; 0xe0
    8e70:	e51b3090 	ldr	r3, [fp, #-144]	; 0xffffff70
    8e74:	e5933008 	ldr	r3, [r3, #8]
    8e78:	e6ff3073 	uxth	r3, r3
    8e7c:	e1a00002 	mov	r0, r2
    8e80:	e1a01003 	mov	r1, r3
    8e84:	eb000c1a 	bl	bef4 <vgen_init>
    8e88:	e51b3090 	ldr	r3, [fp, #-144]	; 0xffffff70
    8e8c:	e28320e0 	add	r2, r3, #224	; 0xe0
    8e90:	e51b3090 	ldr	r3, [fp, #-144]	; 0xffffff70
    8e94:	e5933bdc 	ldr	r3, [r3, #3036]	; 0xbdc
    8e98:	e1a00002 	mov	r0, r2
    8e9c:	e1a01003 	mov	r1, r3
    8ea0:	e3a02001 	mov	r2, #1
    8ea4:	eb000c31 	bl	bf70 <vgen_config>
    8ea8:	e3a03000 	mov	r3, #0
    8eac:	e50b3048 	str	r3, [fp, #-72]	; 0xffffffb8
    8eb0:	e30c0754 	movw	r0, #51028	; 0xc754
    8eb4:	e3400001 	movt	r0, #1
    8eb8:	ebfffedc 	bl	8a30 <hls_macc_init>
    8ebc:	e50b004c 	str	r0, [fp, #-76]	; 0xffffffb4
    8ec0:	e51b304c 	ldr	r3, [fp, #-76]	; 0xffffffb4
    8ec4:	e3530000 	cmp	r3, #0
    8ec8:	0a000002 	beq	8ed8 <fmc_imageon_hdmi_framebuffer_init+0x3f0>
    8ecc:	e30b02a4 	movw	r0, #45732	; 0xb2a4
    8ed0:	e3400001 	movt	r0, #1
    8ed4:	ebfffcb1 	bl	81a0 <uart_puts>
    8ed8:	e51b3010 	ldr	r3, [fp, #-16]
    8edc:	e2833001 	add	r3, r3, #1
    8ee0:	e50b3010 	str	r3, [fp, #-16]
    8ee4:	e51b3090 	ldr	r3, [fp, #-144]	; 0xffffff70
    8ee8:	e3a02000 	mov	r2, #0
    8eec:	e5832c18 	str	r2, [r3, #3096]	; 0xc18
    8ef0:	e3a03064 	mov	r3, #100	; 0x64
    8ef4:	e50b300c 	str	r3, [fp, #-12]
    8ef8:	ea00000a 	b	8f28 <fmc_imageon_hdmi_framebuffer_init+0x440>
    8efc:	e51b3090 	ldr	r3, [fp, #-144]	; 0xffffff70
    8f00:	e283307c 	add	r3, r3, #124	; 0x7c
    8f04:	e1a00003 	mov	r0, r3
    8f08:	eb0005dc 	bl	a680 <fmc_imageon_hdmii_get_lock>
    8f0c:	e1a03000 	mov	r3, r0
    8f10:	e1a02003 	mov	r2, r3
    8f14:	e51b3090 	ldr	r3, [fp, #-144]	; 0xffffff70
    8f18:	e5832c18 	str	r2, [r3, #3096]	; 0xc18
    8f1c:	e30806a0 	movw	r0, #34464	; 0x86a0
    8f20:	e3400001 	movt	r0, #1
    8f24:	eb001c4b 	bl	10058 <usleep>
    8f28:	e51b3090 	ldr	r3, [fp, #-144]	; 0xffffff70
    8f2c:	e5933c18 	ldr	r3, [r3, #3096]	; 0xc18
    8f30:	e3530000 	cmp	r3, #0
    8f34:	1a000004 	bne	8f4c <fmc_imageon_hdmi_framebuffer_init+0x464>
    8f38:	e51b300c 	ldr	r3, [fp, #-12]
    8f3c:	e2432001 	sub	r2, r3, #1
    8f40:	e50b200c 	str	r2, [fp, #-12]
    8f44:	e3530000 	cmp	r3, #0
    8f48:	1affffeb 	bne	8efc <fmc_imageon_hdmi_framebuffer_init+0x414>
    8f4c:	e51b3090 	ldr	r3, [fp, #-144]	; 0xffffff70
    8f50:	e5933c18 	ldr	r3, [r3, #3096]	; 0xc18
    8f54:	e3530000 	cmp	r3, #0
    8f58:	1a000003 	bne	8f6c <fmc_imageon_hdmi_framebuffer_init+0x484>
    8f5c:	e30b02c4 	movw	r0, #45764	; 0xb2c4
    8f60:	e3400001 	movt	r0, #1
    8f64:	ebfffc8d 	bl	81a0 <uart_puts>
    8f68:	ea00019d 	b	95e4 <fmc_imageon_hdmi_framebuffer_init+0xafc>
    8f6c:	e51b3090 	ldr	r3, [fp, #-144]	; 0xffffff70
    8f70:	e283207c 	add	r2, r3, #124	; 0x7c
    8f74:	e51b3090 	ldr	r3, [fp, #-144]	; 0xffffff70
    8f78:	e2833ec2 	add	r3, r3, #3104	; 0xc20
    8f7c:	e2833008 	add	r3, r3, #8
    8f80:	e1a00002 	mov	r0, r2
    8f84:	e1a01003 	mov	r1, r3
    8f88:	eb0005df 	bl	a70c <fmc_imageon_hdmii_get_timing>
    8f8c:	e51b3090 	ldr	r3, [fp, #-144]	; 0xffffff70
    8f90:	e5932c38 	ldr	r2, [r3, #3128]	; 0xc38
    8f94:	e51b3090 	ldr	r3, [fp, #-144]	; 0xffffff70
    8f98:	e5832c1c 	str	r2, [r3, #3100]	; 0xc1c
    8f9c:	e51b3090 	ldr	r3, [fp, #-144]	; 0xffffff70
    8fa0:	e5932c4c 	ldr	r2, [r3, #3148]	; 0xc4c
    8fa4:	e51b3090 	ldr	r3, [fp, #-144]	; 0xffffff70
    8fa8:	e5832c20 	str	r2, [r3, #3104]	; 0xc20
    8fac:	e51b3090 	ldr	r3, [fp, #-144]	; 0xffffff70
    8fb0:	e5932c1c 	ldr	r2, [r3, #3100]	; 0xc1c
    8fb4:	e51b3090 	ldr	r3, [fp, #-144]	; 0xffffff70
    8fb8:	e5933c20 	ldr	r3, [r3, #3104]	; 0xc20
    8fbc:	e1a00002 	mov	r0, r2
    8fc0:	e1a01003 	mov	r1, r3
    8fc4:	eb000df8 	bl	c7ac <vres_detect>
    8fc8:	e1a03000 	mov	r3, r0
    8fcc:	e1a02003 	mov	r2, r3
    8fd0:	e51b3090 	ldr	r3, [fp, #-144]	; 0xffffff70
    8fd4:	e5832c24 	str	r2, [r3, #3108]	; 0xc24
    8fd8:	e51b3090 	ldr	r3, [fp, #-144]	; 0xffffff70
    8fdc:	e5933c24 	ldr	r3, [r3, #3108]	; 0xc24
    8fe0:	e3730001 	cmn	r3, #1
    8fe4:	1a000003 	bne	8ff8 <fmc_imageon_hdmi_framebuffer_init+0x510>
    8fe8:	e30b0304 	movw	r0, #45828	; 0xb304
    8fec:	e3400001 	movt	r0, #1
    8ff0:	ebfffc6a 	bl	81a0 <uart_puts>
    8ff4:	ea00017a 	b	95e4 <fmc_imageon_hdmi_framebuffer_init+0xafc>
    8ff8:	e51b3090 	ldr	r3, [fp, #-144]	; 0xffffff70
    8ffc:	e28320ac 	add	r2, r3, #172	; 0xac
    9000:	e51b3090 	ldr	r3, [fp, #-144]	; 0xffffff70
    9004:	e5933004 	ldr	r3, [r3, #4]
    9008:	e1a00002 	mov	r0, r2
    900c:	e1a01003 	mov	r1, r3
    9010:	eb0008b7 	bl	b2f4 <vdet_init>
    9014:	e51b3090 	ldr	r3, [fp, #-144]	; 0xffffff70
    9018:	e28330ac 	add	r3, r3, #172	; 0xac
    901c:	e1a00003 	mov	r0, r3
    9020:	eb0008d2 	bl	b370 <vdet_reset>
    9024:	e51b3090 	ldr	r3, [fp, #-144]	; 0xffffff70
    9028:	e2833e12 	add	r3, r3, #288	; 0x120
    902c:	e1a00003 	mov	r0, r3
    9030:	eb000a50 	bl	b978 <vfb_rx_stop>
    9034:	e51b3090 	ldr	r3, [fp, #-144]	; 0xffffff70
    9038:	e5933014 	ldr	r3, [r3, #20]
    903c:	e1a02003 	mov	r2, r3
    9040:	e1a03682 	lsl	r3, r2, #13
    9044:	e1a02003 	mov	r2, r3
    9048:	e1a03202 	lsl	r3, r2, #4
    904c:	e0623003 	rsb	r3, r2, r3
    9050:	e1a02203 	lsl	r2, r3, #4
    9054:	e0633002 	rsb	r3, r3, r2
    9058:	e50b3050 	str	r3, [fp, #-80]	; 0xffffffb0
    905c:	e51b3090 	ldr	r3, [fp, #-144]	; 0xffffff70
    9060:	e5933010 	ldr	r3, [r3, #16]
    9064:	e50b3024 	str	r3, [fp, #-36]	; 0xffffffdc
    9068:	e51b3090 	ldr	r3, [fp, #-144]	; 0xffffff70
    906c:	e5933010 	ldr	r3, [r3, #16]
    9070:	e2833402 	add	r3, r3, #33554432	; 0x2000000
    9074:	e50b3054 	str	r3, [fp, #-84]	; 0xffffffac
    9078:	e51b3010 	ldr	r3, [fp, #-16]
    907c:	e353000a 	cmp	r3, #10
    9080:	1a000003 	bne	9094 <fmc_imageon_hdmi_framebuffer_init+0x5ac>
    9084:	e51b0054 	ldr	r0, [fp, #-84]	; 0xffffffac
    9088:	e51b1024 	ldr	r1, [fp, #-36]	; 0xffffffdc
    908c:	e51b2050 	ldr	r2, [fp, #-80]	; 0xffffffb0
    9090:	ebfffe20 	bl	8918 <memcpy_cus>
    9094:	e51b3054 	ldr	r3, [fp, #-84]	; 0xffffffac
    9098:	e50b3028 	str	r3, [fp, #-40]	; 0xffffffd8
    909c:	e51b3090 	ldr	r3, [fp, #-144]	; 0xffffff70
    90a0:	e5933010 	ldr	r3, [r3, #16]
    90a4:	e2833401 	add	r3, r3, #16777216	; 0x1000000
    90a8:	e50b302c 	str	r3, [fp, #-44]	; 0xffffffd4
    90ac:	e51b3054 	ldr	r3, [fp, #-84]	; 0xffffffac
    90b0:	e50b3058 	str	r3, [fp, #-88]	; 0xffffffa8
    90b4:	e51b3024 	ldr	r3, [fp, #-36]	; 0xffffffdc
    90b8:	e50b305c 	str	r3, [fp, #-92]	; 0xffffffa4
    90bc:	e51b302c 	ldr	r3, [fp, #-44]	; 0xffffffd4
    90c0:	e50b3060 	str	r3, [fp, #-96]	; 0xffffffa0
    90c4:	e51b3050 	ldr	r3, [fp, #-80]	; 0xffffffb0
    90c8:	e50b3064 	str	r3, [fp, #-100]	; 0xffffff9c
    90cc:	e3a03000 	mov	r3, #0
    90d0:	e50b3020 	str	r3, [fp, #-32]	; 0xffffffe0
    90d4:	ea000031 	b	91a0 <fmc_imageon_hdmi_framebuffer_init+0x6b8>
    90d8:	e51b3024 	ldr	r3, [fp, #-36]	; 0xffffffdc
    90dc:	e5d33000 	ldrb	r3, [r3]
    90e0:	e6ef3073 	uxtb	r3, r3
    90e4:	e1a02003 	mov	r2, r3
    90e8:	e51b3028 	ldr	r3, [fp, #-40]	; 0xffffffd8
    90ec:	e5d33000 	ldrb	r3, [r3]
    90f0:	e6ef3073 	uxtb	r3, r3
    90f4:	e0633002 	rsb	r3, r3, r2
    90f8:	e353000a 	cmp	r3, #10
    90fc:	ca000009 	bgt	9128 <fmc_imageon_hdmi_framebuffer_init+0x640>
    9100:	e51b3028 	ldr	r3, [fp, #-40]	; 0xffffffd8
    9104:	e5d33000 	ldrb	r3, [r3]
    9108:	e6ef3073 	uxtb	r3, r3
    910c:	e1a02003 	mov	r2, r3
    9110:	e51b3024 	ldr	r3, [fp, #-36]	; 0xffffffdc
    9114:	e5d33000 	ldrb	r3, [r3]
    9118:	e6ef3073 	uxtb	r3, r3
    911c:	e0633002 	rsb	r3, r3, r2
    9120:	e353000a 	cmp	r3, #10
    9124:	da00000a 	ble	9154 <fmc_imageon_hdmi_framebuffer_init+0x66c>
    9128:	e51b302c 	ldr	r3, [fp, #-44]	; 0xffffffd4
    912c:	e2832001 	add	r2, r3, #1
    9130:	e50b202c 	str	r2, [fp, #-44]	; 0xffffffd4
    9134:	e3e02000 	mvn	r2, #0
    9138:	e5c32000 	strb	r2, [r3]
    913c:	e51b302c 	ldr	r3, [fp, #-44]	; 0xffffffd4
    9140:	e2832001 	add	r2, r3, #1
    9144:	e50b202c 	str	r2, [fp, #-44]	; 0xffffffd4
    9148:	e3e02000 	mvn	r2, #0
    914c:	e5c32000 	strb	r2, [r3]
    9150:	ea000009 	b	917c <fmc_imageon_hdmi_framebuffer_init+0x694>
    9154:	e51b302c 	ldr	r3, [fp, #-44]	; 0xffffffd4
    9158:	e2832001 	add	r2, r3, #1
    915c:	e50b202c 	str	r2, [fp, #-44]	; 0xffffffd4
    9160:	e3a02000 	mov	r2, #0
    9164:	e5c32000 	strb	r2, [r3]
    9168:	e51b302c 	ldr	r3, [fp, #-44]	; 0xffffffd4
    916c:	e2832001 	add	r2, r3, #1
    9170:	e50b202c 	str	r2, [fp, #-44]	; 0xffffffd4
    9174:	e3a02000 	mov	r2, #0
    9178:	e5c32000 	strb	r2, [r3]
    917c:	e51b3028 	ldr	r3, [fp, #-40]	; 0xffffffd8
    9180:	e2833002 	add	r3, r3, #2
    9184:	e50b3028 	str	r3, [fp, #-40]	; 0xffffffd8
    9188:	e51b3024 	ldr	r3, [fp, #-36]	; 0xffffffdc
    918c:	e2833002 	add	r3, r3, #2
    9190:	e50b3024 	str	r3, [fp, #-36]	; 0xffffffdc
    9194:	e51b3020 	ldr	r3, [fp, #-32]	; 0xffffffe0
    9198:	e2833002 	add	r3, r3, #2
    919c:	e50b3020 	str	r3, [fp, #-32]	; 0xffffffe0
    91a0:	e51b2020 	ldr	r2, [fp, #-32]	; 0xffffffe0
    91a4:	e51b3050 	ldr	r3, [fp, #-80]	; 0xffffffb0
    91a8:	e1520003 	cmp	r2, r3
    91ac:	3affffc9 	bcc	90d8 <fmc_imageon_hdmi_framebuffer_init+0x5f0>
    91b0:	e51b3090 	ldr	r3, [fp, #-144]	; 0xffffff70
    91b4:	e2830e12 	add	r0, r3, #288	; 0x120
    91b8:	e51b3090 	ldr	r3, [fp, #-144]	; 0xffffff70
    91bc:	e2833eb2 	add	r3, r3, #2848	; 0xb20
    91c0:	e2833008 	add	r3, r3, #8
    91c4:	e51b2090 	ldr	r2, [fp, #-144]	; 0xffffff70
    91c8:	e592ec24 	ldr	lr, [r2, #3108]	; 0xc24
    91cc:	e51b2090 	ldr	r2, [fp, #-144]	; 0xffffff70
    91d0:	e592cbdc 	ldr	ip, [r2, #3036]	; 0xbdc
    91d4:	e51b2090 	ldr	r2, [fp, #-144]	; 0xffffff70
    91d8:	e5921010 	ldr	r1, [r2, #16]
    91dc:	e51b2090 	ldr	r2, [fp, #-144]	; 0xffffff70
    91e0:	e5922014 	ldr	r2, [r2, #20]
    91e4:	e58d1000 	str	r1, [sp]
    91e8:	e58d2004 	str	r2, [sp, #4]
    91ec:	e1a01003 	mov	r1, r3
    91f0:	e1a0200e 	mov	r2, lr
    91f4:	e1a0300c 	mov	r3, ip
    91f8:	eb000894 	bl	b450 <vfb_rx_init>
    91fc:	e51b3090 	ldr	r3, [fp, #-144]	; 0xffffff70
    9200:	e283207c 	add	r2, r3, #124	; 0x7c
    9204:	e51b3090 	ldr	r3, [fp, #-144]	; 0xffffff70
    9208:	e2833ebe 	add	r3, r3, #3040	; 0xbe0
    920c:	e1a00002 	mov	r0, r2
    9210:	e3a01001 	mov	r1, #1
    9214:	e1a02003 	mov	r2, r3
    9218:	e3a03000 	mov	r3, #0
    921c:	eb000615 	bl	aa78 <fmc_imageon_hdmio_init>
    9220:	e50b0040 	str	r0, [fp, #-64]	; 0xffffffc0
    9224:	e51b3040 	ldr	r3, [fp, #-64]	; 0xffffffc0
    9228:	e3530000 	cmp	r3, #0
    922c:	1a000002 	bne	923c <fmc_imageon_hdmi_framebuffer_init+0x754>
    9230:	e30b0274 	movw	r0, #45684	; 0xb274
    9234:	e3400001 	movt	r0, #1
    9238:	ebfffbd8 	bl	81a0 <uart_puts>
    923c:	e51b3010 	ldr	r3, [fp, #-16]
    9240:	e353000b 	cmp	r3, #11
    9244:	9a0000e6 	bls	95e4 <fmc_imageon_hdmi_framebuffer_init+0xafc>
    9248:	e51b3090 	ldr	r3, [fp, #-144]	; 0xffffff70
    924c:	e5933010 	ldr	r3, [r3, #16]
    9250:	e2833403 	add	r3, r3, #50331648	; 0x3000000
    9254:	e50b3068 	str	r3, [fp, #-104]	; 0xffffff98
    9258:	e51b3090 	ldr	r3, [fp, #-144]	; 0xffffff70
    925c:	e5933010 	ldr	r3, [r3, #16]
    9260:	e2833301 	add	r3, r3, #67108864	; 0x4000000
    9264:	e50b306c 	str	r3, [fp, #-108]	; 0xffffff94
    9268:	e51b3090 	ldr	r3, [fp, #-144]	; 0xffffff70
    926c:	e5933010 	ldr	r3, [r3, #16]
    9270:	e2833405 	add	r3, r3, #83886080	; 0x5000000
    9274:	e50b3070 	str	r3, [fp, #-112]	; 0xffffff90
    9278:	e51b3090 	ldr	r3, [fp, #-144]	; 0xffffff70
    927c:	e5933010 	ldr	r3, [r3, #16]
    9280:	e2833406 	add	r3, r3, #100663296	; 0x6000000
    9284:	e50b3074 	str	r3, [fp, #-116]	; 0xffffff8c
    9288:	e51b3090 	ldr	r3, [fp, #-144]	; 0xffffff70
    928c:	e5933010 	ldr	r3, [r3, #16]
    9290:	e2833407 	add	r3, r3, #117440512	; 0x7000000
    9294:	e50b3078 	str	r3, [fp, #-120]	; 0xffffff88
    9298:	e51b3090 	ldr	r3, [fp, #-144]	; 0xffffff70
    929c:	e5933010 	ldr	r3, [r3, #16]
    92a0:	e2833302 	add	r3, r3, #134217728	; 0x8000000
    92a4:	e50b307c 	str	r3, [fp, #-124]	; 0xffffff84
    92a8:	e51b3090 	ldr	r3, [fp, #-144]	; 0xffffff70
    92ac:	e5933010 	ldr	r3, [r3, #16]
    92b0:	e2833409 	add	r3, r3, #150994944	; 0x9000000
    92b4:	e50b3080 	str	r3, [fp, #-128]	; 0xffffff80
    92b8:	e3a03000 	mov	r3, #0
    92bc:	e50b3030 	str	r3, [fp, #-48]	; 0xffffffd0
    92c0:	e3a03000 	mov	r3, #0
    92c4:	e50b3034 	str	r3, [fp, #-52]	; 0xffffffcc
    92c8:	e51b3090 	ldr	r3, [fp, #-144]	; 0xffffff70
    92cc:	e5933010 	ldr	r3, [r3, #16]
    92d0:	e50b3084 	str	r3, [fp, #-132]	; 0xffffff7c
    92d4:	e51b3090 	ldr	r3, [fp, #-144]	; 0xffffff70
    92d8:	e5933010 	ldr	r3, [r3, #16]
    92dc:	e2833402 	add	r3, r3, #33554432	; 0x2000000
    92e0:	e50b3088 	str	r3, [fp, #-136]	; 0xffffff78
    92e4:	e51b3010 	ldr	r3, [fp, #-16]
    92e8:	e353000a 	cmp	r3, #10
    92ec:	1a000003 	bne	9300 <fmc_imageon_hdmi_framebuffer_init+0x818>
    92f0:	e51b0088 	ldr	r0, [fp, #-136]	; 0xffffff78
    92f4:	e51b1084 	ldr	r1, [fp, #-132]	; 0xffffff7c
    92f8:	e51b2050 	ldr	r2, [fp, #-80]	; 0xffffffb0
    92fc:	ebfffd85 	bl	8918 <memcpy_cus>
    9300:	e51b3030 	ldr	r3, [fp, #-48]	; 0xffffffd0
    9304:	e2833001 	add	r3, r3, #1
    9308:	e50b3030 	str	r3, [fp, #-48]	; 0xffffffd0
    930c:	e51b3030 	ldr	r3, [fp, #-48]	; 0xffffffd0
    9310:	e353000a 	cmp	r3, #10
    9314:	1a000004 	bne	932c <fmc_imageon_hdmi_framebuffer_init+0x844>
    9318:	e51b3060 	ldr	r3, [fp, #-96]	; 0xffffffa0
    931c:	e51b0068 	ldr	r0, [fp, #-104]	; 0xffffff98
    9320:	e1a01003 	mov	r1, r3
    9324:	e51b2050 	ldr	r2, [fp, #-80]	; 0xffffffb0
    9328:	ebfffd7a 	bl	8918 <memcpy_cus>
    932c:	e51b3030 	ldr	r3, [fp, #-48]	; 0xffffffd0
    9330:	e353000b 	cmp	r3, #11
    9334:	1a000004 	bne	934c <fmc_imageon_hdmi_framebuffer_init+0x864>
    9338:	e51b3060 	ldr	r3, [fp, #-96]	; 0xffffffa0
    933c:	e51b006c 	ldr	r0, [fp, #-108]	; 0xffffff94
    9340:	e1a01003 	mov	r1, r3
    9344:	e51b2050 	ldr	r2, [fp, #-80]	; 0xffffffb0
    9348:	ebfffd72 	bl	8918 <memcpy_cus>
    934c:	e51b3030 	ldr	r3, [fp, #-48]	; 0xffffffd0
    9350:	e353000c 	cmp	r3, #12
    9354:	1a000004 	bne	936c <fmc_imageon_hdmi_framebuffer_init+0x884>
    9358:	e51b3060 	ldr	r3, [fp, #-96]	; 0xffffffa0
    935c:	e51b0070 	ldr	r0, [fp, #-112]	; 0xffffff90
    9360:	e1a01003 	mov	r1, r3
    9364:	e51b2050 	ldr	r2, [fp, #-80]	; 0xffffffb0
    9368:	ebfffd6a 	bl	8918 <memcpy_cus>
    936c:	e51b3030 	ldr	r3, [fp, #-48]	; 0xffffffd0
    9370:	e353000d 	cmp	r3, #13
    9374:	1a000004 	bne	938c <fmc_imageon_hdmi_framebuffer_init+0x8a4>
    9378:	e51b3060 	ldr	r3, [fp, #-96]	; 0xffffffa0
    937c:	e51b0074 	ldr	r0, [fp, #-116]	; 0xffffff8c
    9380:	e1a01003 	mov	r1, r3
    9384:	e51b2050 	ldr	r2, [fp, #-80]	; 0xffffffb0
    9388:	ebfffd62 	bl	8918 <memcpy_cus>
    938c:	e51b3030 	ldr	r3, [fp, #-48]	; 0xffffffd0
    9390:	e353000e 	cmp	r3, #14
    9394:	1a000004 	bne	93ac <fmc_imageon_hdmi_framebuffer_init+0x8c4>
    9398:	e51b3060 	ldr	r3, [fp, #-96]	; 0xffffffa0
    939c:	e51b0078 	ldr	r0, [fp, #-120]	; 0xffffff88
    93a0:	e1a01003 	mov	r1, r3
    93a4:	e51b2050 	ldr	r2, [fp, #-80]	; 0xffffffb0
    93a8:	ebfffd5a 	bl	8918 <memcpy_cus>
    93ac:	e51b3030 	ldr	r3, [fp, #-48]	; 0xffffffd0
    93b0:	e353000f 	cmp	r3, #15
    93b4:	1a000004 	bne	93cc <fmc_imageon_hdmi_framebuffer_init+0x8e4>
    93b8:	e51b3060 	ldr	r3, [fp, #-96]	; 0xffffffa0
    93bc:	e51b007c 	ldr	r0, [fp, #-124]	; 0xffffff84
    93c0:	e1a01003 	mov	r1, r3
    93c4:	e51b2050 	ldr	r2, [fp, #-80]	; 0xffffffb0
    93c8:	ebfffd52 	bl	8918 <memcpy_cus>
    93cc:	e51b3030 	ldr	r3, [fp, #-48]	; 0xffffffd0
    93d0:	e3530013 	cmp	r3, #19
    93d4:	da00004c 	ble	950c <fmc_imageon_hdmi_framebuffer_init+0xa24>
    93d8:	e51b3034 	ldr	r3, [fp, #-52]	; 0xffffffcc
    93dc:	e3530005 	cmp	r3, #5
    93e0:	979ff103 	ldrls	pc, [pc, r3, lsl #2]
    93e4:	ea000035 	b	94c0 <fmc_imageon_hdmi_framebuffer_init+0x9d8>
    93e8:	00009400 	andeq	r9, r0, r0, lsl #8
    93ec:	00009420 	andeq	r9, r0, r0, lsr #8
    93f0:	00009440 	andeq	r9, r0, r0, asr #8
    93f4:	00009460 	andeq	r9, r0, r0, ror #8
    93f8:	00009480 	andeq	r9, r0, r0, lsl #9
    93fc:	000094a0 	andeq	r9, r0, r0, lsr #9
    9400:	e51b3068 	ldr	r3, [fp, #-104]	; 0xffffff98
    9404:	e30c0754 	movw	r0, #51028	; 0xc754
    9408:	e3400001 	movt	r0, #1
    940c:	e1a01003 	mov	r1, r3
    9410:	eb003d0e 	bl	18850 <XHls_macc_SetB>
    9414:	e3a03001 	mov	r3, #1
    9418:	e50b3034 	str	r3, [fp, #-52]	; 0xffffffcc
    941c:	ea000027 	b	94c0 <fmc_imageon_hdmi_framebuffer_init+0x9d8>
    9420:	e51b306c 	ldr	r3, [fp, #-108]	; 0xffffff94
    9424:	e30c0754 	movw	r0, #51028	; 0xc754
    9428:	e3400001 	movt	r0, #1
    942c:	e1a01003 	mov	r1, r3
    9430:	eb003d06 	bl	18850 <XHls_macc_SetB>
    9434:	e3a03002 	mov	r3, #2
    9438:	e50b3034 	str	r3, [fp, #-52]	; 0xffffffcc
    943c:	ea00001f 	b	94c0 <fmc_imageon_hdmi_framebuffer_init+0x9d8>
    9440:	e51b3070 	ldr	r3, [fp, #-112]	; 0xffffff90
    9444:	e30c0754 	movw	r0, #51028	; 0xc754
    9448:	e3400001 	movt	r0, #1
    944c:	e1a01003 	mov	r1, r3
    9450:	eb003cfe 	bl	18850 <XHls_macc_SetB>
    9454:	e3a03003 	mov	r3, #3
    9458:	e50b3034 	str	r3, [fp, #-52]	; 0xffffffcc
    945c:	ea000017 	b	94c0 <fmc_imageon_hdmi_framebuffer_init+0x9d8>
    9460:	e51b3074 	ldr	r3, [fp, #-116]	; 0xffffff8c
    9464:	e30c0754 	movw	r0, #51028	; 0xc754
    9468:	e3400001 	movt	r0, #1
    946c:	e1a01003 	mov	r1, r3
    9470:	eb003cf6 	bl	18850 <XHls_macc_SetB>
    9474:	e3a03004 	mov	r3, #4
    9478:	e50b3034 	str	r3, [fp, #-52]	; 0xffffffcc
    947c:	ea00000f 	b	94c0 <fmc_imageon_hdmi_framebuffer_init+0x9d8>
    9480:	e51b3078 	ldr	r3, [fp, #-120]	; 0xffffff88
    9484:	e30c0754 	movw	r0, #51028	; 0xc754
    9488:	e3400001 	movt	r0, #1
    948c:	e1a01003 	mov	r1, r3
    9490:	eb003cee 	bl	18850 <XHls_macc_SetB>
    9494:	e3a03005 	mov	r3, #5
    9498:	e50b3034 	str	r3, [fp, #-52]	; 0xffffffcc
    949c:	ea000007 	b	94c0 <fmc_imageon_hdmi_framebuffer_init+0x9d8>
    94a0:	e51b307c 	ldr	r3, [fp, #-124]	; 0xffffff84
    94a4:	e30c0754 	movw	r0, #51028	; 0xc754
    94a8:	e3400001 	movt	r0, #1
    94ac:	e1a01003 	mov	r1, r3
    94b0:	eb003ce6 	bl	18850 <XHls_macc_SetB>
    94b4:	e3a03000 	mov	r3, #0
    94b8:	e50b3034 	str	r3, [fp, #-52]	; 0xffffffcc
    94bc:	e1a00000 	nop			; (mov r0, r0)
    94c0:	e30c0754 	movw	r0, #51028	; 0xc754
    94c4:	e3400001 	movt	r0, #1
    94c8:	e51b1060 	ldr	r1, [fp, #-96]	; 0xffffffa0
    94cc:	eb003e13 	bl	18d20 <XHls_macc_SetByte_wroffset>
    94d0:	e30c0754 	movw	r0, #51028	; 0xc754
    94d4:	e3400001 	movt	r0, #1
    94d8:	e3a01000 	mov	r1, #0
    94dc:	eb003da9 	bl	18b88 <XHls_macc_SetAccum_clr>
    94e0:	e30c0754 	movw	r0, #51028	; 0xc754
    94e4:	e3400001 	movt	r0, #1
    94e8:	eb003b37 	bl	181cc <XHls_macc_Start>
    94ec:	e1a00000 	nop			; (mov r0, r0)
    94f0:	e30c0754 	movw	r0, #51028	; 0xc754
    94f4:	e3400001 	movt	r0, #1
    94f8:	eb003bd6 	bl	18458 <XHls_macc_IsReady>
    94fc:	e1a03000 	mov	r3, r0
    9500:	e3530000 	cmp	r3, #0
    9504:	0afffff9 	beq	94f0 <fmc_imageon_hdmi_framebuffer_init+0xa08>
    9508:	ea00002b 	b	95bc <fmc_imageon_hdmi_framebuffer_init+0xad4>
    950c:	e1a00000 	nop			; (mov r0, r0)
    9510:	e30c0754 	movw	r0, #51028	; 0xc754
    9514:	e3400001 	movt	r0, #1
    9518:	eb003bce 	bl	18458 <XHls_macc_IsReady>
    951c:	e1a03000 	mov	r3, r0
    9520:	e3530000 	cmp	r3, #0
    9524:	0afffff9 	beq	9510 <fmc_imageon_hdmi_framebuffer_init+0xa28>
    9528:	e30c0754 	movw	r0, #51028	; 0xc754
    952c:	e3400001 	movt	r0, #1
    9530:	e51b105c 	ldr	r1, [fp, #-92]	; 0xffffffa4
    9534:	eb003c5f 	bl	186b8 <XHls_macc_SetA>
    9538:	e30c0754 	movw	r0, #51028	; 0xc754
    953c:	e3400001 	movt	r0, #1
    9540:	e51b1058 	ldr	r1, [fp, #-88]	; 0xffffffa8
    9544:	eb003cc1 	bl	18850 <XHls_macc_SetB>
    9548:	e30c0754 	movw	r0, #51028	; 0xc754
    954c:	e3400001 	movt	r0, #1
    9550:	e51b1060 	ldr	r1, [fp, #-96]	; 0xffffffa0
    9554:	eb003df1 	bl	18d20 <XHls_macc_SetByte_wroffset>
    9558:	e30c0754 	movw	r0, #51028	; 0xc754
    955c:	e3400001 	movt	r0, #1
    9560:	e51b1064 	ldr	r1, [fp, #-100]	; 0xffffff9c
    9564:	eb003e53 	bl	18eb8 <XHls_macc_SetFrame_len>
    9568:	e30c0754 	movw	r0, #51028	; 0xc754
    956c:	e3400001 	movt	r0, #1
    9570:	e3a01001 	mov	r1, #1
    9574:	eb003d83 	bl	18b88 <XHls_macc_SetAccum_clr>
    9578:	e1a00000 	nop			; (mov r0, r0)
    957c:	e30c0754 	movw	r0, #51028	; 0xc754
    9580:	e3400001 	movt	r0, #1
    9584:	eb003bb3 	bl	18458 <XHls_macc_IsReady>
    9588:	e1a03000 	mov	r3, r0
    958c:	e3530000 	cmp	r3, #0
    9590:	0afffff9 	beq	957c <fmc_imageon_hdmi_framebuffer_init+0xa94>
    9594:	e30c0754 	movw	r0, #51028	; 0xc754
    9598:	e3400001 	movt	r0, #1
    959c:	eb003b0a 	bl	181cc <XHls_macc_Start>
    95a0:	e1a00000 	nop			; (mov r0, r0)
    95a4:	e30c0754 	movw	r0, #51028	; 0xc754
    95a8:	e3400001 	movt	r0, #1
    95ac:	eb003ba9 	bl	18458 <XHls_macc_IsReady>
    95b0:	e1a03000 	mov	r3, r0
    95b4:	e3530000 	cmp	r3, #0
    95b8:	0afffff9 	beq	95a4 <fmc_imageon_hdmi_framebuffer_init+0xabc>
    95bc:	e51b3008 	ldr	r3, [fp, #-8]
    95c0:	e2833001 	add	r3, r3, #1
    95c4:	e50b3008 	str	r3, [fp, #-8]
    95c8:	e51b3008 	ldr	r3, [fp, #-8]
    95cc:	e35300c8 	cmp	r3, #200	; 0xc8
    95d0:	1a000002 	bne	95e0 <fmc_imageon_hdmi_framebuffer_init+0xaf8>
    95d4:	e51b303c 	ldr	r3, [fp, #-60]	; 0xffffffc4
    95d8:	e3a02001 	mov	r2, #1
    95dc:	e5832000 	str	r2, [r3]
    95e0:	eaffff38 	b	92c8 <fmc_imageon_hdmi_framebuffer_init+0x7e0>
    95e4:	eafffe3b 	b	8ed8 <fmc_imageon_hdmi_framebuffer_init+0x3f0>

000095e8 <strcpy>:
    95e8:	e52db004 	push	{fp}		; (str fp, [sp, #-4]!)
    95ec:	e28db000 	add	fp, sp, #0
    95f0:	e24dd00c 	sub	sp, sp, #12
    95f4:	e50b0008 	str	r0, [fp, #-8]
    95f8:	e50b100c 	str	r1, [fp, #-12]
    95fc:	ea000009 	b	9628 <strcpy+0x40>
    9600:	e51b300c 	ldr	r3, [fp, #-12]
    9604:	e5d32000 	ldrb	r2, [r3]
    9608:	e51b3008 	ldr	r3, [fp, #-8]
    960c:	e5c32000 	strb	r2, [r3]
    9610:	e51b3008 	ldr	r3, [fp, #-8]
    9614:	e2833001 	add	r3, r3, #1
    9618:	e50b3008 	str	r3, [fp, #-8]
    961c:	e51b300c 	ldr	r3, [fp, #-12]
    9620:	e2833001 	add	r3, r3, #1
    9624:	e50b300c 	str	r3, [fp, #-12]
    9628:	e51b300c 	ldr	r3, [fp, #-12]
    962c:	e5d33000 	ldrb	r3, [r3]
    9630:	e3530000 	cmp	r3, #0
    9634:	1afffff1 	bne	9600 <strcpy+0x18>
    9638:	e51b3008 	ldr	r3, [fp, #-8]
    963c:	e3a02000 	mov	r2, #0
    9640:	e5c32000 	strb	r2, [r3]
    9644:	e24bd000 	sub	sp, fp, #0
    9648:	e49db004 	pop	{fp}		; (ldr fp, [sp], #4)
    964c:	e12fff1e 	bx	lr

00009650 <fmc_imageon_init>:
    9650:	e92d4810 	push	{r4, fp, lr}
    9654:	e28db008 	add	fp, sp, #8
    9658:	e24dd024 	sub	sp, sp, #36	; 0x24
    965c:	e50b0018 	str	r0, [fp, #-24]	; 0xffffffe8
    9660:	e50b101c 	str	r1, [fp, #-28]	; 0xffffffe4
    9664:	e50b2020 	str	r2, [fp, #-32]	; 0xffffffe0
    9668:	e51b3018 	ldr	r3, [fp, #-24]	; 0xffffffe8
    966c:	e51b2020 	ldr	r2, [fp, #-32]	; 0xffffffe0
    9670:	e5832024 	str	r2, [r3, #36]	; 0x24
    9674:	e51b3018 	ldr	r3, [fp, #-24]	; 0xffffffe8
    9678:	e2833004 	add	r3, r3, #4
    967c:	e1a00003 	mov	r0, r3
    9680:	e51b101c 	ldr	r1, [fp, #-28]	; 0xffffffe4
    9684:	ebffffd7 	bl	95e8 <strcpy>
    9688:	e51b3018 	ldr	r3, [fp, #-24]	; 0xffffffe8
    968c:	e3a02001 	mov	r2, #1
    9690:	e5832028 	str	r2, [r3, #40]	; 0x28
    9694:	e51b3018 	ldr	r3, [fp, #-24]	; 0xffffffe8
    9698:	e5933024 	ldr	r3, [r3, #36]	; 0x24
    969c:	e593304c 	ldr	r3, [r3, #76]	; 0x4c
    96a0:	e51b2018 	ldr	r2, [fp, #-24]	; 0xffffffe8
    96a4:	e5921024 	ldr	r1, [r2, #36]	; 0x24
    96a8:	e51b2018 	ldr	r2, [fp, #-24]	; 0xffffffe8
    96ac:	e5922028 	ldr	r2, [r2, #40]	; 0x28
    96b0:	e1a00001 	mov	r0, r1
    96b4:	e1a01002 	mov	r1, r2
    96b8:	e12fff33 	blx	r3
    96bc:	e51b3018 	ldr	r3, [fp, #-24]	; 0xffffffe8
    96c0:	e3a02000 	mov	r2, #0
    96c4:	e583202c 	str	r2, [r3, #44]	; 0x2c
    96c8:	e51b0018 	ldr	r0, [fp, #-24]	; 0xffffffe8
    96cc:	eb00002c 	bl	9784 <fmc_imageon_iic_mux_reset>
    96d0:	e51b0018 	ldr	r0, [fp, #-24]	; 0xffffffe8
    96d4:	e3a01003 	mov	r1, #3
    96d8:	eb000050 	bl	9820 <fmc_imageon_iic_mux>
    96dc:	e3a03003 	mov	r3, #3
    96e0:	e54b300d 	strb	r3, [fp, #-13]
    96e4:	e3e03015 	mvn	r3, #21
    96e8:	e54b300f 	strb	r3, [fp, #-15]
    96ec:	e51b3018 	ldr	r3, [fp, #-24]	; 0xffffffe8
    96f0:	e5933024 	ldr	r3, [r3, #36]	; 0x24
    96f4:	e5934054 	ldr	r4, [r3, #84]	; 0x54
    96f8:	e51b3018 	ldr	r3, [fp, #-24]	; 0xffffffe8
    96fc:	e5931024 	ldr	r1, [r3, #36]	; 0x24
    9700:	e55b200d 	ldrb	r2, [fp, #-13]
    9704:	e24bc00f 	sub	ip, fp, #15
    9708:	e3a03001 	mov	r3, #1
    970c:	e58d3000 	str	r3, [sp]
    9710:	e1a00001 	mov	r0, r1
    9714:	e3a01020 	mov	r1, #32
    9718:	e1a0300c 	mov	r3, ip
    971c:	e12fff34 	blx	r4
    9720:	e1a03000 	mov	r3, r0
    9724:	e54b300e 	strb	r3, [fp, #-14]
    9728:	e3a03001 	mov	r3, #1
    972c:	e54b300d 	strb	r3, [fp, #-13]
    9730:	e3a03001 	mov	r3, #1
    9734:	e54b300f 	strb	r3, [fp, #-15]
    9738:	e51b3018 	ldr	r3, [fp, #-24]	; 0xffffffe8
    973c:	e5933024 	ldr	r3, [r3, #36]	; 0x24
    9740:	e5934054 	ldr	r4, [r3, #84]	; 0x54
    9744:	e51b3018 	ldr	r3, [fp, #-24]	; 0xffffffe8
    9748:	e5931024 	ldr	r1, [r3, #36]	; 0x24
    974c:	e55b200d 	ldrb	r2, [fp, #-13]
    9750:	e24bc00f 	sub	ip, fp, #15
    9754:	e3a03001 	mov	r3, #1
    9758:	e58d3000 	str	r3, [sp]
    975c:	e1a00001 	mov	r0, r1
    9760:	e3a01020 	mov	r1, #32
    9764:	e1a0300c 	mov	r3, ip
    9768:	e12fff34 	blx	r4
    976c:	e1a03000 	mov	r3, r0
    9770:	e54b300e 	strb	r3, [fp, #-14]
    9774:	e3a03001 	mov	r3, #1
    9778:	e1a00003 	mov	r0, r3
    977c:	e24bd008 	sub	sp, fp, #8
    9780:	e8bd8810 	pop	{r4, fp, pc}

00009784 <fmc_imageon_iic_mux_reset>:
    9784:	e92d4800 	push	{fp, lr}
    9788:	e28db004 	add	fp, sp, #4
    978c:	e24dd008 	sub	sp, sp, #8
    9790:	e50b0008 	str	r0, [fp, #-8]
    9794:	e51b3008 	ldr	r3, [fp, #-8]
    9798:	e5933028 	ldr	r3, [r3, #40]	; 0x28
    979c:	e3c32001 	bic	r2, r3, #1
    97a0:	e51b3008 	ldr	r3, [fp, #-8]
    97a4:	e5832028 	str	r2, [r3, #40]	; 0x28
    97a8:	e51b3008 	ldr	r3, [fp, #-8]
    97ac:	e5933024 	ldr	r3, [r3, #36]	; 0x24
    97b0:	e593304c 	ldr	r3, [r3, #76]	; 0x4c
    97b4:	e51b2008 	ldr	r2, [fp, #-8]
    97b8:	e5921024 	ldr	r1, [r2, #36]	; 0x24
    97bc:	e51b2008 	ldr	r2, [fp, #-8]
    97c0:	e5922028 	ldr	r2, [r2, #40]	; 0x28
    97c4:	e1a00001 	mov	r0, r1
    97c8:	e1a01002 	mov	r1, r2
    97cc:	e12fff33 	blx	r3
    97d0:	e3040240 	movw	r0, #16960	; 0x4240
    97d4:	e340000f 	movt	r0, #15
    97d8:	eb0006bd 	bl	b2d4 <fmc_imageon_wait_usec>
    97dc:	e51b3008 	ldr	r3, [fp, #-8]
    97e0:	e5933028 	ldr	r3, [r3, #40]	; 0x28
    97e4:	e3832001 	orr	r2, r3, #1
    97e8:	e51b3008 	ldr	r3, [fp, #-8]
    97ec:	e5832028 	str	r2, [r3, #40]	; 0x28
    97f0:	e51b3008 	ldr	r3, [fp, #-8]
    97f4:	e5933024 	ldr	r3, [r3, #36]	; 0x24
    97f8:	e593304c 	ldr	r3, [r3, #76]	; 0x4c
    97fc:	e51b2008 	ldr	r2, [fp, #-8]
    9800:	e5921024 	ldr	r1, [r2, #36]	; 0x24
    9804:	e51b2008 	ldr	r2, [fp, #-8]
    9808:	e5922028 	ldr	r2, [r2, #40]	; 0x28
    980c:	e1a00001 	mov	r0, r1
    9810:	e1a01002 	mov	r1, r2
    9814:	e12fff33 	blx	r3
    9818:	e24bd004 	sub	sp, fp, #4
    981c:	e8bd8800 	pop	{fp, pc}

00009820 <fmc_imageon_iic_mux>:
    9820:	e92d4810 	push	{r4, fp, lr}
    9824:	e28db008 	add	fp, sp, #8
    9828:	e24dd01c 	sub	sp, sp, #28
    982c:	e50b0018 	str	r0, [fp, #-24]	; 0xffffffe8
    9830:	e50b101c 	str	r1, [fp, #-28]	; 0xffffffe4
    9834:	e51b301c 	ldr	r3, [fp, #-28]	; 0xffffffe4
    9838:	e3530004 	cmp	r3, #4
    983c:	979ff103 	ldrls	pc, [pc, r3, lsl #2]
    9840:	ea00005e 	b	99c0 <fmc_imageon_iic_mux+0x1a0>
    9844:	00009858 	andeq	r9, r0, r8, asr r8
    9848:	000098a0 	andeq	r9, r0, r0, lsr #17
    984c:	000098e8 	andeq	r9, r0, r8, ror #17
    9850:	00009930 	andeq	r9, r0, r0, lsr r9
    9854:	00009978 	andeq	r9, r0, r8, ror r9
    9858:	e3a03001 	mov	r3, #1
    985c:	e54b300e 	strb	r3, [fp, #-14]
    9860:	e51b3018 	ldr	r3, [fp, #-24]	; 0xffffffe8
    9864:	e5933024 	ldr	r3, [r3, #36]	; 0x24
    9868:	e5934054 	ldr	r4, [r3, #84]	; 0x54
    986c:	e51b3018 	ldr	r3, [fp, #-24]	; 0xffffffe8
    9870:	e5931024 	ldr	r1, [r3, #36]	; 0x24
    9874:	e55b200e 	ldrb	r2, [fp, #-14]
    9878:	e24bc00e 	sub	ip, fp, #14
    987c:	e3a03001 	mov	r3, #1
    9880:	e58d3000 	str	r3, [sp]
    9884:	e1a00001 	mov	r0, r1
    9888:	e3a01070 	mov	r1, #112	; 0x70
    988c:	e1a0300c 	mov	r3, ip
    9890:	e12fff34 	blx	r4
    9894:	e1a03000 	mov	r3, r0
    9898:	e54b300d 	strb	r3, [fp, #-13]
    989c:	ea000047 	b	99c0 <fmc_imageon_iic_mux+0x1a0>
    98a0:	e3a03002 	mov	r3, #2
    98a4:	e54b300e 	strb	r3, [fp, #-14]
    98a8:	e51b3018 	ldr	r3, [fp, #-24]	; 0xffffffe8
    98ac:	e5933024 	ldr	r3, [r3, #36]	; 0x24
    98b0:	e5934054 	ldr	r4, [r3, #84]	; 0x54
    98b4:	e51b3018 	ldr	r3, [fp, #-24]	; 0xffffffe8
    98b8:	e5931024 	ldr	r1, [r3, #36]	; 0x24
    98bc:	e55b200e 	ldrb	r2, [fp, #-14]
    98c0:	e24bc00e 	sub	ip, fp, #14
    98c4:	e3a03001 	mov	r3, #1
    98c8:	e58d3000 	str	r3, [sp]
    98cc:	e1a00001 	mov	r0, r1
    98d0:	e3a01070 	mov	r1, #112	; 0x70
    98d4:	e1a0300c 	mov	r3, ip
    98d8:	e12fff34 	blx	r4
    98dc:	e1a03000 	mov	r3, r0
    98e0:	e54b300d 	strb	r3, [fp, #-13]
    98e4:	ea000035 	b	99c0 <fmc_imageon_iic_mux+0x1a0>
    98e8:	e3a03004 	mov	r3, #4
    98ec:	e54b300e 	strb	r3, [fp, #-14]
    98f0:	e51b3018 	ldr	r3, [fp, #-24]	; 0xffffffe8
    98f4:	e5933024 	ldr	r3, [r3, #36]	; 0x24
    98f8:	e5934054 	ldr	r4, [r3, #84]	; 0x54
    98fc:	e51b3018 	ldr	r3, [fp, #-24]	; 0xffffffe8
    9900:	e5931024 	ldr	r1, [r3, #36]	; 0x24
    9904:	e55b200e 	ldrb	r2, [fp, #-14]
    9908:	e24bc00e 	sub	ip, fp, #14
    990c:	e3a03001 	mov	r3, #1
    9910:	e58d3000 	str	r3, [sp]
    9914:	e1a00001 	mov	r0, r1
    9918:	e3a01070 	mov	r1, #112	; 0x70
    991c:	e1a0300c 	mov	r3, ip
    9920:	e12fff34 	blx	r4
    9924:	e1a03000 	mov	r3, r0
    9928:	e54b300d 	strb	r3, [fp, #-13]
    992c:	ea000023 	b	99c0 <fmc_imageon_iic_mux+0x1a0>
    9930:	e3a03008 	mov	r3, #8
    9934:	e54b300e 	strb	r3, [fp, #-14]
    9938:	e51b3018 	ldr	r3, [fp, #-24]	; 0xffffffe8
    993c:	e5933024 	ldr	r3, [r3, #36]	; 0x24
    9940:	e5934054 	ldr	r4, [r3, #84]	; 0x54
    9944:	e51b3018 	ldr	r3, [fp, #-24]	; 0xffffffe8
    9948:	e5931024 	ldr	r1, [r3, #36]	; 0x24
    994c:	e55b200e 	ldrb	r2, [fp, #-14]
    9950:	e24bc00e 	sub	ip, fp, #14
    9954:	e3a03001 	mov	r3, #1
    9958:	e58d3000 	str	r3, [sp]
    995c:	e1a00001 	mov	r0, r1
    9960:	e3a01070 	mov	r1, #112	; 0x70
    9964:	e1a0300c 	mov	r3, ip
    9968:	e12fff34 	blx	r4
    996c:	e1a03000 	mov	r3, r0
    9970:	e54b300d 	strb	r3, [fp, #-13]
    9974:	ea000011 	b	99c0 <fmc_imageon_iic_mux+0x1a0>
    9978:	e3a03006 	mov	r3, #6
    997c:	e54b300e 	strb	r3, [fp, #-14]
    9980:	e51b3018 	ldr	r3, [fp, #-24]	; 0xffffffe8
    9984:	e5933024 	ldr	r3, [r3, #36]	; 0x24
    9988:	e5934054 	ldr	r4, [r3, #84]	; 0x54
    998c:	e51b3018 	ldr	r3, [fp, #-24]	; 0xffffffe8
    9990:	e5931024 	ldr	r1, [r3, #36]	; 0x24
    9994:	e55b200e 	ldrb	r2, [fp, #-14]
    9998:	e24bc00e 	sub	ip, fp, #14
    999c:	e3a03001 	mov	r3, #1
    99a0:	e58d3000 	str	r3, [sp]
    99a4:	e1a00001 	mov	r0, r1
    99a8:	e3a01070 	mov	r1, #112	; 0x70
    99ac:	e1a0300c 	mov	r3, ip
    99b0:	e12fff34 	blx	r4
    99b4:	e1a03000 	mov	r3, r0
    99b8:	e54b300d 	strb	r3, [fp, #-13]
    99bc:	e1a00000 	nop			; (mov r0, r0)
    99c0:	e24bd008 	sub	sp, fp, #8
    99c4:	e8bd8810 	pop	{r4, fp, pc}

000099c8 <fmc_imageon_iic_config2>:
    99c8:	e92d4810 	push	{r4, fp, lr}
    99cc:	e28db008 	add	fp, sp, #8
    99d0:	e24dd024 	sub	sp, sp, #36	; 0x24
    99d4:	e50b0018 	str	r0, [fp, #-24]	; 0xffffffe8
    99d8:	e50b2020 	str	r2, [fp, #-32]	; 0xffffffe0
    99dc:	e50b3024 	str	r3, [fp, #-36]	; 0xffffffdc
    99e0:	e1a03001 	mov	r3, r1
    99e4:	e54b3019 	strb	r3, [fp, #-25]	; 0xffffffe7
    99e8:	e3a03000 	mov	r3, #0
    99ec:	e50b3010 	str	r3, [fp, #-16]
    99f0:	ea00001b 	b	9a64 <fmc_imageon_iic_config2+0x9c>
    99f4:	e51b3018 	ldr	r3, [fp, #-24]	; 0xffffffe8
    99f8:	e5933024 	ldr	r3, [r3, #36]	; 0x24
    99fc:	e5934054 	ldr	r4, [r3, #84]	; 0x54
    9a00:	e51b3018 	ldr	r3, [fp, #-24]	; 0xffffffe8
    9a04:	e5931024 	ldr	r1, [r3, #36]	; 0x24
    9a08:	e51b3010 	ldr	r3, [fp, #-16]
    9a0c:	e1a03083 	lsl	r3, r3, #1
    9a10:	e51b2020 	ldr	r2, [fp, #-32]	; 0xffffffe0
    9a14:	e0823003 	add	r3, r2, r3
    9a18:	e5d3e000 	ldrb	lr, [r3]
    9a1c:	e51b3010 	ldr	r3, [fp, #-16]
    9a20:	e1a03083 	lsl	r3, r3, #1
    9a24:	e51b2020 	ldr	r2, [fp, #-32]	; 0xffffffe0
    9a28:	e0823003 	add	r3, r2, r3
    9a2c:	e283c001 	add	ip, r3, #1
    9a30:	e55b2019 	ldrb	r2, [fp, #-25]	; 0xffffffe7
    9a34:	e3a03001 	mov	r3, #1
    9a38:	e58d3000 	str	r3, [sp]
    9a3c:	e1a00001 	mov	r0, r1
    9a40:	e1a01002 	mov	r1, r2
    9a44:	e1a0200e 	mov	r2, lr
    9a48:	e1a0300c 	mov	r3, ip
    9a4c:	e12fff34 	blx	r4
    9a50:	e1a03000 	mov	r3, r0
    9a54:	e54b3011 	strb	r3, [fp, #-17]	; 0xffffffef
    9a58:	e51b3010 	ldr	r3, [fp, #-16]
    9a5c:	e2833001 	add	r3, r3, #1
    9a60:	e50b3010 	str	r3, [fp, #-16]
    9a64:	e51b2010 	ldr	r2, [fp, #-16]
    9a68:	e51b3024 	ldr	r3, [fp, #-36]	; 0xffffffdc
    9a6c:	e1520003 	cmp	r2, r3
    9a70:	3affffdf 	bcc	99f4 <fmc_imageon_iic_config2+0x2c>
    9a74:	e24bd008 	sub	sp, fp, #8
    9a78:	e8bd8810 	pop	{r4, fp, pc}

00009a7c <fmc_imageon_iic_config3>:
    9a7c:	e92d4810 	push	{r4, fp, lr}
    9a80:	e28db008 	add	fp, sp, #8
    9a84:	e24dd024 	sub	sp, sp, #36	; 0x24
    9a88:	e50b0018 	str	r0, [fp, #-24]	; 0xffffffe8
    9a8c:	e50b101c 	str	r1, [fp, #-28]	; 0xffffffe4
    9a90:	e50b2020 	str	r2, [fp, #-32]	; 0xffffffe0
    9a94:	e3a03000 	mov	r3, #0
    9a98:	e50b3010 	str	r3, [fp, #-16]
    9a9c:	ea000023 	b	9b30 <fmc_imageon_iic_config3+0xb4>
    9aa0:	e51b3018 	ldr	r3, [fp, #-24]	; 0xffffffe8
    9aa4:	e5933024 	ldr	r3, [r3, #36]	; 0x24
    9aa8:	e5934054 	ldr	r4, [r3, #84]	; 0x54
    9aac:	e51b3018 	ldr	r3, [fp, #-24]	; 0xffffffe8
    9ab0:	e5930024 	ldr	r0, [r3, #36]	; 0x24
    9ab4:	e51b2010 	ldr	r2, [fp, #-16]
    9ab8:	e1a03002 	mov	r3, r2
    9abc:	e1a03083 	lsl	r3, r3, #1
    9ac0:	e0833002 	add	r3, r3, r2
    9ac4:	e51b201c 	ldr	r2, [fp, #-28]	; 0xffffffe4
    9ac8:	e0823003 	add	r3, r2, r3
    9acc:	e5d31000 	ldrb	r1, [r3]
    9ad0:	e51b2010 	ldr	r2, [fp, #-16]
    9ad4:	e1a03002 	mov	r3, r2
    9ad8:	e1a03083 	lsl	r3, r3, #1
    9adc:	e0833002 	add	r3, r3, r2
    9ae0:	e51b201c 	ldr	r2, [fp, #-28]	; 0xffffffe4
    9ae4:	e0823003 	add	r3, r2, r3
    9ae8:	e5d3e001 	ldrb	lr, [r3, #1]
    9aec:	e51b2010 	ldr	r2, [fp, #-16]
    9af0:	e1a03002 	mov	r3, r2
    9af4:	e1a03083 	lsl	r3, r3, #1
    9af8:	e0833002 	add	r3, r3, r2
    9afc:	e51b201c 	ldr	r2, [fp, #-28]	; 0xffffffe4
    9b00:	e0823003 	add	r3, r2, r3
    9b04:	e283c002 	add	ip, r3, #2
    9b08:	e3a03001 	mov	r3, #1
    9b0c:	e58d3000 	str	r3, [sp]
    9b10:	e1a0200e 	mov	r2, lr
    9b14:	e1a0300c 	mov	r3, ip
    9b18:	e12fff34 	blx	r4
    9b1c:	e1a03000 	mov	r3, r0
    9b20:	e54b3011 	strb	r3, [fp, #-17]	; 0xffffffef
    9b24:	e51b3010 	ldr	r3, [fp, #-16]
    9b28:	e2833001 	add	r3, r3, #1
    9b2c:	e50b3010 	str	r3, [fp, #-16]
    9b30:	e51b2010 	ldr	r2, [fp, #-16]
    9b34:	e51b3020 	ldr	r3, [fp, #-32]	; 0xffffffe0
    9b38:	e1520003 	cmp	r2, r3
    9b3c:	3affffd7 	bcc	9aa0 <fmc_imageon_iic_config3+0x24>
    9b40:	e24bd008 	sub	sp, fp, #8
    9b44:	e8bd8810 	pop	{r4, fp, pc}

00009b48 <fmc_imageon_vclk_init>:
    9b48:	e92d4810 	push	{r4, fp, lr}
    9b4c:	e28db008 	add	fp, sp, #8
    9b50:	e24dd01c 	sub	sp, sp, #28
    9b54:	e50b0018 	str	r0, [fp, #-24]	; 0xffffffe8
    9b58:	e51b0018 	ldr	r0, [fp, #-24]	; 0xffffffe8
    9b5c:	e3a01003 	mov	r1, #3
    9b60:	ebffff2e 	bl	9820 <fmc_imageon_iic_mux>
    9b64:	e3a03000 	mov	r3, #0
    9b68:	e50b3010 	str	r3, [fp, #-16]
    9b6c:	ea00001d 	b	9be8 <fmc_imageon_vclk_init+0xa0>
    9b70:	e51b3018 	ldr	r3, [fp, #-24]	; 0xffffffe8
    9b74:	e5933024 	ldr	r3, [r3, #36]	; 0x24
    9b78:	e5934054 	ldr	r4, [r3, #84]	; 0x54
    9b7c:	e51b3018 	ldr	r3, [fp, #-24]	; 0xffffffe8
    9b80:	e5931024 	ldr	r1, [r3, #36]	; 0x24
    9b84:	e30c3030 	movw	r3, #49200	; 0xc030
    9b88:	e3403001 	movt	r3, #1
    9b8c:	e51b2010 	ldr	r2, [fp, #-16]
    9b90:	e7d33082 	ldrb	r3, [r3, r2, lsl #1]
    9b94:	e1e03c83 	mvn	r3, r3, lsl #25
    9b98:	e1e03ca3 	mvn	r3, r3, lsr #25
    9b9c:	e6efe073 	uxtb	lr, r3
    9ba0:	e51b3010 	ldr	r3, [fp, #-16]
    9ba4:	e1a03083 	lsl	r3, r3, #1
    9ba8:	e2832001 	add	r2, r3, #1
    9bac:	e30c3030 	movw	r3, #49200	; 0xc030
    9bb0:	e3403001 	movt	r3, #1
    9bb4:	e082c003 	add	ip, r2, r3
    9bb8:	e3a03001 	mov	r3, #1
    9bbc:	e58d3000 	str	r3, [sp]
    9bc0:	e1a00001 	mov	r0, r1
    9bc4:	e3a01065 	mov	r1, #101	; 0x65
    9bc8:	e1a0200e 	mov	r2, lr
    9bcc:	e1a0300c 	mov	r3, ip
    9bd0:	e12fff34 	blx	r4
    9bd4:	e1a03000 	mov	r3, r0
    9bd8:	e54b3011 	strb	r3, [fp, #-17]	; 0xffffffef
    9bdc:	e51b3010 	ldr	r3, [fp, #-16]
    9be0:	e2833001 	add	r3, r3, #1
    9be4:	e50b3010 	str	r3, [fp, #-16]
    9be8:	e51b3010 	ldr	r3, [fp, #-16]
    9bec:	e353001f 	cmp	r3, #31
    9bf0:	daffffde 	ble	9b70 <fmc_imageon_vclk_init+0x28>
    9bf4:	e24bd008 	sub	sp, fp, #8
    9bf8:	e8bd8810 	pop	{r4, fp, pc}

00009bfc <fmc_imageon_vclk_config>:
    9bfc:	e92d4810 	push	{r4, fp, lr}
    9c00:	e28db008 	add	fp, sp, #8
    9c04:	e24dd01c 	sub	sp, sp, #28
    9c08:	e50b0018 	str	r0, [fp, #-24]	; 0xffffffe8
    9c0c:	e50b101c 	str	r1, [fp, #-28]	; 0xffffffe4
    9c10:	e51b0018 	ldr	r0, [fp, #-24]	; 0xffffffe8
    9c14:	e3a01003 	mov	r1, #3
    9c18:	ebffff00 	bl	9820 <fmc_imageon_iic_mux>
    9c1c:	e51b301c 	ldr	r3, [fp, #-28]	; 0xffffffe4
    9c20:	e3530007 	cmp	r3, #7
    9c24:	979ff103 	ldrls	pc, [pc, r3, lsl #2]
    9c28:	ea00012f 	b	a0ec <fmc_imageon_vclk_config+0x4f0>
    9c2c:	00009c4c 	andeq	r9, r0, ip, asr #24
    9c30:	00009ce0 	andeq	r9, r0, r0, ror #25
    9c34:	00009d74 	andeq	r9, r0, r4, ror sp
    9c38:	00009e08 	andeq	r9, r0, r8, lsl #28
    9c3c:	00009e9c 	muleq	r0, ip, lr
    9c40:	00009f30 	andeq	r9, r0, r0, lsr pc
    9c44:	00009fc4 	andeq	r9, r0, r4, asr #31
    9c48:	0000a058 	andeq	sl, r0, r8, asr r0
    9c4c:	e3a03000 	mov	r3, #0
    9c50:	e50b3010 	str	r3, [fp, #-16]
    9c54:	ea00001d 	b	9cd0 <fmc_imageon_vclk_config+0xd4>
    9c58:	e51b3018 	ldr	r3, [fp, #-24]	; 0xffffffe8
    9c5c:	e5933024 	ldr	r3, [r3, #36]	; 0x24
    9c60:	e5934054 	ldr	r4, [r3, #84]	; 0x54
    9c64:	e51b3018 	ldr	r3, [fp, #-24]	; 0xffffffe8
    9c68:	e5931024 	ldr	r1, [r3, #36]	; 0x24
    9c6c:	e30c3070 	movw	r3, #49264	; 0xc070
    9c70:	e3403001 	movt	r3, #1
    9c74:	e51b2010 	ldr	r2, [fp, #-16]
    9c78:	e7d33082 	ldrb	r3, [r3, r2, lsl #1]
    9c7c:	e1e03c83 	mvn	r3, r3, lsl #25
    9c80:	e1e03ca3 	mvn	r3, r3, lsr #25
    9c84:	e6efe073 	uxtb	lr, r3
    9c88:	e51b3010 	ldr	r3, [fp, #-16]
    9c8c:	e1a03083 	lsl	r3, r3, #1
    9c90:	e2832001 	add	r2, r3, #1
    9c94:	e30c3070 	movw	r3, #49264	; 0xc070
    9c98:	e3403001 	movt	r3, #1
    9c9c:	e082c003 	add	ip, r2, r3
    9ca0:	e3a03001 	mov	r3, #1
    9ca4:	e58d3000 	str	r3, [sp]
    9ca8:	e1a00001 	mov	r0, r1
    9cac:	e3a01065 	mov	r1, #101	; 0x65
    9cb0:	e1a0200e 	mov	r2, lr
    9cb4:	e1a0300c 	mov	r3, ip
    9cb8:	e12fff34 	blx	r4
    9cbc:	e1a03000 	mov	r3, r0
    9cc0:	e54b3011 	strb	r3, [fp, #-17]	; 0xffffffef
    9cc4:	e51b3010 	ldr	r3, [fp, #-16]
    9cc8:	e2833001 	add	r3, r3, #1
    9ccc:	e50b3010 	str	r3, [fp, #-16]
    9cd0:	e51b3010 	ldr	r3, [fp, #-16]
    9cd4:	e3530005 	cmp	r3, #5
    9cd8:	daffffde 	ble	9c58 <fmc_imageon_vclk_config+0x5c>
    9cdc:	ea000102 	b	a0ec <fmc_imageon_vclk_config+0x4f0>
    9ce0:	e3a03000 	mov	r3, #0
    9ce4:	e50b3010 	str	r3, [fp, #-16]
    9ce8:	ea00001d 	b	9d64 <fmc_imageon_vclk_config+0x168>
    9cec:	e51b3018 	ldr	r3, [fp, #-24]	; 0xffffffe8
    9cf0:	e5933024 	ldr	r3, [r3, #36]	; 0x24
    9cf4:	e5934054 	ldr	r4, [r3, #84]	; 0x54
    9cf8:	e51b3018 	ldr	r3, [fp, #-24]	; 0xffffffe8
    9cfc:	e5931024 	ldr	r1, [r3, #36]	; 0x24
    9d00:	e30c307c 	movw	r3, #49276	; 0xc07c
    9d04:	e3403001 	movt	r3, #1
    9d08:	e51b2010 	ldr	r2, [fp, #-16]
    9d0c:	e7d33082 	ldrb	r3, [r3, r2, lsl #1]
    9d10:	e1e03c83 	mvn	r3, r3, lsl #25
    9d14:	e1e03ca3 	mvn	r3, r3, lsr #25
    9d18:	e6efe073 	uxtb	lr, r3
    9d1c:	e51b3010 	ldr	r3, [fp, #-16]
    9d20:	e1a03083 	lsl	r3, r3, #1
    9d24:	e2832001 	add	r2, r3, #1
    9d28:	e30c307c 	movw	r3, #49276	; 0xc07c
    9d2c:	e3403001 	movt	r3, #1
    9d30:	e082c003 	add	ip, r2, r3
    9d34:	e3a03001 	mov	r3, #1
    9d38:	e58d3000 	str	r3, [sp]
    9d3c:	e1a00001 	mov	r0, r1
    9d40:	e3a01065 	mov	r1, #101	; 0x65
    9d44:	e1a0200e 	mov	r2, lr
    9d48:	e1a0300c 	mov	r3, ip
    9d4c:	e12fff34 	blx	r4
    9d50:	e1a03000 	mov	r3, r0
    9d54:	e54b3011 	strb	r3, [fp, #-17]	; 0xffffffef
    9d58:	e51b3010 	ldr	r3, [fp, #-16]
    9d5c:	e2833001 	add	r3, r3, #1
    9d60:	e50b3010 	str	r3, [fp, #-16]
    9d64:	e51b3010 	ldr	r3, [fp, #-16]
    9d68:	e3530005 	cmp	r3, #5
    9d6c:	daffffde 	ble	9cec <fmc_imageon_vclk_config+0xf0>
    9d70:	ea0000dd 	b	a0ec <fmc_imageon_vclk_config+0x4f0>
    9d74:	e3a03000 	mov	r3, #0
    9d78:	e50b3010 	str	r3, [fp, #-16]
    9d7c:	ea00001d 	b	9df8 <fmc_imageon_vclk_config+0x1fc>
    9d80:	e51b3018 	ldr	r3, [fp, #-24]	; 0xffffffe8
    9d84:	e5933024 	ldr	r3, [r3, #36]	; 0x24
    9d88:	e5934054 	ldr	r4, [r3, #84]	; 0x54
    9d8c:	e51b3018 	ldr	r3, [fp, #-24]	; 0xffffffe8
    9d90:	e5931024 	ldr	r1, [r3, #36]	; 0x24
    9d94:	e30c3088 	movw	r3, #49288	; 0xc088
    9d98:	e3403001 	movt	r3, #1
    9d9c:	e51b2010 	ldr	r2, [fp, #-16]
    9da0:	e7d33082 	ldrb	r3, [r3, r2, lsl #1]
    9da4:	e1e03c83 	mvn	r3, r3, lsl #25
    9da8:	e1e03ca3 	mvn	r3, r3, lsr #25
    9dac:	e6efe073 	uxtb	lr, r3
    9db0:	e51b3010 	ldr	r3, [fp, #-16]
    9db4:	e1a03083 	lsl	r3, r3, #1
    9db8:	e2832001 	add	r2, r3, #1
    9dbc:	e30c3088 	movw	r3, #49288	; 0xc088
    9dc0:	e3403001 	movt	r3, #1
    9dc4:	e082c003 	add	ip, r2, r3
    9dc8:	e3a03001 	mov	r3, #1
    9dcc:	e58d3000 	str	r3, [sp]
    9dd0:	e1a00001 	mov	r0, r1
    9dd4:	e3a01065 	mov	r1, #101	; 0x65
    9dd8:	e1a0200e 	mov	r2, lr
    9ddc:	e1a0300c 	mov	r3, ip
    9de0:	e12fff34 	blx	r4
    9de4:	e1a03000 	mov	r3, r0
    9de8:	e54b3011 	strb	r3, [fp, #-17]	; 0xffffffef
    9dec:	e51b3010 	ldr	r3, [fp, #-16]
    9df0:	e2833001 	add	r3, r3, #1
    9df4:	e50b3010 	str	r3, [fp, #-16]
    9df8:	e51b3010 	ldr	r3, [fp, #-16]
    9dfc:	e3530005 	cmp	r3, #5
    9e00:	daffffde 	ble	9d80 <fmc_imageon_vclk_config+0x184>
    9e04:	ea0000b8 	b	a0ec <fmc_imageon_vclk_config+0x4f0>
    9e08:	e3a03000 	mov	r3, #0
    9e0c:	e50b3010 	str	r3, [fp, #-16]
    9e10:	ea00001d 	b	9e8c <fmc_imageon_vclk_config+0x290>
    9e14:	e51b3018 	ldr	r3, [fp, #-24]	; 0xffffffe8
    9e18:	e5933024 	ldr	r3, [r3, #36]	; 0x24
    9e1c:	e5934054 	ldr	r4, [r3, #84]	; 0x54
    9e20:	e51b3018 	ldr	r3, [fp, #-24]	; 0xffffffe8
    9e24:	e5931024 	ldr	r1, [r3, #36]	; 0x24
    9e28:	e30c3094 	movw	r3, #49300	; 0xc094
    9e2c:	e3403001 	movt	r3, #1
    9e30:	e51b2010 	ldr	r2, [fp, #-16]
    9e34:	e7d33082 	ldrb	r3, [r3, r2, lsl #1]
    9e38:	e1e03c83 	mvn	r3, r3, lsl #25
    9e3c:	e1e03ca3 	mvn	r3, r3, lsr #25
    9e40:	e6efe073 	uxtb	lr, r3
    9e44:	e51b3010 	ldr	r3, [fp, #-16]
    9e48:	e1a03083 	lsl	r3, r3, #1
    9e4c:	e2832001 	add	r2, r3, #1
    9e50:	e30c3094 	movw	r3, #49300	; 0xc094
    9e54:	e3403001 	movt	r3, #1
    9e58:	e082c003 	add	ip, r2, r3
    9e5c:	e3a03001 	mov	r3, #1
    9e60:	e58d3000 	str	r3, [sp]
    9e64:	e1a00001 	mov	r0, r1
    9e68:	e3a01065 	mov	r1, #101	; 0x65
    9e6c:	e1a0200e 	mov	r2, lr
    9e70:	e1a0300c 	mov	r3, ip
    9e74:	e12fff34 	blx	r4
    9e78:	e1a03000 	mov	r3, r0
    9e7c:	e54b3011 	strb	r3, [fp, #-17]	; 0xffffffef
    9e80:	e51b3010 	ldr	r3, [fp, #-16]
    9e84:	e2833001 	add	r3, r3, #1
    9e88:	e50b3010 	str	r3, [fp, #-16]
    9e8c:	e51b3010 	ldr	r3, [fp, #-16]
    9e90:	e3530005 	cmp	r3, #5
    9e94:	daffffde 	ble	9e14 <fmc_imageon_vclk_config+0x218>
    9e98:	ea000093 	b	a0ec <fmc_imageon_vclk_config+0x4f0>
    9e9c:	e3a03000 	mov	r3, #0
    9ea0:	e50b3010 	str	r3, [fp, #-16]
    9ea4:	ea00001d 	b	9f20 <fmc_imageon_vclk_config+0x324>
    9ea8:	e51b3018 	ldr	r3, [fp, #-24]	; 0xffffffe8
    9eac:	e5933024 	ldr	r3, [r3, #36]	; 0x24
    9eb0:	e5934054 	ldr	r4, [r3, #84]	; 0x54
    9eb4:	e51b3018 	ldr	r3, [fp, #-24]	; 0xffffffe8
    9eb8:	e5931024 	ldr	r1, [r3, #36]	; 0x24
    9ebc:	e30c30a0 	movw	r3, #49312	; 0xc0a0
    9ec0:	e3403001 	movt	r3, #1
    9ec4:	e51b2010 	ldr	r2, [fp, #-16]
    9ec8:	e7d33082 	ldrb	r3, [r3, r2, lsl #1]
    9ecc:	e1e03c83 	mvn	r3, r3, lsl #25
    9ed0:	e1e03ca3 	mvn	r3, r3, lsr #25
    9ed4:	e6efe073 	uxtb	lr, r3
    9ed8:	e51b3010 	ldr	r3, [fp, #-16]
    9edc:	e1a03083 	lsl	r3, r3, #1
    9ee0:	e2832001 	add	r2, r3, #1
    9ee4:	e30c30a0 	movw	r3, #49312	; 0xc0a0
    9ee8:	e3403001 	movt	r3, #1
    9eec:	e082c003 	add	ip, r2, r3
    9ef0:	e3a03001 	mov	r3, #1
    9ef4:	e58d3000 	str	r3, [sp]
    9ef8:	e1a00001 	mov	r0, r1
    9efc:	e3a01065 	mov	r1, #101	; 0x65
    9f00:	e1a0200e 	mov	r2, lr
    9f04:	e1a0300c 	mov	r3, ip
    9f08:	e12fff34 	blx	r4
    9f0c:	e1a03000 	mov	r3, r0
    9f10:	e54b3011 	strb	r3, [fp, #-17]	; 0xffffffef
    9f14:	e51b3010 	ldr	r3, [fp, #-16]
    9f18:	e2833001 	add	r3, r3, #1
    9f1c:	e50b3010 	str	r3, [fp, #-16]
    9f20:	e51b3010 	ldr	r3, [fp, #-16]
    9f24:	e3530005 	cmp	r3, #5
    9f28:	daffffde 	ble	9ea8 <fmc_imageon_vclk_config+0x2ac>
    9f2c:	ea00006e 	b	a0ec <fmc_imageon_vclk_config+0x4f0>
    9f30:	e3a03000 	mov	r3, #0
    9f34:	e50b3010 	str	r3, [fp, #-16]
    9f38:	ea00001d 	b	9fb4 <fmc_imageon_vclk_config+0x3b8>
    9f3c:	e51b3018 	ldr	r3, [fp, #-24]	; 0xffffffe8
    9f40:	e5933024 	ldr	r3, [r3, #36]	; 0x24
    9f44:	e5934054 	ldr	r4, [r3, #84]	; 0x54
    9f48:	e51b3018 	ldr	r3, [fp, #-24]	; 0xffffffe8
    9f4c:	e5931024 	ldr	r1, [r3, #36]	; 0x24
    9f50:	e30c30ac 	movw	r3, #49324	; 0xc0ac
    9f54:	e3403001 	movt	r3, #1
    9f58:	e51b2010 	ldr	r2, [fp, #-16]
    9f5c:	e7d33082 	ldrb	r3, [r3, r2, lsl #1]
    9f60:	e1e03c83 	mvn	r3, r3, lsl #25
    9f64:	e1e03ca3 	mvn	r3, r3, lsr #25
    9f68:	e6efe073 	uxtb	lr, r3
    9f6c:	e51b3010 	ldr	r3, [fp, #-16]
    9f70:	e1a03083 	lsl	r3, r3, #1
    9f74:	e2832001 	add	r2, r3, #1
    9f78:	e30c30ac 	movw	r3, #49324	; 0xc0ac
    9f7c:	e3403001 	movt	r3, #1
    9f80:	e082c003 	add	ip, r2, r3
    9f84:	e3a03001 	mov	r3, #1
    9f88:	e58d3000 	str	r3, [sp]
    9f8c:	e1a00001 	mov	r0, r1
    9f90:	e3a01065 	mov	r1, #101	; 0x65
    9f94:	e1a0200e 	mov	r2, lr
    9f98:	e1a0300c 	mov	r3, ip
    9f9c:	e12fff34 	blx	r4
    9fa0:	e1a03000 	mov	r3, r0
    9fa4:	e54b3011 	strb	r3, [fp, #-17]	; 0xffffffef
    9fa8:	e51b3010 	ldr	r3, [fp, #-16]
    9fac:	e2833001 	add	r3, r3, #1
    9fb0:	e50b3010 	str	r3, [fp, #-16]
    9fb4:	e51b3010 	ldr	r3, [fp, #-16]
    9fb8:	e3530005 	cmp	r3, #5
    9fbc:	daffffde 	ble	9f3c <fmc_imageon_vclk_config+0x340>
    9fc0:	ea000049 	b	a0ec <fmc_imageon_vclk_config+0x4f0>
    9fc4:	e3a03000 	mov	r3, #0
    9fc8:	e50b3010 	str	r3, [fp, #-16]
    9fcc:	ea00001d 	b	a048 <fmc_imageon_vclk_config+0x44c>
    9fd0:	e51b3018 	ldr	r3, [fp, #-24]	; 0xffffffe8
    9fd4:	e5933024 	ldr	r3, [r3, #36]	; 0x24
    9fd8:	e5934054 	ldr	r4, [r3, #84]	; 0x54
    9fdc:	e51b3018 	ldr	r3, [fp, #-24]	; 0xffffffe8
    9fe0:	e5931024 	ldr	r1, [r3, #36]	; 0x24
    9fe4:	e30c30b8 	movw	r3, #49336	; 0xc0b8
    9fe8:	e3403001 	movt	r3, #1
    9fec:	e51b2010 	ldr	r2, [fp, #-16]
    9ff0:	e7d33082 	ldrb	r3, [r3, r2, lsl #1]
    9ff4:	e1e03c83 	mvn	r3, r3, lsl #25
    9ff8:	e1e03ca3 	mvn	r3, r3, lsr #25
    9ffc:	e6efe073 	uxtb	lr, r3
    a000:	e51b3010 	ldr	r3, [fp, #-16]
    a004:	e1a03083 	lsl	r3, r3, #1
    a008:	e2832001 	add	r2, r3, #1
    a00c:	e30c30b8 	movw	r3, #49336	; 0xc0b8
    a010:	e3403001 	movt	r3, #1
    a014:	e082c003 	add	ip, r2, r3
    a018:	e3a03001 	mov	r3, #1
    a01c:	e58d3000 	str	r3, [sp]
    a020:	e1a00001 	mov	r0, r1
    a024:	e3a01065 	mov	r1, #101	; 0x65
    a028:	e1a0200e 	mov	r2, lr
    a02c:	e1a0300c 	mov	r3, ip
    a030:	e12fff34 	blx	r4
    a034:	e1a03000 	mov	r3, r0
    a038:	e54b3011 	strb	r3, [fp, #-17]	; 0xffffffef
    a03c:	e51b3010 	ldr	r3, [fp, #-16]
    a040:	e2833001 	add	r3, r3, #1
    a044:	e50b3010 	str	r3, [fp, #-16]
    a048:	e51b3010 	ldr	r3, [fp, #-16]
    a04c:	e3530005 	cmp	r3, #5
    a050:	daffffde 	ble	9fd0 <fmc_imageon_vclk_config+0x3d4>
    a054:	ea000024 	b	a0ec <fmc_imageon_vclk_config+0x4f0>
    a058:	e3a03000 	mov	r3, #0
    a05c:	e50b3010 	str	r3, [fp, #-16]
    a060:	ea00001d 	b	a0dc <fmc_imageon_vclk_config+0x4e0>
    a064:	e51b3018 	ldr	r3, [fp, #-24]	; 0xffffffe8
    a068:	e5933024 	ldr	r3, [r3, #36]	; 0x24
    a06c:	e5934054 	ldr	r4, [r3, #84]	; 0x54
    a070:	e51b3018 	ldr	r3, [fp, #-24]	; 0xffffffe8
    a074:	e5931024 	ldr	r1, [r3, #36]	; 0x24
    a078:	e30c30c4 	movw	r3, #49348	; 0xc0c4
    a07c:	e3403001 	movt	r3, #1
    a080:	e51b2010 	ldr	r2, [fp, #-16]
    a084:	e7d33082 	ldrb	r3, [r3, r2, lsl #1]
    a088:	e1e03c83 	mvn	r3, r3, lsl #25
    a08c:	e1e03ca3 	mvn	r3, r3, lsr #25
    a090:	e6efe073 	uxtb	lr, r3
    a094:	e51b3010 	ldr	r3, [fp, #-16]
    a098:	e1a03083 	lsl	r3, r3, #1
    a09c:	e2832001 	add	r2, r3, #1
    a0a0:	e30c30c4 	movw	r3, #49348	; 0xc0c4
    a0a4:	e3403001 	movt	r3, #1
    a0a8:	e082c003 	add	ip, r2, r3
    a0ac:	e3a03001 	mov	r3, #1
    a0b0:	e58d3000 	str	r3, [sp]
    a0b4:	e1a00001 	mov	r0, r1
    a0b8:	e3a01065 	mov	r1, #101	; 0x65
    a0bc:	e1a0200e 	mov	r2, lr
    a0c0:	e1a0300c 	mov	r3, ip
    a0c4:	e12fff34 	blx	r4
    a0c8:	e1a03000 	mov	r3, r0
    a0cc:	e54b3011 	strb	r3, [fp, #-17]	; 0xffffffef
    a0d0:	e51b3010 	ldr	r3, [fp, #-16]
    a0d4:	e2833001 	add	r3, r3, #1
    a0d8:	e50b3010 	str	r3, [fp, #-16]
    a0dc:	e51b3010 	ldr	r3, [fp, #-16]
    a0e0:	e3530005 	cmp	r3, #5
    a0e4:	daffffde 	ble	a064 <fmc_imageon_vclk_config+0x468>
    a0e8:	e1a00000 	nop			; (mov r0, r0)
    a0ec:	e24bd008 	sub	sp, fp, #8
    a0f0:	e8bd8810 	pop	{r4, fp, pc}

0000a0f4 <fmc_imageon_hdmii_init2>:
    a0f4:	e92d4800 	push	{fp, lr}
    a0f8:	e28db004 	add	fp, sp, #4
    a0fc:	e24dd010 	sub	sp, sp, #16
    a100:	e50b0008 	str	r0, [fp, #-8]
    a104:	e50b100c 	str	r1, [fp, #-12]
    a108:	e50b2010 	str	r2, [fp, #-16]
    a10c:	e50b3014 	str	r3, [fp, #-20]	; 0xffffffec
    a110:	e30b0330 	movw	r0, #45872	; 0xb330
    a114:	e3400001 	movt	r0, #1
    a118:	e59b1004 	ldr	r1, [fp, #4]
    a11c:	ebfff5a9 	bl	77c8 <printf>
    a120:	e30c3100 	movw	r3, #49408	; 0xc100
    a124:	e3403001 	movt	r3, #1
    a128:	e5d3301e 	ldrb	r3, [r3, #30]
    a12c:	e1a01003 	mov	r1, r3
    a130:	e30c3100 	movw	r3, #49408	; 0xc100
    a134:	e3403001 	movt	r3, #1
    a138:	e5d3301f 	ldrb	r3, [r3, #31]
    a13c:	e1a02003 	mov	r2, r3
    a140:	e30c3100 	movw	r3, #49408	; 0xc100
    a144:	e3403001 	movt	r3, #1
    a148:	e5d33020 	ldrb	r3, [r3, #32]
    a14c:	e30b0344 	movw	r0, #45892	; 0xb344
    a150:	e3400001 	movt	r0, #1
    a154:	ebfff59b 	bl	77c8 <printf>
    a158:	e30c3100 	movw	r3, #49408	; 0xc100
    a15c:	e3403001 	movt	r3, #1
    a160:	e5d33020 	ldrb	r3, [r3, #32]
    a164:	e3c33001 	bic	r3, r3, #1
    a168:	e6ef2073 	uxtb	r2, r3
    a16c:	e30c3100 	movw	r3, #49408	; 0xc100
    a170:	e3403001 	movt	r3, #1
    a174:	e5c32020 	strb	r2, [r3, #32]
    a178:	e30c3100 	movw	r3, #49408	; 0xc100
    a17c:	e3403001 	movt	r3, #1
    a180:	e5d32020 	ldrb	r2, [r3, #32]
    a184:	e59b3004 	ldr	r3, [fp, #4]
    a188:	e6ef3073 	uxtb	r3, r3
    a18c:	e2033001 	and	r3, r3, #1
    a190:	e6ef3073 	uxtb	r3, r3
    a194:	e1823003 	orr	r3, r2, r3
    a198:	e6ef2073 	uxtb	r2, r3
    a19c:	e30c3100 	movw	r3, #49408	; 0xc100
    a1a0:	e3403001 	movt	r3, #1
    a1a4:	e5c32020 	strb	r2, [r3, #32]
    a1a8:	e30c3100 	movw	r3, #49408	; 0xc100
    a1ac:	e3403001 	movt	r3, #1
    a1b0:	e5d3301e 	ldrb	r3, [r3, #30]
    a1b4:	e1a01003 	mov	r1, r3
    a1b8:	e30c3100 	movw	r3, #49408	; 0xc100
    a1bc:	e3403001 	movt	r3, #1
    a1c0:	e5d3301f 	ldrb	r3, [r3, #31]
    a1c4:	e1a02003 	mov	r2, r3
    a1c8:	e30c3100 	movw	r3, #49408	; 0xc100
    a1cc:	e3403001 	movt	r3, #1
    a1d0:	e5d33020 	ldrb	r3, [r3, #32]
    a1d4:	e30b0380 	movw	r0, #45952	; 0xb380
    a1d8:	e3400001 	movt	r0, #1
    a1dc:	ebfff579 	bl	77c8 <printf>
    a1e0:	e30b03bc 	movw	r0, #46012	; 0xb3bc
    a1e4:	e3400001 	movt	r0, #1
    a1e8:	e59b1008 	ldr	r1, [fp, #8]
    a1ec:	ebfff575 	bl	77c8 <printf>
    a1f0:	e30c3100 	movw	r3, #49408	; 0xc100
    a1f4:	e3403001 	movt	r3, #1
    a1f8:	e5d33021 	ldrb	r3, [r3, #33]	; 0x21
    a1fc:	e1a01003 	mov	r1, r3
    a200:	e30c3100 	movw	r3, #49408	; 0xc100
    a204:	e3403001 	movt	r3, #1
    a208:	e5d33022 	ldrb	r3, [r3, #34]	; 0x22
    a20c:	e1a02003 	mov	r2, r3
    a210:	e30c3100 	movw	r3, #49408	; 0xc100
    a214:	e3403001 	movt	r3, #1
    a218:	e5d33023 	ldrb	r3, [r3, #35]	; 0x23
    a21c:	e30b03d0 	movw	r0, #46032	; 0xb3d0
    a220:	e3400001 	movt	r0, #1
    a224:	ebfff567 	bl	77c8 <printf>
    a228:	e30c3100 	movw	r3, #49408	; 0xc100
    a22c:	e3403001 	movt	r3, #1
    a230:	e5d33023 	ldrb	r3, [r3, #35]	; 0x23
    a234:	e3c3307f 	bic	r3, r3, #127	; 0x7f
    a238:	e6ef2073 	uxtb	r2, r3
    a23c:	e30c3100 	movw	r3, #49408	; 0xc100
    a240:	e3403001 	movt	r3, #1
    a244:	e5c32023 	strb	r2, [r3, #35]	; 0x23
    a248:	e30c3100 	movw	r3, #49408	; 0xc100
    a24c:	e3403001 	movt	r3, #1
    a250:	e5d32023 	ldrb	r2, [r3, #35]	; 0x23
    a254:	e59b3008 	ldr	r3, [fp, #8]
    a258:	e6ef3073 	uxtb	r3, r3
    a25c:	e203301f 	and	r3, r3, #31
    a260:	e6ef3073 	uxtb	r3, r3
    a264:	e1823003 	orr	r3, r2, r3
    a268:	e6ef2073 	uxtb	r2, r3
    a26c:	e30c3100 	movw	r3, #49408	; 0xc100
    a270:	e3403001 	movt	r3, #1
    a274:	e5c32023 	strb	r2, [r3, #35]	; 0x23
    a278:	e30c3100 	movw	r3, #49408	; 0xc100
    a27c:	e3403001 	movt	r3, #1
    a280:	e5d33021 	ldrb	r3, [r3, #33]	; 0x21
    a284:	e1a01003 	mov	r1, r3
    a288:	e30c3100 	movw	r3, #49408	; 0xc100
    a28c:	e3403001 	movt	r3, #1
    a290:	e5d33022 	ldrb	r3, [r3, #34]	; 0x22
    a294:	e1a02003 	mov	r2, r3
    a298:	e30c3100 	movw	r3, #49408	; 0xc100
    a29c:	e3403001 	movt	r3, #1
    a2a0:	e5d33023 	ldrb	r3, [r3, #35]	; 0x23
    a2a4:	e30b040c 	movw	r0, #46092	; 0xb40c
    a2a8:	e3400001 	movt	r0, #1
    a2ac:	ebfff545 	bl	77c8 <printf>
    a2b0:	e51b0008 	ldr	r0, [fp, #-8]
    a2b4:	e51b100c 	ldr	r1, [fp, #-12]
    a2b8:	e51b2010 	ldr	r2, [fp, #-16]
    a2bc:	e51b3014 	ldr	r3, [fp, #-20]	; 0xffffffec
    a2c0:	eb000002 	bl	a2d0 <fmc_imageon_hdmii_init>
    a2c4:	e1a00003 	mov	r0, r3
    a2c8:	e24bd004 	sub	sp, fp, #4
    a2cc:	e8bd8800 	pop	{fp, pc}

0000a2d0 <fmc_imageon_hdmii_init>:
    a2d0:	e92d4800 	push	{fp, lr}
    a2d4:	e28db004 	add	fp, sp, #4
    a2d8:	e24dd010 	sub	sp, sp, #16
    a2dc:	e50b0008 	str	r0, [fp, #-8]
    a2e0:	e50b100c 	str	r1, [fp, #-12]
    a2e4:	e50b2010 	str	r2, [fp, #-16]
    a2e8:	e50b3014 	str	r3, [fp, #-20]	; 0xffffffec
    a2ec:	e51b300c 	ldr	r3, [fp, #-12]
    a2f0:	e3530000 	cmp	r3, #0
    a2f4:	1a00000c 	bne	a32c <fmc_imageon_hdmii_init+0x5c>
    a2f8:	e51b0008 	ldr	r0, [fp, #-8]
    a2fc:	e3a01000 	mov	r1, #0
    a300:	eb000045 	bl	a41c <fmc_imageon_hdmii_set_hpd>
    a304:	e3040240 	movw	r0, #16960	; 0x4240
    a308:	e340000f 	movt	r0, #15
    a30c:	eb0003f0 	bl	b2d4 <fmc_imageon_wait_usec>
    a310:	e51b0008 	ldr	r0, [fp, #-8]
    a314:	e3a01001 	mov	r1, #1
    a318:	eb000077 	bl	a4fc <fmc_imageon_hdmii_set_rst>
    a31c:	e3040240 	movw	r0, #16960	; 0x4240
    a320:	e340000f 	movt	r0, #15
    a324:	eb0003ea 	bl	b2d4 <fmc_imageon_wait_usec>
    a328:	ea000037 	b	a40c <fmc_imageon_hdmii_init+0x13c>
    a32c:	e51b0008 	ldr	r0, [fp, #-8]
    a330:	e3a01000 	mov	r1, #0
    a334:	eb000038 	bl	a41c <fmc_imageon_hdmii_set_hpd>
    a338:	e3040240 	movw	r0, #16960	; 0x4240
    a33c:	e340000f 	movt	r0, #15
    a340:	eb0003e3 	bl	b2d4 <fmc_imageon_wait_usec>
    a344:	e51b0008 	ldr	r0, [fp, #-8]
    a348:	e3a01000 	mov	r1, #0
    a34c:	eb00006a 	bl	a4fc <fmc_imageon_hdmii_set_rst>
    a350:	e3040240 	movw	r0, #16960	; 0x4240
    a354:	e340000f 	movt	r0, #15
    a358:	eb0003dd 	bl	b2d4 <fmc_imageon_wait_usec>
    a35c:	e51b0008 	ldr	r0, [fp, #-8]
    a360:	e3a01002 	mov	r1, #2
    a364:	ebfffd2d 	bl	9820 <fmc_imageon_iic_mux>
    a368:	e51b0008 	ldr	r0, [fp, #-8]
    a36c:	e30c10d4 	movw	r1, #49364	; 0xc0d4
    a370:	e3401001 	movt	r1, #1
    a374:	e3a02007 	mov	r2, #7
    a378:	ebfffdbf 	bl	9a7c <fmc_imageon_iic_config3>
    a37c:	e51b3010 	ldr	r3, [fp, #-16]
    a380:	e3530000 	cmp	r3, #0
    a384:	0a000002 	beq	a394 <fmc_imageon_hdmii_init+0xc4>
    a388:	e51b0008 	ldr	r0, [fp, #-8]
    a38c:	e51b1014 	ldr	r1, [fp, #-20]	; 0xffffffec
    a390:	eb00036b 	bl	b144 <fmc_imageon_hdmii_write_edid>
    a394:	e51b0008 	ldr	r0, [fp, #-8]
    a398:	e30c10f0 	movw	r1, #49392	; 0xc0f0
    a39c:	e3401001 	movt	r1, #1
    a3a0:	e3a02005 	mov	r2, #5
    a3a4:	ebfffdb4 	bl	9a7c <fmc_imageon_iic_config3>
    a3a8:	e51b0008 	ldr	r0, [fp, #-8]
    a3ac:	e3a01001 	mov	r1, #1
    a3b0:	eb000019 	bl	a41c <fmc_imageon_hdmii_set_hpd>
    a3b4:	e3040240 	movw	r0, #16960	; 0x4240
    a3b8:	e340000f 	movt	r0, #15
    a3bc:	eb0003c4 	bl	b2d4 <fmc_imageon_wait_usec>
    a3c0:	e51b0008 	ldr	r0, [fp, #-8]
    a3c4:	e3a01002 	mov	r1, #2
    a3c8:	ebfffd14 	bl	9820 <fmc_imageon_iic_mux>
    a3cc:	e51b0008 	ldr	r0, [fp, #-8]
    a3d0:	e30c1100 	movw	r1, #49408	; 0xc100
    a3d4:	e3401001 	movt	r1, #1
    a3d8:	e3a0202a 	mov	r2, #42	; 0x2a
    a3dc:	ebfffda6 	bl	9a7c <fmc_imageon_iic_config3>
    a3e0:	e51b0008 	ldr	r0, [fp, #-8]
    a3e4:	e3a01002 	mov	r1, #2
    a3e8:	ebfffd0c 	bl	9820 <fmc_imageon_iic_mux>
    a3ec:	e51b0008 	ldr	r0, [fp, #-8]
    a3f0:	e30c1180 	movw	r1, #49536	; 0xc180
    a3f4:	e3401001 	movt	r1, #1
    a3f8:	e3a02002 	mov	r2, #2
    a3fc:	ebfffd9e 	bl	9a7c <fmc_imageon_iic_config3>
    a400:	e30806a0 	movw	r0, #34464	; 0x86a0
    a404:	e3400001 	movt	r0, #1
    a408:	eb0003b1 	bl	b2d4 <fmc_imageon_wait_usec>
    a40c:	e3a03001 	mov	r3, #1
    a410:	e1a00003 	mov	r0, r3
    a414:	e24bd004 	sub	sp, fp, #4
    a418:	e8bd8800 	pop	{fp, pc}

0000a41c <fmc_imageon_hdmii_set_hpd>:
    a41c:	e92d4810 	push	{r4, fp, lr}
    a420:	e28db008 	add	fp, sp, #8
    a424:	e24dd01c 	sub	sp, sp, #28
    a428:	e50b0018 	str	r0, [fp, #-24]	; 0xffffffe8
    a42c:	e50b101c 	str	r1, [fp, #-28]	; 0xffffffe4
    a430:	e51b0018 	ldr	r0, [fp, #-24]	; 0xffffffe8
    a434:	e3a01003 	mov	r1, #3
    a438:	ebfffcf8 	bl	9820 <fmc_imageon_iic_mux>
    a43c:	e3a03001 	mov	r3, #1
    a440:	e54b300d 	strb	r3, [fp, #-13]
    a444:	e51b3018 	ldr	r3, [fp, #-24]	; 0xffffffe8
    a448:	e5933024 	ldr	r3, [r3, #36]	; 0x24
    a44c:	e5934050 	ldr	r4, [r3, #80]	; 0x50
    a450:	e51b3018 	ldr	r3, [fp, #-24]	; 0xffffffe8
    a454:	e5931024 	ldr	r1, [r3, #36]	; 0x24
    a458:	e55b200d 	ldrb	r2, [fp, #-13]
    a45c:	e24bc00f 	sub	ip, fp, #15
    a460:	e3a03001 	mov	r3, #1
    a464:	e58d3000 	str	r3, [sp]
    a468:	e1a00001 	mov	r0, r1
    a46c:	e3a01020 	mov	r1, #32
    a470:	e1a0300c 	mov	r3, ip
    a474:	e12fff34 	blx	r4
    a478:	e1a03000 	mov	r3, r0
    a47c:	e54b300e 	strb	r3, [fp, #-14]
    a480:	e51b301c 	ldr	r3, [fp, #-28]	; 0xffffffe4
    a484:	e3530000 	cmp	r3, #0
    a488:	0a000004 	beq	a4a0 <fmc_imageon_hdmii_set_hpd+0x84>
    a48c:	e55b300f 	ldrb	r3, [fp, #-15]
    a490:	e3833004 	orr	r3, r3, #4
    a494:	e6ef3073 	uxtb	r3, r3
    a498:	e54b300f 	strb	r3, [fp, #-15]
    a49c:	ea000003 	b	a4b0 <fmc_imageon_hdmii_set_hpd+0x94>
    a4a0:	e55b300f 	ldrb	r3, [fp, #-15]
    a4a4:	e3c33004 	bic	r3, r3, #4
    a4a8:	e6ef3073 	uxtb	r3, r3
    a4ac:	e54b300f 	strb	r3, [fp, #-15]
    a4b0:	e51b3018 	ldr	r3, [fp, #-24]	; 0xffffffe8
    a4b4:	e5933024 	ldr	r3, [r3, #36]	; 0x24
    a4b8:	e5934054 	ldr	r4, [r3, #84]	; 0x54
    a4bc:	e51b3018 	ldr	r3, [fp, #-24]	; 0xffffffe8
    a4c0:	e5931024 	ldr	r1, [r3, #36]	; 0x24
    a4c4:	e55b200d 	ldrb	r2, [fp, #-13]
    a4c8:	e24bc00f 	sub	ip, fp, #15
    a4cc:	e3a03001 	mov	r3, #1
    a4d0:	e58d3000 	str	r3, [sp]
    a4d4:	e1a00001 	mov	r0, r1
    a4d8:	e3a01020 	mov	r1, #32
    a4dc:	e1a0300c 	mov	r3, ip
    a4e0:	e12fff34 	blx	r4
    a4e4:	e1a03000 	mov	r3, r0
    a4e8:	e54b300e 	strb	r3, [fp, #-14]
    a4ec:	e3a03001 	mov	r3, #1
    a4f0:	e1a00003 	mov	r0, r3
    a4f4:	e24bd008 	sub	sp, fp, #8
    a4f8:	e8bd8810 	pop	{r4, fp, pc}

0000a4fc <fmc_imageon_hdmii_set_rst>:
    a4fc:	e92d4810 	push	{r4, fp, lr}
    a500:	e28db008 	add	fp, sp, #8
    a504:	e24dd01c 	sub	sp, sp, #28
    a508:	e50b0018 	str	r0, [fp, #-24]	; 0xffffffe8
    a50c:	e50b101c 	str	r1, [fp, #-28]	; 0xffffffe4
    a510:	e51b0018 	ldr	r0, [fp, #-24]	; 0xffffffe8
    a514:	e3a01003 	mov	r1, #3
    a518:	ebfffcc0 	bl	9820 <fmc_imageon_iic_mux>
    a51c:	e3a03001 	mov	r3, #1
    a520:	e54b300d 	strb	r3, [fp, #-13]
    a524:	e51b3018 	ldr	r3, [fp, #-24]	; 0xffffffe8
    a528:	e5933024 	ldr	r3, [r3, #36]	; 0x24
    a52c:	e5934050 	ldr	r4, [r3, #80]	; 0x50
    a530:	e51b3018 	ldr	r3, [fp, #-24]	; 0xffffffe8
    a534:	e5931024 	ldr	r1, [r3, #36]	; 0x24
    a538:	e55b200d 	ldrb	r2, [fp, #-13]
    a53c:	e24bc00f 	sub	ip, fp, #15
    a540:	e3a03001 	mov	r3, #1
    a544:	e58d3000 	str	r3, [sp]
    a548:	e1a00001 	mov	r0, r1
    a54c:	e3a01020 	mov	r1, #32
    a550:	e1a0300c 	mov	r3, ip
    a554:	e12fff34 	blx	r4
    a558:	e1a03000 	mov	r3, r0
    a55c:	e54b300e 	strb	r3, [fp, #-14]
    a560:	e51b301c 	ldr	r3, [fp, #-28]	; 0xffffffe4
    a564:	e3530000 	cmp	r3, #0
    a568:	0a000004 	beq	a580 <fmc_imageon_hdmii_set_rst+0x84>
    a56c:	e55b300f 	ldrb	r3, [fp, #-15]
    a570:	e3c33001 	bic	r3, r3, #1
    a574:	e6ef3073 	uxtb	r3, r3
    a578:	e54b300f 	strb	r3, [fp, #-15]
    a57c:	ea000003 	b	a590 <fmc_imageon_hdmii_set_rst+0x94>
    a580:	e55b300f 	ldrb	r3, [fp, #-15]
    a584:	e3833001 	orr	r3, r3, #1
    a588:	e6ef3073 	uxtb	r3, r3
    a58c:	e54b300f 	strb	r3, [fp, #-15]
    a590:	e51b3018 	ldr	r3, [fp, #-24]	; 0xffffffe8
    a594:	e5933024 	ldr	r3, [r3, #36]	; 0x24
    a598:	e5934054 	ldr	r4, [r3, #84]	; 0x54
    a59c:	e51b3018 	ldr	r3, [fp, #-24]	; 0xffffffe8
    a5a0:	e5931024 	ldr	r1, [r3, #36]	; 0x24
    a5a4:	e55b200d 	ldrb	r2, [fp, #-13]
    a5a8:	e24bc00f 	sub	ip, fp, #15
    a5ac:	e3a03001 	mov	r3, #1
    a5b0:	e58d3000 	str	r3, [sp]
    a5b4:	e1a00001 	mov	r0, r1
    a5b8:	e3a01020 	mov	r1, #32
    a5bc:	e1a0300c 	mov	r3, ip
    a5c0:	e12fff34 	blx	r4
    a5c4:	e1a03000 	mov	r3, r0
    a5c8:	e54b300e 	strb	r3, [fp, #-14]
    a5cc:	e3a03001 	mov	r3, #1
    a5d0:	e1a00003 	mov	r0, r3
    a5d4:	e24bd008 	sub	sp, fp, #8
    a5d8:	e8bd8810 	pop	{r4, fp, pc}

0000a5dc <fmc_imageon_hdmii_get_int>:
    a5dc:	e92d4810 	push	{r4, fp, lr}
    a5e0:	e28db008 	add	fp, sp, #8
    a5e4:	e24dd01c 	sub	sp, sp, #28
    a5e8:	e50b0018 	str	r0, [fp, #-24]	; 0xffffffe8
    a5ec:	e50b101c 	str	r1, [fp, #-28]	; 0xffffffe4
    a5f0:	e51b0018 	ldr	r0, [fp, #-24]	; 0xffffffe8
    a5f4:	e3a01003 	mov	r1, #3
    a5f8:	ebfffc88 	bl	9820 <fmc_imageon_iic_mux>
    a5fc:	e3a03000 	mov	r3, #0
    a600:	e54b3011 	strb	r3, [fp, #-17]	; 0xffffffef
    a604:	e51b3018 	ldr	r3, [fp, #-24]	; 0xffffffe8
    a608:	e5933024 	ldr	r3, [r3, #36]	; 0x24
    a60c:	e5934050 	ldr	r4, [r3, #80]	; 0x50
    a610:	e51b3018 	ldr	r3, [fp, #-24]	; 0xffffffe8
    a614:	e5931024 	ldr	r1, [r3, #36]	; 0x24
    a618:	e55b2011 	ldrb	r2, [fp, #-17]	; 0xffffffef
    a61c:	e24bc013 	sub	ip, fp, #19
    a620:	e3a03001 	mov	r3, #1
    a624:	e58d3000 	str	r3, [sp]
    a628:	e1a00001 	mov	r0, r1
    a62c:	e3a01020 	mov	r1, #32
    a630:	e1a0300c 	mov	r3, ip
    a634:	e12fff34 	blx	r4
    a638:	e1a03000 	mov	r3, r0
    a63c:	e54b3012 	strb	r3, [fp, #-18]	; 0xffffffee
    a640:	e55b3013 	ldrb	r3, [fp, #-19]	; 0xffffffed
    a644:	e2033002 	and	r3, r3, #2
    a648:	e3530000 	cmp	r3, #0
    a64c:	0a000002 	beq	a65c <fmc_imageon_hdmii_get_int+0x80>
    a650:	e3a03001 	mov	r3, #1
    a654:	e50b3010 	str	r3, [fp, #-16]
    a658:	ea000001 	b	a664 <fmc_imageon_hdmii_get_int+0x88>
    a65c:	e3a03000 	mov	r3, #0
    a660:	e50b3010 	str	r3, [fp, #-16]
    a664:	e51b301c 	ldr	r3, [fp, #-28]	; 0xffffffe4
    a668:	e51b2010 	ldr	r2, [fp, #-16]
    a66c:	e5832000 	str	r2, [r3]
    a670:	e3a03001 	mov	r3, #1
    a674:	e1a00003 	mov	r0, r3
    a678:	e24bd008 	sub	sp, fp, #8
    a67c:	e8bd8810 	pop	{r4, fp, pc}

0000a680 <fmc_imageon_hdmii_get_lock>:
    a680:	e92d4810 	push	{r4, fp, lr}
    a684:	e28db008 	add	fp, sp, #8
    a688:	e24dd024 	sub	sp, sp, #36	; 0x24
    a68c:	e50b0020 	str	r0, [fp, #-32]	; 0xffffffe0
    a690:	e3a03007 	mov	r3, #7
    a694:	e54b300d 	strb	r3, [fp, #-13]
    a698:	e51b0020 	ldr	r0, [fp, #-32]	; 0xffffffe0
    a69c:	e3a01002 	mov	r1, #2
    a6a0:	ebfffc5e 	bl	9820 <fmc_imageon_iic_mux>
    a6a4:	e51b3020 	ldr	r3, [fp, #-32]	; 0xffffffe0
    a6a8:	e5933024 	ldr	r3, [r3, #36]	; 0x24
    a6ac:	e5934050 	ldr	r4, [r3, #80]	; 0x50
    a6b0:	e51b3020 	ldr	r3, [fp, #-32]	; 0xffffffe0
    a6b4:	e5931024 	ldr	r1, [r3, #36]	; 0x24
    a6b8:	e55b200d 	ldrb	r2, [fp, #-13]
    a6bc:	e24bc015 	sub	ip, fp, #21
    a6c0:	e3a03001 	mov	r3, #1
    a6c4:	e58d3000 	str	r3, [sp]
    a6c8:	e1a00001 	mov	r0, r1
    a6cc:	e3a01034 	mov	r1, #52	; 0x34
    a6d0:	e1a0300c 	mov	r3, ip
    a6d4:	e12fff34 	blx	r4
    a6d8:	e1a03000 	mov	r3, r0
    a6dc:	e54b300e 	strb	r3, [fp, #-14]
    a6e0:	e55b3015 	ldrb	r3, [fp, #-21]	; 0xffffffeb
    a6e4:	e20330a0 	and	r3, r3, #160	; 0xa0
    a6e8:	e35300a0 	cmp	r3, #160	; 0xa0
    a6ec:	03a03001 	moveq	r3, #1
    a6f0:	13a03000 	movne	r3, #0
    a6f4:	e6ef3073 	uxtb	r3, r3
    a6f8:	e50b3014 	str	r3, [fp, #-20]	; 0xffffffec
    a6fc:	e51b3014 	ldr	r3, [fp, #-20]	; 0xffffffec
    a700:	e1a00003 	mov	r0, r3
    a704:	e24bd008 	sub	sp, fp, #8
    a708:	e8bd8810 	pop	{r4, fp, pc}

0000a70c <fmc_imageon_hdmii_get_timing>:
    a70c:	e92d4810 	push	{r4, fp, lr}
    a710:	e28db008 	add	fp, sp, #8
    a714:	e24ddf5d 	sub	sp, sp, #372	; 0x174
    a718:	e50b0170 	str	r0, [fp, #-368]	; 0xfffffe90
    a71c:	e50b1174 	str	r1, [fp, #-372]	; 0xfffffe8c
    a720:	e51b0170 	ldr	r0, [fp, #-368]	; 0xfffffe90
    a724:	e3a01002 	mov	r1, #2
    a728:	ebfffc3c 	bl	9820 <fmc_imageon_iic_mux>
    a72c:	e3a03000 	mov	r3, #0
    a730:	e50b3010 	str	r3, [fp, #-16]
    a734:	ea000015 	b	a790 <fmc_imageon_hdmii_get_timing+0x84>
    a738:	e51b3010 	ldr	r3, [fp, #-16]
    a73c:	e54b3011 	strb	r3, [fp, #-17]	; 0xffffffef
    a740:	e51b3170 	ldr	r3, [fp, #-368]	; 0xfffffe90
    a744:	e5933024 	ldr	r3, [r3, #36]	; 0x24
    a748:	e5934050 	ldr	r4, [r3, #80]	; 0x50
    a74c:	e51b3170 	ldr	r3, [fp, #-368]	; 0xfffffe90
    a750:	e5931024 	ldr	r1, [r3, #36]	; 0x24
    a754:	e24b2f5a 	sub	r2, fp, #360	; 0x168
    a758:	e51b3010 	ldr	r3, [fp, #-16]
    a75c:	e082c003 	add	ip, r2, r3
    a760:	e55b2011 	ldrb	r2, [fp, #-17]	; 0xffffffef
    a764:	e3a03001 	mov	r3, #1
    a768:	e58d3000 	str	r3, [sp]
    a76c:	e1a00001 	mov	r0, r1
    a770:	e3a01034 	mov	r1, #52	; 0x34
    a774:	e1a0300c 	mov	r3, ip
    a778:	e12fff34 	blx	r4
    a77c:	e1a03000 	mov	r3, r0
    a780:	e54b3012 	strb	r3, [fp, #-18]	; 0xffffffee
    a784:	e51b3010 	ldr	r3, [fp, #-16]
    a788:	e2833001 	add	r3, r3, #1
    a78c:	e50b3010 	str	r3, [fp, #-16]
    a790:	e51b3010 	ldr	r3, [fp, #-16]
    a794:	e35300ff 	cmp	r3, #255	; 0xff
    a798:	daffffe6 	ble	a738 <fmc_imageon_hdmii_get_timing+0x2c>
    a79c:	e55b3163 	ldrb	r3, [fp, #-355]	; 0xfffffe9d
    a7a0:	e1a033a3 	lsr	r3, r3, #7
    a7a4:	e6ef3073 	uxtb	r3, r3
    a7a8:	e2033001 	and	r3, r3, #1
    a7ac:	e50b3018 	str	r3, [fp, #-24]	; 0xffffffe8
    a7b0:	e55b3163 	ldrb	r3, [fp, #-355]	; 0xfffffe9d
    a7b4:	e1a03323 	lsr	r3, r3, #6
    a7b8:	e6ef3073 	uxtb	r3, r3
    a7bc:	e2033001 	and	r3, r3, #1
    a7c0:	e50b301c 	str	r3, [fp, #-28]	; 0xffffffe4
    a7c4:	e55b315d 	ldrb	r3, [fp, #-349]	; 0xfffffea3
    a7c8:	e1a032a3 	lsr	r3, r3, #5
    a7cc:	e6ef3073 	uxtb	r3, r3
    a7d0:	e2033001 	and	r3, r3, #1
    a7d4:	e50b3020 	str	r3, [fp, #-32]	; 0xffffffe0
    a7d8:	e55b315d 	ldrb	r3, [fp, #-349]	; 0xfffffea3
    a7dc:	e1a03323 	lsr	r3, r3, #6
    a7e0:	e6ef3073 	uxtb	r3, r3
    a7e4:	e2033003 	and	r3, r3, #3
    a7e8:	e50b3024 	str	r3, [fp, #-36]	; 0xffffffdc
    a7ec:	e55b3161 	ldrb	r3, [fp, #-353]	; 0xfffffe9f
    a7f0:	e203301f 	and	r3, r3, #31
    a7f4:	e1a03403 	lsl	r3, r3, #8
    a7f8:	e55b2160 	ldrb	r2, [fp, #-352]	; 0xfffffea0
    a7fc:	e1833002 	orr	r3, r3, r2
    a800:	e50b3028 	str	r3, [fp, #-40]	; 0xffffffd8
    a804:	e55b3148 	ldrb	r3, [fp, #-328]	; 0xfffffeb8
    a808:	e203301f 	and	r3, r3, #31
    a80c:	e1a03403 	lsl	r3, r3, #8
    a810:	e55b2147 	ldrb	r2, [fp, #-327]	; 0xfffffeb9
    a814:	e1833002 	orr	r3, r3, r2
    a818:	e50b302c 	str	r3, [fp, #-44]	; 0xffffffd4
    a81c:	e55b3146 	ldrb	r3, [fp, #-326]	; 0xfffffeba
    a820:	e203301f 	and	r3, r3, #31
    a824:	e1a03403 	lsl	r3, r3, #8
    a828:	e55b2145 	ldrb	r2, [fp, #-325]	; 0xfffffebb
    a82c:	e1833002 	orr	r3, r3, r2
    a830:	e50b3030 	str	r3, [fp, #-48]	; 0xffffffd0
    a834:	e55b3144 	ldrb	r3, [fp, #-324]	; 0xfffffebc
    a838:	e203301f 	and	r3, r3, #31
    a83c:	e1a03403 	lsl	r3, r3, #8
    a840:	e55b2143 	ldrb	r2, [fp, #-323]	; 0xfffffebd
    a844:	e1833002 	orr	r3, r3, r2
    a848:	e50b3034 	str	r3, [fp, #-52]	; 0xffffffcc
    a84c:	e55b314a 	ldrb	r3, [fp, #-330]	; 0xfffffeb6
    a850:	e203303f 	and	r3, r3, #63	; 0x3f
    a854:	e1a03403 	lsl	r3, r3, #8
    a858:	e55b2149 	ldrb	r2, [fp, #-329]	; 0xfffffeb7
    a85c:	e1833002 	orr	r3, r3, r2
    a860:	e50b3038 	str	r3, [fp, #-56]	; 0xffffffc8
    a864:	e55b3163 	ldrb	r3, [fp, #-355]	; 0xfffffe9d
    a868:	e1a032a3 	lsr	r3, r3, #5
    a86c:	e6ef3073 	uxtb	r3, r3
    a870:	e2033001 	and	r3, r3, #1
    a874:	e50b303c 	str	r3, [fp, #-60]	; 0xffffffc4
    a878:	e55b315f 	ldrb	r3, [fp, #-351]	; 0xfffffea1
    a87c:	e203301f 	and	r3, r3, #31
    a880:	e1a03403 	lsl	r3, r3, #8
    a884:	e55b215e 	ldrb	r2, [fp, #-350]	; 0xfffffea2
    a888:	e1833002 	orr	r3, r3, r2
    a88c:	e50b3040 	str	r3, [fp, #-64]	; 0xffffffc0
    a890:	e55b313e 	ldrb	r3, [fp, #-318]	; 0xfffffec2
    a894:	e203303f 	and	r3, r3, #63	; 0x3f
    a898:	e1a03403 	lsl	r3, r3, #8
    a89c:	e55b213d 	ldrb	r2, [fp, #-317]	; 0xfffffec3
    a8a0:	e1833002 	orr	r3, r3, r2
    a8a4:	e50b3044 	str	r3, [fp, #-68]	; 0xffffffbc
    a8a8:	e55b313a 	ldrb	r3, [fp, #-314]	; 0xfffffec6
    a8ac:	e203303f 	and	r3, r3, #63	; 0x3f
    a8b0:	e1a03403 	lsl	r3, r3, #8
    a8b4:	e55b2139 	ldrb	r2, [fp, #-313]	; 0xfffffec7
    a8b8:	e1833002 	orr	r3, r3, r2
    a8bc:	e50b3048 	str	r3, [fp, #-72]	; 0xffffffb8
    a8c0:	e55b3136 	ldrb	r3, [fp, #-310]	; 0xfffffeca
    a8c4:	e203303f 	and	r3, r3, #63	; 0x3f
    a8c8:	e1a03403 	lsl	r3, r3, #8
    a8cc:	e55b2135 	ldrb	r2, [fp, #-309]	; 0xfffffecb
    a8d0:	e1833002 	orr	r3, r3, r2
    a8d4:	e50b304c 	str	r3, [fp, #-76]	; 0xffffffb4
    a8d8:	e55b3142 	ldrb	r3, [fp, #-322]	; 0xfffffebe
    a8dc:	e203303f 	and	r3, r3, #63	; 0x3f
    a8e0:	e1a03403 	lsl	r3, r3, #8
    a8e4:	e55b2141 	ldrb	r2, [fp, #-321]	; 0xfffffebf
    a8e8:	e1833002 	orr	r3, r3, r2
    a8ec:	e50b3050 	str	r3, [fp, #-80]	; 0xffffffb0
    a8f0:	e55b315d 	ldrb	r3, [fp, #-349]	; 0xfffffea3
    a8f4:	e203301f 	and	r3, r3, #31
    a8f8:	e1a03403 	lsl	r3, r3, #8
    a8fc:	e55b215c 	ldrb	r2, [fp, #-348]	; 0xfffffea4
    a900:	e1833002 	orr	r3, r3, r2
    a904:	e50b3054 	str	r3, [fp, #-84]	; 0xffffffac
    a908:	e55b313c 	ldrb	r3, [fp, #-316]	; 0xfffffec4
    a90c:	e203303f 	and	r3, r3, #63	; 0x3f
    a910:	e1a03403 	lsl	r3, r3, #8
    a914:	e55b213b 	ldrb	r2, [fp, #-315]	; 0xfffffec5
    a918:	e1833002 	orr	r3, r3, r2
    a91c:	e50b3058 	str	r3, [fp, #-88]	; 0xffffffa8
    a920:	e55b3138 	ldrb	r3, [fp, #-312]	; 0xfffffec8
    a924:	e203303f 	and	r3, r3, #63	; 0x3f
    a928:	e1a03403 	lsl	r3, r3, #8
    a92c:	e55b2137 	ldrb	r2, [fp, #-311]	; 0xfffffec9
    a930:	e1833002 	orr	r3, r3, r2
    a934:	e50b305c 	str	r3, [fp, #-92]	; 0xffffffa4
    a938:	e55b3134 	ldrb	r3, [fp, #-308]	; 0xfffffecc
    a93c:	e203303f 	and	r3, r3, #63	; 0x3f
    a940:	e1a03403 	lsl	r3, r3, #8
    a944:	e55b2133 	ldrb	r2, [fp, #-307]	; 0xfffffecd
    a948:	e1833002 	orr	r3, r3, r2
    a94c:	e50b3060 	str	r3, [fp, #-96]	; 0xffffffa0
    a950:	e55b3140 	ldrb	r3, [fp, #-320]	; 0xfffffec0
    a954:	e203303f 	and	r3, r3, #63	; 0x3f
    a958:	e1a03403 	lsl	r3, r3, #8
    a95c:	e55b213f 	ldrb	r2, [fp, #-319]	; 0xfffffec1
    a960:	e1833002 	orr	r3, r3, r2
    a964:	e50b3064 	str	r3, [fp, #-100]	; 0xffffff9c
    a968:	e55b3163 	ldrb	r3, [fp, #-355]	; 0xfffffe9d
    a96c:	e1a03223 	lsr	r3, r3, #4
    a970:	e6ef3073 	uxtb	r3, r3
    a974:	e2033001 	and	r3, r3, #1
    a978:	e50b3068 	str	r3, [fp, #-104]	; 0xffffff98
    a97c:	e51b0174 	ldr	r0, [fp, #-372]	; 0xfffffe8c
    a980:	e3a01000 	mov	r1, #0
    a984:	e3a02038 	mov	r2, #56	; 0x38
    a988:	eb0007ac 	bl	c840 <memset>
    a98c:	e51b3174 	ldr	r3, [fp, #-372]	; 0xfffffe8c
    a990:	e51b2018 	ldr	r2, [fp, #-24]	; 0xffffffe8
    a994:	e5832000 	str	r2, [r3]
    a998:	e51b3174 	ldr	r3, [fp, #-372]	; 0xfffffe8c
    a99c:	e51b201c 	ldr	r2, [fp, #-28]	; 0xffffffe4
    a9a0:	e5832004 	str	r2, [r3, #4]
    a9a4:	e51b3174 	ldr	r3, [fp, #-372]	; 0xfffffe8c
    a9a8:	e51b2020 	ldr	r2, [fp, #-32]	; 0xffffffe0
    a9ac:	e5832008 	str	r2, [r3, #8]
    a9b0:	e51b3024 	ldr	r3, [fp, #-36]	; 0xffffffdc
    a9b4:	e3530003 	cmp	r3, #3
    a9b8:	0a000003 	beq	a9cc <fmc_imageon_hdmii_get_timing+0x2c0>
    a9bc:	e51b3024 	ldr	r3, [fp, #-36]	; 0xffffffdc
    a9c0:	e2833004 	add	r3, r3, #4
    a9c4:	e1a03083 	lsl	r3, r3, #1
    a9c8:	ea000000 	b	a9d0 <fmc_imageon_hdmii_get_timing+0x2c4>
    a9cc:	e3a03010 	mov	r3, #16
    a9d0:	e51b2174 	ldr	r2, [fp, #-372]	; 0xfffffe8c
    a9d4:	e582300c 	str	r3, [r2, #12]
    a9d8:	e51b3174 	ldr	r3, [fp, #-372]	; 0xfffffe8c
    a9dc:	e51b2028 	ldr	r2, [fp, #-40]	; 0xffffffd8
    a9e0:	e5832010 	str	r2, [r3, #16]
    a9e4:	e51b3174 	ldr	r3, [fp, #-372]	; 0xfffffe8c
    a9e8:	e51b202c 	ldr	r2, [fp, #-44]	; 0xffffffd4
    a9ec:	e5832014 	str	r2, [r3, #20]
    a9f0:	e51b3174 	ldr	r3, [fp, #-372]	; 0xfffffe8c
    a9f4:	e51b2030 	ldr	r2, [fp, #-48]	; 0xffffffd0
    a9f8:	e5832018 	str	r2, [r3, #24]
    a9fc:	e51b3174 	ldr	r3, [fp, #-372]	; 0xfffffe8c
    aa00:	e51b2034 	ldr	r2, [fp, #-52]	; 0xffffffcc
    aa04:	e583201c 	str	r2, [r3, #28]
    aa08:	e51b3174 	ldr	r3, [fp, #-372]	; 0xfffffe8c
    aa0c:	e51b203c 	ldr	r2, [fp, #-60]	; 0xffffffc4
    aa10:	e5832020 	str	r2, [r3, #32]
    aa14:	e51b3020 	ldr	r3, [fp, #-32]	; 0xffffffe0
    aa18:	e3530000 	cmp	r3, #0
    aa1c:	1a000011 	bne	aa68 <fmc_imageon_hdmii_get_timing+0x35c>
    aa20:	e51b3174 	ldr	r3, [fp, #-372]	; 0xfffffe8c
    aa24:	e51b2040 	ldr	r2, [fp, #-64]	; 0xffffffc0
    aa28:	e5832024 	str	r2, [r3, #36]	; 0x24
    aa2c:	e51b3044 	ldr	r3, [fp, #-68]	; 0xffffffbc
    aa30:	e1a020a3 	lsr	r2, r3, #1
    aa34:	e51b3174 	ldr	r3, [fp, #-372]	; 0xfffffe8c
    aa38:	e5832028 	str	r2, [r3, #40]	; 0x28
    aa3c:	e51b3048 	ldr	r3, [fp, #-72]	; 0xffffffb8
    aa40:	e1a020a3 	lsr	r2, r3, #1
    aa44:	e51b3174 	ldr	r3, [fp, #-372]	; 0xfffffe8c
    aa48:	e583202c 	str	r2, [r3, #44]	; 0x2c
    aa4c:	e51b304c 	ldr	r3, [fp, #-76]	; 0xffffffb4
    aa50:	e1a020a3 	lsr	r2, r3, #1
    aa54:	e51b3174 	ldr	r3, [fp, #-372]	; 0xfffffe8c
    aa58:	e5832030 	str	r2, [r3, #48]	; 0x30
    aa5c:	e51b3174 	ldr	r3, [fp, #-372]	; 0xfffffe8c
    aa60:	e51b2068 	ldr	r2, [fp, #-104]	; 0xffffff98
    aa64:	e5832034 	str	r2, [r3, #52]	; 0x34
    aa68:	e3a03001 	mov	r3, #1
    aa6c:	e1a00003 	mov	r0, r3
    aa70:	e24bd008 	sub	sp, fp, #8
    aa74:	e8bd8810 	pop	{r4, fp, pc}

0000aa78 <fmc_imageon_hdmio_init>:
    aa78:	e92d4810 	push	{r4, fp, lr}
    aa7c:	e28db008 	add	fp, sp, #8
    aa80:	e24dd02c 	sub	sp, sp, #44	; 0x2c
    aa84:	e50b0020 	str	r0, [fp, #-32]	; 0xffffffe0
    aa88:	e50b1024 	str	r1, [fp, #-36]	; 0xffffffdc
    aa8c:	e50b2028 	str	r2, [fp, #-40]	; 0xffffffd8
    aa90:	e50b302c 	str	r3, [fp, #-44]	; 0xffffffd4
    aa94:	e51b3024 	ldr	r3, [fp, #-36]	; 0xffffffdc
    aa98:	e3530000 	cmp	r3, #0
    aa9c:	1a000006 	bne	aabc <fmc_imageon_hdmio_init+0x44>
    aaa0:	e51b0020 	ldr	r0, [fp, #-32]	; 0xffffffe0
    aaa4:	e3a01001 	mov	r1, #1
    aaa8:	eb000117 	bl	af0c <fmc_imageon_hdmio_set_pd>
    aaac:	e30806a0 	movw	r0, #34464	; 0x86a0
    aab0:	e3400001 	movt	r0, #1
    aab4:	eb000206 	bl	b2d4 <fmc_imageon_wait_usec>
    aab8:	ea00010f 	b	aefc <fmc_imageon_hdmio_init+0x484>
    aabc:	e51b0020 	ldr	r0, [fp, #-32]	; 0xffffffe0
    aac0:	e3a01000 	mov	r1, #0
    aac4:	eb000110 	bl	af0c <fmc_imageon_hdmio_set_pd>
    aac8:	e30806a0 	movw	r0, #34464	; 0x86a0
    aacc:	e3400001 	movt	r0, #1
    aad0:	eb0001ff 	bl	b2d4 <fmc_imageon_wait_usec>
    aad4:	e51b0020 	ldr	r0, [fp, #-32]	; 0xffffffe0
    aad8:	e3a01001 	mov	r1, #1
    aadc:	ebfffb4f 	bl	9820 <fmc_imageon_iic_mux>
    aae0:	e3a03000 	mov	r3, #0
    aae4:	e50b3014 	str	r3, [fp, #-20]	; 0xffffffec
    aae8:	ea000034 	b	abc0 <fmc_imageon_hdmio_init+0x148>
    aaec:	e30c2188 	movw	r2, #49544	; 0xc188
    aaf0:	e3402001 	movt	r2, #1
    aaf4:	e51b1014 	ldr	r1, [fp, #-20]	; 0xffffffec
    aaf8:	e1a03001 	mov	r3, r1
    aafc:	e1a03083 	lsl	r3, r3, #1
    ab00:	e0833001 	add	r3, r3, r1
    ab04:	e2833001 	add	r3, r3, #1
    ab08:	e0823003 	add	r3, r2, r3
    ab0c:	e5d33000 	ldrb	r3, [r3]
    ab10:	e35300af 	cmp	r3, #175	; 0xaf
    ab14:	1a000026 	bne	abb4 <fmc_imageon_hdmio_init+0x13c>
    ab18:	e51b3028 	ldr	r3, [fp, #-40]	; 0xffffffd8
    ab1c:	e5933000 	ldr	r3, [r3]
    ab20:	e3530000 	cmp	r3, #0
    ab24:	0a000011 	beq	ab70 <fmc_imageon_hdmio_init+0xf8>
    ab28:	e51b3020 	ldr	r3, [fp, #-32]	; 0xffffffe0
    ab2c:	e593302c 	ldr	r3, [r3, #44]	; 0x2c
    ab30:	e3530000 	cmp	r3, #0
    ab34:	0a000002 	beq	ab44 <fmc_imageon_hdmio_init+0xcc>
    ab38:	e30b0448 	movw	r0, #46152	; 0xb448
    ab3c:	e3400001 	movt	r0, #1
    ab40:	ebfff596 	bl	81a0 <uart_puts>
    ab44:	e30c2188 	movw	r2, #49544	; 0xc188
    ab48:	e3402001 	movt	r2, #1
    ab4c:	e51b1014 	ldr	r1, [fp, #-20]	; 0xffffffec
    ab50:	e1a03001 	mov	r3, r1
    ab54:	e1a03083 	lsl	r3, r3, #1
    ab58:	e0833001 	add	r3, r3, r1
    ab5c:	e2833002 	add	r3, r3, #2
    ab60:	e0823003 	add	r3, r2, r3
    ab64:	e3a02006 	mov	r2, #6
    ab68:	e5c32000 	strb	r2, [r3]
    ab6c:	ea000010 	b	abb4 <fmc_imageon_hdmio_init+0x13c>
    ab70:	e51b3020 	ldr	r3, [fp, #-32]	; 0xffffffe0
    ab74:	e593302c 	ldr	r3, [r3, #44]	; 0x2c
    ab78:	e3530000 	cmp	r3, #0
    ab7c:	0a000002 	beq	ab8c <fmc_imageon_hdmio_init+0x114>
    ab80:	e30b0478 	movw	r0, #46200	; 0xb478
    ab84:	e3400001 	movt	r0, #1
    ab88:	ebfff584 	bl	81a0 <uart_puts>
    ab8c:	e30c2188 	movw	r2, #49544	; 0xc188
    ab90:	e3402001 	movt	r2, #1
    ab94:	e51b1014 	ldr	r1, [fp, #-20]	; 0xffffffec
    ab98:	e1a03001 	mov	r3, r1
    ab9c:	e1a03083 	lsl	r3, r3, #1
    aba0:	e0833001 	add	r3, r3, r1
    aba4:	e2833002 	add	r3, r3, #2
    aba8:	e0823003 	add	r3, r2, r3
    abac:	e3a02004 	mov	r2, #4
    abb0:	e5c32000 	strb	r2, [r3]
    abb4:	e51b3014 	ldr	r3, [fp, #-20]	; 0xffffffec
    abb8:	e2833001 	add	r3, r3, #1
    abbc:	e50b3014 	str	r3, [fp, #-20]	; 0xffffffec
    abc0:	e51b3014 	ldr	r3, [fp, #-20]	; 0xffffffec
    abc4:	e3530024 	cmp	r3, #36	; 0x24
    abc8:	daffffc7 	ble	aaec <fmc_imageon_hdmio_init+0x74>
    abcc:	e51b0020 	ldr	r0, [fp, #-32]	; 0xffffffe0
    abd0:	e30c1188 	movw	r1, #49544	; 0xc188
    abd4:	e3401001 	movt	r1, #1
    abd8:	e3a02025 	mov	r2, #37	; 0x25
    abdc:	ebfffba6 	bl	9a7c <fmc_imageon_iic_config3>
    abe0:	e51b3028 	ldr	r3, [fp, #-40]	; 0xffffffd8
    abe4:	e5933014 	ldr	r3, [r3, #20]
    abe8:	e1a03123 	lsr	r3, r3, #2
    abec:	e6ef2073 	uxtb	r2, r3
    abf0:	e30c31f8 	movw	r3, #49656	; 0xc1f8
    abf4:	e3403001 	movt	r3, #1
    abf8:	e5c32002 	strb	r2, [r3, #2]
    abfc:	e51b3028 	ldr	r3, [fp, #-40]	; 0xffffffd8
    ac00:	e5933014 	ldr	r3, [r3, #20]
    ac04:	e6ef3073 	uxtb	r3, r3
    ac08:	e1a03303 	lsl	r3, r3, #6
    ac0c:	e6ef3073 	uxtb	r3, r3
    ac10:	e6ef2073 	uxtb	r2, r3
    ac14:	e51b3028 	ldr	r3, [fp, #-40]	; 0xffffffd8
    ac18:	e5933018 	ldr	r3, [r3, #24]
    ac1c:	e1a03223 	lsr	r3, r3, #4
    ac20:	e6ef3073 	uxtb	r3, r3
    ac24:	e203303f 	and	r3, r3, #63	; 0x3f
    ac28:	e6ef3073 	uxtb	r3, r3
    ac2c:	e1823003 	orr	r3, r2, r3
    ac30:	e6ef3073 	uxtb	r3, r3
    ac34:	e6ef2073 	uxtb	r2, r3
    ac38:	e30c31f8 	movw	r3, #49656	; 0xc1f8
    ac3c:	e3403001 	movt	r3, #1
    ac40:	e5c32005 	strb	r2, [r3, #5]
    ac44:	e51b3028 	ldr	r3, [fp, #-40]	; 0xffffffd8
    ac48:	e5933018 	ldr	r3, [r3, #24]
    ac4c:	e6ef3073 	uxtb	r3, r3
    ac50:	e1a03203 	lsl	r3, r3, #4
    ac54:	e6ef3073 	uxtb	r3, r3
    ac58:	e6ef2073 	uxtb	r2, r3
    ac5c:	e51b3028 	ldr	r3, [fp, #-40]	; 0xffffffd8
    ac60:	e5933028 	ldr	r3, [r3, #40]	; 0x28
    ac64:	e1a03323 	lsr	r3, r3, #6
    ac68:	e6ef3073 	uxtb	r3, r3
    ac6c:	e203300f 	and	r3, r3, #15
    ac70:	e6ef3073 	uxtb	r3, r3
    ac74:	e1823003 	orr	r3, r2, r3
    ac78:	e6ef3073 	uxtb	r3, r3
    ac7c:	e6ef2073 	uxtb	r2, r3
    ac80:	e30c31f8 	movw	r3, #49656	; 0xc1f8
    ac84:	e3403001 	movt	r3, #1
    ac88:	e5c32008 	strb	r2, [r3, #8]
    ac8c:	e51b3028 	ldr	r3, [fp, #-40]	; 0xffffffd8
    ac90:	e5933028 	ldr	r3, [r3, #40]	; 0x28
    ac94:	e6ef3073 	uxtb	r3, r3
    ac98:	e1a03103 	lsl	r3, r3, #2
    ac9c:	e6ef3073 	uxtb	r3, r3
    aca0:	e6ef2073 	uxtb	r2, r3
    aca4:	e51b3028 	ldr	r3, [fp, #-40]	; 0xffffffd8
    aca8:	e593302c 	ldr	r3, [r3, #44]	; 0x2c
    acac:	e1a03423 	lsr	r3, r3, #8
    acb0:	e6ef3073 	uxtb	r3, r3
    acb4:	e2033003 	and	r3, r3, #3
    acb8:	e6ef3073 	uxtb	r3, r3
    acbc:	e1823003 	orr	r3, r2, r3
    acc0:	e6ef3073 	uxtb	r3, r3
    acc4:	e6ef2073 	uxtb	r2, r3
    acc8:	e30c31f8 	movw	r3, #49656	; 0xc1f8
    accc:	e3403001 	movt	r3, #1
    acd0:	e5c3200b 	strb	r2, [r3, #11]
    acd4:	e51b3028 	ldr	r3, [fp, #-40]	; 0xffffffd8
    acd8:	e593302c 	ldr	r3, [r3, #44]	; 0x2c
    acdc:	e6ef2073 	uxtb	r2, r3
    ace0:	e30c31f8 	movw	r3, #49656	; 0xc1f8
    ace4:	e3403001 	movt	r3, #1
    ace8:	e5c3200e 	strb	r2, [r3, #14]
    acec:	e30c31f8 	movw	r3, #49656	; 0xc1f8
    acf0:	e3403001 	movt	r3, #1
    acf4:	e3a02000 	mov	r2, #0
    acf8:	e5c32011 	strb	r2, [r3, #17]
    acfc:	e51b3020 	ldr	r3, [fp, #-32]	; 0xffffffe0
    ad00:	e593302c 	ldr	r3, [r3, #44]	; 0x2c
    ad04:	e3530000 	cmp	r3, #0
    ad08:	0a00002b 	beq	adbc <fmc_imageon_hdmio_init+0x344>
    ad0c:	e3a03000 	mov	r3, #0
    ad10:	e50b3018 	str	r3, [fp, #-24]	; 0xffffffe8
    ad14:	ea000025 	b	adb0 <fmc_imageon_hdmio_init+0x338>
    ad18:	e30c21f8 	movw	r2, #49656	; 0xc1f8
    ad1c:	e3402001 	movt	r2, #1
    ad20:	e51b1018 	ldr	r1, [fp, #-24]	; 0xffffffe8
    ad24:	e1a03001 	mov	r3, r1
    ad28:	e1a03083 	lsl	r3, r3, #1
    ad2c:	e0833001 	add	r3, r3, r1
    ad30:	e0823003 	add	r3, r2, r3
    ad34:	e5d33000 	ldrb	r3, [r3]
    ad38:	e1a0c083 	lsl	ip, r3, #1
    ad3c:	e30c21f8 	movw	r2, #49656	; 0xc1f8
    ad40:	e3402001 	movt	r2, #1
    ad44:	e51b1018 	ldr	r1, [fp, #-24]	; 0xffffffe8
    ad48:	e1a03001 	mov	r3, r1
    ad4c:	e1a03083 	lsl	r3, r3, #1
    ad50:	e0833001 	add	r3, r3, r1
    ad54:	e2833001 	add	r3, r3, #1
    ad58:	e0823003 	add	r3, r2, r3
    ad5c:	e5d33000 	ldrb	r3, [r3]
    ad60:	e1a0e003 	mov	lr, r3
    ad64:	e30c21f8 	movw	r2, #49656	; 0xc1f8
    ad68:	e3402001 	movt	r2, #1
    ad6c:	e51b1018 	ldr	r1, [fp, #-24]	; 0xffffffe8
    ad70:	e1a03001 	mov	r3, r1
    ad74:	e1a03083 	lsl	r3, r3, #1
    ad78:	e0833001 	add	r3, r3, r1
    ad7c:	e2833002 	add	r3, r3, #2
    ad80:	e0823003 	add	r3, r2, r3
    ad84:	e5d33000 	ldrb	r3, [r3]
    ad88:	e58d3000 	str	r3, [sp]
    ad8c:	e30b04a4 	movw	r0, #46244	; 0xb4a4
    ad90:	e3400001 	movt	r0, #1
    ad94:	e51b1018 	ldr	r1, [fp, #-24]	; 0xffffffe8
    ad98:	e1a0200c 	mov	r2, ip
    ad9c:	e1a0300e 	mov	r3, lr
    ada0:	ebfff288 	bl	77c8 <printf>
    ada4:	e51b3018 	ldr	r3, [fp, #-24]	; 0xffffffe8
    ada8:	e2833001 	add	r3, r3, #1
    adac:	e50b3018 	str	r3, [fp, #-24]	; 0xffffffe8
    adb0:	e51b3018 	ldr	r3, [fp, #-24]	; 0xffffffe8
    adb4:	e3530005 	cmp	r3, #5
    adb8:	daffffd6 	ble	ad18 <fmc_imageon_hdmio_init+0x2a0>
    adbc:	e51b0020 	ldr	r0, [fp, #-32]	; 0xffffffe0
    adc0:	e30c11f8 	movw	r1, #49656	; 0xc1f8
    adc4:	e3401001 	movt	r1, #1
    adc8:	e3a02006 	mov	r2, #6
    adcc:	ebfffb2a 	bl	9a7c <fmc_imageon_iic_config3>
    add0:	e30806a0 	movw	r0, #34464	; 0x86a0
    add4:	e3400001 	movt	r0, #1
    add8:	eb00013d 	bl	b2d4 <fmc_imageon_wait_usec>
    addc:	e3a03039 	mov	r3, #57	; 0x39
    ade0:	e54b3019 	strb	r3, [fp, #-25]	; 0xffffffe7
    ade4:	e3e03069 	mvn	r3, #105	; 0x69
    ade8:	e54b301a 	strb	r3, [fp, #-26]	; 0xffffffe6
    adec:	e51b3020 	ldr	r3, [fp, #-32]	; 0xffffffe0
    adf0:	e5933024 	ldr	r3, [r3, #36]	; 0x24
    adf4:	e5934050 	ldr	r4, [r3, #80]	; 0x50
    adf8:	e51b3020 	ldr	r3, [fp, #-32]	; 0xffffffe0
    adfc:	e5930024 	ldr	r0, [r3, #36]	; 0x24
    ae00:	e55b1019 	ldrb	r1, [fp, #-25]	; 0xffffffe7
    ae04:	e55b201a 	ldrb	r2, [fp, #-26]	; 0xffffffe6
    ae08:	e24bc01c 	sub	ip, fp, #28
    ae0c:	e3a03001 	mov	r3, #1
    ae10:	e58d3000 	str	r3, [sp]
    ae14:	e1a0300c 	mov	r3, ip
    ae18:	e12fff34 	blx	r4
    ae1c:	e1a03000 	mov	r3, r0
    ae20:	e54b301b 	strb	r3, [fp, #-27]	; 0xffffffe5
    ae24:	e55b301b 	ldrb	r3, [fp, #-27]	; 0xffffffe5
    ae28:	e3530000 	cmp	r3, #0
    ae2c:	1a000002 	bne	ae3c <fmc_imageon_hdmio_init+0x3c4>
    ae30:	e30b04dc 	movw	r0, #46300	; 0xb4dc
    ae34:	e3400001 	movt	r0, #1
    ae38:	ebfff4d8 	bl	81a0 <uart_puts>
    ae3c:	e51b302c 	ldr	r3, [fp, #-44]	; 0xffffffd4
    ae40:	e3530000 	cmp	r3, #0
    ae44:	0a00002c 	beq	aefc <fmc_imageon_hdmio_init+0x484>
    ae48:	e3a03063 	mov	r3, #99	; 0x63
    ae4c:	e50b3010 	str	r3, [fp, #-16]
    ae50:	ea000017 	b	aeb4 <fmc_imageon_hdmio_init+0x43c>
    ae54:	e51b3020 	ldr	r3, [fp, #-32]	; 0xffffffe0
    ae58:	e5933024 	ldr	r3, [r3, #36]	; 0x24
    ae5c:	e5934050 	ldr	r4, [r3, #80]	; 0x50
    ae60:	e51b3020 	ldr	r3, [fp, #-32]	; 0xffffffe0
    ae64:	e5930024 	ldr	r0, [r3, #36]	; 0x24
    ae68:	e55b1019 	ldrb	r1, [fp, #-25]	; 0xffffffe7
    ae6c:	e55b201a 	ldrb	r2, [fp, #-26]	; 0xffffffe6
    ae70:	e24bc01c 	sub	ip, fp, #28
    ae74:	e3a03001 	mov	r3, #1
    ae78:	e58d3000 	str	r3, [sp]
    ae7c:	e1a0300c 	mov	r3, ip
    ae80:	e12fff34 	blx	r4
    ae84:	e1a03000 	mov	r3, r0
    ae88:	e54b301b 	strb	r3, [fp, #-27]	; 0xffffffe5
    ae8c:	e55b301b 	ldrb	r3, [fp, #-27]	; 0xffffffe5
    ae90:	e3530000 	cmp	r3, #0
    ae94:	1a000006 	bne	aeb4 <fmc_imageon_hdmio_init+0x43c>
    ae98:	e30b0508 	movw	r0, #46344	; 0xb508
    ae9c:	e3400001 	movt	r0, #1
    aea0:	ebfff4be 	bl	81a0 <uart_puts>
    aea4:	e3a03000 	mov	r3, #0
    aea8:	e50b3010 	str	r3, [fp, #-16]
    aeac:	e3a03000 	mov	r3, #0
    aeb0:	ea000012 	b	af00 <fmc_imageon_hdmio_init+0x488>
    aeb4:	e55b301c 	ldrb	r3, [fp, #-28]	; 0xffffffe4
    aeb8:	e20330c0 	and	r3, r3, #192	; 0xc0
    aebc:	e35300c0 	cmp	r3, #192	; 0xc0
    aec0:	0a000005 	beq	aedc <fmc_imageon_hdmio_init+0x464>
    aec4:	e51b3010 	ldr	r3, [fp, #-16]
    aec8:	e2433001 	sub	r3, r3, #1
    aecc:	e50b3010 	str	r3, [fp, #-16]
    aed0:	e51b3010 	ldr	r3, [fp, #-16]
    aed4:	e3530000 	cmp	r3, #0
    aed8:	1affffdd 	bne	ae54 <fmc_imageon_hdmio_init+0x3dc>
    aedc:	e51b3010 	ldr	r3, [fp, #-16]
    aee0:	e3530000 	cmp	r3, #0
    aee4:	1a000004 	bne	aefc <fmc_imageon_hdmio_init+0x484>
    aee8:	e30b054c 	movw	r0, #46412	; 0xb54c
    aeec:	e3400001 	movt	r0, #1
    aef0:	ebfff4aa 	bl	81a0 <uart_puts>
    aef4:	e3a03000 	mov	r3, #0
    aef8:	ea000000 	b	af00 <fmc_imageon_hdmio_init+0x488>
    aefc:	e3a03001 	mov	r3, #1
    af00:	e1a00003 	mov	r0, r3
    af04:	e24bd008 	sub	sp, fp, #8
    af08:	e8bd8810 	pop	{r4, fp, pc}

0000af0c <fmc_imageon_hdmio_set_pd>:
    af0c:	e92d4810 	push	{r4, fp, lr}
    af10:	e28db008 	add	fp, sp, #8
    af14:	e24dd01c 	sub	sp, sp, #28
    af18:	e50b0018 	str	r0, [fp, #-24]	; 0xffffffe8
    af1c:	e50b101c 	str	r1, [fp, #-28]	; 0xffffffe4
    af20:	e51b0018 	ldr	r0, [fp, #-24]	; 0xffffffe8
    af24:	e3a01003 	mov	r1, #3
    af28:	ebfffa3c 	bl	9820 <fmc_imageon_iic_mux>
    af2c:	e3a03001 	mov	r3, #1
    af30:	e54b300d 	strb	r3, [fp, #-13]
    af34:	e51b3018 	ldr	r3, [fp, #-24]	; 0xffffffe8
    af38:	e5933024 	ldr	r3, [r3, #36]	; 0x24
    af3c:	e5934050 	ldr	r4, [r3, #80]	; 0x50
    af40:	e51b3018 	ldr	r3, [fp, #-24]	; 0xffffffe8
    af44:	e5931024 	ldr	r1, [r3, #36]	; 0x24
    af48:	e55b200d 	ldrb	r2, [fp, #-13]
    af4c:	e24bc00f 	sub	ip, fp, #15
    af50:	e3a03001 	mov	r3, #1
    af54:	e58d3000 	str	r3, [sp]
    af58:	e1a00001 	mov	r0, r1
    af5c:	e3a01020 	mov	r1, #32
    af60:	e1a0300c 	mov	r3, ip
    af64:	e12fff34 	blx	r4
    af68:	e1a03000 	mov	r3, r0
    af6c:	e54b300e 	strb	r3, [fp, #-14]
    af70:	e51b301c 	ldr	r3, [fp, #-28]	; 0xffffffe4
    af74:	e3530000 	cmp	r3, #0
    af78:	0a000004 	beq	af90 <fmc_imageon_hdmio_set_pd+0x84>
    af7c:	e55b300f 	ldrb	r3, [fp, #-15]
    af80:	e3833010 	orr	r3, r3, #16
    af84:	e6ef3073 	uxtb	r3, r3
    af88:	e54b300f 	strb	r3, [fp, #-15]
    af8c:	ea000003 	b	afa0 <fmc_imageon_hdmio_set_pd+0x94>
    af90:	e55b300f 	ldrb	r3, [fp, #-15]
    af94:	e3c33010 	bic	r3, r3, #16
    af98:	e6ef3073 	uxtb	r3, r3
    af9c:	e54b300f 	strb	r3, [fp, #-15]
    afa0:	e51b3018 	ldr	r3, [fp, #-24]	; 0xffffffe8
    afa4:	e5933024 	ldr	r3, [r3, #36]	; 0x24
    afa8:	e5934054 	ldr	r4, [r3, #84]	; 0x54
    afac:	e51b3018 	ldr	r3, [fp, #-24]	; 0xffffffe8
    afb0:	e5931024 	ldr	r1, [r3, #36]	; 0x24
    afb4:	e55b200d 	ldrb	r2, [fp, #-13]
    afb8:	e24bc00f 	sub	ip, fp, #15
    afbc:	e3a03001 	mov	r3, #1
    afc0:	e58d3000 	str	r3, [sp]
    afc4:	e1a00001 	mov	r0, r1
    afc8:	e3a01020 	mov	r1, #32
    afcc:	e1a0300c 	mov	r3, ip
    afd0:	e12fff34 	blx	r4
    afd4:	e1a03000 	mov	r3, r0
    afd8:	e54b300e 	strb	r3, [fp, #-14]
    afdc:	e3a03001 	mov	r3, #1
    afe0:	e1a00003 	mov	r0, r3
    afe4:	e24bd008 	sub	sp, fp, #8
    afe8:	e8bd8810 	pop	{r4, fp, pc}

0000afec <fmc_imageon_hdmio_get_hpd>:
    afec:	e92d4810 	push	{r4, fp, lr}
    aff0:	e28db008 	add	fp, sp, #8
    aff4:	e24dd01c 	sub	sp, sp, #28
    aff8:	e50b0018 	str	r0, [fp, #-24]	; 0xffffffe8
    affc:	e50b101c 	str	r1, [fp, #-28]	; 0xffffffe4
    b000:	e51b0018 	ldr	r0, [fp, #-24]	; 0xffffffe8
    b004:	e3a01003 	mov	r1, #3
    b008:	ebfffa04 	bl	9820 <fmc_imageon_iic_mux>
    b00c:	e3a03000 	mov	r3, #0
    b010:	e54b3011 	strb	r3, [fp, #-17]	; 0xffffffef
    b014:	e51b3018 	ldr	r3, [fp, #-24]	; 0xffffffe8
    b018:	e5933024 	ldr	r3, [r3, #36]	; 0x24
    b01c:	e5934050 	ldr	r4, [r3, #80]	; 0x50
    b020:	e51b3018 	ldr	r3, [fp, #-24]	; 0xffffffe8
    b024:	e5931024 	ldr	r1, [r3, #36]	; 0x24
    b028:	e55b2011 	ldrb	r2, [fp, #-17]	; 0xffffffef
    b02c:	e24bc013 	sub	ip, fp, #19
    b030:	e3a03001 	mov	r3, #1
    b034:	e58d3000 	str	r3, [sp]
    b038:	e1a00001 	mov	r0, r1
    b03c:	e3a01020 	mov	r1, #32
    b040:	e1a0300c 	mov	r3, ip
    b044:	e12fff34 	blx	r4
    b048:	e1a03000 	mov	r3, r0
    b04c:	e54b3012 	strb	r3, [fp, #-18]	; 0xffffffee
    b050:	e55b3013 	ldrb	r3, [fp, #-19]	; 0xffffffed
    b054:	e2033008 	and	r3, r3, #8
    b058:	e3530000 	cmp	r3, #0
    b05c:	0a000002 	beq	b06c <fmc_imageon_hdmio_get_hpd+0x80>
    b060:	e3a03001 	mov	r3, #1
    b064:	e50b3010 	str	r3, [fp, #-16]
    b068:	ea000001 	b	b074 <fmc_imageon_hdmio_get_hpd+0x88>
    b06c:	e3a03000 	mov	r3, #0
    b070:	e50b3010 	str	r3, [fp, #-16]
    b074:	e51b2010 	ldr	r2, [fp, #-16]
    b078:	e51b301c 	ldr	r3, [fp, #-28]	; 0xffffffe4
    b07c:	e5832000 	str	r2, [r3]
    b080:	e3a03001 	mov	r3, #1
    b084:	e1a00003 	mov	r0, r3
    b088:	e24bd008 	sub	sp, fp, #8
    b08c:	e8bd8810 	pop	{r4, fp, pc}

0000b090 <fmc_imageon_hdmii_read_edid>:
    b090:	e92d4810 	push	{r4, fp, lr}
    b094:	e28db008 	add	fp, sp, #8
    b098:	e24dd01c 	sub	sp, sp, #28
    b09c:	e50b0018 	str	r0, [fp, #-24]	; 0xffffffe8
    b0a0:	e50b101c 	str	r1, [fp, #-28]	; 0xffffffe4
    b0a4:	e3a03000 	mov	r3, #0
    b0a8:	e54b300d 	strb	r3, [fp, #-13]
    b0ac:	e51b0018 	ldr	r0, [fp, #-24]	; 0xffffffe8
    b0b0:	e3a01002 	mov	r1, #2
    b0b4:	ebfff9d9 	bl	9820 <fmc_imageon_iic_mux>
    b0b8:	e3a03000 	mov	r3, #0
    b0bc:	e50b3014 	str	r3, [fp, #-20]	; 0xffffffec
    b0c0:	ea000018 	b	b128 <fmc_imageon_hdmii_read_edid+0x98>
    b0c4:	e51b3018 	ldr	r3, [fp, #-24]	; 0xffffffe8
    b0c8:	e5933024 	ldr	r3, [r3, #36]	; 0x24
    b0cc:	e5934050 	ldr	r4, [r3, #80]	; 0x50
    b0d0:	e51b3018 	ldr	r3, [fp, #-24]	; 0xffffffe8
    b0d4:	e5931024 	ldr	r1, [r3, #36]	; 0x24
    b0d8:	e51b3014 	ldr	r3, [fp, #-20]	; 0xffffffec
    b0dc:	e6efe073 	uxtb	lr, r3
    b0e0:	e51b3014 	ldr	r3, [fp, #-20]	; 0xffffffec
    b0e4:	e51b201c 	ldr	r2, [fp, #-28]	; 0xffffffe4
    b0e8:	e082c003 	add	ip, r2, r3
    b0ec:	e3a03001 	mov	r3, #1
    b0f0:	e58d3000 	str	r3, [sp]
    b0f4:	e1a00001 	mov	r0, r1
    b0f8:	e3a01036 	mov	r1, #54	; 0x36
    b0fc:	e1a0200e 	mov	r2, lr
    b100:	e1a0300c 	mov	r3, ip
    b104:	e12fff34 	blx	r4
    b108:	e1a03000 	mov	r3, r0
    b10c:	e6ef2073 	uxtb	r2, r3
    b110:	e55b300d 	ldrb	r3, [fp, #-13]
    b114:	e0823003 	add	r3, r2, r3
    b118:	e54b300d 	strb	r3, [fp, #-13]
    b11c:	e51b3014 	ldr	r3, [fp, #-20]	; 0xffffffec
    b120:	e2833001 	add	r3, r3, #1
    b124:	e50b3014 	str	r3, [fp, #-20]	; 0xffffffec
    b128:	e51b3014 	ldr	r3, [fp, #-20]	; 0xffffffec
    b12c:	e35300ff 	cmp	r3, #255	; 0xff
    b130:	daffffe3 	ble	b0c4 <fmc_imageon_hdmii_read_edid+0x34>
    b134:	e55b300d 	ldrb	r3, [fp, #-13]
    b138:	e1a00003 	mov	r0, r3
    b13c:	e24bd008 	sub	sp, fp, #8
    b140:	e8bd8810 	pop	{r4, fp, pc}

0000b144 <fmc_imageon_hdmii_write_edid>:
    b144:	e92d4810 	push	{r4, fp, lr}
    b148:	e28db008 	add	fp, sp, #8
    b14c:	e24dd01c 	sub	sp, sp, #28
    b150:	e50b0018 	str	r0, [fp, #-24]	; 0xffffffe8
    b154:	e50b101c 	str	r1, [fp, #-28]	; 0xffffffe4
    b158:	e3a03000 	mov	r3, #0
    b15c:	e54b300d 	strb	r3, [fp, #-13]
    b160:	e51b0018 	ldr	r0, [fp, #-24]	; 0xffffffe8
    b164:	e3a01002 	mov	r1, #2
    b168:	ebfff9ac 	bl	9820 <fmc_imageon_iic_mux>
    b16c:	e51b0018 	ldr	r0, [fp, #-24]	; 0xffffffe8
    b170:	e30c10ec 	movw	r1, #49388	; 0xc0ec
    b174:	e3401001 	movt	r1, #1
    b178:	e3a02001 	mov	r2, #1
    b17c:	ebfffa3e 	bl	9a7c <fmc_imageon_iic_config3>
    b180:	e3a03000 	mov	r3, #0
    b184:	e50b3014 	str	r3, [fp, #-20]	; 0xffffffec
    b188:	ea000018 	b	b1f0 <fmc_imageon_hdmii_write_edid+0xac>
    b18c:	e51b3018 	ldr	r3, [fp, #-24]	; 0xffffffe8
    b190:	e5933024 	ldr	r3, [r3, #36]	; 0x24
    b194:	e5934054 	ldr	r4, [r3, #84]	; 0x54
    b198:	e51b3018 	ldr	r3, [fp, #-24]	; 0xffffffe8
    b19c:	e5931024 	ldr	r1, [r3, #36]	; 0x24
    b1a0:	e51b3014 	ldr	r3, [fp, #-20]	; 0xffffffec
    b1a4:	e6efe073 	uxtb	lr, r3
    b1a8:	e51b3014 	ldr	r3, [fp, #-20]	; 0xffffffec
    b1ac:	e51b201c 	ldr	r2, [fp, #-28]	; 0xffffffe4
    b1b0:	e082c003 	add	ip, r2, r3
    b1b4:	e3a03001 	mov	r3, #1
    b1b8:	e58d3000 	str	r3, [sp]
    b1bc:	e1a00001 	mov	r0, r1
    b1c0:	e3a01036 	mov	r1, #54	; 0x36
    b1c4:	e1a0200e 	mov	r2, lr
    b1c8:	e1a0300c 	mov	r3, ip
    b1cc:	e12fff34 	blx	r4
    b1d0:	e1a03000 	mov	r3, r0
    b1d4:	e6ef2073 	uxtb	r2, r3
    b1d8:	e55b300d 	ldrb	r3, [fp, #-13]
    b1dc:	e0823003 	add	r3, r2, r3
    b1e0:	e54b300d 	strb	r3, [fp, #-13]
    b1e4:	e51b3014 	ldr	r3, [fp, #-20]	; 0xffffffec
    b1e8:	e2833001 	add	r3, r3, #1
    b1ec:	e50b3014 	str	r3, [fp, #-20]	; 0xffffffec
    b1f0:	e51b3014 	ldr	r3, [fp, #-20]	; 0xffffffec
    b1f4:	e35300ff 	cmp	r3, #255	; 0xff
    b1f8:	daffffe3 	ble	b18c <fmc_imageon_hdmii_write_edid+0x48>
    b1fc:	e51b0018 	ldr	r0, [fp, #-24]	; 0xffffffe8
    b200:	e30c10f0 	movw	r1, #49392	; 0xc0f0
    b204:	e3401001 	movt	r1, #1
    b208:	e3a02005 	mov	r2, #5
    b20c:	ebfffa1a 	bl	9a7c <fmc_imageon_iic_config3>
    b210:	e55b300d 	ldrb	r3, [fp, #-13]
    b214:	e1a00003 	mov	r0, r3
    b218:	e24bd008 	sub	sp, fp, #8
    b21c:	e8bd8810 	pop	{r4, fp, pc}

0000b220 <fmc_imageon_hdmio_read_edid>:
    b220:	e92d4810 	push	{r4, fp, lr}
    b224:	e28db008 	add	fp, sp, #8
    b228:	e24dd01c 	sub	sp, sp, #28
    b22c:	e50b0018 	str	r0, [fp, #-24]	; 0xffffffe8
    b230:	e50b101c 	str	r1, [fp, #-28]	; 0xffffffe4
    b234:	e3a03000 	mov	r3, #0
    b238:	e54b300d 	strb	r3, [fp, #-13]
    b23c:	e51b0018 	ldr	r0, [fp, #-24]	; 0xffffffe8
    b240:	e3a01000 	mov	r1, #0
    b244:	ebfff975 	bl	9820 <fmc_imageon_iic_mux>
    b248:	e3a03000 	mov	r3, #0
    b24c:	e50b3014 	str	r3, [fp, #-20]	; 0xffffffec
    b250:	ea000018 	b	b2b8 <fmc_imageon_hdmio_read_edid+0x98>
    b254:	e51b3018 	ldr	r3, [fp, #-24]	; 0xffffffe8
    b258:	e5933024 	ldr	r3, [r3, #36]	; 0x24
    b25c:	e5934050 	ldr	r4, [r3, #80]	; 0x50
    b260:	e51b3018 	ldr	r3, [fp, #-24]	; 0xffffffe8
    b264:	e5931024 	ldr	r1, [r3, #36]	; 0x24
    b268:	e51b3014 	ldr	r3, [fp, #-20]	; 0xffffffec
    b26c:	e6efe073 	uxtb	lr, r3
    b270:	e51b3014 	ldr	r3, [fp, #-20]	; 0xffffffec
    b274:	e51b201c 	ldr	r2, [fp, #-28]	; 0xffffffe4
    b278:	e082c003 	add	ip, r2, r3
    b27c:	e3a03001 	mov	r3, #1
    b280:	e58d3000 	str	r3, [sp]
    b284:	e1a00001 	mov	r0, r1
    b288:	e3a01050 	mov	r1, #80	; 0x50
    b28c:	e1a0200e 	mov	r2, lr
    b290:	e1a0300c 	mov	r3, ip
    b294:	e12fff34 	blx	r4
    b298:	e1a03000 	mov	r3, r0
    b29c:	e6ef2073 	uxtb	r2, r3
    b2a0:	e55b300d 	ldrb	r3, [fp, #-13]
    b2a4:	e0823003 	add	r3, r2, r3
    b2a8:	e54b300d 	strb	r3, [fp, #-13]
    b2ac:	e51b3014 	ldr	r3, [fp, #-20]	; 0xffffffec
    b2b0:	e2833001 	add	r3, r3, #1
    b2b4:	e50b3014 	str	r3, [fp, #-20]	; 0xffffffec
    b2b8:	e51b3014 	ldr	r3, [fp, #-20]	; 0xffffffec
    b2bc:	e35300ff 	cmp	r3, #255	; 0xff
    b2c0:	daffffe3 	ble	b254 <fmc_imageon_hdmio_read_edid+0x34>
    b2c4:	e55b300d 	ldrb	r3, [fp, #-13]
    b2c8:	e1a00003 	mov	r0, r3
    b2cc:	e24bd008 	sub	sp, fp, #8
    b2d0:	e8bd8810 	pop	{r4, fp, pc}

0000b2d4 <fmc_imageon_wait_usec>:
    b2d4:	e92d4800 	push	{fp, lr}
    b2d8:	e28db004 	add	fp, sp, #4
    b2dc:	e24dd008 	sub	sp, sp, #8
    b2e0:	e50b0008 	str	r0, [fp, #-8]
    b2e4:	e51b0008 	ldr	r0, [fp, #-8]
    b2e8:	eb00135a 	bl	10058 <usleep>
    b2ec:	e24bd004 	sub	sp, fp, #4
    b2f0:	e8bd8800 	pop	{fp, pc}

0000b2f4 <vdet_init>:
    b2f4:	e92d4800 	push	{fp, lr}
    b2f8:	e28db004 	add	fp, sp, #4
    b2fc:	e24dd010 	sub	sp, sp, #16
    b300:	e50b0010 	str	r0, [fp, #-16]
    b304:	e1a03001 	mov	r3, r1
    b308:	e14b31b2 	strh	r3, [fp, #-18]	; 0xffffffee
    b30c:	e15b31b2 	ldrh	r3, [fp, #-18]	; 0xffffffee
    b310:	e1a00003 	mov	r0, r3
    b314:	eb001f69 	bl	130c0 <XVtc_LookupConfig>
    b318:	e50b0008 	str	r0, [fp, #-8]
    b31c:	e51b3008 	ldr	r3, [fp, #-8]
    b320:	e3530000 	cmp	r3, #0
    b324:	1a000001 	bne	b330 <vdet_init+0x3c>
    b328:	e3a03001 	mov	r3, #1
    b32c:	ea00000c 	b	b364 <vdet_init+0x70>
    b330:	e51b3008 	ldr	r3, [fp, #-8]
    b334:	e5933004 	ldr	r3, [r3, #4]
    b338:	e51b0010 	ldr	r0, [fp, #-16]
    b33c:	e51b1008 	ldr	r1, [fp, #-8]
    b340:	e1a02003 	mov	r2, r3
    b344:	eb000559 	bl	c8b0 <XVtc_CfgInitialize>
    b348:	e50b000c 	str	r0, [fp, #-12]
    b34c:	e51b300c 	ldr	r3, [fp, #-12]
    b350:	e3530000 	cmp	r3, #0
    b354:	0a000001 	beq	b360 <vdet_init+0x6c>
    b358:	e3a03001 	mov	r3, #1
    b35c:	ea000000 	b	b364 <vdet_init+0x70>
    b360:	e3a03000 	mov	r3, #0
    b364:	e1a00003 	mov	r0, r3
    b368:	e24bd004 	sub	sp, fp, #4
    b36c:	e8bd8800 	pop	{fp, pc}

0000b370 <vdet_reset>:
    b370:	e92d4800 	push	{fp, lr}
    b374:	e28db004 	add	fp, sp, #4
    b378:	e24dd008 	sub	sp, sp, #8
    b37c:	e50b0008 	str	r0, [fp, #-8]
    b380:	e51b3008 	ldr	r3, [fp, #-8]
    b384:	e5933004 	ldr	r3, [r3, #4]
    b388:	e1a00003 	mov	r0, r3
    b38c:	e3a01102 	mov	r1, #-2147483648	; 0x80000000
    b390:	eb001284 	bl	fda8 <Xil_Out32>
    b394:	e3a03000 	mov	r3, #0
    b398:	e1a00003 	mov	r0, r3
    b39c:	e24bd004 	sub	sp, fp, #4
    b3a0:	e8bd8800 	pop	{fp, pc}

0000b3a4 <vfb_common_init>:
    b3a4:	e92d4800 	push	{fp, lr}
    b3a8:	e28db004 	add	fp, sp, #4
    b3ac:	e24dd018 	sub	sp, sp, #24
    b3b0:	e1a03000 	mov	r3, r0
    b3b4:	e50b101c 	str	r1, [fp, #-28]	; 0xffffffe4
    b3b8:	e14b31b6 	strh	r3, [fp, #-22]	; 0xffffffea
    b3bc:	e15b31b6 	ldrh	r3, [fp, #-22]	; 0xffffffea
    b3c0:	e1a00003 	mov	r0, r3
    b3c4:	eb001f62 	bl	13154 <XAxiVdma_LookupConfig>
    b3c8:	e50b0008 	str	r0, [fp, #-8]
    b3cc:	e51b3008 	ldr	r3, [fp, #-8]
    b3d0:	e3530000 	cmp	r3, #0
    b3d4:	1a000006 	bne	b3f4 <vfb_common_init+0x50>
    b3d8:	e15b31b6 	ldrh	r3, [fp, #-22]	; 0xffffffea
    b3dc:	e30b059c 	movw	r0, #46492	; 0xb59c
    b3e0:	e3400001 	movt	r0, #1
    b3e4:	e1a01003 	mov	r1, r3
    b3e8:	ebfff0f6 	bl	77c8 <printf>
    b3ec:	e3a03001 	mov	r3, #1
    b3f0:	ea000013 	b	b444 <vfb_common_init+0xa0>
    b3f4:	e51b3008 	ldr	r3, [fp, #-8]
    b3f8:	e5933004 	ldr	r3, [r3, #4]
    b3fc:	e51b001c 	ldr	r0, [fp, #-28]	; 0xffffffe4
    b400:	e51b1008 	ldr	r1, [fp, #-8]
    b404:	e1a02003 	mov	r2, r3
    b408:	eb001365 	bl	101a4 <XAxiVdma_CfgInitialize>
    b40c:	e50b000c 	str	r0, [fp, #-12]
    b410:	e51b300c 	ldr	r3, [fp, #-12]
    b414:	e3530000 	cmp	r3, #0
    b418:	0a000005 	beq	b434 <vfb_common_init+0x90>
    b41c:	e30b05bc 	movw	r0, #46524	; 0xb5bc
    b420:	e3400001 	movt	r0, #1
    b424:	e51b100c 	ldr	r1, [fp, #-12]
    b428:	ebfff0e6 	bl	77c8 <printf>
    b42c:	e3a03001 	mov	r3, #1
    b430:	ea000003 	b	b444 <vfb_common_init+0xa0>
    b434:	e51b301c 	ldr	r3, [fp, #-28]	; 0xffffffe4
    b438:	e5933000 	ldr	r3, [r3]
    b43c:	e50b3010 	str	r3, [fp, #-16]
    b440:	e3a03000 	mov	r3, #0
    b444:	e1a00003 	mov	r0, r3
    b448:	e24bd004 	sub	sp, fp, #4
    b44c:	e8bd8800 	pop	{fp, pc}

0000b450 <vfb_rx_init>:
    b450:	e92d4800 	push	{fp, lr}
    b454:	e28db004 	add	fp, sp, #4
    b458:	e24dd020 	sub	sp, sp, #32
    b45c:	e50b0010 	str	r0, [fp, #-16]
    b460:	e50b1014 	str	r1, [fp, #-20]	; 0xffffffec
    b464:	e50b2018 	str	r2, [fp, #-24]	; 0xffffffe8
    b468:	e50b301c 	str	r3, [fp, #-28]	; 0xffffffe4
    b46c:	e59b3004 	ldr	r3, [fp, #4]
    b470:	e58d3000 	str	r3, [sp]
    b474:	e59b3008 	ldr	r3, [fp, #8]
    b478:	e58d3004 	str	r3, [sp, #4]
    b47c:	e51b0010 	ldr	r0, [fp, #-16]
    b480:	e51b1014 	ldr	r1, [fp, #-20]	; 0xffffffec
    b484:	e51b2018 	ldr	r2, [fp, #-24]	; 0xffffffe8
    b488:	e51b301c 	ldr	r3, [fp, #-28]	; 0xffffffe4
    b48c:	eb000041 	bl	b598 <vfb_rx_setup>
    b490:	e50b0008 	str	r0, [fp, #-8]
    b494:	e51b3008 	ldr	r3, [fp, #-8]
    b498:	e3530000 	cmp	r3, #0
    b49c:	0a000001 	beq	b4a8 <vfb_rx_init+0x58>
    b4a0:	e3a03001 	mov	r3, #1
    b4a4:	ea00000b 	b	b4d8 <vfb_rx_init+0x88>
    b4a8:	e51b0010 	ldr	r0, [fp, #-16]
    b4ac:	eb000107 	bl	b8d0 <vfb_rx_start>
    b4b0:	e50b0008 	str	r0, [fp, #-8]
    b4b4:	e51b3008 	ldr	r3, [fp, #-8]
    b4b8:	e3530000 	cmp	r3, #0
    b4bc:	0a000001 	beq	b4c8 <vfb_rx_init+0x78>
    b4c0:	e3a03001 	mov	r3, #1
    b4c4:	ea000003 	b	b4d8 <vfb_rx_init+0x88>
    b4c8:	e51b0010 	ldr	r0, [fp, #-16]
    b4cc:	e3a01002 	mov	r1, #2
    b4d0:	e3a02001 	mov	r2, #1
    b4d4:	eb001581 	bl	10ae0 <XAxiVdma_FsyncSrcSelect>
    b4d8:	e1a00003 	mov	r0, r3
    b4dc:	e24bd004 	sub	sp, fp, #4
    b4e0:	e8bd8800 	pop	{fp, pc}

0000b4e4 <vfb_tx_init>:
    b4e4:	e92d4800 	push	{fp, lr}
    b4e8:	e28db004 	add	fp, sp, #4
    b4ec:	e24dd028 	sub	sp, sp, #40	; 0x28
    b4f0:	e50b0018 	str	r0, [fp, #-24]	; 0xffffffe8
    b4f4:	e50b101c 	str	r1, [fp, #-28]	; 0xffffffe4
    b4f8:	e50b2020 	str	r2, [fp, #-32]	; 0xffffffe0
    b4fc:	e50b3024 	str	r3, [fp, #-36]	; 0xffffffdc
    b500:	e59b3004 	ldr	r3, [fp, #4]
    b504:	e58d3000 	str	r3, [sp]
    b508:	e59b3008 	ldr	r3, [fp, #8]
    b50c:	e58d3004 	str	r3, [sp, #4]
    b510:	e51b0018 	ldr	r0, [fp, #-24]	; 0xffffffe8
    b514:	e51b101c 	ldr	r1, [fp, #-28]	; 0xffffffe4
    b518:	e51b2020 	ldr	r2, [fp, #-32]	; 0xffffffe0
    b51c:	e51b3024 	ldr	r3, [fp, #-36]	; 0xffffffdc
    b520:	eb000083 	bl	b734 <vfb_tx_setup>
    b524:	e50b0008 	str	r0, [fp, #-8]
    b528:	e51b3008 	ldr	r3, [fp, #-8]
    b52c:	e3530000 	cmp	r3, #0
    b530:	0a000001 	beq	b53c <vfb_tx_init+0x58>
    b534:	e3a03001 	mov	r3, #1
    b538:	ea000013 	b	b58c <vfb_tx_init+0xa8>
    b53c:	e51b0018 	ldr	r0, [fp, #-24]	; 0xffffffe8
    b540:	eb0000f7 	bl	b924 <vfb_tx_start>
    b544:	e50b0008 	str	r0, [fp, #-8]
    b548:	e51b3008 	ldr	r3, [fp, #-8]
    b54c:	e3530000 	cmp	r3, #0
    b550:	0a000001 	beq	b55c <vfb_tx_init+0x78>
    b554:	e3a03001 	mov	r3, #1
    b558:	ea00000b 	b	b58c <vfb_tx_init+0xa8>
    b55c:	e51b3018 	ldr	r3, [fp, #-24]	; 0xffffffe8
    b560:	e5933000 	ldr	r3, [r3]
    b564:	e50b300c 	str	r3, [fp, #-12]
    b568:	e51b300c 	ldr	r3, [fp, #-12]
    b56c:	e5933000 	ldr	r3, [r3]
    b570:	e50b3010 	str	r3, [fp, #-16]
    b574:	e51b3010 	ldr	r3, [fp, #-16]
    b578:	e3833080 	orr	r3, r3, #128	; 0x80
    b57c:	e50b3010 	str	r3, [fp, #-16]
    b580:	e51b300c 	ldr	r3, [fp, #-12]
    b584:	e51b2010 	ldr	r2, [fp, #-16]
    b588:	e5832000 	str	r2, [r3]
    b58c:	e1a00003 	mov	r0, r3
    b590:	e24bd004 	sub	sp, fp, #4
    b594:	e8bd8800 	pop	{fp, pc}

0000b598 <vfb_rx_setup>:
    b598:	e92d4800 	push	{fp, lr}
    b59c:	e28db004 	add	fp, sp, #4
    b5a0:	e24dd038 	sub	sp, sp, #56	; 0x38
    b5a4:	e50b0030 	str	r0, [fp, #-48]	; 0xffffffd0
    b5a8:	e50b1034 	str	r1, [fp, #-52]	; 0xffffffcc
    b5ac:	e50b2038 	str	r2, [fp, #-56]	; 0xffffffc8
    b5b0:	e50b303c 	str	r3, [fp, #-60]	; 0xffffffc4
    b5b4:	e51b0038 	ldr	r0, [fp, #-56]	; 0xffffffc8
    b5b8:	eb0003ba 	bl	c4a8 <vres_get_height>
    b5bc:	e50b0010 	str	r0, [fp, #-16]
    b5c0:	e51b0038 	ldr	r0, [fp, #-56]	; 0xffffffc8
    b5c4:	eb0003a2 	bl	c454 <vres_get_width>
    b5c8:	e1a03000 	mov	r3, r0
    b5cc:	e1a03103 	lsl	r3, r3, #2
    b5d0:	e50b3014 	str	r3, [fp, #-20]	; 0xffffffec
    b5d4:	e51b003c 	ldr	r0, [fp, #-60]	; 0xffffffc4
    b5d8:	eb0003b2 	bl	c4a8 <vres_get_height>
    b5dc:	e50b0018 	str	r0, [fp, #-24]	; 0xffffffe8
    b5e0:	e51b003c 	ldr	r0, [fp, #-60]	; 0xffffffc4
    b5e4:	eb00039a 	bl	c454 <vres_get_width>
    b5e8:	e1a03000 	mov	r3, r0
    b5ec:	e1a03103 	lsl	r3, r3, #2
    b5f0:	e50b301c 	str	r3, [fp, #-28]	; 0xffffffe4
    b5f4:	e51b301c 	ldr	r3, [fp, #-28]	; 0xffffffe4
    b5f8:	e50b3020 	str	r3, [fp, #-32]	; 0xffffffe0
    b5fc:	e51b301c 	ldr	r3, [fp, #-28]	; 0xffffffe4
    b600:	e51b2018 	ldr	r2, [fp, #-24]	; 0xffffffe8
    b604:	e0030392 	mul	r3, r2, r3
    b608:	e50b3024 	str	r3, [fp, #-36]	; 0xffffffdc
    b60c:	e51b2010 	ldr	r2, [fp, #-16]
    b610:	e51b3034 	ldr	r3, [fp, #-52]	; 0xffffffcc
    b614:	e5832000 	str	r2, [r3]
    b618:	e51b2014 	ldr	r2, [fp, #-20]	; 0xffffffec
    b61c:	e51b3034 	ldr	r3, [fp, #-52]	; 0xffffffcc
    b620:	e5832004 	str	r2, [r3, #4]
    b624:	e51b2020 	ldr	r2, [fp, #-32]	; 0xffffffe0
    b628:	e51b3034 	ldr	r3, [fp, #-52]	; 0xffffffcc
    b62c:	e5832008 	str	r2, [r3, #8]
    b630:	e51b3034 	ldr	r3, [fp, #-52]	; 0xffffffcc
    b634:	e3a02000 	mov	r2, #0
    b638:	e583200c 	str	r2, [r3, #12]
    b63c:	e51b3034 	ldr	r3, [fp, #-52]	; 0xffffffcc
    b640:	e3a02001 	mov	r2, #1
    b644:	e5832010 	str	r2, [r3, #16]
    b648:	e51b3034 	ldr	r3, [fp, #-52]	; 0xffffffcc
    b64c:	e3a02001 	mov	r2, #1
    b650:	e5832014 	str	r2, [r3, #20]
    b654:	e51b3034 	ldr	r3, [fp, #-52]	; 0xffffffcc
    b658:	e3a02001 	mov	r2, #1
    b65c:	e5832018 	str	r2, [r3, #24]
    b660:	e51b3034 	ldr	r3, [fp, #-52]	; 0xffffffcc
    b664:	e3a02000 	mov	r2, #0
    b668:	e583201c 	str	r2, [r3, #28]
    b66c:	e51b3034 	ldr	r3, [fp, #-52]	; 0xffffffcc
    b670:	e3a02000 	mov	r2, #0
    b674:	e58320a0 	str	r2, [r3, #160]	; 0xa0
    b678:	e51b0030 	ldr	r0, [fp, #-48]	; 0xffffffd0
    b67c:	e3a01001 	mov	r1, #1
    b680:	e51b2034 	ldr	r2, [fp, #-52]	; 0xffffffcc
    b684:	eb0016b1 	bl	11150 <XAxiVdma_DmaConfig>
    b688:	e50b0028 	str	r0, [fp, #-40]	; 0xffffffd8
    b68c:	e51b3028 	ldr	r3, [fp, #-40]	; 0xffffffd8
    b690:	e3530000 	cmp	r3, #0
    b694:	0a000001 	beq	b6a0 <vfb_rx_setup+0x108>
    b698:	e3a03001 	mov	r3, #1
    b69c:	ea000021 	b	b728 <vfb_rx_setup+0x190>
    b6a0:	e59b3004 	ldr	r3, [fp, #4]
    b6a4:	e50b300c 	str	r3, [fp, #-12]
    b6a8:	e3a03000 	mov	r3, #0
    b6ac:	e50b3008 	str	r3, [fp, #-8]
    b6b0:	ea00000b 	b	b6e4 <vfb_rx_setup+0x14c>
    b6b4:	e51b3034 	ldr	r3, [fp, #-52]	; 0xffffffcc
    b6b8:	e51b2008 	ldr	r2, [fp, #-8]
    b6bc:	e2822008 	add	r2, r2, #8
    b6c0:	e51b100c 	ldr	r1, [fp, #-12]
    b6c4:	e7831102 	str	r1, [r3, r2, lsl #2]
    b6c8:	e51b200c 	ldr	r2, [fp, #-12]
    b6cc:	e51b3024 	ldr	r3, [fp, #-36]	; 0xffffffdc
    b6d0:	e0823003 	add	r3, r2, r3
    b6d4:	e50b300c 	str	r3, [fp, #-12]
    b6d8:	e51b3008 	ldr	r3, [fp, #-8]
    b6dc:	e2833001 	add	r3, r3, #1
    b6e0:	e50b3008 	str	r3, [fp, #-8]
    b6e4:	e51b2008 	ldr	r2, [fp, #-8]
    b6e8:	e59b3008 	ldr	r3, [fp, #8]
    b6ec:	e1520003 	cmp	r2, r3
    b6f0:	3affffef 	bcc	b6b4 <vfb_rx_setup+0x11c>
    b6f4:	e51b3034 	ldr	r3, [fp, #-52]	; 0xffffffcc
    b6f8:	e2833020 	add	r3, r3, #32
    b6fc:	e51b0030 	ldr	r0, [fp, #-48]	; 0xffffffd0
    b700:	e3a01001 	mov	r1, #1
    b704:	e1a02003 	mov	r2, r3
    b708:	eb0016ae 	bl	111c8 <XAxiVdma_DmaSetBufferAddr>
    b70c:	e50b0028 	str	r0, [fp, #-40]	; 0xffffffd8
    b710:	e51b3028 	ldr	r3, [fp, #-40]	; 0xffffffd8
    b714:	e3530000 	cmp	r3, #0
    b718:	0a000001 	beq	b724 <vfb_rx_setup+0x18c>
    b71c:	e3a03001 	mov	r3, #1
    b720:	ea000000 	b	b728 <vfb_rx_setup+0x190>
    b724:	e3a03000 	mov	r3, #0
    b728:	e1a00003 	mov	r0, r3
    b72c:	e24bd004 	sub	sp, fp, #4
    b730:	e8bd8800 	pop	{fp, pc}

0000b734 <vfb_tx_setup>:
    b734:	e92d4800 	push	{fp, lr}
    b738:	e28db004 	add	fp, sp, #4
    b73c:	e24dd038 	sub	sp, sp, #56	; 0x38
    b740:	e50b0030 	str	r0, [fp, #-48]	; 0xffffffd0
    b744:	e50b1034 	str	r1, [fp, #-52]	; 0xffffffcc
    b748:	e50b2038 	str	r2, [fp, #-56]	; 0xffffffc8
    b74c:	e50b303c 	str	r3, [fp, #-60]	; 0xffffffc4
    b750:	e51b0038 	ldr	r0, [fp, #-56]	; 0xffffffc8
    b754:	eb000353 	bl	c4a8 <vres_get_height>
    b758:	e50b0010 	str	r0, [fp, #-16]
    b75c:	e51b0038 	ldr	r0, [fp, #-56]	; 0xffffffc8
    b760:	eb00033b 	bl	c454 <vres_get_width>
    b764:	e1a03000 	mov	r3, r0
    b768:	e1a03103 	lsl	r3, r3, #2
    b76c:	e50b3014 	str	r3, [fp, #-20]	; 0xffffffec
    b770:	e51b003c 	ldr	r0, [fp, #-60]	; 0xffffffc4
    b774:	eb00034b 	bl	c4a8 <vres_get_height>
    b778:	e50b0018 	str	r0, [fp, #-24]	; 0xffffffe8
    b77c:	e51b003c 	ldr	r0, [fp, #-60]	; 0xffffffc4
    b780:	eb000333 	bl	c454 <vres_get_width>
    b784:	e1a03000 	mov	r3, r0
    b788:	e1a03103 	lsl	r3, r3, #2
    b78c:	e50b301c 	str	r3, [fp, #-28]	; 0xffffffe4
    b790:	e51b301c 	ldr	r3, [fp, #-28]	; 0xffffffe4
    b794:	e50b3020 	str	r3, [fp, #-32]	; 0xffffffe0
    b798:	e51b301c 	ldr	r3, [fp, #-28]	; 0xffffffe4
    b79c:	e51b2018 	ldr	r2, [fp, #-24]	; 0xffffffe8
    b7a0:	e0030392 	mul	r3, r2, r3
    b7a4:	e50b3024 	str	r3, [fp, #-36]	; 0xffffffdc
    b7a8:	e51b2010 	ldr	r2, [fp, #-16]
    b7ac:	e51b3034 	ldr	r3, [fp, #-52]	; 0xffffffcc
    b7b0:	e5832000 	str	r2, [r3]
    b7b4:	e51b2014 	ldr	r2, [fp, #-20]	; 0xffffffec
    b7b8:	e51b3034 	ldr	r3, [fp, #-52]	; 0xffffffcc
    b7bc:	e5832004 	str	r2, [r3, #4]
    b7c0:	e51b2020 	ldr	r2, [fp, #-32]	; 0xffffffe0
    b7c4:	e51b3034 	ldr	r3, [fp, #-52]	; 0xffffffcc
    b7c8:	e5832008 	str	r2, [r3, #8]
    b7cc:	e51b3034 	ldr	r3, [fp, #-52]	; 0xffffffcc
    b7d0:	e3a02000 	mov	r2, #0
    b7d4:	e583200c 	str	r2, [r3, #12]
    b7d8:	e51b3034 	ldr	r3, [fp, #-52]	; 0xffffffcc
    b7dc:	e3a02000 	mov	r2, #0
    b7e0:	e5832010 	str	r2, [r3, #16]
    b7e4:	e51b3034 	ldr	r3, [fp, #-52]	; 0xffffffcc
    b7e8:	e3a02001 	mov	r2, #1
    b7ec:	e5832014 	str	r2, [r3, #20]
    b7f0:	e51b3034 	ldr	r3, [fp, #-52]	; 0xffffffcc
    b7f4:	e3a02001 	mov	r2, #1
    b7f8:	e5832018 	str	r2, [r3, #24]
    b7fc:	e51b3034 	ldr	r3, [fp, #-52]	; 0xffffffcc
    b800:	e3a02000 	mov	r2, #0
    b804:	e583201c 	str	r2, [r3, #28]
    b808:	e51b3034 	ldr	r3, [fp, #-52]	; 0xffffffcc
    b80c:	e3a02000 	mov	r2, #0
    b810:	e58320a0 	str	r2, [r3, #160]	; 0xa0
    b814:	e51b0030 	ldr	r0, [fp, #-48]	; 0xffffffd0
    b818:	e3a01002 	mov	r1, #2
    b81c:	e51b2034 	ldr	r2, [fp, #-52]	; 0xffffffcc
    b820:	eb00164a 	bl	11150 <XAxiVdma_DmaConfig>
    b824:	e50b0028 	str	r0, [fp, #-40]	; 0xffffffd8
    b828:	e51b3028 	ldr	r3, [fp, #-40]	; 0xffffffd8
    b82c:	e3530000 	cmp	r3, #0
    b830:	0a000001 	beq	b83c <vfb_tx_setup+0x108>
    b834:	e3a03001 	mov	r3, #1
    b838:	ea000021 	b	b8c4 <vfb_tx_setup+0x190>
    b83c:	e59b3004 	ldr	r3, [fp, #4]
    b840:	e50b300c 	str	r3, [fp, #-12]
    b844:	e3a03000 	mov	r3, #0
    b848:	e50b3008 	str	r3, [fp, #-8]
    b84c:	ea00000b 	b	b880 <vfb_tx_setup+0x14c>
    b850:	e51b3034 	ldr	r3, [fp, #-52]	; 0xffffffcc
    b854:	e51b2008 	ldr	r2, [fp, #-8]
    b858:	e2822008 	add	r2, r2, #8
    b85c:	e51b100c 	ldr	r1, [fp, #-12]
    b860:	e7831102 	str	r1, [r3, r2, lsl #2]
    b864:	e51b200c 	ldr	r2, [fp, #-12]
    b868:	e51b3024 	ldr	r3, [fp, #-36]	; 0xffffffdc
    b86c:	e0823003 	add	r3, r2, r3
    b870:	e50b300c 	str	r3, [fp, #-12]
    b874:	e51b3008 	ldr	r3, [fp, #-8]
    b878:	e2833001 	add	r3, r3, #1
    b87c:	e50b3008 	str	r3, [fp, #-8]
    b880:	e51b2008 	ldr	r2, [fp, #-8]
    b884:	e59b3008 	ldr	r3, [fp, #8]
    b888:	e1520003 	cmp	r2, r3
    b88c:	3affffef 	bcc	b850 <vfb_tx_setup+0x11c>
    b890:	e51b3034 	ldr	r3, [fp, #-52]	; 0xffffffcc
    b894:	e2833020 	add	r3, r3, #32
    b898:	e51b0030 	ldr	r0, [fp, #-48]	; 0xffffffd0
    b89c:	e3a01002 	mov	r1, #2
    b8a0:	e1a02003 	mov	r2, r3
    b8a4:	eb001647 	bl	111c8 <XAxiVdma_DmaSetBufferAddr>
    b8a8:	e50b0028 	str	r0, [fp, #-40]	; 0xffffffd8
    b8ac:	e51b3028 	ldr	r3, [fp, #-40]	; 0xffffffd8
    b8b0:	e3530000 	cmp	r3, #0
    b8b4:	0a000001 	beq	b8c0 <vfb_tx_setup+0x18c>
    b8b8:	e3a03001 	mov	r3, #1
    b8bc:	ea000000 	b	b8c4 <vfb_tx_setup+0x190>
    b8c0:	e3a03000 	mov	r3, #0
    b8c4:	e1a00003 	mov	r0, r3
    b8c8:	e24bd004 	sub	sp, fp, #4
    b8cc:	e8bd8800 	pop	{fp, pc}

0000b8d0 <vfb_rx_start>:
    b8d0:	e92d4800 	push	{fp, lr}
    b8d4:	e28db004 	add	fp, sp, #4
    b8d8:	e24dd010 	sub	sp, sp, #16
    b8dc:	e50b0010 	str	r0, [fp, #-16]
    b8e0:	e51b0010 	ldr	r0, [fp, #-16]
    b8e4:	e3a01001 	mov	r1, #1
    b8e8:	eb001657 	bl	1124c <XAxiVdma_DmaStart>
    b8ec:	e50b0008 	str	r0, [fp, #-8]
    b8f0:	e51b3008 	ldr	r3, [fp, #-8]
    b8f4:	e3530000 	cmp	r3, #0
    b8f8:	0a000005 	beq	b914 <vfb_rx_start+0x44>
    b8fc:	e30b05e8 	movw	r0, #46568	; 0xb5e8
    b900:	e3400001 	movt	r0, #1
    b904:	e51b1008 	ldr	r1, [fp, #-8]
    b908:	ebffefae 	bl	77c8 <printf>
    b90c:	e3a03001 	mov	r3, #1
    b910:	ea000000 	b	b918 <vfb_rx_start+0x48>
    b914:	e3a03000 	mov	r3, #0
    b918:	e1a00003 	mov	r0, r3
    b91c:	e24bd004 	sub	sp, fp, #4
    b920:	e8bd8800 	pop	{fp, pc}

0000b924 <vfb_tx_start>:
    b924:	e92d4800 	push	{fp, lr}
    b928:	e28db004 	add	fp, sp, #4
    b92c:	e24dd010 	sub	sp, sp, #16
    b930:	e50b0010 	str	r0, [fp, #-16]
    b934:	e51b0010 	ldr	r0, [fp, #-16]
    b938:	e3a01002 	mov	r1, #2
    b93c:	eb001642 	bl	1124c <XAxiVdma_DmaStart>
    b940:	e50b0008 	str	r0, [fp, #-8]
    b944:	e51b3008 	ldr	r3, [fp, #-8]
    b948:	e3530000 	cmp	r3, #0
    b94c:	0a000005 	beq	b968 <vfb_tx_start+0x44>
    b950:	e30b060c 	movw	r0, #46604	; 0xb60c
    b954:	e3400001 	movt	r0, #1
    b958:	e51b1008 	ldr	r1, [fp, #-8]
    b95c:	ebffef99 	bl	77c8 <printf>
    b960:	e3a03001 	mov	r3, #1
    b964:	ea000000 	b	b96c <vfb_tx_start+0x48>
    b968:	e3a03000 	mov	r3, #0
    b96c:	e1a00003 	mov	r0, r3
    b970:	e24bd004 	sub	sp, fp, #4
    b974:	e8bd8800 	pop	{fp, pc}

0000b978 <vfb_rx_stop>:
    b978:	e92d4800 	push	{fp, lr}
    b97c:	e28db004 	add	fp, sp, #4
    b980:	e24dd008 	sub	sp, sp, #8
    b984:	e50b0008 	str	r0, [fp, #-8]
    b988:	e51b0008 	ldr	r0, [fp, #-8]
    b98c:	e3a01001 	mov	r1, #1
    b990:	eb001649 	bl	112bc <XAxiVdma_DmaStop>
    b994:	e3a03000 	mov	r3, #0
    b998:	e1a00003 	mov	r0, r3
    b99c:	e24bd004 	sub	sp, fp, #4
    b9a0:	e8bd8800 	pop	{fp, pc}

0000b9a4 <vfb_tx_stop>:
    b9a4:	e92d4800 	push	{fp, lr}
    b9a8:	e28db004 	add	fp, sp, #4
    b9ac:	e24dd008 	sub	sp, sp, #8
    b9b0:	e50b0008 	str	r0, [fp, #-8]
    b9b4:	e51b0008 	ldr	r0, [fp, #-8]
    b9b8:	e3a01002 	mov	r1, #2
    b9bc:	eb00163e 	bl	112bc <XAxiVdma_DmaStop>
    b9c0:	e3a03000 	mov	r3, #0
    b9c4:	e1a00003 	mov	r0, r3
    b9c8:	e24bd004 	sub	sp, fp, #4
    b9cc:	e8bd8800 	pop	{fp, pc}

0000b9d0 <vfb_dump_registers>:
    b9d0:	e92d4800 	push	{fp, lr}
    b9d4:	e28db004 	add	fp, sp, #4
    b9d8:	e24dd010 	sub	sp, sp, #16
    b9dc:	e50b0010 	str	r0, [fp, #-16]
    b9e0:	e51b3010 	ldr	r3, [fp, #-16]
    b9e4:	e5933000 	ldr	r3, [r3]
    b9e8:	e50b3008 	str	r3, [fp, #-8]
    b9ec:	e30b063c 	movw	r0, #46652	; 0xb63c
    b9f0:	e3400001 	movt	r0, #1
    b9f4:	e51b1008 	ldr	r1, [fp, #-8]
    b9f8:	ebffef72 	bl	77c8 <printf>
    b9fc:	e51b3008 	ldr	r3, [fp, #-8]
    ba00:	e2833028 	add	r3, r3, #40	; 0x28
    ba04:	e5933000 	ldr	r3, [r3]
    ba08:	e30b0678 	movw	r0, #46712	; 0xb678
    ba0c:	e3400001 	movt	r0, #1
    ba10:	e1a01003 	mov	r1, r3
    ba14:	ebffef6b 	bl	77c8 <printf>
    ba18:	e30b0698 	movw	r0, #46744	; 0xb698
    ba1c:	e3400001 	movt	r0, #1
    ba20:	ebfff1de 	bl	81a0 <uart_puts>
    ba24:	e51b3008 	ldr	r3, [fp, #-8]
    ba28:	e2833030 	add	r3, r3, #48	; 0x30
    ba2c:	e5933000 	ldr	r3, [r3]
    ba30:	e30b06b0 	movw	r0, #46768	; 0xb6b0
    ba34:	e3400001 	movt	r0, #1
    ba38:	e1a01003 	mov	r1, r3
    ba3c:	ebffef61 	bl	77c8 <printf>
    ba40:	e51b3008 	ldr	r3, [fp, #-8]
    ba44:	e2833034 	add	r3, r3, #52	; 0x34
    ba48:	e5933000 	ldr	r3, [r3]
    ba4c:	e30b06d0 	movw	r0, #46800	; 0xb6d0
    ba50:	e3400001 	movt	r0, #1
    ba54:	e1a01003 	mov	r1, r3
    ba58:	ebffef5a 	bl	77c8 <printf>
    ba5c:	e51b3008 	ldr	r3, [fp, #-8]
    ba60:	e28330a8 	add	r3, r3, #168	; 0xa8
    ba64:	e5933000 	ldr	r3, [r3]
    ba68:	e30b06f0 	movw	r0, #46832	; 0xb6f0
    ba6c:	e3400001 	movt	r0, #1
    ba70:	e1a01003 	mov	r1, r3
    ba74:	ebffef53 	bl	77c8 <printf>
    ba78:	e51b3008 	ldr	r3, [fp, #-8]
    ba7c:	e28330ac 	add	r3, r3, #172	; 0xac
    ba80:	e5933000 	ldr	r3, [r3]
    ba84:	e30b0710 	movw	r0, #46864	; 0xb710
    ba88:	e3400001 	movt	r0, #1
    ba8c:	e1a01003 	mov	r1, r3
    ba90:	ebffef4c 	bl	77c8 <printf>
    ba94:	e51b3008 	ldr	r3, [fp, #-8]
    ba98:	e28330b0 	add	r3, r3, #176	; 0xb0
    ba9c:	e5933000 	ldr	r3, [r3]
    baa0:	e30b0730 	movw	r0, #46896	; 0xb730
    baa4:	e3400001 	movt	r0, #1
    baa8:	e1a01003 	mov	r1, r3
    baac:	ebffef45 	bl	77c8 <printf>
    bab0:	e51b3008 	ldr	r3, [fp, #-8]
    bab4:	e28330b4 	add	r3, r3, #180	; 0xb4
    bab8:	e5933000 	ldr	r3, [r3]
    babc:	e30b0750 	movw	r0, #46928	; 0xb750
    bac0:	e3400001 	movt	r0, #1
    bac4:	e1a01003 	mov	r1, r3
    bac8:	ebffef3e 	bl	77c8 <printf>
    bacc:	e51b3008 	ldr	r3, [fp, #-8]
    bad0:	e28330a4 	add	r3, r3, #164	; 0xa4
    bad4:	e5933000 	ldr	r3, [r3]
    bad8:	e30b0770 	movw	r0, #46960	; 0xb770
    badc:	e3400001 	movt	r0, #1
    bae0:	e1a01003 	mov	r1, r3
    bae4:	ebffef37 	bl	77c8 <printf>
    bae8:	e51b3008 	ldr	r3, [fp, #-8]
    baec:	e28330a0 	add	r3, r3, #160	; 0xa0
    baf0:	e5933000 	ldr	r3, [r3]
    baf4:	e30b0790 	movw	r0, #46992	; 0xb790
    baf8:	e3400001 	movt	r0, #1
    bafc:	e1a01003 	mov	r1, r3
    bb00:	ebffef30 	bl	77c8 <printf>
    bb04:	e30b0698 	movw	r0, #46744	; 0xb698
    bb08:	e3400001 	movt	r0, #1
    bb0c:	ebfff1a3 	bl	81a0 <uart_puts>
    bb10:	e51b3008 	ldr	r3, [fp, #-8]
    bb14:	e5933000 	ldr	r3, [r3]
    bb18:	e30b07b0 	movw	r0, #47024	; 0xb7b0
    bb1c:	e3400001 	movt	r0, #1
    bb20:	e1a01003 	mov	r1, r3
    bb24:	ebffef27 	bl	77c8 <printf>
    bb28:	e51b3008 	ldr	r3, [fp, #-8]
    bb2c:	e2833004 	add	r3, r3, #4
    bb30:	e5933000 	ldr	r3, [r3]
    bb34:	e30b07d0 	movw	r0, #47056	; 0xb7d0
    bb38:	e3400001 	movt	r0, #1
    bb3c:	e1a01003 	mov	r1, r3
    bb40:	ebffef20 	bl	77c8 <printf>
    bb44:	e51b3008 	ldr	r3, [fp, #-8]
    bb48:	e2833058 	add	r3, r3, #88	; 0x58
    bb4c:	e5933000 	ldr	r3, [r3]
    bb50:	e30b07f0 	movw	r0, #47088	; 0xb7f0
    bb54:	e3400001 	movt	r0, #1
    bb58:	e1a01003 	mov	r1, r3
    bb5c:	ebffef19 	bl	77c8 <printf>
    bb60:	e51b3008 	ldr	r3, [fp, #-8]
    bb64:	e283305c 	add	r3, r3, #92	; 0x5c
    bb68:	e5933000 	ldr	r3, [r3]
    bb6c:	e30b0810 	movw	r0, #47120	; 0xb810
    bb70:	e3400001 	movt	r0, #1
    bb74:	e1a01003 	mov	r1, r3
    bb78:	ebffef12 	bl	77c8 <printf>
    bb7c:	e51b3008 	ldr	r3, [fp, #-8]
    bb80:	e2833060 	add	r3, r3, #96	; 0x60
    bb84:	e5933000 	ldr	r3, [r3]
    bb88:	e30b0830 	movw	r0, #47152	; 0xb830
    bb8c:	e3400001 	movt	r0, #1
    bb90:	e1a01003 	mov	r1, r3
    bb94:	ebffef0b 	bl	77c8 <printf>
    bb98:	e51b3008 	ldr	r3, [fp, #-8]
    bb9c:	e2833064 	add	r3, r3, #100	; 0x64
    bba0:	e5933000 	ldr	r3, [r3]
    bba4:	e30b0850 	movw	r0, #47184	; 0xb850
    bba8:	e3400001 	movt	r0, #1
    bbac:	e1a01003 	mov	r1, r3
    bbb0:	ebffef04 	bl	77c8 <printf>
    bbb4:	e51b3008 	ldr	r3, [fp, #-8]
    bbb8:	e2833054 	add	r3, r3, #84	; 0x54
    bbbc:	e5933000 	ldr	r3, [r3]
    bbc0:	e30b0870 	movw	r0, #47216	; 0xb870
    bbc4:	e3400001 	movt	r0, #1
    bbc8:	e1a01003 	mov	r1, r3
    bbcc:	ebffeefd 	bl	77c8 <printf>
    bbd0:	e51b3008 	ldr	r3, [fp, #-8]
    bbd4:	e2833050 	add	r3, r3, #80	; 0x50
    bbd8:	e5933000 	ldr	r3, [r3]
    bbdc:	e30b0890 	movw	r0, #47248	; 0xb890
    bbe0:	e3400001 	movt	r0, #1
    bbe4:	e1a01003 	mov	r1, r3
    bbe8:	ebffeef6 	bl	77c8 <printf>
    bbec:	e30b0698 	movw	r0, #46744	; 0xb698
    bbf0:	e3400001 	movt	r0, #1
    bbf4:	ebfff169 	bl	81a0 <uart_puts>
    bbf8:	e51b3008 	ldr	r3, [fp, #-8]
    bbfc:	e28330f0 	add	r3, r3, #240	; 0xf0
    bc00:	e5933000 	ldr	r3, [r3]
    bc04:	e30b08b0 	movw	r0, #47280	; 0xb8b0
    bc08:	e3400001 	movt	r0, #1
    bc0c:	e1a01003 	mov	r1, r3
    bc10:	ebffeeec 	bl	77c8 <printf>
    bc14:	e51b3008 	ldr	r3, [fp, #-8]
    bc18:	e28330f4 	add	r3, r3, #244	; 0xf4
    bc1c:	e5933000 	ldr	r3, [r3]
    bc20:	e30b08d0 	movw	r0, #47312	; 0xb8d0
    bc24:	e3400001 	movt	r0, #1
    bc28:	e1a01003 	mov	r1, r3
    bc2c:	ebffeee5 	bl	77c8 <printf>
    bc30:	e30b0698 	movw	r0, #46744	; 0xb698
    bc34:	e3400001 	movt	r0, #1
    bc38:	ebfff158 	bl	81a0 <uart_puts>
    bc3c:	e3a03000 	mov	r3, #0
    bc40:	e1a00003 	mov	r0, r3
    bc44:	e24bd004 	sub	sp, fp, #4
    bc48:	e8bd8800 	pop	{fp, pc}

0000bc4c <vfb_check_errors>:
    bc4c:	e92d4800 	push	{fp, lr}
    bc50:	e28db004 	add	fp, sp, #4
    bc54:	e24dd018 	sub	sp, sp, #24
    bc58:	e50b0018 	str	r0, [fp, #-24]	; 0xffffffe8
    bc5c:	e1a03001 	mov	r3, r1
    bc60:	e54b3019 	strb	r3, [fp, #-25]	; 0xffffffe7
    bc64:	e51b3018 	ldr	r3, [fp, #-24]	; 0xffffffe8
    bc68:	e5933000 	ldr	r3, [r3]
    bc6c:	e50b3008 	str	r3, [fp, #-8]
    bc70:	e51b3008 	ldr	r3, [fp, #-8]
    bc74:	e2833034 	add	r3, r3, #52	; 0x34
    bc78:	e5933000 	ldr	r3, [r3]
    bc7c:	e1a02003 	mov	r2, r3
    bc80:	e30c3ff0 	movw	r3, #53232	; 0xcff0
    bc84:	e0033002 	and	r3, r3, r2
    bc88:	e50b300c 	str	r3, [fp, #-12]
    bc8c:	e51b3008 	ldr	r3, [fp, #-8]
    bc90:	e2833004 	add	r3, r3, #4
    bc94:	e5933000 	ldr	r3, [r3]
    bc98:	e1a02003 	mov	r2, r3
    bc9c:	e30436f0 	movw	r3, #18160	; 0x46f0
    bca0:	e0033002 	and	r3, r3, r2
    bca4:	e50b3010 	str	r3, [fp, #-16]
    bca8:	e30b08f0 	movw	r0, #47344	; 0xb8f0
    bcac:	e3400001 	movt	r0, #1
    bcb0:	ebfff13a 	bl	81a0 <uart_puts>
    bcb4:	e51b300c 	ldr	r3, [fp, #-12]
    bcb8:	e1a02803 	lsl	r2, r3, #16
    bcbc:	e51b3010 	ldr	r3, [fp, #-16]
    bcc0:	e1823003 	orr	r3, r2, r3
    bcc4:	e50b3014 	str	r3, [fp, #-20]	; 0xffffffec
    bcc8:	e51b3014 	ldr	r3, [fp, #-20]	; 0xffffffec
    bccc:	e3530000 	cmp	r3, #0
    bcd0:	0a000083 	beq	bee4 <vfb_check_errors+0x298>
    bcd4:	e51b300c 	ldr	r3, [fp, #-12]
    bcd8:	e2033901 	and	r3, r3, #16384	; 0x4000
    bcdc:	e3530000 	cmp	r3, #0
    bce0:	0a000002 	beq	bcf0 <vfb_check_errors+0xa4>
    bce4:	e30b0914 	movw	r0, #47380	; 0xb914
    bce8:	e3400001 	movt	r0, #1
    bcec:	ebfff12b 	bl	81a0 <uart_puts>
    bcf0:	e51b300c 	ldr	r3, [fp, #-12]
    bcf4:	e2033902 	and	r3, r3, #32768	; 0x8000
    bcf8:	e3530000 	cmp	r3, #0
    bcfc:	0a000002 	beq	bd0c <vfb_check_errors+0xc0>
    bd00:	e30b092c 	movw	r0, #47404	; 0xb92c
    bd04:	e3400001 	movt	r0, #1
    bd08:	ebfff124 	bl	81a0 <uart_puts>
    bd0c:	e51b300c 	ldr	r3, [fp, #-12]
    bd10:	e2033b02 	and	r3, r3, #2048	; 0x800
    bd14:	e3530000 	cmp	r3, #0
    bd18:	0a000002 	beq	bd28 <vfb_check_errors+0xdc>
    bd1c:	e30b0948 	movw	r0, #47432	; 0xb948
    bd20:	e3400001 	movt	r0, #1
    bd24:	ebfff11d 	bl	81a0 <uart_puts>
    bd28:	e51b300c 	ldr	r3, [fp, #-12]
    bd2c:	e2033b01 	and	r3, r3, #1024	; 0x400
    bd30:	e3530000 	cmp	r3, #0
    bd34:	0a000002 	beq	bd44 <vfb_check_errors+0xf8>
    bd38:	e30b0964 	movw	r0, #47460	; 0xb964
    bd3c:	e3400001 	movt	r0, #1
    bd40:	ebfff116 	bl	81a0 <uart_puts>
    bd44:	e51b300c 	ldr	r3, [fp, #-12]
    bd48:	e2033c02 	and	r3, r3, #512	; 0x200
    bd4c:	e3530000 	cmp	r3, #0
    bd50:	0a000002 	beq	bd60 <vfb_check_errors+0x114>
    bd54:	e30b0980 	movw	r0, #47488	; 0xb980
    bd58:	e3400001 	movt	r0, #1
    bd5c:	ebfff10f 	bl	81a0 <uart_puts>
    bd60:	e51b300c 	ldr	r3, [fp, #-12]
    bd64:	e2033c01 	and	r3, r3, #256	; 0x100
    bd68:	e3530000 	cmp	r3, #0
    bd6c:	0a000002 	beq	bd7c <vfb_check_errors+0x130>
    bd70:	e30b099c 	movw	r0, #47516	; 0xb99c
    bd74:	e3400001 	movt	r0, #1
    bd78:	ebfff108 	bl	81a0 <uart_puts>
    bd7c:	e51b300c 	ldr	r3, [fp, #-12]
    bd80:	e2033080 	and	r3, r3, #128	; 0x80
    bd84:	e3530000 	cmp	r3, #0
    bd88:	0a000002 	beq	bd98 <vfb_check_errors+0x14c>
    bd8c:	e30b09b8 	movw	r0, #47544	; 0xb9b8
    bd90:	e3400001 	movt	r0, #1
    bd94:	ebfff101 	bl	81a0 <uart_puts>
    bd98:	e51b300c 	ldr	r3, [fp, #-12]
    bd9c:	e2033040 	and	r3, r3, #64	; 0x40
    bda0:	e3530000 	cmp	r3, #0
    bda4:	0a000002 	beq	bdb4 <vfb_check_errors+0x168>
    bda8:	e30b09d4 	movw	r0, #47572	; 0xb9d4
    bdac:	e3400001 	movt	r0, #1
    bdb0:	ebfff0fa 	bl	81a0 <uart_puts>
    bdb4:	e51b300c 	ldr	r3, [fp, #-12]
    bdb8:	e2033020 	and	r3, r3, #32
    bdbc:	e3530000 	cmp	r3, #0
    bdc0:	0a000002 	beq	bdd0 <vfb_check_errors+0x184>
    bdc4:	e30b09f0 	movw	r0, #47600	; 0xb9f0
    bdc8:	e3400001 	movt	r0, #1
    bdcc:	ebfff0f3 	bl	81a0 <uart_puts>
    bdd0:	e51b300c 	ldr	r3, [fp, #-12]
    bdd4:	e2033010 	and	r3, r3, #16
    bdd8:	e3530000 	cmp	r3, #0
    bddc:	0a000002 	beq	bdec <vfb_check_errors+0x1a0>
    bde0:	e30b0a0c 	movw	r0, #47628	; 0xba0c
    bde4:	e3400001 	movt	r0, #1
    bde8:	ebfff0ec 	bl	81a0 <uart_puts>
    bdec:	e51b3010 	ldr	r3, [fp, #-16]
    bdf0:	e2033901 	and	r3, r3, #16384	; 0x4000
    bdf4:	e3530000 	cmp	r3, #0
    bdf8:	0a000002 	beq	be08 <vfb_check_errors+0x1bc>
    bdfc:	e30b0a28 	movw	r0, #47656	; 0xba28
    be00:	e3400001 	movt	r0, #1
    be04:	ebfff0e5 	bl	81a0 <uart_puts>
    be08:	e51b3010 	ldr	r3, [fp, #-16]
    be0c:	e2033b01 	and	r3, r3, #1024	; 0x400
    be10:	e3530000 	cmp	r3, #0
    be14:	0a000002 	beq	be24 <vfb_check_errors+0x1d8>
    be18:	e30b0a40 	movw	r0, #47680	; 0xba40
    be1c:	e3400001 	movt	r0, #1
    be20:	ebfff0de 	bl	81a0 <uart_puts>
    be24:	e51b3010 	ldr	r3, [fp, #-16]
    be28:	e2033c02 	and	r3, r3, #512	; 0x200
    be2c:	e3530000 	cmp	r3, #0
    be30:	0a000002 	beq	be40 <vfb_check_errors+0x1f4>
    be34:	e30b0a5c 	movw	r0, #47708	; 0xba5c
    be38:	e3400001 	movt	r0, #1
    be3c:	ebfff0d7 	bl	81a0 <uart_puts>
    be40:	e51b3010 	ldr	r3, [fp, #-16]
    be44:	e2033080 	and	r3, r3, #128	; 0x80
    be48:	e3530000 	cmp	r3, #0
    be4c:	0a000002 	beq	be5c <vfb_check_errors+0x210>
    be50:	e30b0a78 	movw	r0, #47736	; 0xba78
    be54:	e3400001 	movt	r0, #1
    be58:	ebfff0d0 	bl	81a0 <uart_puts>
    be5c:	e51b3010 	ldr	r3, [fp, #-16]
    be60:	e2033040 	and	r3, r3, #64	; 0x40
    be64:	e3530000 	cmp	r3, #0
    be68:	0a000002 	beq	be78 <vfb_check_errors+0x22c>
    be6c:	e30b0a94 	movw	r0, #47764	; 0xba94
    be70:	e3400001 	movt	r0, #1
    be74:	ebfff0c9 	bl	81a0 <uart_puts>
    be78:	e51b3010 	ldr	r3, [fp, #-16]
    be7c:	e2033020 	and	r3, r3, #32
    be80:	e3530000 	cmp	r3, #0
    be84:	0a000002 	beq	be94 <vfb_check_errors+0x248>
    be88:	e30b0ab0 	movw	r0, #47792	; 0xbab0
    be8c:	e3400001 	movt	r0, #1
    be90:	ebfff0c2 	bl	81a0 <uart_puts>
    be94:	e51b3010 	ldr	r3, [fp, #-16]
    be98:	e2033010 	and	r3, r3, #16
    be9c:	e3530000 	cmp	r3, #0
    bea0:	0a000002 	beq	beb0 <vfb_check_errors+0x264>
    bea4:	e30b0acc 	movw	r0, #47820	; 0xbacc
    bea8:	e3400001 	movt	r0, #1
    beac:	ebfff0bb 	bl	81a0 <uart_puts>
    beb0:	e30b0ae8 	movw	r0, #47848	; 0xbae8
    beb4:	e3400001 	movt	r0, #1
    beb8:	ebfff0b8 	bl	81a0 <uart_puts>
    bebc:	e51b3008 	ldr	r3, [fp, #-8]
    bec0:	e2833034 	add	r3, r3, #52	; 0x34
    bec4:	e1a02003 	mov	r2, r3
    bec8:	e30c3ff0 	movw	r3, #53232	; 0xcff0
    becc:	e5823000 	str	r3, [r2]
    bed0:	e51b3008 	ldr	r3, [fp, #-8]
    bed4:	e2833004 	add	r3, r3, #4
    bed8:	e1a02003 	mov	r2, r3
    bedc:	e30436f0 	movw	r3, #18160	; 0x46f0
    bee0:	e5823000 	str	r3, [r2]
    bee4:	e51b3014 	ldr	r3, [fp, #-20]	; 0xffffffec
    bee8:	e1a00003 	mov	r0, r3
    beec:	e24bd004 	sub	sp, fp, #4
    bef0:	e8bd8800 	pop	{fp, pc}

0000bef4 <vgen_init>:
    bef4:	e92d4800 	push	{fp, lr}
    bef8:	e28db004 	add	fp, sp, #4
    befc:	e24dd010 	sub	sp, sp, #16
    bf00:	e50b0010 	str	r0, [fp, #-16]
    bf04:	e1a03001 	mov	r3, r1
    bf08:	e14b31b2 	strh	r3, [fp, #-18]	; 0xffffffee
    bf0c:	e15b31b2 	ldrh	r3, [fp, #-18]	; 0xffffffee
    bf10:	e1a00003 	mov	r0, r3
    bf14:	eb001c69 	bl	130c0 <XVtc_LookupConfig>
    bf18:	e50b0008 	str	r0, [fp, #-8]
    bf1c:	e51b3008 	ldr	r3, [fp, #-8]
    bf20:	e3530000 	cmp	r3, #0
    bf24:	1a000001 	bne	bf30 <vgen_init+0x3c>
    bf28:	e3a03001 	mov	r3, #1
    bf2c:	ea00000c 	b	bf64 <vgen_init+0x70>
    bf30:	e51b3008 	ldr	r3, [fp, #-8]
    bf34:	e5933004 	ldr	r3, [r3, #4]
    bf38:	e51b0010 	ldr	r0, [fp, #-16]
    bf3c:	e51b1008 	ldr	r1, [fp, #-8]
    bf40:	e1a02003 	mov	r2, r3
    bf44:	eb000259 	bl	c8b0 <XVtc_CfgInitialize>
    bf48:	e50b000c 	str	r0, [fp, #-12]
    bf4c:	e51b300c 	ldr	r3, [fp, #-12]
    bf50:	e3530000 	cmp	r3, #0
    bf54:	0a000001 	beq	bf60 <vgen_init+0x6c>
    bf58:	e3a03001 	mov	r3, #1
    bf5c:	ea000000 	b	bf64 <vgen_init+0x70>
    bf60:	e3a03000 	mov	r3, #0
    bf64:	e1a00003 	mov	r0, r3
    bf68:	e24bd004 	sub	sp, fp, #4
    bf6c:	e8bd8800 	pop	{fp, pc}

0000bf70 <vgen_config>:
    bf70:	e92d4810 	push	{r4, fp, lr}
    bf74:	e28db008 	add	fp, sp, #8
    bf78:	e24dd0ac 	sub	sp, sp, #172	; 0xac
    bf7c:	e50b00a8 	str	r0, [fp, #-168]	; 0xffffff58
    bf80:	e50b10ac 	str	r1, [fp, #-172]	; 0xffffff54
    bf84:	e50b20b0 	str	r2, [fp, #-176]	; 0xffffff50
    bf88:	e51b20ac 	ldr	r2, [fp, #-172]	; 0xffffff54
    bf8c:	e24b3060 	sub	r3, fp, #96	; 0x60
    bf90:	e1a00002 	mov	r0, r2
    bf94:	e1a01003 	mov	r1, r3
    bf98:	eb000156 	bl	c4f8 <vres_get_timing>
    bf9c:	e51b3044 	ldr	r3, [fp, #-68]	; 0xffffffbc
    bfa0:	e50b3010 	str	r3, [fp, #-16]
    bfa4:	e51b3040 	ldr	r3, [fp, #-64]	; 0xffffffc0
    bfa8:	e50b3014 	str	r3, [fp, #-20]	; 0xffffffec
    bfac:	e51b3038 	ldr	r3, [fp, #-56]	; 0xffffffc8
    bfb0:	e50b3018 	str	r3, [fp, #-24]	; 0xffffffe8
    bfb4:	e51b303c 	ldr	r3, [fp, #-60]	; 0xffffffc4
    bfb8:	e50b301c 	str	r3, [fp, #-28]	; 0xffffffe4
    bfbc:	e51b3058 	ldr	r3, [fp, #-88]	; 0xffffffa8
    bfc0:	e50b3020 	str	r3, [fp, #-32]	; 0xffffffe0
    bfc4:	e51b3054 	ldr	r3, [fp, #-84]	; 0xffffffac
    bfc8:	e50b3024 	str	r3, [fp, #-36]	; 0xffffffdc
    bfcc:	e51b304c 	ldr	r3, [fp, #-76]	; 0xffffffb4
    bfd0:	e50b3028 	str	r3, [fp, #-40]	; 0xffffffd8
    bfd4:	e51b3050 	ldr	r3, [fp, #-80]	; 0xffffffb0
    bfd8:	e50b302c 	str	r3, [fp, #-44]	; 0xffffffd4
    bfdc:	e51b3048 	ldr	r3, [fp, #-72]	; 0xffffffb8
    bfe0:	e50b3030 	str	r3, [fp, #-48]	; 0xffffffd0
    bfe4:	e51b305c 	ldr	r3, [fp, #-92]	; 0xffffffa4
    bfe8:	e50b3034 	str	r3, [fp, #-52]	; 0xffffffcc
    bfec:	e51b00a8 	ldr	r0, [fp, #-168]	; 0xffffff58
    bff0:	e3a01001 	mov	r1, #1
    bff4:	eb0002d9 	bl	cb60 <XVtc_Disable>
    bff8:	e51b30a8 	ldr	r3, [fp, #-168]	; 0xffffff58
    bffc:	e5933004 	ldr	r3, [r3, #4]
    c000:	e1a00003 	mov	r0, r3
    c004:	e3a01102 	mov	r1, #-2147483648	; 0x80000000
    c008:	eb000f66 	bl	fda8 <Xil_Out32>
    c00c:	e24b308c 	sub	r3, fp, #140	; 0x8c
    c010:	e1a00003 	mov	r0, r3
    c014:	e3a01000 	mov	r1, #0
    c018:	e3a02007 	mov	r2, #7
    c01c:	eb000207 	bl	c840 <memset>
    c020:	e3a03001 	mov	r3, #1
    c024:	e54b308c 	strb	r3, [fp, #-140]	; 0xffffff74
    c028:	e3a03001 	mov	r3, #1
    c02c:	e54b308b 	strb	r3, [fp, #-139]	; 0xffffff75
    c030:	e3a03000 	mov	r3, #0
    c034:	e54b308a 	strb	r3, [fp, #-138]	; 0xffffff76
    c038:	e3a03001 	mov	r3, #1
    c03c:	e54b3089 	strb	r3, [fp, #-137]	; 0xffffff77
    c040:	e51b3028 	ldr	r3, [fp, #-40]	; 0xffffffd8
    c044:	e6ef3073 	uxtb	r3, r3
    c048:	e54b3088 	strb	r3, [fp, #-136]	; 0xffffff78
    c04c:	e3a03001 	mov	r3, #1
    c050:	e54b3087 	strb	r3, [fp, #-135]	; 0xffffff79
    c054:	e51b3018 	ldr	r3, [fp, #-24]	; 0xffffffe8
    c058:	e6ef3073 	uxtb	r3, r3
    c05c:	e54b3086 	strb	r3, [fp, #-134]	; 0xffffff7a
    c060:	e24b3084 	sub	r3, fp, #132	; 0x84
    c064:	e1a00003 	mov	r0, r3
    c068:	e3a01000 	mov	r1, #0
    c06c:	e3a02024 	mov	r2, #36	; 0x24
    c070:	eb0001f2 	bl	c840 <memset>
    c074:	e3a03001 	mov	r3, #1
    c078:	e14b38b4 	strh	r3, [fp, #-132]	; 0xffffff7c
    c07c:	e51b3010 	ldr	r3, [fp, #-16]
    c080:	e6ff2073 	uxth	r2, r3
    c084:	e51b3014 	ldr	r3, [fp, #-20]	; 0xffffffec
    c088:	e6ff3073 	uxth	r3, r3
    c08c:	e0823003 	add	r3, r2, r3
    c090:	e6ff2073 	uxth	r2, r3
    c094:	e51b301c 	ldr	r3, [fp, #-28]	; 0xffffffe4
    c098:	e6ff3073 	uxth	r3, r3
    c09c:	e0823003 	add	r3, r2, r3
    c0a0:	e6ff2073 	uxth	r2, r3
    c0a4:	e51b3030 	ldr	r3, [fp, #-48]	; 0xffffffd0
    c0a8:	e6ff3073 	uxth	r3, r3
    c0ac:	e0823003 	add	r3, r2, r3
    c0b0:	e6ff3073 	uxth	r3, r3
    c0b4:	e14b38b2 	strh	r3, [fp, #-130]	; 0xffffff7e
    c0b8:	e3a03000 	mov	r3, #0
    c0bc:	e14b37ba 	strh	r3, [fp, #-122]	; 0xffffff86
    c0c0:	e51b3030 	ldr	r3, [fp, #-48]	; 0xffffffd0
    c0c4:	e6ff3073 	uxth	r3, r3
    c0c8:	e14b38b0 	strh	r3, [fp, #-128]	; 0xffffff80
    c0cc:	e51b3030 	ldr	r3, [fp, #-48]	; 0xffffffd0
    c0d0:	e6ff2073 	uxth	r2, r3
    c0d4:	e51b3010 	ldr	r3, [fp, #-16]
    c0d8:	e6ff3073 	uxth	r3, r3
    c0dc:	e0823003 	add	r3, r2, r3
    c0e0:	e6ff3073 	uxth	r3, r3
    c0e4:	e14b37be 	strh	r3, [fp, #-126]	; 0xffffff82
    c0e8:	e51b3030 	ldr	r3, [fp, #-48]	; 0xffffffd0
    c0ec:	e6ff2073 	uxth	r2, r3
    c0f0:	e51b3010 	ldr	r3, [fp, #-16]
    c0f4:	e6ff3073 	uxth	r3, r3
    c0f8:	e0823003 	add	r3, r2, r3
    c0fc:	e6ff2073 	uxth	r2, r3
    c100:	e51b3014 	ldr	r3, [fp, #-20]	; 0xffffffec
    c104:	e6ff3073 	uxth	r3, r3
    c108:	e0823003 	add	r3, r2, r3
    c10c:	e6ff3073 	uxth	r3, r3
    c110:	e14b37bc 	strh	r3, [fp, #-124]	; 0xffffff84
    c114:	e51b3034 	ldr	r3, [fp, #-52]	; 0xffffffcc
    c118:	e6ff2073 	uxth	r2, r3
    c11c:	e51b3020 	ldr	r3, [fp, #-32]	; 0xffffffe0
    c120:	e6ff3073 	uxth	r3, r3
    c124:	e0823003 	add	r3, r2, r3
    c128:	e6ff2073 	uxth	r2, r3
    c12c:	e51b3024 	ldr	r3, [fp, #-36]	; 0xffffffdc
    c130:	e6ff3073 	uxth	r3, r3
    c134:	e0823003 	add	r3, r2, r3
    c138:	e6ff2073 	uxth	r2, r3
    c13c:	e51b302c 	ldr	r3, [fp, #-44]	; 0xffffffd4
    c140:	e6ff3073 	uxth	r3, r3
    c144:	e0823003 	add	r3, r2, r3
    c148:	e6ff3073 	uxth	r3, r3
    c14c:	e14b37b8 	strh	r3, [fp, #-120]	; 0xffffff88
    c150:	e3a03000 	mov	r3, #0
    c154:	e14b36be 	strh	r3, [fp, #-110]	; 0xffffff92
    c158:	e3a03000 	mov	r3, #0
    c15c:	e14b37b0 	strh	r3, [fp, #-112]	; 0xffffff90
    c160:	e51b3034 	ldr	r3, [fp, #-52]	; 0xffffffcc
    c164:	e6ff3073 	uxth	r3, r3
    c168:	e14b37b6 	strh	r3, [fp, #-118]	; 0xffffff8a
    c16c:	e51b3034 	ldr	r3, [fp, #-52]	; 0xffffffcc
    c170:	e6ff2073 	uxth	r2, r3
    c174:	e51b3020 	ldr	r3, [fp, #-32]	; 0xffffffe0
    c178:	e6ff3073 	uxth	r3, r3
    c17c:	e0823003 	add	r3, r2, r3
    c180:	e6ff3073 	uxth	r3, r3
    c184:	e14b37b4 	strh	r3, [fp, #-116]	; 0xffffff8c
    c188:	e51b3034 	ldr	r3, [fp, #-52]	; 0xffffffcc
    c18c:	e6ff2073 	uxth	r2, r3
    c190:	e51b3020 	ldr	r3, [fp, #-32]	; 0xffffffe0
    c194:	e6ff3073 	uxth	r3, r3
    c198:	e0823003 	add	r3, r2, r3
    c19c:	e6ff2073 	uxth	r2, r3
    c1a0:	e51b3024 	ldr	r3, [fp, #-36]	; 0xffffffdc
    c1a4:	e6ff3073 	uxth	r3, r3
    c1a8:	e0823003 	add	r3, r2, r3
    c1ac:	e6ff3073 	uxth	r3, r3
    c1b0:	e14b37b2 	strh	r3, [fp, #-114]	; 0xffffff8e
    c1b4:	e24b30a0 	sub	r3, fp, #160	; 0xa0
    c1b8:	e1a00003 	mov	r0, r3
    c1bc:	e3a01000 	mov	r1, #0
    c1c0:	e3a02012 	mov	r2, #18
    c1c4:	eb00019d 	bl	c840 <memset>
    c1c8:	e3a03001 	mov	r3, #1
    c1cc:	e54b309a 	strb	r3, [fp, #-154]	; 0xffffff66
    c1d0:	e3a03001 	mov	r3, #1
    c1d4:	e54b309c 	strb	r3, [fp, #-156]	; 0xffffff64
    c1d8:	e3a03001 	mov	r3, #1
    c1dc:	e54b309b 	strb	r3, [fp, #-155]	; 0xffffff65
    c1e0:	e3a03001 	mov	r3, #1
    c1e4:	e54b309d 	strb	r3, [fp, #-157]	; 0xffffff63
    c1e8:	e3a03001 	mov	r3, #1
    c1ec:	e54b309e 	strb	r3, [fp, #-158]	; 0xffffff62
    c1f0:	e3a03001 	mov	r3, #1
    c1f4:	e54b309f 	strb	r3, [fp, #-159]	; 0xffffff61
    c1f8:	e3a03001 	mov	r3, #1
    c1fc:	e54b3099 	strb	r3, [fp, #-153]	; 0xffffff67
    c200:	e3a03001 	mov	r3, #1
    c204:	e54b3098 	strb	r3, [fp, #-152]	; 0xffffff68
    c208:	e3a03001 	mov	r3, #1
    c20c:	e54b3097 	strb	r3, [fp, #-151]	; 0xffffff69
    c210:	e3a03001 	mov	r3, #1
    c214:	e54b3096 	strb	r3, [fp, #-150]	; 0xffffff6a
    c218:	e3a03001 	mov	r3, #1
    c21c:	e54b3095 	strb	r3, [fp, #-149]	; 0xffffff6b
    c220:	e3a03001 	mov	r3, #1
    c224:	e54b3094 	strb	r3, [fp, #-148]	; 0xffffff6c
    c228:	e3a03001 	mov	r3, #1
    c22c:	e54b3093 	strb	r3, [fp, #-147]	; 0xffffff6d
    c230:	e3a03001 	mov	r3, #1
    c234:	e54b3092 	strb	r3, [fp, #-146]	; 0xffffff6e
    c238:	e3a03001 	mov	r3, #1
    c23c:	e54b3091 	strb	r3, [fp, #-145]	; 0xffffff6f
    c240:	e3a03001 	mov	r3, #1
    c244:	e54b3090 	strb	r3, [fp, #-144]	; 0xffffff70
    c248:	e3a03001 	mov	r3, #1
    c24c:	e54b308f 	strb	r3, [fp, #-143]	; 0xffffff71
    c250:	e51b30b0 	ldr	r3, [fp, #-176]	; 0xffffff50
    c254:	e3530002 	cmp	r3, #2
    c258:	1a00003a 	bne	c348 <vgen_config+0x3d8>
    c25c:	e30b0b0c 	movw	r0, #47884	; 0xbb0c
    c260:	e3400001 	movt	r0, #1
    c264:	ebffefcd 	bl	81a0 <uart_puts>
    c268:	e30b0b2c 	movw	r0, #47916	; 0xbb2c
    c26c:	e3400001 	movt	r0, #1
    c270:	ebffefca 	bl	81a0 <uart_puts>
    c274:	e15b37ba 	ldrh	r3, [fp, #-122]	; 0xffffff86
    c278:	e30b0b44 	movw	r0, #47940	; 0xbb44
    c27c:	e3400001 	movt	r0, #1
    c280:	e1a01003 	mov	r1, r3
    c284:	ebffed4f 	bl	77c8 <printf>
    c288:	e15b38b0 	ldrh	r3, [fp, #-128]	; 0xffffff80
    c28c:	e30b0b5c 	movw	r0, #47964	; 0xbb5c
    c290:	e3400001 	movt	r0, #1
    c294:	e1a01003 	mov	r1, r3
    c298:	ebffed4a 	bl	77c8 <printf>
    c29c:	e15b37be 	ldrh	r3, [fp, #-126]	; 0xffffff82
    c2a0:	e30b0b78 	movw	r0, #47992	; 0xbb78
    c2a4:	e3400001 	movt	r0, #1
    c2a8:	e1a01003 	mov	r1, r3
    c2ac:	ebffed45 	bl	77c8 <printf>
    c2b0:	e15b37bc 	ldrh	r3, [fp, #-124]	; 0xffffff84
    c2b4:	e30b0b8c 	movw	r0, #48012	; 0xbb8c
    c2b8:	e3400001 	movt	r0, #1
    c2bc:	e1a01003 	mov	r1, r3
    c2c0:	ebffed40 	bl	77c8 <printf>
    c2c4:	e15b38b2 	ldrh	r3, [fp, #-130]	; 0xffffff7e
    c2c8:	e30b0ba4 	movw	r0, #48036	; 0xbba4
    c2cc:	e3400001 	movt	r0, #1
    c2d0:	e1a01003 	mov	r1, r3
    c2d4:	ebffed3b 	bl	77c8 <printf>
    c2d8:	e30b0bb8 	movw	r0, #48056	; 0xbbb8
    c2dc:	e3400001 	movt	r0, #1
    c2e0:	ebffefae 	bl	81a0 <uart_puts>
    c2e4:	e15b37b0 	ldrh	r3, [fp, #-112]	; 0xffffff90
    c2e8:	e30b0bd0 	movw	r0, #48080	; 0xbbd0
    c2ec:	e3400001 	movt	r0, #1
    c2f0:	e1a01003 	mov	r1, r3
    c2f4:	ebffed33 	bl	77c8 <printf>
    c2f8:	e15b37b6 	ldrh	r3, [fp, #-118]	; 0xffffff8a
    c2fc:	e30b0be8 	movw	r0, #48104	; 0xbbe8
    c300:	e3400001 	movt	r0, #1
    c304:	e1a01003 	mov	r1, r3
    c308:	ebffed2e 	bl	77c8 <printf>
    c30c:	e15b37b4 	ldrh	r3, [fp, #-116]	; 0xffffff8c
    c310:	e30b0c04 	movw	r0, #48132	; 0xbc04
    c314:	e3400001 	movt	r0, #1
    c318:	e1a01003 	mov	r1, r3
    c31c:	ebffed29 	bl	77c8 <printf>
    c320:	e15b37b2 	ldrh	r3, [fp, #-114]	; 0xffffff8e
    c324:	e30b0c18 	movw	r0, #48152	; 0xbc18
    c328:	e3400001 	movt	r0, #1
    c32c:	e1a01003 	mov	r1, r3
    c330:	ebffed24 	bl	77c8 <printf>
    c334:	e15b37b8 	ldrh	r3, [fp, #-120]	; 0xffffff88
    c338:	e30b0c34 	movw	r0, #48180	; 0xbc34
    c33c:	e3400001 	movt	r0, #1
    c340:	e1a01003 	mov	r1, r3
    c344:	ebffed1f 	bl	77c8 <printf>
    c348:	e24b308c 	sub	r3, fp, #140	; 0x8c
    c34c:	e51b00a8 	ldr	r0, [fp, #-168]	; 0xffffff58
    c350:	e1a01003 	mov	r1, r3
    c354:	eb000245 	bl	cc70 <XVtc_SetPolarity>
    c358:	e24b3084 	sub	r3, fp, #132	; 0x84
    c35c:	e51b00a8 	ldr	r0, [fp, #-168]	; 0xffffff58
    c360:	e1a01003 	mov	r1, r3
    c364:	eb0009a4 	bl	e9fc <XVtc_SetGenerator>
    c368:	e24b30a0 	sub	r3, fp, #160	; 0xa0
    c36c:	e51b00a8 	ldr	r0, [fp, #-168]	; 0xffffff58
    c370:	e1a01003 	mov	r1, r3
    c374:	eb0003aa 	bl	d224 <XVtc_SetSource>
    c378:	e51b30a8 	ldr	r3, [fp, #-168]	; 0xffffff58
    c37c:	e5934004 	ldr	r4, [r3, #4]
    c380:	e51b30a8 	ldr	r3, [fp, #-168]	; 0xffffff58
    c384:	e5933004 	ldr	r3, [r3, #4]
    c388:	e1a00003 	mov	r0, r3
    c38c:	eb000e63 	bl	fd20 <Xil_In32>
    c390:	e1a03000 	mov	r3, r0
    c394:	e3c33020 	bic	r3, r3, #32
    c398:	e1a00004 	mov	r0, r4
    c39c:	e1a01003 	mov	r1, r3
    c3a0:	eb000e80 	bl	fda8 <Xil_Out32>
    c3a4:	e51b00a8 	ldr	r0, [fp, #-168]	; 0xffffff58
    c3a8:	e3a01001 	mov	r1, #1
    c3ac:	eb0001a7 	bl	ca50 <XVtc_Enable>
    c3b0:	e51b30a8 	ldr	r3, [fp, #-168]	; 0xffffff58
    c3b4:	e5934004 	ldr	r4, [r3, #4]
    c3b8:	e51b30a8 	ldr	r3, [fp, #-168]	; 0xffffff58
    c3bc:	e5933004 	ldr	r3, [r3, #4]
    c3c0:	e1a00003 	mov	r0, r3
    c3c4:	eb000e55 	bl	fd20 <Xil_In32>
    c3c8:	e1a03000 	mov	r3, r0
    c3cc:	e3833002 	orr	r3, r3, #2
    c3d0:	e1a00004 	mov	r0, r4
    c3d4:	e1a01003 	mov	r1, r3
    c3d8:	eb000e72 	bl	fda8 <Xil_Out32>
    c3dc:	e3a03000 	mov	r3, #0
    c3e0:	e1a00003 	mov	r0, r3
    c3e4:	e24bd008 	sub	sp, fp, #8
    c3e8:	e8bd8810 	pop	{r4, fp, pc}

0000c3ec <vres_get_name>:
    c3ec:	e52db004 	push	{fp}		; (str fp, [sp, #-4]!)
    c3f0:	e28db000 	add	fp, sp, #0
    c3f4:	e24dd00c 	sub	sp, sp, #12
    c3f8:	e50b0008 	str	r0, [fp, #-8]
    c3fc:	e51b3008 	ldr	r3, [fp, #-8]
    c400:	e3530008 	cmp	r3, #8
    c404:	8a00000c 	bhi	c43c <vres_get_name+0x50>
    c408:	e30c220c 	movw	r2, #49676	; 0xc20c
    c40c:	e3402001 	movt	r2, #1
    c410:	e51b0008 	ldr	r0, [fp, #-8]
    c414:	e1a01000 	mov	r1, r0
    c418:	e1a03101 	lsl	r3, r1, #2
    c41c:	e1a01003 	mov	r1, r3
    c420:	e1a03101 	lsl	r3, r1, #2
    c424:	e0613003 	rsb	r3, r1, r3
    c428:	e0603003 	rsb	r3, r0, r3
    c42c:	e1a03103 	lsl	r3, r3, #2
    c430:	e0823003 	add	r3, r2, r3
    c434:	e5933000 	ldr	r3, [r3]
    c438:	ea000001 	b	c444 <vres_get_name+0x58>
    c43c:	e30b3c84 	movw	r3, #48260	; 0xbc84
    c440:	e3403001 	movt	r3, #1
    c444:	e1a00003 	mov	r0, r3
    c448:	e24bd000 	sub	sp, fp, #0
    c44c:	e49db004 	pop	{fp}		; (ldr fp, [sp], #4)
    c450:	e12fff1e 	bx	lr

0000c454 <vres_get_width>:
    c454:	e52db004 	push	{fp}		; (str fp, [sp, #-4]!)
    c458:	e28db000 	add	fp, sp, #0
    c45c:	e24dd00c 	sub	sp, sp, #12
    c460:	e50b0008 	str	r0, [fp, #-8]
    c464:	e30c220c 	movw	r2, #49676	; 0xc20c
    c468:	e3402001 	movt	r2, #1
    c46c:	e51b0008 	ldr	r0, [fp, #-8]
    c470:	e1a01000 	mov	r1, r0
    c474:	e1a03101 	lsl	r3, r1, #2
    c478:	e1a01003 	mov	r1, r3
    c47c:	e1a03101 	lsl	r3, r1, #2
    c480:	e0613003 	rsb	r3, r1, r3
    c484:	e0603003 	rsb	r3, r0, r3
    c488:	e1a03103 	lsl	r3, r3, #2
    c48c:	e2833018 	add	r3, r3, #24
    c490:	e0823003 	add	r3, r2, r3
    c494:	e5933000 	ldr	r3, [r3]
    c498:	e1a00003 	mov	r0, r3
    c49c:	e24bd000 	sub	sp, fp, #0
    c4a0:	e49db004 	pop	{fp}		; (ldr fp, [sp], #4)
    c4a4:	e12fff1e 	bx	lr

0000c4a8 <vres_get_height>:
    c4a8:	e52db004 	push	{fp}		; (str fp, [sp, #-4]!)
    c4ac:	e28db000 	add	fp, sp, #0
    c4b0:	e24dd00c 	sub	sp, sp, #12
    c4b4:	e50b0008 	str	r0, [fp, #-8]
    c4b8:	e30c220c 	movw	r2, #49676	; 0xc20c
    c4bc:	e3402001 	movt	r2, #1
    c4c0:	e51b0008 	ldr	r0, [fp, #-8]
    c4c4:	e1a01000 	mov	r1, r0
    c4c8:	e1a03101 	lsl	r3, r1, #2
    c4cc:	e1a01003 	mov	r1, r3
    c4d0:	e1a03101 	lsl	r3, r1, #2
    c4d4:	e0613003 	rsb	r3, r1, r3
    c4d8:	e0603003 	rsb	r3, r0, r3
    c4dc:	e1a03103 	lsl	r3, r3, #2
    c4e0:	e0823003 	add	r3, r2, r3
    c4e4:	e5933004 	ldr	r3, [r3, #4]
    c4e8:	e1a00003 	mov	r0, r3
    c4ec:	e24bd000 	sub	sp, fp, #0
    c4f0:	e49db004 	pop	{fp}		; (ldr fp, [sp], #4)
    c4f4:	e12fff1e 	bx	lr

0000c4f8 <vres_get_timing>:
    c4f8:	e52db004 	push	{fp}		; (str fp, [sp, #-4]!)
    c4fc:	e28db000 	add	fp, sp, #0
    c500:	e24dd00c 	sub	sp, sp, #12
    c504:	e50b0008 	str	r0, [fp, #-8]
    c508:	e50b100c 	str	r1, [fp, #-12]
    c50c:	e30c220c 	movw	r2, #49676	; 0xc20c
    c510:	e3402001 	movt	r2, #1
    c514:	e51b0008 	ldr	r0, [fp, #-8]
    c518:	e1a01000 	mov	r1, r0
    c51c:	e1a03101 	lsl	r3, r1, #2
    c520:	e1a01003 	mov	r1, r3
    c524:	e1a03101 	lsl	r3, r1, #2
    c528:	e0613003 	rsb	r3, r1, r3
    c52c:	e0603003 	rsb	r3, r0, r3
    c530:	e1a03103 	lsl	r3, r3, #2
    c534:	e0823003 	add	r3, r2, r3
    c538:	e5932000 	ldr	r2, [r3]
    c53c:	e51b300c 	ldr	r3, [fp, #-12]
    c540:	e5832000 	str	r2, [r3]
    c544:	e30c220c 	movw	r2, #49676	; 0xc20c
    c548:	e3402001 	movt	r2, #1
    c54c:	e51b0008 	ldr	r0, [fp, #-8]
    c550:	e1a01000 	mov	r1, r0
    c554:	e1a03101 	lsl	r3, r1, #2
    c558:	e1a01003 	mov	r1, r3
    c55c:	e1a03101 	lsl	r3, r1, #2
    c560:	e0613003 	rsb	r3, r1, r3
    c564:	e0603003 	rsb	r3, r0, r3
    c568:	e1a03103 	lsl	r3, r3, #2
    c56c:	e2833018 	add	r3, r3, #24
    c570:	e0823003 	add	r3, r2, r3
    c574:	e5932000 	ldr	r2, [r3]
    c578:	e51b300c 	ldr	r3, [fp, #-12]
    c57c:	e5832018 	str	r2, [r3, #24]
    c580:	e30c220c 	movw	r2, #49676	; 0xc20c
    c584:	e3402001 	movt	r2, #1
    c588:	e51b0008 	ldr	r0, [fp, #-8]
    c58c:	e1a01000 	mov	r1, r0
    c590:	e1a03101 	lsl	r3, r1, #2
    c594:	e1a01003 	mov	r1, r3
    c598:	e1a03101 	lsl	r3, r1, #2
    c59c:	e0613003 	rsb	r3, r1, r3
    c5a0:	e0603003 	rsb	r3, r0, r3
    c5a4:	e1a03103 	lsl	r3, r3, #2
    c5a8:	e2833018 	add	r3, r3, #24
    c5ac:	e0823003 	add	r3, r2, r3
    c5b0:	e5932004 	ldr	r2, [r3, #4]
    c5b4:	e51b300c 	ldr	r3, [fp, #-12]
    c5b8:	e583201c 	str	r2, [r3, #28]
    c5bc:	e30c220c 	movw	r2, #49676	; 0xc20c
    c5c0:	e3402001 	movt	r2, #1
    c5c4:	e51b0008 	ldr	r0, [fp, #-8]
    c5c8:	e1a01000 	mov	r1, r0
    c5cc:	e1a03101 	lsl	r3, r1, #2
    c5d0:	e1a01003 	mov	r1, r3
    c5d4:	e1a03101 	lsl	r3, r1, #2
    c5d8:	e0613003 	rsb	r3, r1, r3
    c5dc:	e0603003 	rsb	r3, r0, r3
    c5e0:	e1a03103 	lsl	r3, r3, #2
    c5e4:	e2833020 	add	r3, r3, #32
    c5e8:	e0823003 	add	r3, r2, r3
    c5ec:	e5932000 	ldr	r2, [r3]
    c5f0:	e51b300c 	ldr	r3, [fp, #-12]
    c5f4:	e5832020 	str	r2, [r3, #32]
    c5f8:	e30c220c 	movw	r2, #49676	; 0xc20c
    c5fc:	e3402001 	movt	r2, #1
    c600:	e51b0008 	ldr	r0, [fp, #-8]
    c604:	e1a01000 	mov	r1, r0
    c608:	e1a03101 	lsl	r3, r1, #2
    c60c:	e1a01003 	mov	r1, r3
    c610:	e1a03101 	lsl	r3, r1, #2
    c614:	e0613003 	rsb	r3, r1, r3
    c618:	e0603003 	rsb	r3, r0, r3
    c61c:	e1a03103 	lsl	r3, r3, #2
    c620:	e2833020 	add	r3, r3, #32
    c624:	e0823003 	add	r3, r2, r3
    c628:	e5932004 	ldr	r2, [r3, #4]
    c62c:	e51b300c 	ldr	r3, [fp, #-12]
    c630:	e5832024 	str	r2, [r3, #36]	; 0x24
    c634:	e30c220c 	movw	r2, #49676	; 0xc20c
    c638:	e3402001 	movt	r2, #1
    c63c:	e51b0008 	ldr	r0, [fp, #-8]
    c640:	e1a01000 	mov	r1, r0
    c644:	e1a03101 	lsl	r3, r1, #2
    c648:	e1a01003 	mov	r1, r3
    c64c:	e1a03101 	lsl	r3, r1, #2
    c650:	e0613003 	rsb	r3, r1, r3
    c654:	e0603003 	rsb	r3, r0, r3
    c658:	e1a03103 	lsl	r3, r3, #2
    c65c:	e2833028 	add	r3, r3, #40	; 0x28
    c660:	e0823003 	add	r3, r2, r3
    c664:	e5932000 	ldr	r2, [r3]
    c668:	e51b300c 	ldr	r3, [fp, #-12]
    c66c:	e5832028 	str	r2, [r3, #40]	; 0x28
    c670:	e30c220c 	movw	r2, #49676	; 0xc20c
    c674:	e3402001 	movt	r2, #1
    c678:	e51b0008 	ldr	r0, [fp, #-8]
    c67c:	e1a01000 	mov	r1, r0
    c680:	e1a03101 	lsl	r3, r1, #2
    c684:	e1a01003 	mov	r1, r3
    c688:	e1a03101 	lsl	r3, r1, #2
    c68c:	e0613003 	rsb	r3, r1, r3
    c690:	e0603003 	rsb	r3, r0, r3
    c694:	e1a03103 	lsl	r3, r3, #2
    c698:	e0823003 	add	r3, r2, r3
    c69c:	e5932004 	ldr	r2, [r3, #4]
    c6a0:	e51b300c 	ldr	r3, [fp, #-12]
    c6a4:	e5832004 	str	r2, [r3, #4]
    c6a8:	e30c220c 	movw	r2, #49676	; 0xc20c
    c6ac:	e3402001 	movt	r2, #1
    c6b0:	e51b0008 	ldr	r0, [fp, #-8]
    c6b4:	e1a01000 	mov	r1, r0
    c6b8:	e1a03101 	lsl	r3, r1, #2
    c6bc:	e1a01003 	mov	r1, r3
    c6c0:	e1a03101 	lsl	r3, r1, #2
    c6c4:	e0613003 	rsb	r3, r1, r3
    c6c8:	e0603003 	rsb	r3, r0, r3
    c6cc:	e1a03103 	lsl	r3, r3, #2
    c6d0:	e2833008 	add	r3, r3, #8
    c6d4:	e0823003 	add	r3, r2, r3
    c6d8:	e5932000 	ldr	r2, [r3]
    c6dc:	e51b300c 	ldr	r3, [fp, #-12]
    c6e0:	e5832008 	str	r2, [r3, #8]
    c6e4:	e30c220c 	movw	r2, #49676	; 0xc20c
    c6e8:	e3402001 	movt	r2, #1
    c6ec:	e51b0008 	ldr	r0, [fp, #-8]
    c6f0:	e1a01000 	mov	r1, r0
    c6f4:	e1a03101 	lsl	r3, r1, #2
    c6f8:	e1a01003 	mov	r1, r3
    c6fc:	e1a03101 	lsl	r3, r1, #2
    c700:	e0613003 	rsb	r3, r1, r3
    c704:	e0603003 	rsb	r3, r0, r3
    c708:	e1a03103 	lsl	r3, r3, #2
    c70c:	e2833008 	add	r3, r3, #8
    c710:	e0823003 	add	r3, r2, r3
    c714:	e5932004 	ldr	r2, [r3, #4]
    c718:	e51b300c 	ldr	r3, [fp, #-12]
    c71c:	e583200c 	str	r2, [r3, #12]
    c720:	e30c220c 	movw	r2, #49676	; 0xc20c
    c724:	e3402001 	movt	r2, #1
    c728:	e51b0008 	ldr	r0, [fp, #-8]
    c72c:	e1a01000 	mov	r1, r0
    c730:	e1a03101 	lsl	r3, r1, #2
    c734:	e1a01003 	mov	r1, r3
    c738:	e1a03101 	lsl	r3, r1, #2
    c73c:	e0613003 	rsb	r3, r1, r3
    c740:	e0603003 	rsb	r3, r0, r3
    c744:	e1a03103 	lsl	r3, r3, #2
    c748:	e2833010 	add	r3, r3, #16
    c74c:	e0823003 	add	r3, r2, r3
    c750:	e5932000 	ldr	r2, [r3]
    c754:	e51b300c 	ldr	r3, [fp, #-12]
    c758:	e5832010 	str	r2, [r3, #16]
    c75c:	e30c220c 	movw	r2, #49676	; 0xc20c
    c760:	e3402001 	movt	r2, #1
    c764:	e51b0008 	ldr	r0, [fp, #-8]
    c768:	e1a01000 	mov	r1, r0
    c76c:	e1a03101 	lsl	r3, r1, #2
    c770:	e1a01003 	mov	r1, r3
    c774:	e1a03101 	lsl	r3, r1, #2
    c778:	e0613003 	rsb	r3, r1, r3
    c77c:	e0603003 	rsb	r3, r0, r3
    c780:	e1a03103 	lsl	r3, r3, #2
    c784:	e2833010 	add	r3, r3, #16
    c788:	e0823003 	add	r3, r2, r3
    c78c:	e5932004 	ldr	r2, [r3, #4]
    c790:	e51b300c 	ldr	r3, [fp, #-12]
    c794:	e5832014 	str	r2, [r3, #20]
    c798:	e3a03000 	mov	r3, #0
    c79c:	e1a00003 	mov	r0, r3
    c7a0:	e24bd000 	sub	sp, fp, #0
    c7a4:	e49db004 	pop	{fp}		; (ldr fp, [sp], #4)
    c7a8:	e12fff1e 	bx	lr

0000c7ac <vres_detect>:
    c7ac:	e92d4800 	push	{fp, lr}
    c7b0:	e28db004 	add	fp, sp, #4
    c7b4:	e24dd010 	sub	sp, sp, #16
    c7b8:	e50b0010 	str	r0, [fp, #-16]
    c7bc:	e50b1014 	str	r1, [fp, #-20]	; 0xffffffec
    c7c0:	e3e03000 	mvn	r3, #0
    c7c4:	e50b300c 	str	r3, [fp, #-12]
    c7c8:	e3a03000 	mov	r3, #0
    c7cc:	e50b3008 	str	r3, [fp, #-8]
    c7d0:	ea000013 	b	c824 <vres_detect+0x78>
    c7d4:	e51b3008 	ldr	r3, [fp, #-8]
    c7d8:	e1a00003 	mov	r0, r3
    c7dc:	ebffff1c 	bl	c454 <vres_get_width>
    c7e0:	e1a02000 	mov	r2, r0
    c7e4:	e51b3010 	ldr	r3, [fp, #-16]
    c7e8:	e1520003 	cmp	r2, r3
    c7ec:	1a000009 	bne	c818 <vres_detect+0x6c>
    c7f0:	e51b3008 	ldr	r3, [fp, #-8]
    c7f4:	e1a00003 	mov	r0, r3
    c7f8:	ebffff2a 	bl	c4a8 <vres_get_height>
    c7fc:	e1a02000 	mov	r2, r0
    c800:	e51b3014 	ldr	r3, [fp, #-20]	; 0xffffffec
    c804:	e1520003 	cmp	r2, r3
    c808:	1a000002 	bne	c818 <vres_detect+0x6c>
    c80c:	e51b3008 	ldr	r3, [fp, #-8]
    c810:	e50b300c 	str	r3, [fp, #-12]
    c814:	ea000005 	b	c830 <vres_detect+0x84>
    c818:	e51b3008 	ldr	r3, [fp, #-8]
    c81c:	e2833001 	add	r3, r3, #1
    c820:	e50b3008 	str	r3, [fp, #-8]
    c824:	e51b3008 	ldr	r3, [fp, #-8]
    c828:	e3530008 	cmp	r3, #8
    c82c:	daffffe8 	ble	c7d4 <vres_detect+0x28>
    c830:	e51b300c 	ldr	r3, [fp, #-12]
    c834:	e1a00003 	mov	r0, r3
    c838:	e24bd004 	sub	sp, fp, #4
    c83c:	e8bd8800 	pop	{fp, pc}

0000c840 <memset>:
    c840:	e52db004 	push	{fp}		; (str fp, [sp, #-4]!)
    c844:	e28db000 	add	fp, sp, #0
    c848:	e24dd01c 	sub	sp, sp, #28
    c84c:	e50b0010 	str	r0, [fp, #-16]
    c850:	e50b1014 	str	r1, [fp, #-20]	; 0xffffffec
    c854:	e50b2018 	str	r2, [fp, #-24]	; 0xffffffe8
    c858:	e51b3018 	ldr	r3, [fp, #-24]	; 0xffffffe8
    c85c:	e3530000 	cmp	r3, #0
    c860:	0a00000d 	beq	c89c <memset+0x5c>
    c864:	e51b3010 	ldr	r3, [fp, #-16]
    c868:	e50b3008 	str	r3, [fp, #-8]
    c86c:	e51b3008 	ldr	r3, [fp, #-8]
    c870:	e2832001 	add	r2, r3, #1
    c874:	e50b2008 	str	r2, [fp, #-8]
    c878:	e51b2014 	ldr	r2, [fp, #-20]	; 0xffffffec
    c87c:	e6ef2072 	uxtb	r2, r2
    c880:	e5c32000 	strb	r2, [r3]
    c884:	e51b3018 	ldr	r3, [fp, #-24]	; 0xffffffe8
    c888:	e2433001 	sub	r3, r3, #1
    c88c:	e50b3018 	str	r3, [fp, #-24]	; 0xffffffe8
    c890:	e51b3018 	ldr	r3, [fp, #-24]	; 0xffffffe8
    c894:	e3530000 	cmp	r3, #0
    c898:	1afffff3 	bne	c86c <memset+0x2c>
    c89c:	e51b3010 	ldr	r3, [fp, #-16]
    c8a0:	e1a00003 	mov	r0, r3
    c8a4:	e24bd000 	sub	sp, fp, #0
    c8a8:	e49db004 	pop	{fp}		; (ldr fp, [sp], #4)
    c8ac:	e12fff1e 	bx	lr

0000c8b0 <XVtc_CfgInitialize>:
    c8b0:	e92d4800 	push	{fp, lr}
    c8b4:	e28db004 	add	fp, sp, #4
    c8b8:	e24dd010 	sub	sp, sp, #16
    c8bc:	e50b0008 	str	r0, [fp, #-8]
    c8c0:	e50b100c 	str	r1, [fp, #-12]
    c8c4:	e50b2010 	str	r2, [fp, #-16]
    c8c8:	e51b3008 	ldr	r3, [fp, #-8]
    c8cc:	e3530000 	cmp	r3, #0
    c8d0:	0a000007 	beq	c8f4 <XVtc_CfgInitialize+0x44>
    c8d4:	e30c3768 	movw	r3, #51048	; 0xc768
    c8d8:	e3403001 	movt	r3, #1
    c8dc:	e3a02000 	mov	r2, #0
    c8e0:	e5832000 	str	r2, [r3]
    c8e4:	e51b300c 	ldr	r3, [fp, #-12]
    c8e8:	e3530000 	cmp	r3, #0
    c8ec:	0a000012 	beq	c93c <XVtc_CfgInitialize+0x8c>
    c8f0:	ea000009 	b	c91c <XVtc_CfgInitialize+0x6c>
    c8f4:	e30b0c90 	movw	r0, #48272	; 0xbc90
    c8f8:	e3400001 	movt	r0, #1
    c8fc:	e3a010d2 	mov	r1, #210	; 0xd2
    c900:	eb000ccd 	bl	fc3c <Xil_Assert>
    c904:	e30c3768 	movw	r3, #51048	; 0xc768
    c908:	e3403001 	movt	r3, #1
    c90c:	e3a02001 	mov	r2, #1
    c910:	e5832000 	str	r2, [r3]
    c914:	e3a03000 	mov	r3, #0
    c918:	ea000049 	b	ca44 <XVtc_CfgInitialize+0x194>
    c91c:	e30c3768 	movw	r3, #51048	; 0xc768
    c920:	e3403001 	movt	r3, #1
    c924:	e3a02000 	mov	r2, #0
    c928:	e5832000 	str	r2, [r3]
    c92c:	e51b3010 	ldr	r3, [fp, #-16]
    c930:	e3530000 	cmp	r3, #0
    c934:	0a000039 	beq	ca20 <XVtc_CfgInitialize+0x170>
    c938:	ea000009 	b	c964 <XVtc_CfgInitialize+0xb4>
    c93c:	e30b0c90 	movw	r0, #48272	; 0xbc90
    c940:	e3400001 	movt	r0, #1
    c944:	e3a010d3 	mov	r1, #211	; 0xd3
    c948:	eb000cbb 	bl	fc3c <Xil_Assert>
    c94c:	e30c3768 	movw	r3, #51048	; 0xc768
    c950:	e3403001 	movt	r3, #1
    c954:	e3a02001 	mov	r2, #1
    c958:	e5832000 	str	r2, [r3]
    c95c:	e3a03000 	mov	r3, #0
    c960:	ea000037 	b	ca44 <XVtc_CfgInitialize+0x194>
    c964:	e30c3768 	movw	r3, #51048	; 0xc768
    c968:	e3403001 	movt	r3, #1
    c96c:	e3a02000 	mov	r2, #0
    c970:	e5832000 	str	r2, [r3]
    c974:	e51b0008 	ldr	r0, [fp, #-8]
    c978:	e3a01000 	mov	r1, #0
    c97c:	e3a02034 	mov	r2, #52	; 0x34
    c980:	ebffffae 	bl	c840 <memset>
    c984:	e51b3008 	ldr	r3, [fp, #-8]
    c988:	e1a00003 	mov	r0, r3
    c98c:	e51b100c 	ldr	r1, [fp, #-12]
    c990:	e3a02008 	mov	r2, #8
    c994:	ebffefdf 	bl	8918 <memcpy_cus>
    c998:	e51b3008 	ldr	r3, [fp, #-8]
    c99c:	e51b2010 	ldr	r2, [fp, #-16]
    c9a0:	e5832004 	str	r2, [r3, #4]
    c9a4:	e51b2008 	ldr	r2, [fp, #-8]
    c9a8:	e30f3bc0 	movw	r3, #64448	; 0xfbc0
    c9ac:	e3403000 	movt	r3, #0
    c9b0:	e582300c 	str	r3, [r2, #12]
    c9b4:	e51b2008 	ldr	r2, [fp, #-8]
    c9b8:	e30f3bc0 	movw	r3, #64448	; 0xfbc0
    c9bc:	e3403000 	movt	r3, #0
    c9c0:	e5823014 	str	r3, [r2, #20]
    c9c4:	e51b2008 	ldr	r2, [fp, #-8]
    c9c8:	e30f3bc0 	movw	r3, #64448	; 0xfbc0
    c9cc:	e3403000 	movt	r3, #0
    c9d0:	e582301c 	str	r3, [r2, #28]
    c9d4:	e51b2008 	ldr	r2, [fp, #-8]
    c9d8:	e30f3bc0 	movw	r3, #64448	; 0xfbc0
    c9dc:	e3403000 	movt	r3, #0
    c9e0:	e5823024 	str	r3, [r2, #36]	; 0x24
    c9e4:	e51b2008 	ldr	r2, [fp, #-8]
    c9e8:	e30f3bfc 	movw	r3, #64508	; 0xfbfc
    c9ec:	e3403000 	movt	r3, #0
    c9f0:	e582302c 	str	r3, [r2, #44]	; 0x2c
    c9f4:	e51b2008 	ldr	r2, [fp, #-8]
    c9f8:	e3013111 	movw	r3, #4369	; 0x1111
    c9fc:	e3413111 	movt	r3, #4369	; 0x1111
    ca00:	e5823008 	str	r3, [r2, #8]
    ca04:	e51b3008 	ldr	r3, [fp, #-8]
    ca08:	e5933004 	ldr	r3, [r3, #4]
    ca0c:	e1a00003 	mov	r0, r3
    ca10:	e3a01102 	mov	r1, #-2147483648	; 0x80000000
    ca14:	eb000ce3 	bl	fda8 <Xil_Out32>
    ca18:	e3a03000 	mov	r3, #0
    ca1c:	ea000008 	b	ca44 <XVtc_CfgInitialize+0x194>
    ca20:	e30b0c90 	movw	r0, #48272	; 0xbc90
    ca24:	e3400001 	movt	r0, #1
    ca28:	e3a010d4 	mov	r1, #212	; 0xd4
    ca2c:	eb000c82 	bl	fc3c <Xil_Assert>
    ca30:	e30c3768 	movw	r3, #51048	; 0xc768
    ca34:	e3403001 	movt	r3, #1
    ca38:	e3a02001 	mov	r2, #1
    ca3c:	e5832000 	str	r2, [r3]
    ca40:	e3a03000 	mov	r3, #0
    ca44:	e1a00003 	mov	r0, r3
    ca48:	e24bd004 	sub	sp, fp, #4
    ca4c:	e8bd8800 	pop	{fp, pc}

0000ca50 <XVtc_Enable>:
    ca50:	e92d4800 	push	{fp, lr}
    ca54:	e28db004 	add	fp, sp, #4
    ca58:	e24dd010 	sub	sp, sp, #16
    ca5c:	e50b0010 	str	r0, [fp, #-16]
    ca60:	e50b1014 	str	r1, [fp, #-20]	; 0xffffffec
    ca64:	e51b3010 	ldr	r3, [fp, #-16]
    ca68:	e3530000 	cmp	r3, #0
    ca6c:	0a00000a 	beq	ca9c <XVtc_Enable+0x4c>
    ca70:	e30c3768 	movw	r3, #51048	; 0xc768
    ca74:	e3403001 	movt	r3, #1
    ca78:	e3a02000 	mov	r2, #0
    ca7c:	e5832000 	str	r2, [r3]
    ca80:	e51b3010 	ldr	r3, [fp, #-16]
    ca84:	e5932008 	ldr	r2, [r3, #8]
    ca88:	e3013111 	movw	r3, #4369	; 0x1111
    ca8c:	e3413111 	movt	r3, #4369	; 0x1111
    ca90:	e1520003 	cmp	r2, r3
    ca94:	1a000017 	bne	caf8 <XVtc_Enable+0xa8>
    ca98:	ea000008 	b	cac0 <XVtc_Enable+0x70>
    ca9c:	e30b0c90 	movw	r0, #48272	; 0xbc90
    caa0:	e3400001 	movt	r0, #1
    caa4:	e3a010fe 	mov	r1, #254	; 0xfe
    caa8:	eb000c63 	bl	fc3c <Xil_Assert>
    caac:	e30c3768 	movw	r3, #51048	; 0xc768
    cab0:	e3403001 	movt	r3, #1
    cab4:	e3a02001 	mov	r2, #1
    cab8:	e5832000 	str	r2, [r3]
    cabc:	ea000025 	b	cb58 <XVtc_Enable+0x108>
    cac0:	e30c3768 	movw	r3, #51048	; 0xc768
    cac4:	e3403001 	movt	r3, #1
    cac8:	e3a02000 	mov	r2, #0
    cacc:	e5832000 	str	r2, [r3]
    cad0:	e51b3010 	ldr	r3, [fp, #-16]
    cad4:	e5933004 	ldr	r3, [r3, #4]
    cad8:	e1a00003 	mov	r0, r3
    cadc:	eb000c8f 	bl	fd20 <Xil_In32>
    cae0:	e50b0008 	str	r0, [fp, #-8]
    cae4:	e51b3014 	ldr	r3, [fp, #-20]	; 0xffffffec
    cae8:	e2033002 	and	r3, r3, #2
    caec:	e3530000 	cmp	r3, #0
    caf0:	0a00000c 	beq	cb28 <XVtc_Enable+0xd8>
    caf4:	ea000008 	b	cb1c <XVtc_Enable+0xcc>
    caf8:	e30b0c90 	movw	r0, #48272	; 0xbc90
    cafc:	e3400001 	movt	r0, #1
    cb00:	e3a010ff 	mov	r1, #255	; 0xff
    cb04:	eb000c4c 	bl	fc3c <Xil_Assert>
    cb08:	e30c3768 	movw	r3, #51048	; 0xc768
    cb0c:	e3403001 	movt	r3, #1
    cb10:	e3a02001 	mov	r2, #1
    cb14:	e5832000 	str	r2, [r3]
    cb18:	ea00000e 	b	cb58 <XVtc_Enable+0x108>
    cb1c:	e51b3008 	ldr	r3, [fp, #-8]
    cb20:	e3833008 	orr	r3, r3, #8
    cb24:	e50b3008 	str	r3, [fp, #-8]
    cb28:	e51b3014 	ldr	r3, [fp, #-20]	; 0xffffffec
    cb2c:	e2033001 	and	r3, r3, #1
    cb30:	e3530000 	cmp	r3, #0
    cb34:	0a000002 	beq	cb44 <XVtc_Enable+0xf4>
    cb38:	e51b3008 	ldr	r3, [fp, #-8]
    cb3c:	e3833004 	orr	r3, r3, #4
    cb40:	e50b3008 	str	r3, [fp, #-8]
    cb44:	e51b3010 	ldr	r3, [fp, #-16]
    cb48:	e5933004 	ldr	r3, [r3, #4]
    cb4c:	e1a00003 	mov	r0, r3
    cb50:	e51b1008 	ldr	r1, [fp, #-8]
    cb54:	eb000c93 	bl	fda8 <Xil_Out32>
    cb58:	e24bd004 	sub	sp, fp, #4
    cb5c:	e8bd8800 	pop	{fp, pc}

0000cb60 <XVtc_Disable>:
    cb60:	e92d4800 	push	{fp, lr}
    cb64:	e28db004 	add	fp, sp, #4
    cb68:	e24dd010 	sub	sp, sp, #16
    cb6c:	e50b0010 	str	r0, [fp, #-16]
    cb70:	e50b1014 	str	r1, [fp, #-20]	; 0xffffffec
    cb74:	e51b3010 	ldr	r3, [fp, #-16]
    cb78:	e3530000 	cmp	r3, #0
    cb7c:	0a00000a 	beq	cbac <XVtc_Disable+0x4c>
    cb80:	e30c3768 	movw	r3, #51048	; 0xc768
    cb84:	e3403001 	movt	r3, #1
    cb88:	e3a02000 	mov	r2, #0
    cb8c:	e5832000 	str	r2, [r3]
    cb90:	e51b3010 	ldr	r3, [fp, #-16]
    cb94:	e5932008 	ldr	r2, [r3, #8]
    cb98:	e3013111 	movw	r3, #4369	; 0x1111
    cb9c:	e3413111 	movt	r3, #4369	; 0x1111
    cba0:	e1520003 	cmp	r2, r3
    cba4:	1a000017 	bne	cc08 <XVtc_Disable+0xa8>
    cba8:	ea000008 	b	cbd0 <XVtc_Disable+0x70>
    cbac:	e30b0c90 	movw	r0, #48272	; 0xbc90
    cbb0:	e3400001 	movt	r0, #1
    cbb4:	e3001121 	movw	r1, #289	; 0x121
    cbb8:	eb000c1f 	bl	fc3c <Xil_Assert>
    cbbc:	e30c3768 	movw	r3, #51048	; 0xc768
    cbc0:	e3403001 	movt	r3, #1
    cbc4:	e3a02001 	mov	r2, #1
    cbc8:	e5832000 	str	r2, [r3]
    cbcc:	ea000025 	b	cc68 <XVtc_Disable+0x108>
    cbd0:	e30c3768 	movw	r3, #51048	; 0xc768
    cbd4:	e3403001 	movt	r3, #1
    cbd8:	e3a02000 	mov	r2, #0
    cbdc:	e5832000 	str	r2, [r3]
    cbe0:	e51b3010 	ldr	r3, [fp, #-16]
    cbe4:	e5933004 	ldr	r3, [r3, #4]
    cbe8:	e1a00003 	mov	r0, r3
    cbec:	eb000c4b 	bl	fd20 <Xil_In32>
    cbf0:	e50b0008 	str	r0, [fp, #-8]
    cbf4:	e51b3014 	ldr	r3, [fp, #-20]	; 0xffffffec
    cbf8:	e2033002 	and	r3, r3, #2
    cbfc:	e3530000 	cmp	r3, #0
    cc00:	0a00000c 	beq	cc38 <XVtc_Disable+0xd8>
    cc04:	ea000008 	b	cc2c <XVtc_Disable+0xcc>
    cc08:	e30b0c90 	movw	r0, #48272	; 0xbc90
    cc0c:	e3400001 	movt	r0, #1
    cc10:	e3001122 	movw	r1, #290	; 0x122
    cc14:	eb000c08 	bl	fc3c <Xil_Assert>
    cc18:	e30c3768 	movw	r3, #51048	; 0xc768
    cc1c:	e3403001 	movt	r3, #1
    cc20:	e3a02001 	mov	r2, #1
    cc24:	e5832000 	str	r2, [r3]
    cc28:	ea00000e 	b	cc68 <XVtc_Disable+0x108>
    cc2c:	e51b3008 	ldr	r3, [fp, #-8]
    cc30:	e3c33008 	bic	r3, r3, #8
    cc34:	e50b3008 	str	r3, [fp, #-8]
    cc38:	e51b3014 	ldr	r3, [fp, #-20]	; 0xffffffec
    cc3c:	e2033001 	and	r3, r3, #1
    cc40:	e3530000 	cmp	r3, #0
    cc44:	0a000002 	beq	cc54 <XVtc_Disable+0xf4>
    cc48:	e51b3008 	ldr	r3, [fp, #-8]
    cc4c:	e3c33004 	bic	r3, r3, #4
    cc50:	e50b3008 	str	r3, [fp, #-8]
    cc54:	e51b3010 	ldr	r3, [fp, #-16]
    cc58:	e5933004 	ldr	r3, [r3, #4]
    cc5c:	e1a00003 	mov	r0, r3
    cc60:	e51b1008 	ldr	r1, [fp, #-8]
    cc64:	eb000c4f 	bl	fda8 <Xil_Out32>
    cc68:	e24bd004 	sub	sp, fp, #4
    cc6c:	e8bd8800 	pop	{fp, pc}

0000cc70 <XVtc_SetPolarity>:
    cc70:	e92d4800 	push	{fp, lr}
    cc74:	e28db004 	add	fp, sp, #4
    cc78:	e24dd010 	sub	sp, sp, #16
    cc7c:	e50b0010 	str	r0, [fp, #-16]
    cc80:	e50b1014 	str	r1, [fp, #-20]	; 0xffffffec
    cc84:	e51b3010 	ldr	r3, [fp, #-16]
    cc88:	e3530000 	cmp	r3, #0
    cc8c:	0a00000a 	beq	ccbc <XVtc_SetPolarity+0x4c>
    cc90:	e30c3768 	movw	r3, #51048	; 0xc768
    cc94:	e3403001 	movt	r3, #1
    cc98:	e3a02000 	mov	r2, #0
    cc9c:	e5832000 	str	r2, [r3]
    cca0:	e51b3010 	ldr	r3, [fp, #-16]
    cca4:	e5932008 	ldr	r2, [r3, #8]
    cca8:	e3013111 	movw	r3, #4369	; 0x1111
    ccac:	e3413111 	movt	r3, #4369	; 0x1111
    ccb0:	e1520003 	cmp	r2, r3
    ccb4:	1a000011 	bne	cd00 <XVtc_SetPolarity+0x90>
    ccb8:	ea000008 	b	cce0 <XVtc_SetPolarity+0x70>
    ccbc:	e30b0c90 	movw	r0, #48272	; 0xbc90
    ccc0:	e3400001 	movt	r0, #1
    ccc4:	e3001142 	movw	r1, #322	; 0x142
    ccc8:	eb000bdb 	bl	fc3c <Xil_Assert>
    cccc:	e30c3768 	movw	r3, #51048	; 0xc768
    ccd0:	e3403001 	movt	r3, #1
    ccd4:	e3a02001 	mov	r2, #1
    ccd8:	e5832000 	str	r2, [r3]
    ccdc:	ea00005e 	b	ce5c <XVtc_SetPolarity+0x1ec>
    cce0:	e30c3768 	movw	r3, #51048	; 0xc768
    cce4:	e3403001 	movt	r3, #1
    cce8:	e3a02000 	mov	r2, #0
    ccec:	e5832000 	str	r2, [r3]
    ccf0:	e51b3014 	ldr	r3, [fp, #-20]	; 0xffffffec
    ccf4:	e3530000 	cmp	r3, #0
    ccf8:	0a00001b 	beq	cd6c <XVtc_SetPolarity+0xfc>
    ccfc:	ea000008 	b	cd24 <XVtc_SetPolarity+0xb4>
    cd00:	e30b0c90 	movw	r0, #48272	; 0xbc90
    cd04:	e3400001 	movt	r0, #1
    cd08:	e3001143 	movw	r1, #323	; 0x143
    cd0c:	eb000bca 	bl	fc3c <Xil_Assert>
    cd10:	e30c3768 	movw	r3, #51048	; 0xc768
    cd14:	e3403001 	movt	r3, #1
    cd18:	e3a02001 	mov	r2, #1
    cd1c:	e5832000 	str	r2, [r3]
    cd20:	ea00004d 	b	ce5c <XVtc_SetPolarity+0x1ec>
    cd24:	e30c3768 	movw	r3, #51048	; 0xc768
    cd28:	e3403001 	movt	r3, #1
    cd2c:	e3a02000 	mov	r2, #0
    cd30:	e5832000 	str	r2, [r3]
    cd34:	e51b3010 	ldr	r3, [fp, #-16]
    cd38:	e5933004 	ldr	r3, [r3, #4]
    cd3c:	e283306c 	add	r3, r3, #108	; 0x6c
    cd40:	e1a00003 	mov	r0, r3
    cd44:	eb000bf5 	bl	fd20 <Xil_In32>
    cd48:	e50b0008 	str	r0, [fp, #-8]
    cd4c:	e51b3008 	ldr	r3, [fp, #-8]
    cd50:	e3c3307f 	bic	r3, r3, #127	; 0x7f
    cd54:	e50b3008 	str	r3, [fp, #-8]
    cd58:	e51b3014 	ldr	r3, [fp, #-20]	; 0xffffffec
    cd5c:	e5d33000 	ldrb	r3, [r3]
    cd60:	e3530000 	cmp	r3, #0
    cd64:	0a00000c 	beq	cd9c <XVtc_SetPolarity+0x12c>
    cd68:	ea000008 	b	cd90 <XVtc_SetPolarity+0x120>
    cd6c:	e30b0c90 	movw	r0, #48272	; 0xbc90
    cd70:	e3400001 	movt	r0, #1
    cd74:	e3a01f51 	mov	r1, #324	; 0x144
    cd78:	eb000baf 	bl	fc3c <Xil_Assert>
    cd7c:	e30c3768 	movw	r3, #51048	; 0xc768
    cd80:	e3403001 	movt	r3, #1
    cd84:	e3a02001 	mov	r2, #1
    cd88:	e5832000 	str	r2, [r3]
    cd8c:	ea000032 	b	ce5c <XVtc_SetPolarity+0x1ec>
    cd90:	e51b3008 	ldr	r3, [fp, #-8]
    cd94:	e3833020 	orr	r3, r3, #32
    cd98:	e50b3008 	str	r3, [fp, #-8]
    cd9c:	e51b3014 	ldr	r3, [fp, #-20]	; 0xffffffec
    cda0:	e5d33001 	ldrb	r3, [r3, #1]
    cda4:	e3530000 	cmp	r3, #0
    cda8:	0a000002 	beq	cdb8 <XVtc_SetPolarity+0x148>
    cdac:	e51b3008 	ldr	r3, [fp, #-8]
    cdb0:	e3833010 	orr	r3, r3, #16
    cdb4:	e50b3008 	str	r3, [fp, #-8]
    cdb8:	e51b3014 	ldr	r3, [fp, #-20]	; 0xffffffec
    cdbc:	e5d33002 	ldrb	r3, [r3, #2]
    cdc0:	e3530000 	cmp	r3, #0
    cdc4:	0a000002 	beq	cdd4 <XVtc_SetPolarity+0x164>
    cdc8:	e51b3008 	ldr	r3, [fp, #-8]
    cdcc:	e3833040 	orr	r3, r3, #64	; 0x40
    cdd0:	e50b3008 	str	r3, [fp, #-8]
    cdd4:	e51b3014 	ldr	r3, [fp, #-20]	; 0xffffffec
    cdd8:	e5d33003 	ldrb	r3, [r3, #3]
    cddc:	e3530000 	cmp	r3, #0
    cde0:	0a000002 	beq	cdf0 <XVtc_SetPolarity+0x180>
    cde4:	e51b3008 	ldr	r3, [fp, #-8]
    cde8:	e3833001 	orr	r3, r3, #1
    cdec:	e50b3008 	str	r3, [fp, #-8]
    cdf0:	e51b3014 	ldr	r3, [fp, #-20]	; 0xffffffec
    cdf4:	e5d33004 	ldrb	r3, [r3, #4]
    cdf8:	e3530000 	cmp	r3, #0
    cdfc:	0a000002 	beq	ce0c <XVtc_SetPolarity+0x19c>
    ce00:	e51b3008 	ldr	r3, [fp, #-8]
    ce04:	e3833004 	orr	r3, r3, #4
    ce08:	e50b3008 	str	r3, [fp, #-8]
    ce0c:	e51b3014 	ldr	r3, [fp, #-20]	; 0xffffffec
    ce10:	e5d33005 	ldrb	r3, [r3, #5]
    ce14:	e3530000 	cmp	r3, #0
    ce18:	0a000002 	beq	ce28 <XVtc_SetPolarity+0x1b8>
    ce1c:	e51b3008 	ldr	r3, [fp, #-8]
    ce20:	e3833002 	orr	r3, r3, #2
    ce24:	e50b3008 	str	r3, [fp, #-8]
    ce28:	e51b3014 	ldr	r3, [fp, #-20]	; 0xffffffec
    ce2c:	e5d33006 	ldrb	r3, [r3, #6]
    ce30:	e3530000 	cmp	r3, #0
    ce34:	0a000002 	beq	ce44 <XVtc_SetPolarity+0x1d4>
    ce38:	e51b3008 	ldr	r3, [fp, #-8]
    ce3c:	e3833008 	orr	r3, r3, #8
    ce40:	e50b3008 	str	r3, [fp, #-8]
    ce44:	e51b3010 	ldr	r3, [fp, #-16]
    ce48:	e5933004 	ldr	r3, [r3, #4]
    ce4c:	e283306c 	add	r3, r3, #108	; 0x6c
    ce50:	e1a00003 	mov	r0, r3
    ce54:	e51b1008 	ldr	r1, [fp, #-8]
    ce58:	eb000bd2 	bl	fda8 <Xil_Out32>
    ce5c:	e24bd004 	sub	sp, fp, #4
    ce60:	e8bd8800 	pop	{fp, pc}

0000ce64 <XVtc_GetPolarity>:
    ce64:	e92d4800 	push	{fp, lr}
    ce68:	e28db004 	add	fp, sp, #4
    ce6c:	e24dd010 	sub	sp, sp, #16
    ce70:	e50b0010 	str	r0, [fp, #-16]
    ce74:	e50b1014 	str	r1, [fp, #-20]	; 0xffffffec
    ce78:	e51b3010 	ldr	r3, [fp, #-16]
    ce7c:	e3530000 	cmp	r3, #0
    ce80:	0a00000a 	beq	ceb0 <XVtc_GetPolarity+0x4c>
    ce84:	e30c3768 	movw	r3, #51048	; 0xc768
    ce88:	e3403001 	movt	r3, #1
    ce8c:	e3a02000 	mov	r2, #0
    ce90:	e5832000 	str	r2, [r3]
    ce94:	e51b3010 	ldr	r3, [fp, #-16]
    ce98:	e5932008 	ldr	r2, [r3, #8]
    ce9c:	e3013111 	movw	r3, #4369	; 0x1111
    cea0:	e3413111 	movt	r3, #4369	; 0x1111
    cea4:	e1520003 	cmp	r2, r3
    cea8:	1a000011 	bne	cef4 <XVtc_GetPolarity+0x90>
    ceac:	ea000008 	b	ced4 <XVtc_GetPolarity+0x70>
    ceb0:	e30b0c90 	movw	r0, #48272	; 0xbc90
    ceb4:	e3400001 	movt	r0, #1
    ceb8:	e3001177 	movw	r1, #375	; 0x177
    cebc:	eb000b5e 	bl	fc3c <Xil_Assert>
    cec0:	e30c3768 	movw	r3, #51048	; 0xc768
    cec4:	e3403001 	movt	r3, #1
    cec8:	e3a02001 	mov	r2, #1
    cecc:	e5832000 	str	r2, [r3]
    ced0:	ea000059 	b	d03c <XVtc_GetPolarity+0x1d8>
    ced4:	e30c3768 	movw	r3, #51048	; 0xc768
    ced8:	e3403001 	movt	r3, #1
    cedc:	e3a02000 	mov	r2, #0
    cee0:	e5832000 	str	r2, [r3]
    cee4:	e51b3014 	ldr	r3, [fp, #-20]	; 0xffffffec
    cee8:	e3530000 	cmp	r3, #0
    ceec:	0a00001c 	beq	cf64 <XVtc_GetPolarity+0x100>
    cef0:	ea000008 	b	cf18 <XVtc_GetPolarity+0xb4>
    cef4:	e30b0c90 	movw	r0, #48272	; 0xbc90
    cef8:	e3400001 	movt	r0, #1
    cefc:	e3a01f5e 	mov	r1, #376	; 0x178
    cf00:	eb000b4d 	bl	fc3c <Xil_Assert>
    cf04:	e30c3768 	movw	r3, #51048	; 0xc768
    cf08:	e3403001 	movt	r3, #1
    cf0c:	e3a02001 	mov	r2, #1
    cf10:	e5832000 	str	r2, [r3]
    cf14:	ea000048 	b	d03c <XVtc_GetPolarity+0x1d8>
    cf18:	e30c3768 	movw	r3, #51048	; 0xc768
    cf1c:	e3403001 	movt	r3, #1
    cf20:	e3a02000 	mov	r2, #0
    cf24:	e5832000 	str	r2, [r3]
    cf28:	e51b0014 	ldr	r0, [fp, #-20]	; 0xffffffec
    cf2c:	e3a01000 	mov	r1, #0
    cf30:	e3a02007 	mov	r2, #7
    cf34:	ebfffe41 	bl	c840 <memset>
    cf38:	e51b3010 	ldr	r3, [fp, #-16]
    cf3c:	e5933004 	ldr	r3, [r3, #4]
    cf40:	e283306c 	add	r3, r3, #108	; 0x6c
    cf44:	e1a00003 	mov	r0, r3
    cf48:	eb000b74 	bl	fd20 <Xil_In32>
    cf4c:	e50b0008 	str	r0, [fp, #-8]
    cf50:	e51b3008 	ldr	r3, [fp, #-8]
    cf54:	e2033020 	and	r3, r3, #32
    cf58:	e3530000 	cmp	r3, #0
    cf5c:	0a00000c 	beq	cf94 <XVtc_GetPolarity+0x130>
    cf60:	ea000008 	b	cf88 <XVtc_GetPolarity+0x124>
    cf64:	e30b0c90 	movw	r0, #48272	; 0xbc90
    cf68:	e3400001 	movt	r0, #1
    cf6c:	e3001179 	movw	r1, #377	; 0x179
    cf70:	eb000b31 	bl	fc3c <Xil_Assert>
    cf74:	e30c3768 	movw	r3, #51048	; 0xc768
    cf78:	e3403001 	movt	r3, #1
    cf7c:	e3a02001 	mov	r2, #1
    cf80:	e5832000 	str	r2, [r3]
    cf84:	ea00002c 	b	d03c <XVtc_GetPolarity+0x1d8>
    cf88:	e51b3014 	ldr	r3, [fp, #-20]	; 0xffffffec
    cf8c:	e3a02001 	mov	r2, #1
    cf90:	e5c32000 	strb	r2, [r3]
    cf94:	e51b3008 	ldr	r3, [fp, #-8]
    cf98:	e2033010 	and	r3, r3, #16
    cf9c:	e3530000 	cmp	r3, #0
    cfa0:	0a000002 	beq	cfb0 <XVtc_GetPolarity+0x14c>
    cfa4:	e51b3014 	ldr	r3, [fp, #-20]	; 0xffffffec
    cfa8:	e3a02001 	mov	r2, #1
    cfac:	e5c32001 	strb	r2, [r3, #1]
    cfb0:	e51b3008 	ldr	r3, [fp, #-8]
    cfb4:	e2033040 	and	r3, r3, #64	; 0x40
    cfb8:	e3530000 	cmp	r3, #0
    cfbc:	0a000002 	beq	cfcc <XVtc_GetPolarity+0x168>
    cfc0:	e51b3014 	ldr	r3, [fp, #-20]	; 0xffffffec
    cfc4:	e3a02001 	mov	r2, #1
    cfc8:	e5c32002 	strb	r2, [r3, #2]
    cfcc:	e51b3008 	ldr	r3, [fp, #-8]
    cfd0:	e2033001 	and	r3, r3, #1
    cfd4:	e3530000 	cmp	r3, #0
    cfd8:	0a000002 	beq	cfe8 <XVtc_GetPolarity+0x184>
    cfdc:	e51b3014 	ldr	r3, [fp, #-20]	; 0xffffffec
    cfe0:	e3a02001 	mov	r2, #1
    cfe4:	e5c32003 	strb	r2, [r3, #3]
    cfe8:	e51b3008 	ldr	r3, [fp, #-8]
    cfec:	e2033004 	and	r3, r3, #4
    cff0:	e3530000 	cmp	r3, #0
    cff4:	0a000002 	beq	d004 <XVtc_GetPolarity+0x1a0>
    cff8:	e51b3014 	ldr	r3, [fp, #-20]	; 0xffffffec
    cffc:	e3a02001 	mov	r2, #1
    d000:	e5c32004 	strb	r2, [r3, #4]
    d004:	e51b3008 	ldr	r3, [fp, #-8]
    d008:	e2033002 	and	r3, r3, #2
    d00c:	e3530000 	cmp	r3, #0
    d010:	0a000002 	beq	d020 <XVtc_GetPolarity+0x1bc>
    d014:	e51b3014 	ldr	r3, [fp, #-20]	; 0xffffffec
    d018:	e3a02001 	mov	r2, #1
    d01c:	e5c32005 	strb	r2, [r3, #5]
    d020:	e51b3008 	ldr	r3, [fp, #-8]
    d024:	e2033008 	and	r3, r3, #8
    d028:	e3530000 	cmp	r3, #0
    d02c:	0a000002 	beq	d03c <XVtc_GetPolarity+0x1d8>
    d030:	e51b3014 	ldr	r3, [fp, #-20]	; 0xffffffec
    d034:	e3a02001 	mov	r2, #1
    d038:	e5c32006 	strb	r2, [r3, #6]
    d03c:	e24bd004 	sub	sp, fp, #4
    d040:	e8bd8800 	pop	{fp, pc}

0000d044 <XVtc_GetDetectorPolarity>:
    d044:	e92d4800 	push	{fp, lr}
    d048:	e28db004 	add	fp, sp, #4
    d04c:	e24dd010 	sub	sp, sp, #16
    d050:	e50b0010 	str	r0, [fp, #-16]
    d054:	e50b1014 	str	r1, [fp, #-20]	; 0xffffffec
    d058:	e51b3010 	ldr	r3, [fp, #-16]
    d05c:	e3530000 	cmp	r3, #0
    d060:	0a00000a 	beq	d090 <XVtc_GetDetectorPolarity+0x4c>
    d064:	e30c3768 	movw	r3, #51048	; 0xc768
    d068:	e3403001 	movt	r3, #1
    d06c:	e3a02000 	mov	r2, #0
    d070:	e5832000 	str	r2, [r3]
    d074:	e51b3010 	ldr	r3, [fp, #-16]
    d078:	e5932008 	ldr	r2, [r3, #8]
    d07c:	e3013111 	movw	r3, #4369	; 0x1111
    d080:	e3413111 	movt	r3, #4369	; 0x1111
    d084:	e1520003 	cmp	r2, r3
    d088:	1a000011 	bne	d0d4 <XVtc_GetDetectorPolarity+0x90>
    d08c:	ea000008 	b	d0b4 <XVtc_GetDetectorPolarity+0x70>
    d090:	e30b0c90 	movw	r0, #48272	; 0xbc90
    d094:	e3400001 	movt	r0, #1
    d098:	e3a01f6b 	mov	r1, #428	; 0x1ac
    d09c:	eb000ae6 	bl	fc3c <Xil_Assert>
    d0a0:	e30c3768 	movw	r3, #51048	; 0xc768
    d0a4:	e3403001 	movt	r3, #1
    d0a8:	e3a02001 	mov	r2, #1
    d0ac:	e5832000 	str	r2, [r3]
    d0b0:	ea000059 	b	d21c <XVtc_GetDetectorPolarity+0x1d8>
    d0b4:	e30c3768 	movw	r3, #51048	; 0xc768
    d0b8:	e3403001 	movt	r3, #1
    d0bc:	e3a02000 	mov	r2, #0
    d0c0:	e5832000 	str	r2, [r3]
    d0c4:	e51b3014 	ldr	r3, [fp, #-20]	; 0xffffffec
    d0c8:	e3530000 	cmp	r3, #0
    d0cc:	0a00001c 	beq	d144 <XVtc_GetDetectorPolarity+0x100>
    d0d0:	ea000008 	b	d0f8 <XVtc_GetDetectorPolarity+0xb4>
    d0d4:	e30b0c90 	movw	r0, #48272	; 0xbc90
    d0d8:	e3400001 	movt	r0, #1
    d0dc:	e30011ad 	movw	r1, #429	; 0x1ad
    d0e0:	eb000ad5 	bl	fc3c <Xil_Assert>
    d0e4:	e30c3768 	movw	r3, #51048	; 0xc768
    d0e8:	e3403001 	movt	r3, #1
    d0ec:	e3a02001 	mov	r2, #1
    d0f0:	e5832000 	str	r2, [r3]
    d0f4:	ea000048 	b	d21c <XVtc_GetDetectorPolarity+0x1d8>
    d0f8:	e30c3768 	movw	r3, #51048	; 0xc768
    d0fc:	e3403001 	movt	r3, #1
    d100:	e3a02000 	mov	r2, #0
    d104:	e5832000 	str	r2, [r3]
    d108:	e51b0014 	ldr	r0, [fp, #-20]	; 0xffffffec
    d10c:	e3a01000 	mov	r1, #0
    d110:	e3a02007 	mov	r2, #7
    d114:	ebfffdc9 	bl	c840 <memset>
    d118:	e51b3010 	ldr	r3, [fp, #-16]
    d11c:	e5933004 	ldr	r3, [r3, #4]
    d120:	e283302c 	add	r3, r3, #44	; 0x2c
    d124:	e1a00003 	mov	r0, r3
    d128:	eb000afc 	bl	fd20 <Xil_In32>
    d12c:	e50b0008 	str	r0, [fp, #-8]
    d130:	e51b3008 	ldr	r3, [fp, #-8]
    d134:	e2033020 	and	r3, r3, #32
    d138:	e3530000 	cmp	r3, #0
    d13c:	0a00000c 	beq	d174 <XVtc_GetDetectorPolarity+0x130>
    d140:	ea000008 	b	d168 <XVtc_GetDetectorPolarity+0x124>
    d144:	e30b0c90 	movw	r0, #48272	; 0xbc90
    d148:	e3400001 	movt	r0, #1
    d14c:	e30011ae 	movw	r1, #430	; 0x1ae
    d150:	eb000ab9 	bl	fc3c <Xil_Assert>
    d154:	e30c3768 	movw	r3, #51048	; 0xc768
    d158:	e3403001 	movt	r3, #1
    d15c:	e3a02001 	mov	r2, #1
    d160:	e5832000 	str	r2, [r3]
    d164:	ea00002c 	b	d21c <XVtc_GetDetectorPolarity+0x1d8>
    d168:	e51b3014 	ldr	r3, [fp, #-20]	; 0xffffffec
    d16c:	e3a02001 	mov	r2, #1
    d170:	e5c32000 	strb	r2, [r3]
    d174:	e51b3008 	ldr	r3, [fp, #-8]
    d178:	e2033010 	and	r3, r3, #16
    d17c:	e3530000 	cmp	r3, #0
    d180:	0a000002 	beq	d190 <XVtc_GetDetectorPolarity+0x14c>
    d184:	e51b3014 	ldr	r3, [fp, #-20]	; 0xffffffec
    d188:	e3a02001 	mov	r2, #1
    d18c:	e5c32001 	strb	r2, [r3, #1]
    d190:	e51b3008 	ldr	r3, [fp, #-8]
    d194:	e2033040 	and	r3, r3, #64	; 0x40
    d198:	e3530000 	cmp	r3, #0
    d19c:	0a000002 	beq	d1ac <XVtc_GetDetectorPolarity+0x168>
    d1a0:	e51b3014 	ldr	r3, [fp, #-20]	; 0xffffffec
    d1a4:	e3a02001 	mov	r2, #1
    d1a8:	e5c32002 	strb	r2, [r3, #2]
    d1ac:	e51b3008 	ldr	r3, [fp, #-8]
    d1b0:	e2033001 	and	r3, r3, #1
    d1b4:	e3530000 	cmp	r3, #0
    d1b8:	0a000002 	beq	d1c8 <XVtc_GetDetectorPolarity+0x184>
    d1bc:	e51b3014 	ldr	r3, [fp, #-20]	; 0xffffffec
    d1c0:	e3a02001 	mov	r2, #1
    d1c4:	e5c32003 	strb	r2, [r3, #3]
    d1c8:	e51b3008 	ldr	r3, [fp, #-8]
    d1cc:	e2033004 	and	r3, r3, #4
    d1d0:	e3530000 	cmp	r3, #0
    d1d4:	0a000002 	beq	d1e4 <XVtc_GetDetectorPolarity+0x1a0>
    d1d8:	e51b3014 	ldr	r3, [fp, #-20]	; 0xffffffec
    d1dc:	e3a02001 	mov	r2, #1
    d1e0:	e5c32004 	strb	r2, [r3, #4]
    d1e4:	e51b3008 	ldr	r3, [fp, #-8]
    d1e8:	e2033002 	and	r3, r3, #2
    d1ec:	e3530000 	cmp	r3, #0
    d1f0:	0a000002 	beq	d200 <XVtc_GetDetectorPolarity+0x1bc>
    d1f4:	e51b3014 	ldr	r3, [fp, #-20]	; 0xffffffec
    d1f8:	e3a02001 	mov	r2, #1
    d1fc:	e5c32005 	strb	r2, [r3, #5]
    d200:	e51b3008 	ldr	r3, [fp, #-8]
    d204:	e2033008 	and	r3, r3, #8
    d208:	e3530000 	cmp	r3, #0
    d20c:	0a000002 	beq	d21c <XVtc_GetDetectorPolarity+0x1d8>
    d210:	e51b3014 	ldr	r3, [fp, #-20]	; 0xffffffec
    d214:	e3a02001 	mov	r2, #1
    d218:	e5c32006 	strb	r2, [r3, #6]
    d21c:	e24bd004 	sub	sp, fp, #4
    d220:	e8bd8800 	pop	{fp, pc}

0000d224 <XVtc_SetSource>:
    d224:	e92d4800 	push	{fp, lr}
    d228:	e28db004 	add	fp, sp, #4
    d22c:	e24dd010 	sub	sp, sp, #16
    d230:	e50b0010 	str	r0, [fp, #-16]
    d234:	e50b1014 	str	r1, [fp, #-20]	; 0xffffffec
    d238:	e51b3010 	ldr	r3, [fp, #-16]
    d23c:	e3530000 	cmp	r3, #0
    d240:	0a00000a 	beq	d270 <XVtc_SetSource+0x4c>
    d244:	e30c3768 	movw	r3, #51048	; 0xc768
    d248:	e3403001 	movt	r3, #1
    d24c:	e3a02000 	mov	r2, #0
    d250:	e5832000 	str	r2, [r3]
    d254:	e51b3010 	ldr	r3, [fp, #-16]
    d258:	e5932008 	ldr	r2, [r3, #8]
    d25c:	e3013111 	movw	r3, #4369	; 0x1111
    d260:	e3413111 	movt	r3, #4369	; 0x1111
    d264:	e1520003 	cmp	r2, r3
    d268:	1a000011 	bne	d2b4 <XVtc_SetSource+0x90>
    d26c:	ea000008 	b	d294 <XVtc_SetSource+0x70>
    d270:	e30b0c90 	movw	r0, #48272	; 0xbc90
    d274:	e3400001 	movt	r0, #1
    d278:	e30011de 	movw	r1, #478	; 0x1de
    d27c:	eb000a6e 	bl	fc3c <Xil_Assert>
    d280:	e30c3768 	movw	r3, #51048	; 0xc768
    d284:	e3403001 	movt	r3, #1
    d288:	e3a02001 	mov	r2, #1
    d28c:	e5832000 	str	r2, [r3]
    d290:	ea0000a4 	b	d528 <XVtc_SetSource+0x304>
    d294:	e30c3768 	movw	r3, #51048	; 0xc768
    d298:	e3403001 	movt	r3, #1
    d29c:	e3a02000 	mov	r2, #0
    d2a0:	e5832000 	str	r2, [r3]
    d2a4:	e51b3014 	ldr	r3, [fp, #-20]	; 0xffffffec
    d2a8:	e3530000 	cmp	r3, #0
    d2ac:	0a00001c 	beq	d324 <XVtc_SetSource+0x100>
    d2b0:	ea000008 	b	d2d8 <XVtc_SetSource+0xb4>
    d2b4:	e30b0c90 	movw	r0, #48272	; 0xbc90
    d2b8:	e3400001 	movt	r0, #1
    d2bc:	e30011df 	movw	r1, #479	; 0x1df
    d2c0:	eb000a5d 	bl	fc3c <Xil_Assert>
    d2c4:	e30c3768 	movw	r3, #51048	; 0xc768
    d2c8:	e3403001 	movt	r3, #1
    d2cc:	e3a02001 	mov	r2, #1
    d2d0:	e5832000 	str	r2, [r3]
    d2d4:	ea000093 	b	d528 <XVtc_SetSource+0x304>
    d2d8:	e30c3768 	movw	r3, #51048	; 0xc768
    d2dc:	e3403001 	movt	r3, #1
    d2e0:	e3a02000 	mov	r2, #0
    d2e4:	e5832000 	str	r2, [r3]
    d2e8:	e51b3010 	ldr	r3, [fp, #-16]
    d2ec:	e5933004 	ldr	r3, [r3, #4]
    d2f0:	e1a00003 	mov	r0, r3
    d2f4:	eb000a89 	bl	fd20 <Xil_In32>
    d2f8:	e50b0008 	str	r0, [fp, #-8]
    d2fc:	e51b2008 	ldr	r2, [fp, #-8]
    d300:	e30130ff 	movw	r3, #4351	; 0x10ff
    d304:	e34f3c08 	movt	r3, #64520	; 0xfc08
    d308:	e0033002 	and	r3, r3, r2
    d30c:	e50b3008 	str	r3, [fp, #-8]
    d310:	e51b3014 	ldr	r3, [fp, #-20]	; 0xffffffec
    d314:	e5d33000 	ldrb	r3, [r3]
    d318:	e3530000 	cmp	r3, #0
    d31c:	0a00000c 	beq	d354 <XVtc_SetSource+0x130>
    d320:	ea000008 	b	d348 <XVtc_SetSource+0x124>
    d324:	e30b0c90 	movw	r0, #48272	; 0xbc90
    d328:	e3400001 	movt	r0, #1
    d32c:	e3a01e1e 	mov	r1, #480	; 0x1e0
    d330:	eb000a41 	bl	fc3c <Xil_Assert>
    d334:	e30c3768 	movw	r3, #51048	; 0xc768
    d338:	e3403001 	movt	r3, #1
    d33c:	e3a02001 	mov	r2, #1
    d340:	e5832000 	str	r2, [r3]
    d344:	ea000077 	b	d528 <XVtc_SetSource+0x304>
    d348:	e51b3008 	ldr	r3, [fp, #-8]
    d34c:	e3833301 	orr	r3, r3, #67108864	; 0x4000000
    d350:	e50b3008 	str	r3, [fp, #-8]
    d354:	e51b3014 	ldr	r3, [fp, #-20]	; 0xffffffec
    d358:	e5d33001 	ldrb	r3, [r3, #1]
    d35c:	e3530000 	cmp	r3, #0
    d360:	0a000002 	beq	d370 <XVtc_SetSource+0x14c>
    d364:	e51b3008 	ldr	r3, [fp, #-8]
    d368:	e3833402 	orr	r3, r3, #33554432	; 0x2000000
    d36c:	e50b3008 	str	r3, [fp, #-8]
    d370:	e51b3014 	ldr	r3, [fp, #-20]	; 0xffffffec
    d374:	e5d33002 	ldrb	r3, [r3, #2]
    d378:	e3530000 	cmp	r3, #0
    d37c:	0a000002 	beq	d38c <XVtc_SetSource+0x168>
    d380:	e51b3008 	ldr	r3, [fp, #-8]
    d384:	e3833401 	orr	r3, r3, #16777216	; 0x1000000
    d388:	e50b3008 	str	r3, [fp, #-8]
    d38c:	e51b3014 	ldr	r3, [fp, #-20]	; 0xffffffec
    d390:	e5d33003 	ldrb	r3, [r3, #3]
    d394:	e3530000 	cmp	r3, #0
    d398:	0a000002 	beq	d3a8 <XVtc_SetSource+0x184>
    d39c:	e51b3008 	ldr	r3, [fp, #-8]
    d3a0:	e3833502 	orr	r3, r3, #8388608	; 0x800000
    d3a4:	e50b3008 	str	r3, [fp, #-8]
    d3a8:	e51b3014 	ldr	r3, [fp, #-20]	; 0xffffffec
    d3ac:	e5d33004 	ldrb	r3, [r3, #4]
    d3b0:	e3530000 	cmp	r3, #0
    d3b4:	0a000002 	beq	d3c4 <XVtc_SetSource+0x1a0>
    d3b8:	e51b3008 	ldr	r3, [fp, #-8]
    d3bc:	e3833501 	orr	r3, r3, #4194304	; 0x400000
    d3c0:	e50b3008 	str	r3, [fp, #-8]
    d3c4:	e51b3014 	ldr	r3, [fp, #-20]	; 0xffffffec
    d3c8:	e5d33005 	ldrb	r3, [r3, #5]
    d3cc:	e3530000 	cmp	r3, #0
    d3d0:	0a000002 	beq	d3e0 <XVtc_SetSource+0x1bc>
    d3d4:	e51b3008 	ldr	r3, [fp, #-8]
    d3d8:	e3833602 	orr	r3, r3, #2097152	; 0x200000
    d3dc:	e50b3008 	str	r3, [fp, #-8]
    d3e0:	e51b3014 	ldr	r3, [fp, #-20]	; 0xffffffec
    d3e4:	e5d33006 	ldrb	r3, [r3, #6]
    d3e8:	e3530000 	cmp	r3, #0
    d3ec:	0a000002 	beq	d3fc <XVtc_SetSource+0x1d8>
    d3f0:	e51b3008 	ldr	r3, [fp, #-8]
    d3f4:	e3833601 	orr	r3, r3, #1048576	; 0x100000
    d3f8:	e50b3008 	str	r3, [fp, #-8]
    d3fc:	e51b3014 	ldr	r3, [fp, #-20]	; 0xffffffec
    d400:	e5d33007 	ldrb	r3, [r3, #7]
    d404:	e3530000 	cmp	r3, #0
    d408:	0a000002 	beq	d418 <XVtc_SetSource+0x1f4>
    d40c:	e51b3008 	ldr	r3, [fp, #-8]
    d410:	e3833701 	orr	r3, r3, #262144	; 0x40000
    d414:	e50b3008 	str	r3, [fp, #-8]
    d418:	e51b3014 	ldr	r3, [fp, #-20]	; 0xffffffec
    d41c:	e5d33008 	ldrb	r3, [r3, #8]
    d420:	e3530000 	cmp	r3, #0
    d424:	0a000002 	beq	d434 <XVtc_SetSource+0x210>
    d428:	e51b3008 	ldr	r3, [fp, #-8]
    d42c:	e3833802 	orr	r3, r3, #131072	; 0x20000
    d430:	e50b3008 	str	r3, [fp, #-8]
    d434:	e51b3014 	ldr	r3, [fp, #-20]	; 0xffffffec
    d438:	e5d33009 	ldrb	r3, [r3, #9]
    d43c:	e3530000 	cmp	r3, #0
    d440:	0a000002 	beq	d450 <XVtc_SetSource+0x22c>
    d444:	e51b3008 	ldr	r3, [fp, #-8]
    d448:	e3833801 	orr	r3, r3, #65536	; 0x10000
    d44c:	e50b3008 	str	r3, [fp, #-8]
    d450:	e51b3014 	ldr	r3, [fp, #-20]	; 0xffffffec
    d454:	e5d3300a 	ldrb	r3, [r3, #10]
    d458:	e3530000 	cmp	r3, #0
    d45c:	0a000002 	beq	d46c <XVtc_SetSource+0x248>
    d460:	e51b3008 	ldr	r3, [fp, #-8]
    d464:	e3833902 	orr	r3, r3, #32768	; 0x8000
    d468:	e50b3008 	str	r3, [fp, #-8]
    d46c:	e51b3014 	ldr	r3, [fp, #-20]	; 0xffffffec
    d470:	e5d3300b 	ldrb	r3, [r3, #11]
    d474:	e3530000 	cmp	r3, #0
    d478:	0a000002 	beq	d488 <XVtc_SetSource+0x264>
    d47c:	e51b3008 	ldr	r3, [fp, #-8]
    d480:	e3833901 	orr	r3, r3, #16384	; 0x4000
    d484:	e50b3008 	str	r3, [fp, #-8]
    d488:	e51b3014 	ldr	r3, [fp, #-20]	; 0xffffffec
    d48c:	e5d3300c 	ldrb	r3, [r3, #12]
    d490:	e3530000 	cmp	r3, #0
    d494:	0a000002 	beq	d4a4 <XVtc_SetSource+0x280>
    d498:	e51b3008 	ldr	r3, [fp, #-8]
    d49c:	e3833a02 	orr	r3, r3, #8192	; 0x2000
    d4a0:	e50b3008 	str	r3, [fp, #-8]
    d4a4:	e51b3014 	ldr	r3, [fp, #-20]	; 0xffffffec
    d4a8:	e5d3300e 	ldrb	r3, [r3, #14]
    d4ac:	e3530000 	cmp	r3, #0
    d4b0:	0a000002 	beq	d4c0 <XVtc_SetSource+0x29c>
    d4b4:	e51b3008 	ldr	r3, [fp, #-8]
    d4b8:	e3833b02 	orr	r3, r3, #2048	; 0x800
    d4bc:	e50b3008 	str	r3, [fp, #-8]
    d4c0:	e51b3014 	ldr	r3, [fp, #-20]	; 0xffffffec
    d4c4:	e5d3300f 	ldrb	r3, [r3, #15]
    d4c8:	e3530000 	cmp	r3, #0
    d4cc:	0a000002 	beq	d4dc <XVtc_SetSource+0x2b8>
    d4d0:	e51b3008 	ldr	r3, [fp, #-8]
    d4d4:	e3833b01 	orr	r3, r3, #1024	; 0x400
    d4d8:	e50b3008 	str	r3, [fp, #-8]
    d4dc:	e51b3014 	ldr	r3, [fp, #-20]	; 0xffffffec
    d4e0:	e5d33010 	ldrb	r3, [r3, #16]
    d4e4:	e3530000 	cmp	r3, #0
    d4e8:	0a000002 	beq	d4f8 <XVtc_SetSource+0x2d4>
    d4ec:	e51b3008 	ldr	r3, [fp, #-8]
    d4f0:	e3833c02 	orr	r3, r3, #512	; 0x200
    d4f4:	e50b3008 	str	r3, [fp, #-8]
    d4f8:	e51b3014 	ldr	r3, [fp, #-20]	; 0xffffffec
    d4fc:	e5d33011 	ldrb	r3, [r3, #17]
    d500:	e3530000 	cmp	r3, #0
    d504:	0a000002 	beq	d514 <XVtc_SetSource+0x2f0>
    d508:	e51b3008 	ldr	r3, [fp, #-8]
    d50c:	e3833c01 	orr	r3, r3, #256	; 0x100
    d510:	e50b3008 	str	r3, [fp, #-8]
    d514:	e51b3010 	ldr	r3, [fp, #-16]
    d518:	e5933004 	ldr	r3, [r3, #4]
    d51c:	e1a00003 	mov	r0, r3
    d520:	e51b1008 	ldr	r1, [fp, #-8]
    d524:	eb000a1f 	bl	fda8 <Xil_Out32>
    d528:	e24bd004 	sub	sp, fp, #4
    d52c:	e8bd8800 	pop	{fp, pc}

0000d530 <XVtc_GetSource>:
    d530:	e92d4800 	push	{fp, lr}
    d534:	e28db004 	add	fp, sp, #4
    d538:	e24dd010 	sub	sp, sp, #16
    d53c:	e50b0010 	str	r0, [fp, #-16]
    d540:	e50b1014 	str	r1, [fp, #-20]	; 0xffffffec
    d544:	e51b3010 	ldr	r3, [fp, #-16]
    d548:	e3530000 	cmp	r3, #0
    d54c:	0a00000a 	beq	d57c <XVtc_GetSource+0x4c>
    d550:	e30c3768 	movw	r3, #51048	; 0xc768
    d554:	e3403001 	movt	r3, #1
    d558:	e3a02000 	mov	r2, #0
    d55c:	e5832000 	str	r2, [r3]
    d560:	e51b3010 	ldr	r3, [fp, #-16]
    d564:	e5932008 	ldr	r2, [r3, #8]
    d568:	e3013111 	movw	r3, #4369	; 0x1111
    d56c:	e3413111 	movt	r3, #4369	; 0x1111
    d570:	e1520003 	cmp	r2, r3
    d574:	1a000011 	bne	d5c0 <XVtc_GetSource+0x90>
    d578:	ea000008 	b	d5a0 <XVtc_GetSource+0x70>
    d57c:	e30b0c90 	movw	r0, #48272	; 0xbc90
    d580:	e3400001 	movt	r0, #1
    d584:	e3001233 	movw	r1, #563	; 0x233
    d588:	eb0009ab 	bl	fc3c <Xil_Assert>
    d58c:	e30c3768 	movw	r3, #51048	; 0xc768
    d590:	e3403001 	movt	r3, #1
    d594:	e3a02001 	mov	r2, #1
    d598:	e5832000 	str	r2, [r3]
    d59c:	ea00009e 	b	d81c <XVtc_GetSource+0x2ec>
    d5a0:	e30c3768 	movw	r3, #51048	; 0xc768
    d5a4:	e3403001 	movt	r3, #1
    d5a8:	e3a02000 	mov	r2, #0
    d5ac:	e5832000 	str	r2, [r3]
    d5b0:	e51b3014 	ldr	r3, [fp, #-20]	; 0xffffffec
    d5b4:	e3530000 	cmp	r3, #0
    d5b8:	0a00001b 	beq	d62c <XVtc_GetSource+0xfc>
    d5bc:	ea000008 	b	d5e4 <XVtc_GetSource+0xb4>
    d5c0:	e30b0c90 	movw	r0, #48272	; 0xbc90
    d5c4:	e3400001 	movt	r0, #1
    d5c8:	e3a01f8d 	mov	r1, #564	; 0x234
    d5cc:	eb00099a 	bl	fc3c <Xil_Assert>
    d5d0:	e30c3768 	movw	r3, #51048	; 0xc768
    d5d4:	e3403001 	movt	r3, #1
    d5d8:	e3a02001 	mov	r2, #1
    d5dc:	e5832000 	str	r2, [r3]
    d5e0:	ea00008d 	b	d81c <XVtc_GetSource+0x2ec>
    d5e4:	e30c3768 	movw	r3, #51048	; 0xc768
    d5e8:	e3403001 	movt	r3, #1
    d5ec:	e3a02000 	mov	r2, #0
    d5f0:	e5832000 	str	r2, [r3]
    d5f4:	e51b0014 	ldr	r0, [fp, #-20]	; 0xffffffec
    d5f8:	e3a01000 	mov	r1, #0
    d5fc:	e3a02012 	mov	r2, #18
    d600:	ebfffc8e 	bl	c840 <memset>
    d604:	e51b3010 	ldr	r3, [fp, #-16]
    d608:	e5933004 	ldr	r3, [r3, #4]
    d60c:	e1a00003 	mov	r0, r3
    d610:	eb0009c2 	bl	fd20 <Xil_In32>
    d614:	e50b0008 	str	r0, [fp, #-8]
    d618:	e51b3008 	ldr	r3, [fp, #-8]
    d61c:	e2033301 	and	r3, r3, #67108864	; 0x4000000
    d620:	e3530000 	cmp	r3, #0
    d624:	0a00000c 	beq	d65c <XVtc_GetSource+0x12c>
    d628:	ea000008 	b	d650 <XVtc_GetSource+0x120>
    d62c:	e30b0c90 	movw	r0, #48272	; 0xbc90
    d630:	e3400001 	movt	r0, #1
    d634:	e3001235 	movw	r1, #565	; 0x235
    d638:	eb00097f 	bl	fc3c <Xil_Assert>
    d63c:	e30c3768 	movw	r3, #51048	; 0xc768
    d640:	e3403001 	movt	r3, #1
    d644:	e3a02001 	mov	r2, #1
    d648:	e5832000 	str	r2, [r3]
    d64c:	ea000072 	b	d81c <XVtc_GetSource+0x2ec>
    d650:	e51b3014 	ldr	r3, [fp, #-20]	; 0xffffffec
    d654:	e3a02001 	mov	r2, #1
    d658:	e5c32000 	strb	r2, [r3]
    d65c:	e51b3008 	ldr	r3, [fp, #-8]
    d660:	e2033402 	and	r3, r3, #33554432	; 0x2000000
    d664:	e3530000 	cmp	r3, #0
    d668:	0a000002 	beq	d678 <XVtc_GetSource+0x148>
    d66c:	e51b3014 	ldr	r3, [fp, #-20]	; 0xffffffec
    d670:	e3a02001 	mov	r2, #1
    d674:	e5c32001 	strb	r2, [r3, #1]
    d678:	e51b3008 	ldr	r3, [fp, #-8]
    d67c:	e2033401 	and	r3, r3, #16777216	; 0x1000000
    d680:	e3530000 	cmp	r3, #0
    d684:	0a000002 	beq	d694 <XVtc_GetSource+0x164>
    d688:	e51b3014 	ldr	r3, [fp, #-20]	; 0xffffffec
    d68c:	e3a02001 	mov	r2, #1
    d690:	e5c32002 	strb	r2, [r3, #2]
    d694:	e51b3008 	ldr	r3, [fp, #-8]
    d698:	e2033502 	and	r3, r3, #8388608	; 0x800000
    d69c:	e3530000 	cmp	r3, #0
    d6a0:	0a000002 	beq	d6b0 <XVtc_GetSource+0x180>
    d6a4:	e51b3014 	ldr	r3, [fp, #-20]	; 0xffffffec
    d6a8:	e3a02001 	mov	r2, #1
    d6ac:	e5c32003 	strb	r2, [r3, #3]
    d6b0:	e51b3008 	ldr	r3, [fp, #-8]
    d6b4:	e2033501 	and	r3, r3, #4194304	; 0x400000
    d6b8:	e3530000 	cmp	r3, #0
    d6bc:	0a000002 	beq	d6cc <XVtc_GetSource+0x19c>
    d6c0:	e51b3014 	ldr	r3, [fp, #-20]	; 0xffffffec
    d6c4:	e3a02001 	mov	r2, #1
    d6c8:	e5c32004 	strb	r2, [r3, #4]
    d6cc:	e51b3008 	ldr	r3, [fp, #-8]
    d6d0:	e2033602 	and	r3, r3, #2097152	; 0x200000
    d6d4:	e3530000 	cmp	r3, #0
    d6d8:	0a000002 	beq	d6e8 <XVtc_GetSource+0x1b8>
    d6dc:	e51b3014 	ldr	r3, [fp, #-20]	; 0xffffffec
    d6e0:	e3a02001 	mov	r2, #1
    d6e4:	e5c32005 	strb	r2, [r3, #5]
    d6e8:	e51b3008 	ldr	r3, [fp, #-8]
    d6ec:	e2033601 	and	r3, r3, #1048576	; 0x100000
    d6f0:	e3530000 	cmp	r3, #0
    d6f4:	0a000002 	beq	d704 <XVtc_GetSource+0x1d4>
    d6f8:	e51b3014 	ldr	r3, [fp, #-20]	; 0xffffffec
    d6fc:	e3a02001 	mov	r2, #1
    d700:	e5c32006 	strb	r2, [r3, #6]
    d704:	e51b3008 	ldr	r3, [fp, #-8]
    d708:	e2033701 	and	r3, r3, #262144	; 0x40000
    d70c:	e3530000 	cmp	r3, #0
    d710:	0a000002 	beq	d720 <XVtc_GetSource+0x1f0>
    d714:	e51b3014 	ldr	r3, [fp, #-20]	; 0xffffffec
    d718:	e3a02001 	mov	r2, #1
    d71c:	e5c32007 	strb	r2, [r3, #7]
    d720:	e51b3008 	ldr	r3, [fp, #-8]
    d724:	e2033802 	and	r3, r3, #131072	; 0x20000
    d728:	e3530000 	cmp	r3, #0
    d72c:	0a000002 	beq	d73c <XVtc_GetSource+0x20c>
    d730:	e51b3014 	ldr	r3, [fp, #-20]	; 0xffffffec
    d734:	e3a02001 	mov	r2, #1
    d738:	e5c32008 	strb	r2, [r3, #8]
    d73c:	e51b3008 	ldr	r3, [fp, #-8]
    d740:	e2033801 	and	r3, r3, #65536	; 0x10000
    d744:	e3530000 	cmp	r3, #0
    d748:	0a000002 	beq	d758 <XVtc_GetSource+0x228>
    d74c:	e51b3014 	ldr	r3, [fp, #-20]	; 0xffffffec
    d750:	e3a02001 	mov	r2, #1
    d754:	e5c32009 	strb	r2, [r3, #9]
    d758:	e51b3008 	ldr	r3, [fp, #-8]
    d75c:	e2033902 	and	r3, r3, #32768	; 0x8000
    d760:	e3530000 	cmp	r3, #0
    d764:	0a000002 	beq	d774 <XVtc_GetSource+0x244>
    d768:	e51b3014 	ldr	r3, [fp, #-20]	; 0xffffffec
    d76c:	e3a02001 	mov	r2, #1
    d770:	e5c3200a 	strb	r2, [r3, #10]
    d774:	e51b3008 	ldr	r3, [fp, #-8]
    d778:	e2033901 	and	r3, r3, #16384	; 0x4000
    d77c:	e3530000 	cmp	r3, #0
    d780:	0a000002 	beq	d790 <XVtc_GetSource+0x260>
    d784:	e51b3014 	ldr	r3, [fp, #-20]	; 0xffffffec
    d788:	e3a02001 	mov	r2, #1
    d78c:	e5c3200b 	strb	r2, [r3, #11]
    d790:	e51b3008 	ldr	r3, [fp, #-8]
    d794:	e2033a02 	and	r3, r3, #8192	; 0x2000
    d798:	e3530000 	cmp	r3, #0
    d79c:	0a000002 	beq	d7ac <XVtc_GetSource+0x27c>
    d7a0:	e51b3014 	ldr	r3, [fp, #-20]	; 0xffffffec
    d7a4:	e3a02001 	mov	r2, #1
    d7a8:	e5c3200c 	strb	r2, [r3, #12]
    d7ac:	e51b3008 	ldr	r3, [fp, #-8]
    d7b0:	e2033b02 	and	r3, r3, #2048	; 0x800
    d7b4:	e3530000 	cmp	r3, #0
    d7b8:	0a000002 	beq	d7c8 <XVtc_GetSource+0x298>
    d7bc:	e51b3014 	ldr	r3, [fp, #-20]	; 0xffffffec
    d7c0:	e3a02001 	mov	r2, #1
    d7c4:	e5c3200e 	strb	r2, [r3, #14]
    d7c8:	e51b3008 	ldr	r3, [fp, #-8]
    d7cc:	e2033b01 	and	r3, r3, #1024	; 0x400
    d7d0:	e3530000 	cmp	r3, #0
    d7d4:	0a000002 	beq	d7e4 <XVtc_GetSource+0x2b4>
    d7d8:	e51b3014 	ldr	r3, [fp, #-20]	; 0xffffffec
    d7dc:	e3a02001 	mov	r2, #1
    d7e0:	e5c3200f 	strb	r2, [r3, #15]
    d7e4:	e51b3008 	ldr	r3, [fp, #-8]
    d7e8:	e2033c02 	and	r3, r3, #512	; 0x200
    d7ec:	e3530000 	cmp	r3, #0
    d7f0:	0a000002 	beq	d800 <XVtc_GetSource+0x2d0>
    d7f4:	e51b3014 	ldr	r3, [fp, #-20]	; 0xffffffec
    d7f8:	e3a02001 	mov	r2, #1
    d7fc:	e5c32010 	strb	r2, [r3, #16]
    d800:	e51b3008 	ldr	r3, [fp, #-8]
    d804:	e2033c01 	and	r3, r3, #256	; 0x100
    d808:	e3530000 	cmp	r3, #0
    d80c:	0a000002 	beq	d81c <XVtc_GetSource+0x2ec>
    d810:	e51b3014 	ldr	r3, [fp, #-20]	; 0xffffffec
    d814:	e3a02001 	mov	r2, #1
    d818:	e5c32011 	strb	r2, [r3, #17]
    d81c:	e24bd004 	sub	sp, fp, #4
    d820:	e8bd8800 	pop	{fp, pc}

0000d824 <XVtc_SetSkipLine>:
    d824:	e92d4800 	push	{fp, lr}
    d828:	e28db004 	add	fp, sp, #4
    d82c:	e24dd010 	sub	sp, sp, #16
    d830:	e50b0010 	str	r0, [fp, #-16]
    d834:	e50b1014 	str	r1, [fp, #-20]	; 0xffffffec
    d838:	e51b3010 	ldr	r3, [fp, #-16]
    d83c:	e3530000 	cmp	r3, #0
    d840:	0a00000a 	beq	d870 <XVtc_SetSkipLine+0x4c>
    d844:	e30c3768 	movw	r3, #51048	; 0xc768
    d848:	e3403001 	movt	r3, #1
    d84c:	e3a02000 	mov	r2, #0
    d850:	e5832000 	str	r2, [r3]
    d854:	e51b3010 	ldr	r3, [fp, #-16]
    d858:	e5932008 	ldr	r2, [r3, #8]
    d85c:	e3013111 	movw	r3, #4369	; 0x1111
    d860:	e3413111 	movt	r3, #4369	; 0x1111
    d864:	e1520003 	cmp	r2, r3
    d868:	1a00001a 	bne	d8d8 <XVtc_SetSkipLine+0xb4>
    d86c:	ea000008 	b	d894 <XVtc_SetSkipLine+0x70>
    d870:	e30b0c90 	movw	r0, #48272	; 0xbc90
    d874:	e3400001 	movt	r0, #1
    d878:	e3001276 	movw	r1, #630	; 0x276
    d87c:	eb0008ee 	bl	fc3c <Xil_Assert>
    d880:	e30c3768 	movw	r3, #51048	; 0xc768
    d884:	e3403001 	movt	r3, #1
    d888:	e3a02001 	mov	r2, #1
    d88c:	e5832000 	str	r2, [r3]
    d890:	ea000022 	b	d920 <XVtc_SetSkipLine+0xfc>
    d894:	e30c3768 	movw	r3, #51048	; 0xc768
    d898:	e3403001 	movt	r3, #1
    d89c:	e3a02000 	mov	r2, #0
    d8a0:	e5832000 	str	r2, [r3]
    d8a4:	e51b3010 	ldr	r3, [fp, #-16]
    d8a8:	e5933004 	ldr	r3, [r3, #4]
    d8ac:	e2833068 	add	r3, r3, #104	; 0x68
    d8b0:	e1a00003 	mov	r0, r3
    d8b4:	eb000919 	bl	fd20 <Xil_In32>
    d8b8:	e50b0008 	str	r0, [fp, #-8]
    d8bc:	e51b3008 	ldr	r3, [fp, #-8]
    d8c0:	e3c33001 	bic	r3, r3, #1
    d8c4:	e50b3008 	str	r3, [fp, #-8]
    d8c8:	e51b3014 	ldr	r3, [fp, #-20]	; 0xffffffec
    d8cc:	e3530000 	cmp	r3, #0
    d8d0:	0a00000c 	beq	d908 <XVtc_SetSkipLine+0xe4>
    d8d4:	ea000008 	b	d8fc <XVtc_SetSkipLine+0xd8>
    d8d8:	e30b0c90 	movw	r0, #48272	; 0xbc90
    d8dc:	e3400001 	movt	r0, #1
    d8e0:	e3001277 	movw	r1, #631	; 0x277
    d8e4:	eb0008d4 	bl	fc3c <Xil_Assert>
    d8e8:	e30c3768 	movw	r3, #51048	; 0xc768
    d8ec:	e3403001 	movt	r3, #1
    d8f0:	e3a02001 	mov	r2, #1
    d8f4:	e5832000 	str	r2, [r3]
    d8f8:	ea000008 	b	d920 <XVtc_SetSkipLine+0xfc>
    d8fc:	e51b3008 	ldr	r3, [fp, #-8]
    d900:	e3833001 	orr	r3, r3, #1
    d904:	e50b3008 	str	r3, [fp, #-8]
    d908:	e51b3010 	ldr	r3, [fp, #-16]
    d90c:	e5933004 	ldr	r3, [r3, #4]
    d910:	e2833068 	add	r3, r3, #104	; 0x68
    d914:	e1a00003 	mov	r0, r3
    d918:	e51b1008 	ldr	r1, [fp, #-8]
    d91c:	eb000921 	bl	fda8 <Xil_Out32>
    d920:	e24bd004 	sub	sp, fp, #4
    d924:	e8bd8800 	pop	{fp, pc}

0000d928 <XVtc_GetSkipLine>:
    d928:	e92d4800 	push	{fp, lr}
    d92c:	e28db004 	add	fp, sp, #4
    d930:	e24dd010 	sub	sp, sp, #16
    d934:	e50b0010 	str	r0, [fp, #-16]
    d938:	e50b1014 	str	r1, [fp, #-20]	; 0xffffffec
    d93c:	e51b3010 	ldr	r3, [fp, #-16]
    d940:	e3530000 	cmp	r3, #0
    d944:	0a00000a 	beq	d974 <XVtc_GetSkipLine+0x4c>
    d948:	e30c3768 	movw	r3, #51048	; 0xc768
    d94c:	e3403001 	movt	r3, #1
    d950:	e3a02000 	mov	r2, #0
    d954:	e5832000 	str	r2, [r3]
    d958:	e51b3010 	ldr	r3, [fp, #-16]
    d95c:	e5932008 	ldr	r2, [r3, #8]
    d960:	e3013111 	movw	r3, #4369	; 0x1111
    d964:	e3413111 	movt	r3, #4369	; 0x1111
    d968:	e1520003 	cmp	r2, r3
    d96c:	1a000011 	bne	d9b8 <XVtc_GetSkipLine+0x90>
    d970:	ea000008 	b	d998 <XVtc_GetSkipLine+0x70>
    d974:	e30b0c90 	movw	r0, #48272	; 0xbc90
    d978:	e3400001 	movt	r0, #1
    d97c:	e300129a 	movw	r1, #666	; 0x29a
    d980:	eb0008ad 	bl	fc3c <Xil_Assert>
    d984:	e30c3768 	movw	r3, #51048	; 0xc768
    d988:	e3403001 	movt	r3, #1
    d98c:	e3a02001 	mov	r2, #1
    d990:	e5832000 	str	r2, [r3]
    d994:	ea00002f 	b	da58 <XVtc_GetSkipLine+0x130>
    d998:	e30c3768 	movw	r3, #51048	; 0xc768
    d99c:	e3403001 	movt	r3, #1
    d9a0:	e3a02000 	mov	r2, #0
    d9a4:	e5832000 	str	r2, [r3]
    d9a8:	e51b3014 	ldr	r3, [fp, #-20]	; 0xffffffec
    d9ac:	e3530000 	cmp	r3, #0
    d9b0:	0a000018 	beq	da18 <XVtc_GetSkipLine+0xf0>
    d9b4:	ea000008 	b	d9dc <XVtc_GetSkipLine+0xb4>
    d9b8:	e30b0c90 	movw	r0, #48272	; 0xbc90
    d9bc:	e3400001 	movt	r0, #1
    d9c0:	e300129b 	movw	r1, #667	; 0x29b
    d9c4:	eb00089c 	bl	fc3c <Xil_Assert>
    d9c8:	e30c3768 	movw	r3, #51048	; 0xc768
    d9cc:	e3403001 	movt	r3, #1
    d9d0:	e3a02001 	mov	r2, #1
    d9d4:	e5832000 	str	r2, [r3]
    d9d8:	ea00001e 	b	da58 <XVtc_GetSkipLine+0x130>
    d9dc:	e30c3768 	movw	r3, #51048	; 0xc768
    d9e0:	e3403001 	movt	r3, #1
    d9e4:	e3a02000 	mov	r2, #0
    d9e8:	e5832000 	str	r2, [r3]
    d9ec:	e51b3010 	ldr	r3, [fp, #-16]
    d9f0:	e5933004 	ldr	r3, [r3, #4]
    d9f4:	e2833068 	add	r3, r3, #104	; 0x68
    d9f8:	e1a00003 	mov	r0, r3
    d9fc:	eb0008c7 	bl	fd20 <Xil_In32>
    da00:	e50b0008 	str	r0, [fp, #-8]
    da04:	e51b3008 	ldr	r3, [fp, #-8]
    da08:	e2033001 	and	r3, r3, #1
    da0c:	e3530000 	cmp	r3, #0
    da10:	0a00000d 	beq	da4c <XVtc_GetSkipLine+0x124>
    da14:	ea000008 	b	da3c <XVtc_GetSkipLine+0x114>
    da18:	e30b0c90 	movw	r0, #48272	; 0xbc90
    da1c:	e3400001 	movt	r0, #1
    da20:	e3a01fa7 	mov	r1, #668	; 0x29c
    da24:	eb000884 	bl	fc3c <Xil_Assert>
    da28:	e30c3768 	movw	r3, #51048	; 0xc768
    da2c:	e3403001 	movt	r3, #1
    da30:	e3a02001 	mov	r2, #1
    da34:	e5832000 	str	r2, [r3]
    da38:	ea000006 	b	da58 <XVtc_GetSkipLine+0x130>
    da3c:	e51b3014 	ldr	r3, [fp, #-20]	; 0xffffffec
    da40:	e3a02001 	mov	r2, #1
    da44:	e5832000 	str	r2, [r3]
    da48:	ea000002 	b	da58 <XVtc_GetSkipLine+0x130>
    da4c:	e51b3014 	ldr	r3, [fp, #-20]	; 0xffffffec
    da50:	e3a02000 	mov	r2, #0
    da54:	e5832000 	str	r2, [r3]
    da58:	e24bd004 	sub	sp, fp, #4
    da5c:	e8bd8800 	pop	{fp, pc}

0000da60 <XVtc_SetSkipPixel>:
    da60:	e92d4800 	push	{fp, lr}
    da64:	e28db004 	add	fp, sp, #4
    da68:	e24dd010 	sub	sp, sp, #16
    da6c:	e50b0010 	str	r0, [fp, #-16]
    da70:	e50b1014 	str	r1, [fp, #-20]	; 0xffffffec
    da74:	e51b3010 	ldr	r3, [fp, #-16]
    da78:	e3530000 	cmp	r3, #0
    da7c:	0a00000a 	beq	daac <XVtc_SetSkipPixel+0x4c>
    da80:	e30c3768 	movw	r3, #51048	; 0xc768
    da84:	e3403001 	movt	r3, #1
    da88:	e3a02000 	mov	r2, #0
    da8c:	e5832000 	str	r2, [r3]
    da90:	e51b3010 	ldr	r3, [fp, #-16]
    da94:	e5932008 	ldr	r2, [r3, #8]
    da98:	e3013111 	movw	r3, #4369	; 0x1111
    da9c:	e3413111 	movt	r3, #4369	; 0x1111
    daa0:	e1520003 	cmp	r2, r3
    daa4:	1a00001a 	bne	db14 <XVtc_SetSkipPixel+0xb4>
    daa8:	ea000008 	b	dad0 <XVtc_SetSkipPixel+0x70>
    daac:	e30b0c90 	movw	r0, #48272	; 0xbc90
    dab0:	e3400001 	movt	r0, #1
    dab4:	e30012bb 	movw	r1, #699	; 0x2bb
    dab8:	eb00085f 	bl	fc3c <Xil_Assert>
    dabc:	e30c3768 	movw	r3, #51048	; 0xc768
    dac0:	e3403001 	movt	r3, #1
    dac4:	e3a02001 	mov	r2, #1
    dac8:	e5832000 	str	r2, [r3]
    dacc:	ea000022 	b	db5c <XVtc_SetSkipPixel+0xfc>
    dad0:	e30c3768 	movw	r3, #51048	; 0xc768
    dad4:	e3403001 	movt	r3, #1
    dad8:	e3a02000 	mov	r2, #0
    dadc:	e5832000 	str	r2, [r3]
    dae0:	e51b3010 	ldr	r3, [fp, #-16]
    dae4:	e5933004 	ldr	r3, [r3, #4]
    dae8:	e2833068 	add	r3, r3, #104	; 0x68
    daec:	e1a00003 	mov	r0, r3
    daf0:	eb00088a 	bl	fd20 <Xil_In32>
    daf4:	e50b0008 	str	r0, [fp, #-8]
    daf8:	e51b3008 	ldr	r3, [fp, #-8]
    dafc:	e3c33c02 	bic	r3, r3, #512	; 0x200
    db00:	e50b3008 	str	r3, [fp, #-8]
    db04:	e51b3014 	ldr	r3, [fp, #-20]	; 0xffffffec
    db08:	e3530000 	cmp	r3, #0
    db0c:	0a00000c 	beq	db44 <XVtc_SetSkipPixel+0xe4>
    db10:	ea000008 	b	db38 <XVtc_SetSkipPixel+0xd8>
    db14:	e30b0c90 	movw	r0, #48272	; 0xbc90
    db18:	e3400001 	movt	r0, #1
    db1c:	e3a01faf 	mov	r1, #700	; 0x2bc
    db20:	eb000845 	bl	fc3c <Xil_Assert>
    db24:	e30c3768 	movw	r3, #51048	; 0xc768
    db28:	e3403001 	movt	r3, #1
    db2c:	e3a02001 	mov	r2, #1
    db30:	e5832000 	str	r2, [r3]
    db34:	ea000008 	b	db5c <XVtc_SetSkipPixel+0xfc>
    db38:	e51b3008 	ldr	r3, [fp, #-8]
    db3c:	e3833c02 	orr	r3, r3, #512	; 0x200
    db40:	e50b3008 	str	r3, [fp, #-8]
    db44:	e51b3010 	ldr	r3, [fp, #-16]
    db48:	e5933004 	ldr	r3, [r3, #4]
    db4c:	e2833068 	add	r3, r3, #104	; 0x68
    db50:	e1a00003 	mov	r0, r3
    db54:	e51b1008 	ldr	r1, [fp, #-8]
    db58:	eb000892 	bl	fda8 <Xil_Out32>
    db5c:	e24bd004 	sub	sp, fp, #4
    db60:	e8bd8800 	pop	{fp, pc}

0000db64 <XVtc_GetSkipPixel>:
    db64:	e92d4800 	push	{fp, lr}
    db68:	e28db004 	add	fp, sp, #4
    db6c:	e24dd010 	sub	sp, sp, #16
    db70:	e50b0010 	str	r0, [fp, #-16]
    db74:	e50b1014 	str	r1, [fp, #-20]	; 0xffffffec
    db78:	e51b3010 	ldr	r3, [fp, #-16]
    db7c:	e3530000 	cmp	r3, #0
    db80:	0a00000a 	beq	dbb0 <XVtc_GetSkipPixel+0x4c>
    db84:	e30c3768 	movw	r3, #51048	; 0xc768
    db88:	e3403001 	movt	r3, #1
    db8c:	e3a02000 	mov	r2, #0
    db90:	e5832000 	str	r2, [r3]
    db94:	e51b3010 	ldr	r3, [fp, #-16]
    db98:	e5932008 	ldr	r2, [r3, #8]
    db9c:	e3013111 	movw	r3, #4369	; 0x1111
    dba0:	e3413111 	movt	r3, #4369	; 0x1111
    dba4:	e1520003 	cmp	r2, r3
    dba8:	1a000011 	bne	dbf4 <XVtc_GetSkipPixel+0x90>
    dbac:	ea000008 	b	dbd4 <XVtc_GetSkipPixel+0x70>
    dbb0:	e30b0c90 	movw	r0, #48272	; 0xbc90
    dbb4:	e3400001 	movt	r0, #1
    dbb8:	e30012df 	movw	r1, #735	; 0x2df
    dbbc:	eb00081e 	bl	fc3c <Xil_Assert>
    dbc0:	e30c3768 	movw	r3, #51048	; 0xc768
    dbc4:	e3403001 	movt	r3, #1
    dbc8:	e3a02001 	mov	r2, #1
    dbcc:	e5832000 	str	r2, [r3]
    dbd0:	ea00002f 	b	dc94 <XVtc_GetSkipPixel+0x130>
    dbd4:	e30c3768 	movw	r3, #51048	; 0xc768
    dbd8:	e3403001 	movt	r3, #1
    dbdc:	e3a02000 	mov	r2, #0
    dbe0:	e5832000 	str	r2, [r3]
    dbe4:	e51b3014 	ldr	r3, [fp, #-20]	; 0xffffffec
    dbe8:	e3530000 	cmp	r3, #0
    dbec:	0a000018 	beq	dc54 <XVtc_GetSkipPixel+0xf0>
    dbf0:	ea000008 	b	dc18 <XVtc_GetSkipPixel+0xb4>
    dbf4:	e30b0c90 	movw	r0, #48272	; 0xbc90
    dbf8:	e3400001 	movt	r0, #1
    dbfc:	e3a01e2e 	mov	r1, #736	; 0x2e0
    dc00:	eb00080d 	bl	fc3c <Xil_Assert>
    dc04:	e30c3768 	movw	r3, #51048	; 0xc768
    dc08:	e3403001 	movt	r3, #1
    dc0c:	e3a02001 	mov	r2, #1
    dc10:	e5832000 	str	r2, [r3]
    dc14:	ea00001e 	b	dc94 <XVtc_GetSkipPixel+0x130>
    dc18:	e30c3768 	movw	r3, #51048	; 0xc768
    dc1c:	e3403001 	movt	r3, #1
    dc20:	e3a02000 	mov	r2, #0
    dc24:	e5832000 	str	r2, [r3]
    dc28:	e51b3010 	ldr	r3, [fp, #-16]
    dc2c:	e5933004 	ldr	r3, [r3, #4]
    dc30:	e2833068 	add	r3, r3, #104	; 0x68
    dc34:	e1a00003 	mov	r0, r3
    dc38:	eb000838 	bl	fd20 <Xil_In32>
    dc3c:	e50b0008 	str	r0, [fp, #-8]
    dc40:	e51b3008 	ldr	r3, [fp, #-8]
    dc44:	e2033c02 	and	r3, r3, #512	; 0x200
    dc48:	e3530000 	cmp	r3, #0
    dc4c:	0a00000d 	beq	dc88 <XVtc_GetSkipPixel+0x124>
    dc50:	ea000008 	b	dc78 <XVtc_GetSkipPixel+0x114>
    dc54:	e30b0c90 	movw	r0, #48272	; 0xbc90
    dc58:	e3400001 	movt	r0, #1
    dc5c:	e30012e1 	movw	r1, #737	; 0x2e1
    dc60:	eb0007f5 	bl	fc3c <Xil_Assert>
    dc64:	e30c3768 	movw	r3, #51048	; 0xc768
    dc68:	e3403001 	movt	r3, #1
    dc6c:	e3a02001 	mov	r2, #1
    dc70:	e5832000 	str	r2, [r3]
    dc74:	ea000006 	b	dc94 <XVtc_GetSkipPixel+0x130>
    dc78:	e51b3014 	ldr	r3, [fp, #-20]	; 0xffffffec
    dc7c:	e3a02001 	mov	r2, #1
    dc80:	e5832000 	str	r2, [r3]
    dc84:	ea000002 	b	dc94 <XVtc_GetSkipPixel+0x130>
    dc88:	e51b3014 	ldr	r3, [fp, #-20]	; 0xffffffec
    dc8c:	e3a02000 	mov	r2, #0
    dc90:	e5832000 	str	r2, [r3]
    dc94:	e24bd004 	sub	sp, fp, #4
    dc98:	e8bd8800 	pop	{fp, pc}

0000dc9c <XVtc_SetDelay>:
    dc9c:	e92d4800 	push	{fp, lr}
    dca0:	e28db004 	add	fp, sp, #4
    dca4:	e24dd018 	sub	sp, sp, #24
    dca8:	e50b0010 	str	r0, [fp, #-16]
    dcac:	e50b1014 	str	r1, [fp, #-20]	; 0xffffffec
    dcb0:	e50b2018 	str	r2, [fp, #-24]	; 0xffffffe8
    dcb4:	e51b3010 	ldr	r3, [fp, #-16]
    dcb8:	e3530000 	cmp	r3, #0
    dcbc:	0a00000a 	beq	dcec <XVtc_SetDelay+0x50>
    dcc0:	e30c3768 	movw	r3, #51048	; 0xc768
    dcc4:	e3403001 	movt	r3, #1
    dcc8:	e3a02000 	mov	r2, #0
    dccc:	e5832000 	str	r2, [r3]
    dcd0:	e51b3010 	ldr	r3, [fp, #-16]
    dcd4:	e5932008 	ldr	r2, [r3, #8]
    dcd8:	e3013111 	movw	r3, #4369	; 0x1111
    dcdc:	e3413111 	movt	r3, #4369	; 0x1111
    dce0:	e1520003 	cmp	r2, r3
    dce4:	1a000011 	bne	dd30 <XVtc_SetDelay+0x94>
    dce8:	ea000008 	b	dd10 <XVtc_SetDelay+0x74>
    dcec:	e30b0c90 	movw	r0, #48272	; 0xbc90
    dcf0:	e3400001 	movt	r0, #1
    dcf4:	e3a01c03 	mov	r1, #768	; 0x300
    dcf8:	eb0007cf 	bl	fc3c <Xil_Assert>
    dcfc:	e30c3768 	movw	r3, #51048	; 0xc768
    dd00:	e3403001 	movt	r3, #1
    dd04:	e3a02001 	mov	r2, #1
    dd08:	e5832000 	str	r2, [r3]
    dd0c:	ea000063 	b	dea0 <XVtc_SetDelay+0x204>
    dd10:	e30c3768 	movw	r3, #51048	; 0xc768
    dd14:	e3403001 	movt	r3, #1
    dd18:	e3a02000 	mov	r2, #0
    dd1c:	e5832000 	str	r2, [r3]
    dd20:	e51b3014 	ldr	r3, [fp, #-20]	; 0xffffffec
    dd24:	e3530000 	cmp	r3, #0
    dd28:	ba000011 	blt	dd74 <XVtc_SetDelay+0xd8>
    dd2c:	ea000008 	b	dd54 <XVtc_SetDelay+0xb8>
    dd30:	e30b0c90 	movw	r0, #48272	; 0xbc90
    dd34:	e3400001 	movt	r0, #1
    dd38:	e3001301 	movw	r1, #769	; 0x301
    dd3c:	eb0007be 	bl	fc3c <Xil_Assert>
    dd40:	e30c3768 	movw	r3, #51048	; 0xc768
    dd44:	e3403001 	movt	r3, #1
    dd48:	e3a02001 	mov	r2, #1
    dd4c:	e5832000 	str	r2, [r3]
    dd50:	ea000052 	b	dea0 <XVtc_SetDelay+0x204>
    dd54:	e30c3768 	movw	r3, #51048	; 0xc768
    dd58:	e3403001 	movt	r3, #1
    dd5c:	e3a02000 	mov	r2, #0
    dd60:	e5832000 	str	r2, [r3]
    dd64:	e51b3018 	ldr	r3, [fp, #-24]	; 0xffffffe8
    dd68:	e3530000 	cmp	r3, #0
    dd6c:	ba000011 	blt	ddb8 <XVtc_SetDelay+0x11c>
    dd70:	ea000008 	b	dd98 <XVtc_SetDelay+0xfc>
    dd74:	e30b0c90 	movw	r0, #48272	; 0xbc90
    dd78:	e3400001 	movt	r0, #1
    dd7c:	e3001302 	movw	r1, #770	; 0x302
    dd80:	eb0007ad 	bl	fc3c <Xil_Assert>
    dd84:	e30c3768 	movw	r3, #51048	; 0xc768
    dd88:	e3403001 	movt	r3, #1
    dd8c:	e3a02001 	mov	r2, #1
    dd90:	e5832000 	str	r2, [r3]
    dd94:	ea000041 	b	dea0 <XVtc_SetDelay+0x204>
    dd98:	e30c3768 	movw	r3, #51048	; 0xc768
    dd9c:	e3403001 	movt	r3, #1
    dda0:	e3a02000 	mov	r2, #0
    dda4:	e5832000 	str	r2, [r3]
    dda8:	e51b3014 	ldr	r3, [fp, #-20]	; 0xffffffec
    ddac:	e3530a01 	cmp	r3, #4096	; 0x1000
    ddb0:	aa000011 	bge	ddfc <XVtc_SetDelay+0x160>
    ddb4:	ea000008 	b	dddc <XVtc_SetDelay+0x140>
    ddb8:	e30b0c90 	movw	r0, #48272	; 0xbc90
    ddbc:	e3400001 	movt	r0, #1
    ddc0:	e3001303 	movw	r1, #771	; 0x303
    ddc4:	eb00079c 	bl	fc3c <Xil_Assert>
    ddc8:	e30c3768 	movw	r3, #51048	; 0xc768
    ddcc:	e3403001 	movt	r3, #1
    ddd0:	e3a02001 	mov	r2, #1
    ddd4:	e5832000 	str	r2, [r3]
    ddd8:	ea000030 	b	dea0 <XVtc_SetDelay+0x204>
    dddc:	e30c3768 	movw	r3, #51048	; 0xc768
    dde0:	e3403001 	movt	r3, #1
    dde4:	e3a02000 	mov	r2, #0
    dde8:	e5832000 	str	r2, [r3]
    ddec:	e51b3018 	ldr	r3, [fp, #-24]	; 0xffffffe8
    ddf0:	e3530a01 	cmp	r3, #4096	; 0x1000
    ddf4:	aa000020 	bge	de7c <XVtc_SetDelay+0x1e0>
    ddf8:	ea000008 	b	de20 <XVtc_SetDelay+0x184>
    ddfc:	e30b0c90 	movw	r0, #48272	; 0xbc90
    de00:	e3400001 	movt	r0, #1
    de04:	e3a01fc1 	mov	r1, #772	; 0x304
    de08:	eb00078b 	bl	fc3c <Xil_Assert>
    de0c:	e30c3768 	movw	r3, #51048	; 0xc768
    de10:	e3403001 	movt	r3, #1
    de14:	e3a02001 	mov	r2, #1
    de18:	e5832000 	str	r2, [r3]
    de1c:	ea00001f 	b	dea0 <XVtc_SetDelay+0x204>
    de20:	e30c3768 	movw	r3, #51048	; 0xc768
    de24:	e3403001 	movt	r3, #1
    de28:	e3a02000 	mov	r2, #0
    de2c:	e5832000 	str	r2, [r3]
    de30:	e51b3018 	ldr	r3, [fp, #-24]	; 0xffffffe8
    de34:	e7ec3053 	ubfx	r3, r3, #0, #13
    de38:	e50b3008 	str	r3, [fp, #-8]
    de3c:	e51b3014 	ldr	r3, [fp, #-20]	; 0xffffffec
    de40:	e1a03803 	lsl	r3, r3, #16
    de44:	e1a02003 	mov	r2, r3
    de48:	e3a03000 	mov	r3, #0
    de4c:	e3413fff 	movt	r3, #8191	; 0x1fff
    de50:	e0033002 	and	r3, r3, r2
    de54:	e51b2008 	ldr	r2, [fp, #-8]
    de58:	e1823003 	orr	r3, r2, r3
    de5c:	e50b3008 	str	r3, [fp, #-8]
    de60:	e51b3010 	ldr	r3, [fp, #-16]
    de64:	e5933004 	ldr	r3, [r3, #4]
    de68:	e2833d05 	add	r3, r3, #320	; 0x140
    de6c:	e1a00003 	mov	r0, r3
    de70:	e51b1008 	ldr	r1, [fp, #-8]
    de74:	eb0007cb 	bl	fda8 <Xil_Out32>
    de78:	ea000008 	b	dea0 <XVtc_SetDelay+0x204>
    de7c:	e30b0c90 	movw	r0, #48272	; 0xbc90
    de80:	e3400001 	movt	r0, #1
    de84:	e3001305 	movw	r1, #773	; 0x305
    de88:	eb00076b 	bl	fc3c <Xil_Assert>
    de8c:	e30c3768 	movw	r3, #51048	; 0xc768
    de90:	e3403001 	movt	r3, #1
    de94:	e3a02001 	mov	r2, #1
    de98:	e5832000 	str	r2, [r3]
    de9c:	e1a00000 	nop			; (mov r0, r0)
    dea0:	e24bd004 	sub	sp, fp, #4
    dea4:	e8bd8800 	pop	{fp, pc}

0000dea8 <XVtc_GetDelay>:
    dea8:	e92d4800 	push	{fp, lr}
    deac:	e28db004 	add	fp, sp, #4
    deb0:	e24dd018 	sub	sp, sp, #24
    deb4:	e50b0010 	str	r0, [fp, #-16]
    deb8:	e50b1014 	str	r1, [fp, #-20]	; 0xffffffec
    debc:	e50b2018 	str	r2, [fp, #-24]	; 0xffffffe8
    dec0:	e51b3010 	ldr	r3, [fp, #-16]
    dec4:	e3530000 	cmp	r3, #0
    dec8:	0a00000a 	beq	def8 <XVtc_GetDelay+0x50>
    decc:	e30c3768 	movw	r3, #51048	; 0xc768
    ded0:	e3403001 	movt	r3, #1
    ded4:	e3a02000 	mov	r2, #0
    ded8:	e5832000 	str	r2, [r3]
    dedc:	e51b3010 	ldr	r3, [fp, #-16]
    dee0:	e5932008 	ldr	r2, [r3, #8]
    dee4:	e3013111 	movw	r3, #4369	; 0x1111
    dee8:	e3413111 	movt	r3, #4369	; 0x1111
    deec:	e1520003 	cmp	r2, r3
    def0:	1a000011 	bne	df3c <XVtc_GetDelay+0x94>
    def4:	ea000008 	b	df1c <XVtc_GetDelay+0x74>
    def8:	e30b0c90 	movw	r0, #48272	; 0xbc90
    defc:	e3400001 	movt	r0, #1
    df00:	e3001323 	movw	r1, #803	; 0x323
    df04:	eb00074c 	bl	fc3c <Xil_Assert>
    df08:	e30c3768 	movw	r3, #51048	; 0xc768
    df0c:	e3403001 	movt	r3, #1
    df10:	e3a02001 	mov	r2, #1
    df14:	e5832000 	str	r2, [r3]
    df18:	ea000041 	b	e024 <XVtc_GetDelay+0x17c>
    df1c:	e30c3768 	movw	r3, #51048	; 0xc768
    df20:	e3403001 	movt	r3, #1
    df24:	e3a02000 	mov	r2, #0
    df28:	e5832000 	str	r2, [r3]
    df2c:	e51b3014 	ldr	r3, [fp, #-20]	; 0xffffffec
    df30:	e3530000 	cmp	r3, #0
    df34:	0a000011 	beq	df80 <XVtc_GetDelay+0xd8>
    df38:	ea000008 	b	df60 <XVtc_GetDelay+0xb8>
    df3c:	e30b0c90 	movw	r0, #48272	; 0xbc90
    df40:	e3400001 	movt	r0, #1
    df44:	e3a01fc9 	mov	r1, #804	; 0x324
    df48:	eb00073b 	bl	fc3c <Xil_Assert>
    df4c:	e30c3768 	movw	r3, #51048	; 0xc768
    df50:	e3403001 	movt	r3, #1
    df54:	e3a02001 	mov	r2, #1
    df58:	e5832000 	str	r2, [r3]
    df5c:	ea000030 	b	e024 <XVtc_GetDelay+0x17c>
    df60:	e30c3768 	movw	r3, #51048	; 0xc768
    df64:	e3403001 	movt	r3, #1
    df68:	e3a02000 	mov	r2, #0
    df6c:	e5832000 	str	r2, [r3]
    df70:	e51b3018 	ldr	r3, [fp, #-24]	; 0xffffffe8
    df74:	e3530000 	cmp	r3, #0
    df78:	0a000020 	beq	e000 <XVtc_GetDelay+0x158>
    df7c:	ea000008 	b	dfa4 <XVtc_GetDelay+0xfc>
    df80:	e30b0c90 	movw	r0, #48272	; 0xbc90
    df84:	e3400001 	movt	r0, #1
    df88:	e3001325 	movw	r1, #805	; 0x325
    df8c:	eb00072a 	bl	fc3c <Xil_Assert>
    df90:	e30c3768 	movw	r3, #51048	; 0xc768
    df94:	e3403001 	movt	r3, #1
    df98:	e3a02001 	mov	r2, #1
    df9c:	e5832000 	str	r2, [r3]
    dfa0:	ea00001f 	b	e024 <XVtc_GetDelay+0x17c>
    dfa4:	e30c3768 	movw	r3, #51048	; 0xc768
    dfa8:	e3403001 	movt	r3, #1
    dfac:	e3a02000 	mov	r2, #0
    dfb0:	e5832000 	str	r2, [r3]
    dfb4:	e51b3010 	ldr	r3, [fp, #-16]
    dfb8:	e5933004 	ldr	r3, [r3, #4]
    dfbc:	e2833d05 	add	r3, r3, #320	; 0x140
    dfc0:	e1a00003 	mov	r0, r3
    dfc4:	eb000755 	bl	fd20 <Xil_In32>
    dfc8:	e50b0008 	str	r0, [fp, #-8]
    dfcc:	e51b3008 	ldr	r3, [fp, #-8]
    dfd0:	e7ec2053 	ubfx	r2, r3, #0, #13
    dfd4:	e51b3018 	ldr	r3, [fp, #-24]	; 0xffffffe8
    dfd8:	e5832000 	str	r2, [r3]
    dfdc:	e51b2008 	ldr	r2, [fp, #-8]
    dfe0:	e3a03000 	mov	r3, #0
    dfe4:	e3413fff 	movt	r3, #8191	; 0x1fff
    dfe8:	e0033002 	and	r3, r3, r2
    dfec:	e1a03823 	lsr	r3, r3, #16
    dff0:	e1a02003 	mov	r2, r3
    dff4:	e51b3014 	ldr	r3, [fp, #-20]	; 0xffffffec
    dff8:	e5832000 	str	r2, [r3]
    dffc:	ea000008 	b	e024 <XVtc_GetDelay+0x17c>
    e000:	e30b0c90 	movw	r0, #48272	; 0xbc90
    e004:	e3400001 	movt	r0, #1
    e008:	e3001326 	movw	r1, #806	; 0x326
    e00c:	eb00070a 	bl	fc3c <Xil_Assert>
    e010:	e30c3768 	movw	r3, #51048	; 0xc768
    e014:	e3403001 	movt	r3, #1
    e018:	e3a02001 	mov	r2, #1
    e01c:	e5832000 	str	r2, [r3]
    e020:	e1a00000 	nop			; (mov r0, r0)
    e024:	e24bd004 	sub	sp, fp, #4
    e028:	e8bd8800 	pop	{fp, pc}

0000e02c <XVtc_SetFSync>:
    e02c:	e92d4800 	push	{fp, lr}
    e030:	e28db004 	add	fp, sp, #4
    e034:	e24dd018 	sub	sp, sp, #24
    e038:	e50b0010 	str	r0, [fp, #-16]
    e03c:	e14b11b2 	strh	r1, [fp, #-18]	; 0xffffffee
    e040:	e14b21b4 	strh	r2, [fp, #-20]	; 0xffffffec
    e044:	e14b31b6 	strh	r3, [fp, #-22]	; 0xffffffea
    e048:	e51b3010 	ldr	r3, [fp, #-16]
    e04c:	e3530000 	cmp	r3, #0
    e050:	0a00000a 	beq	e080 <XVtc_SetFSync+0x54>
    e054:	e30c3768 	movw	r3, #51048	; 0xc768
    e058:	e3403001 	movt	r3, #1
    e05c:	e3a02000 	mov	r2, #0
    e060:	e5832000 	str	r2, [r3]
    e064:	e51b3010 	ldr	r3, [fp, #-16]
    e068:	e5932008 	ldr	r2, [r3, #8]
    e06c:	e3013111 	movw	r3, #4369	; 0x1111
    e070:	e3413111 	movt	r3, #4369	; 0x1111
    e074:	e1520003 	cmp	r2, r3
    e078:	1a000011 	bne	e0c4 <XVtc_SetFSync+0x98>
    e07c:	ea000008 	b	e0a4 <XVtc_SetFSync+0x78>
    e080:	e30b0c90 	movw	r0, #48272	; 0xbc90
    e084:	e3400001 	movt	r0, #1
    e088:	e3a01fd2 	mov	r1, #840	; 0x348
    e08c:	eb0006ea 	bl	fc3c <Xil_Assert>
    e090:	e30c3768 	movw	r3, #51048	; 0xc768
    e094:	e3403001 	movt	r3, #1
    e098:	e3a02001 	mov	r2, #1
    e09c:	e5832000 	str	r2, [r3]
    e0a0:	ea000057 	b	e204 <XVtc_SetFSync+0x1d8>
    e0a4:	e30c3768 	movw	r3, #51048	; 0xc768
    e0a8:	e3403001 	movt	r3, #1
    e0ac:	e3a02000 	mov	r2, #0
    e0b0:	e5832000 	str	r2, [r3]
    e0b4:	e15b31b2 	ldrh	r3, [fp, #-18]	; 0xffffffee
    e0b8:	e353000f 	cmp	r3, #15
    e0bc:	8a000011 	bhi	e108 <XVtc_SetFSync+0xdc>
    e0c0:	ea000008 	b	e0e8 <XVtc_SetFSync+0xbc>
    e0c4:	e30b0c90 	movw	r0, #48272	; 0xbc90
    e0c8:	e3400001 	movt	r0, #1
    e0cc:	e3001349 	movw	r1, #841	; 0x349
    e0d0:	eb0006d9 	bl	fc3c <Xil_Assert>
    e0d4:	e30c3768 	movw	r3, #51048	; 0xc768
    e0d8:	e3403001 	movt	r3, #1
    e0dc:	e3a02001 	mov	r2, #1
    e0e0:	e5832000 	str	r2, [r3]
    e0e4:	ea000046 	b	e204 <XVtc_SetFSync+0x1d8>
    e0e8:	e30c3768 	movw	r3, #51048	; 0xc768
    e0ec:	e3403001 	movt	r3, #1
    e0f0:	e3a02000 	mov	r2, #0
    e0f4:	e5832000 	str	r2, [r3]
    e0f8:	e15b31b4 	ldrh	r3, [fp, #-20]	; 0xffffffec
    e0fc:	e3530a01 	cmp	r3, #4096	; 0x1000
    e100:	2a000011 	bcs	e14c <XVtc_SetFSync+0x120>
    e104:	ea000008 	b	e12c <XVtc_SetFSync+0x100>
    e108:	e30b0c90 	movw	r0, #48272	; 0xbc90
    e10c:	e3400001 	movt	r0, #1
    e110:	e300134a 	movw	r1, #842	; 0x34a
    e114:	eb0006c8 	bl	fc3c <Xil_Assert>
    e118:	e30c3768 	movw	r3, #51048	; 0xc768
    e11c:	e3403001 	movt	r3, #1
    e120:	e3a02001 	mov	r2, #1
    e124:	e5832000 	str	r2, [r3]
    e128:	ea000035 	b	e204 <XVtc_SetFSync+0x1d8>
    e12c:	e30c3768 	movw	r3, #51048	; 0xc768
    e130:	e3403001 	movt	r3, #1
    e134:	e3a02000 	mov	r2, #0
    e138:	e5832000 	str	r2, [r3]
    e13c:	e15b31b6 	ldrh	r3, [fp, #-22]	; 0xffffffea
    e140:	e3530a01 	cmp	r3, #4096	; 0x1000
    e144:	2a000025 	bcs	e1e0 <XVtc_SetFSync+0x1b4>
    e148:	ea000008 	b	e170 <XVtc_SetFSync+0x144>
    e14c:	e30b0c90 	movw	r0, #48272	; 0xbc90
    e150:	e3400001 	movt	r0, #1
    e154:	e300134b 	movw	r1, #843	; 0x34b
    e158:	eb0006b7 	bl	fc3c <Xil_Assert>
    e15c:	e30c3768 	movw	r3, #51048	; 0xc768
    e160:	e3403001 	movt	r3, #1
    e164:	e3a02001 	mov	r2, #1
    e168:	e5832000 	str	r2, [r3]
    e16c:	ea000024 	b	e204 <XVtc_SetFSync+0x1d8>
    e170:	e30c3768 	movw	r3, #51048	; 0xc768
    e174:	e3403001 	movt	r3, #1
    e178:	e3a02000 	mov	r2, #0
    e17c:	e5832000 	str	r2, [r3]
    e180:	e15b31b6 	ldrh	r3, [fp, #-22]	; 0xffffffea
    e184:	e7ec3053 	ubfx	r3, r3, #0, #13
    e188:	e50b3008 	str	r3, [fp, #-8]
    e18c:	e15b31b4 	ldrh	r3, [fp, #-20]	; 0xffffffec
    e190:	e1a03803 	lsl	r3, r3, #16
    e194:	e1a02003 	mov	r2, r3
    e198:	e3a03000 	mov	r3, #0
    e19c:	e3413fff 	movt	r3, #8191	; 0x1fff
    e1a0:	e0033002 	and	r3, r3, r2
    e1a4:	e51b2008 	ldr	r2, [fp, #-8]
    e1a8:	e1823003 	orr	r3, r2, r3
    e1ac:	e50b3008 	str	r3, [fp, #-8]
    e1b0:	e15b31b2 	ldrh	r3, [fp, #-18]	; 0xffffffee
    e1b4:	e2833040 	add	r3, r3, #64	; 0x40
    e1b8:	e1a03103 	lsl	r3, r3, #2
    e1bc:	e50b300c 	str	r3, [fp, #-12]
    e1c0:	e51b3010 	ldr	r3, [fp, #-16]
    e1c4:	e5932004 	ldr	r2, [r3, #4]
    e1c8:	e51b300c 	ldr	r3, [fp, #-12]
    e1cc:	e0823003 	add	r3, r2, r3
    e1d0:	e1a00003 	mov	r0, r3
    e1d4:	e51b1008 	ldr	r1, [fp, #-8]
    e1d8:	eb0006f2 	bl	fda8 <Xil_Out32>
    e1dc:	ea000008 	b	e204 <XVtc_SetFSync+0x1d8>
    e1e0:	e30b0c90 	movw	r0, #48272	; 0xbc90
    e1e4:	e3400001 	movt	r0, #1
    e1e8:	e3a01fd3 	mov	r1, #844	; 0x34c
    e1ec:	eb000692 	bl	fc3c <Xil_Assert>
    e1f0:	e30c3768 	movw	r3, #51048	; 0xc768
    e1f4:	e3403001 	movt	r3, #1
    e1f8:	e3a02001 	mov	r2, #1
    e1fc:	e5832000 	str	r2, [r3]
    e200:	e1a00000 	nop			; (mov r0, r0)
    e204:	e24bd004 	sub	sp, fp, #4
    e208:	e8bd8800 	pop	{fp, pc}

0000e20c <XVtc_GetFSync>:
    e20c:	e92d4800 	push	{fp, lr}
    e210:	e28db004 	add	fp, sp, #4
    e214:	e24dd018 	sub	sp, sp, #24
    e218:	e50b0010 	str	r0, [fp, #-16]
    e21c:	e50b2018 	str	r2, [fp, #-24]	; 0xffffffe8
    e220:	e50b301c 	str	r3, [fp, #-28]	; 0xffffffe4
    e224:	e14b11b2 	strh	r1, [fp, #-18]	; 0xffffffee
    e228:	e51b3010 	ldr	r3, [fp, #-16]
    e22c:	e3530000 	cmp	r3, #0
    e230:	0a00000a 	beq	e260 <XVtc_GetFSync+0x54>
    e234:	e30c3768 	movw	r3, #51048	; 0xc768
    e238:	e3403001 	movt	r3, #1
    e23c:	e3a02000 	mov	r2, #0
    e240:	e5832000 	str	r2, [r3]
    e244:	e51b3010 	ldr	r3, [fp, #-16]
    e248:	e5932008 	ldr	r2, [r3, #8]
    e24c:	e3013111 	movw	r3, #4369	; 0x1111
    e250:	e3413111 	movt	r3, #4369	; 0x1111
    e254:	e1520003 	cmp	r2, r3
    e258:	1a000011 	bne	e2a4 <XVtc_GetFSync+0x98>
    e25c:	ea000008 	b	e284 <XVtc_GetFSync+0x78>
    e260:	e30b0c90 	movw	r0, #48272	; 0xbc90
    e264:	e3400001 	movt	r0, #1
    e268:	e3001372 	movw	r1, #882	; 0x372
    e26c:	eb000672 	bl	fc3c <Xil_Assert>
    e270:	e30c3768 	movw	r3, #51048	; 0xc768
    e274:	e3403001 	movt	r3, #1
    e278:	e3a02001 	mov	r2, #1
    e27c:	e5832000 	str	r2, [r3]
    e280:	ea000059 	b	e3ec <XVtc_GetFSync+0x1e0>
    e284:	e30c3768 	movw	r3, #51048	; 0xc768
    e288:	e3403001 	movt	r3, #1
    e28c:	e3a02000 	mov	r2, #0
    e290:	e5832000 	str	r2, [r3]
    e294:	e15b31b2 	ldrh	r3, [fp, #-18]	; 0xffffffee
    e298:	e353000f 	cmp	r3, #15
    e29c:	8a000011 	bhi	e2e8 <XVtc_GetFSync+0xdc>
    e2a0:	ea000008 	b	e2c8 <XVtc_GetFSync+0xbc>
    e2a4:	e30b0c90 	movw	r0, #48272	; 0xbc90
    e2a8:	e3400001 	movt	r0, #1
    e2ac:	e3001373 	movw	r1, #883	; 0x373
    e2b0:	eb000661 	bl	fc3c <Xil_Assert>
    e2b4:	e30c3768 	movw	r3, #51048	; 0xc768
    e2b8:	e3403001 	movt	r3, #1
    e2bc:	e3a02001 	mov	r2, #1
    e2c0:	e5832000 	str	r2, [r3]
    e2c4:	ea000048 	b	e3ec <XVtc_GetFSync+0x1e0>
    e2c8:	e30c3768 	movw	r3, #51048	; 0xc768
    e2cc:	e3403001 	movt	r3, #1
    e2d0:	e3a02000 	mov	r2, #0
    e2d4:	e5832000 	str	r2, [r3]
    e2d8:	e51b3018 	ldr	r3, [fp, #-24]	; 0xffffffe8
    e2dc:	e3530000 	cmp	r3, #0
    e2e0:	0a000011 	beq	e32c <XVtc_GetFSync+0x120>
    e2e4:	ea000008 	b	e30c <XVtc_GetFSync+0x100>
    e2e8:	e30b0c90 	movw	r0, #48272	; 0xbc90
    e2ec:	e3400001 	movt	r0, #1
    e2f0:	e3a01fdd 	mov	r1, #884	; 0x374
    e2f4:	eb000650 	bl	fc3c <Xil_Assert>
    e2f8:	e30c3768 	movw	r3, #51048	; 0xc768
    e2fc:	e3403001 	movt	r3, #1
    e300:	e3a02001 	mov	r2, #1
    e304:	e5832000 	str	r2, [r3]
    e308:	ea000037 	b	e3ec <XVtc_GetFSync+0x1e0>
    e30c:	e30c3768 	movw	r3, #51048	; 0xc768
    e310:	e3403001 	movt	r3, #1
    e314:	e3a02000 	mov	r2, #0
    e318:	e5832000 	str	r2, [r3]
    e31c:	e51b3018 	ldr	r3, [fp, #-24]	; 0xffffffe8
    e320:	e3530000 	cmp	r3, #0
    e324:	0a000027 	beq	e3c8 <XVtc_GetFSync+0x1bc>
    e328:	ea000008 	b	e350 <XVtc_GetFSync+0x144>
    e32c:	e30b0c90 	movw	r0, #48272	; 0xbc90
    e330:	e3400001 	movt	r0, #1
    e334:	e3001375 	movw	r1, #885	; 0x375
    e338:	eb00063f 	bl	fc3c <Xil_Assert>
    e33c:	e30c3768 	movw	r3, #51048	; 0xc768
    e340:	e3403001 	movt	r3, #1
    e344:	e3a02001 	mov	r2, #1
    e348:	e5832000 	str	r2, [r3]
    e34c:	ea000026 	b	e3ec <XVtc_GetFSync+0x1e0>
    e350:	e30c3768 	movw	r3, #51048	; 0xc768
    e354:	e3403001 	movt	r3, #1
    e358:	e3a02000 	mov	r2, #0
    e35c:	e5832000 	str	r2, [r3]
    e360:	e15b31b2 	ldrh	r3, [fp, #-18]	; 0xffffffee
    e364:	e2833040 	add	r3, r3, #64	; 0x40
    e368:	e1a03103 	lsl	r3, r3, #2
    e36c:	e50b3008 	str	r3, [fp, #-8]
    e370:	e51b3010 	ldr	r3, [fp, #-16]
    e374:	e5932004 	ldr	r2, [r3, #4]
    e378:	e51b3008 	ldr	r3, [fp, #-8]
    e37c:	e0823003 	add	r3, r2, r3
    e380:	e1a00003 	mov	r0, r3
    e384:	eb000665 	bl	fd20 <Xil_In32>
    e388:	e50b000c 	str	r0, [fp, #-12]
    e38c:	e51b300c 	ldr	r3, [fp, #-12]
    e390:	e6ff3073 	uxth	r3, r3
    e394:	e7ec3053 	ubfx	r3, r3, #0, #13
    e398:	e6ff2073 	uxth	r2, r3
    e39c:	e51b301c 	ldr	r3, [fp, #-28]	; 0xffffffe4
    e3a0:	e1c320b0 	strh	r2, [r3]
    e3a4:	e51b200c 	ldr	r2, [fp, #-12]
    e3a8:	e3a03000 	mov	r3, #0
    e3ac:	e3413fff 	movt	r3, #8191	; 0x1fff
    e3b0:	e0033002 	and	r3, r3, r2
    e3b4:	e1a03823 	lsr	r3, r3, #16
    e3b8:	e6ff2073 	uxth	r2, r3
    e3bc:	e51b3018 	ldr	r3, [fp, #-24]	; 0xffffffe8
    e3c0:	e1c320b0 	strh	r2, [r3]
    e3c4:	ea000008 	b	e3ec <XVtc_GetFSync+0x1e0>
    e3c8:	e30b0c90 	movw	r0, #48272	; 0xbc90
    e3cc:	e3400001 	movt	r0, #1
    e3d0:	e3001376 	movw	r1, #886	; 0x376
    e3d4:	eb000618 	bl	fc3c <Xil_Assert>
    e3d8:	e30c3768 	movw	r3, #51048	; 0xc768
    e3dc:	e3403001 	movt	r3, #1
    e3e0:	e3a02001 	mov	r2, #1
    e3e4:	e5832000 	str	r2, [r3]
    e3e8:	e1a00000 	nop			; (mov r0, r0)
    e3ec:	e24bd004 	sub	sp, fp, #4
    e3f0:	e8bd8800 	pop	{fp, pc}

0000e3f4 <XVtc_SetGeneratorHoriOffset>:
    e3f4:	e92d4800 	push	{fp, lr}
    e3f8:	e28db004 	add	fp, sp, #4
    e3fc:	e24dd010 	sub	sp, sp, #16
    e400:	e50b0010 	str	r0, [fp, #-16]
    e404:	e50b1014 	str	r1, [fp, #-20]	; 0xffffffec
    e408:	e51b3010 	ldr	r3, [fp, #-16]
    e40c:	e3530000 	cmp	r3, #0
    e410:	0a00000a 	beq	e440 <XVtc_SetGeneratorHoriOffset+0x4c>
    e414:	e30c3768 	movw	r3, #51048	; 0xc768
    e418:	e3403001 	movt	r3, #1
    e41c:	e3a02000 	mov	r2, #0
    e420:	e5832000 	str	r2, [r3]
    e424:	e51b3010 	ldr	r3, [fp, #-16]
    e428:	e5932008 	ldr	r2, [r3, #8]
    e42c:	e3013111 	movw	r3, #4369	; 0x1111
    e430:	e3413111 	movt	r3, #4369	; 0x1111
    e434:	e1520003 	cmp	r2, r3
    e438:	1a000011 	bne	e484 <XVtc_SetGeneratorHoriOffset+0x90>
    e43c:	ea000008 	b	e464 <XVtc_SetGeneratorHoriOffset+0x70>
    e440:	e30b0c90 	movw	r0, #48272	; 0xbc90
    e444:	e3400001 	movt	r0, #1
    e448:	e3001395 	movw	r1, #917	; 0x395
    e44c:	eb0005fa 	bl	fc3c <Xil_Assert>
    e450:	e30c3768 	movw	r3, #51048	; 0xc768
    e454:	e3403001 	movt	r3, #1
    e458:	e3a02001 	mov	r2, #1
    e45c:	e5832000 	str	r2, [r3]
    e460:	ea000047 	b	e584 <XVtc_SetGeneratorHoriOffset+0x190>
    e464:	e30c3768 	movw	r3, #51048	; 0xc768
    e468:	e3403001 	movt	r3, #1
    e46c:	e3a02000 	mov	r2, #0
    e470:	e5832000 	str	r2, [r3]
    e474:	e51b3014 	ldr	r3, [fp, #-20]	; 0xffffffec
    e478:	e3530000 	cmp	r3, #0
    e47c:	0a000037 	beq	e560 <XVtc_SetGeneratorHoriOffset+0x16c>
    e480:	ea000008 	b	e4a8 <XVtc_SetGeneratorHoriOffset+0xb4>
    e484:	e30b0c90 	movw	r0, #48272	; 0xbc90
    e488:	e3400001 	movt	r0, #1
    e48c:	e3001396 	movw	r1, #918	; 0x396
    e490:	eb0005e9 	bl	fc3c <Xil_Assert>
    e494:	e30c3768 	movw	r3, #51048	; 0xc768
    e498:	e3403001 	movt	r3, #1
    e49c:	e3a02001 	mov	r2, #1
    e4a0:	e5832000 	str	r2, [r3]
    e4a4:	ea000036 	b	e584 <XVtc_SetGeneratorHoriOffset+0x190>
    e4a8:	e30c3768 	movw	r3, #51048	; 0xc768
    e4ac:	e3403001 	movt	r3, #1
    e4b0:	e3a02000 	mov	r2, #0
    e4b4:	e5832000 	str	r2, [r3]
    e4b8:	e51b3014 	ldr	r3, [fp, #-20]	; 0xffffffec
    e4bc:	e1d330b0 	ldrh	r3, [r3]
    e4c0:	e7ec3053 	ubfx	r3, r3, #0, #13
    e4c4:	e50b3008 	str	r3, [fp, #-8]
    e4c8:	e51b3014 	ldr	r3, [fp, #-20]	; 0xffffffec
    e4cc:	e1d330b2 	ldrh	r3, [r3, #2]
    e4d0:	e1a03803 	lsl	r3, r3, #16
    e4d4:	e1a02003 	mov	r2, r3
    e4d8:	e3a03000 	mov	r3, #0
    e4dc:	e3413fff 	movt	r3, #8191	; 0x1fff
    e4e0:	e0033002 	and	r3, r3, r2
    e4e4:	e51b2008 	ldr	r2, [fp, #-8]
    e4e8:	e1823003 	orr	r3, r2, r3
    e4ec:	e50b3008 	str	r3, [fp, #-8]
    e4f0:	e51b3010 	ldr	r3, [fp, #-16]
    e4f4:	e5933004 	ldr	r3, [r3, #4]
    e4f8:	e283307c 	add	r3, r3, #124	; 0x7c
    e4fc:	e1a00003 	mov	r0, r3
    e500:	e51b1008 	ldr	r1, [fp, #-8]
    e504:	eb000627 	bl	fda8 <Xil_Out32>
    e508:	e51b3014 	ldr	r3, [fp, #-20]	; 0xffffffec
    e50c:	e1d330b4 	ldrh	r3, [r3, #4]
    e510:	e7ec3053 	ubfx	r3, r3, #0, #13
    e514:	e50b3008 	str	r3, [fp, #-8]
    e518:	e51b3014 	ldr	r3, [fp, #-20]	; 0xffffffec
    e51c:	e1d330b6 	ldrh	r3, [r3, #6]
    e520:	e1a03803 	lsl	r3, r3, #16
    e524:	e1a02003 	mov	r2, r3
    e528:	e3a03000 	mov	r3, #0
    e52c:	e3413fff 	movt	r3, #8191	; 0x1fff
    e530:	e0033002 	and	r3, r3, r2
    e534:	e51b2008 	ldr	r2, [fp, #-8]
    e538:	e1823003 	orr	r3, r2, r3
    e53c:	e50b3008 	str	r3, [fp, #-8]
    e540:	e51b3010 	ldr	r3, [fp, #-16]
    e544:	e5933004 	ldr	r3, [r3, #4]
    e548:	e2833084 	add	r3, r3, #132	; 0x84
    e54c:	e1a00003 	mov	r0, r3
    e550:	e51b1008 	ldr	r1, [fp, #-8]
    e554:	eb000613 	bl	fda8 <Xil_Out32>
    e558:	e1a00000 	nop			; (mov r0, r0)
    e55c:	ea000008 	b	e584 <XVtc_SetGeneratorHoriOffset+0x190>
    e560:	e30b0c90 	movw	r0, #48272	; 0xbc90
    e564:	e3400001 	movt	r0, #1
    e568:	e3001397 	movw	r1, #919	; 0x397
    e56c:	eb0005b2 	bl	fc3c <Xil_Assert>
    e570:	e30c3768 	movw	r3, #51048	; 0xc768
    e574:	e3403001 	movt	r3, #1
    e578:	e3a02001 	mov	r2, #1
    e57c:	e5832000 	str	r2, [r3]
    e580:	e1a00000 	nop			; (mov r0, r0)
    e584:	e24bd004 	sub	sp, fp, #4
    e588:	e8bd8800 	pop	{fp, pc}

0000e58c <XVtc_GetGeneratorHoriOffset>:
    e58c:	e92d4800 	push	{fp, lr}
    e590:	e28db004 	add	fp, sp, #4
    e594:	e24dd010 	sub	sp, sp, #16
    e598:	e50b0010 	str	r0, [fp, #-16]
    e59c:	e50b1014 	str	r1, [fp, #-20]	; 0xffffffec
    e5a0:	e51b3010 	ldr	r3, [fp, #-16]
    e5a4:	e3530000 	cmp	r3, #0
    e5a8:	0a00000a 	beq	e5d8 <XVtc_GetGeneratorHoriOffset+0x4c>
    e5ac:	e30c3768 	movw	r3, #51048	; 0xc768
    e5b0:	e3403001 	movt	r3, #1
    e5b4:	e3a02000 	mov	r2, #0
    e5b8:	e5832000 	str	r2, [r3]
    e5bc:	e51b3010 	ldr	r3, [fp, #-16]
    e5c0:	e5932008 	ldr	r2, [r3, #8]
    e5c4:	e3013111 	movw	r3, #4369	; 0x1111
    e5c8:	e3413111 	movt	r3, #4369	; 0x1111
    e5cc:	e1520003 	cmp	r2, r3
    e5d0:	1a000011 	bne	e61c <XVtc_GetGeneratorHoriOffset+0x90>
    e5d4:	ea000008 	b	e5fc <XVtc_GetGeneratorHoriOffset+0x70>
    e5d8:	e30b0c90 	movw	r0, #48272	; 0xbc90
    e5dc:	e3400001 	movt	r0, #1
    e5e0:	e30013c9 	movw	r1, #969	; 0x3c9
    e5e4:	eb000594 	bl	fc3c <Xil_Assert>
    e5e8:	e30c3768 	movw	r3, #51048	; 0xc768
    e5ec:	e3403001 	movt	r3, #1
    e5f0:	e3a02001 	mov	r2, #1
    e5f4:	e5832000 	str	r2, [r3]
    e5f8:	ea00006f 	b	e7bc <XVtc_GetGeneratorHoriOffset+0x230>
    e5fc:	e30c3768 	movw	r3, #51048	; 0xc768
    e600:	e3403001 	movt	r3, #1
    e604:	e3a02000 	mov	r2, #0
    e608:	e5832000 	str	r2, [r3]
    e60c:	e51b3014 	ldr	r3, [fp, #-20]	; 0xffffffec
    e610:	e3530000 	cmp	r3, #0
    e614:	0a00005f 	beq	e798 <XVtc_GetGeneratorHoriOffset+0x20c>
    e618:	ea000008 	b	e640 <XVtc_GetGeneratorHoriOffset+0xb4>
    e61c:	e30b0c90 	movw	r0, #48272	; 0xbc90
    e620:	e3400001 	movt	r0, #1
    e624:	e30013ca 	movw	r1, #970	; 0x3ca
    e628:	eb000583 	bl	fc3c <Xil_Assert>
    e62c:	e30c3768 	movw	r3, #51048	; 0xc768
    e630:	e3403001 	movt	r3, #1
    e634:	e3a02001 	mov	r2, #1
    e638:	e5832000 	str	r2, [r3]
    e63c:	ea00005e 	b	e7bc <XVtc_GetGeneratorHoriOffset+0x230>
    e640:	e30c3768 	movw	r3, #51048	; 0xc768
    e644:	e3403001 	movt	r3, #1
    e648:	e3a02000 	mov	r2, #0
    e64c:	e5832000 	str	r2, [r3]
    e650:	e51b3010 	ldr	r3, [fp, #-16]
    e654:	e5933004 	ldr	r3, [r3, #4]
    e658:	e283307c 	add	r3, r3, #124	; 0x7c
    e65c:	e1a00003 	mov	r0, r3
    e660:	eb0005ae 	bl	fd20 <Xil_In32>
    e664:	e50b0008 	str	r0, [fp, #-8]
    e668:	e51b3008 	ldr	r3, [fp, #-8]
    e66c:	e6ff3073 	uxth	r3, r3
    e670:	e7ec3053 	ubfx	r3, r3, #0, #13
    e674:	e6ff2073 	uxth	r2, r3
    e678:	e51b3014 	ldr	r3, [fp, #-20]	; 0xffffffec
    e67c:	e1c320b0 	strh	r2, [r3]
    e680:	e51b2008 	ldr	r2, [fp, #-8]
    e684:	e3a03000 	mov	r3, #0
    e688:	e3413fff 	movt	r3, #8191	; 0x1fff
    e68c:	e0033002 	and	r3, r3, r2
    e690:	e1a03823 	lsr	r3, r3, #16
    e694:	e6ff2073 	uxth	r2, r3
    e698:	e51b3014 	ldr	r3, [fp, #-20]	; 0xffffffec
    e69c:	e1c320b2 	strh	r2, [r3, #2]
    e6a0:	e51b3010 	ldr	r3, [fp, #-16]
    e6a4:	e5933004 	ldr	r3, [r3, #4]
    e6a8:	e2833084 	add	r3, r3, #132	; 0x84
    e6ac:	e1a00003 	mov	r0, r3
    e6b0:	eb00059a 	bl	fd20 <Xil_In32>
    e6b4:	e50b0008 	str	r0, [fp, #-8]
    e6b8:	e51b3008 	ldr	r3, [fp, #-8]
    e6bc:	e6ff3073 	uxth	r3, r3
    e6c0:	e7ec3053 	ubfx	r3, r3, #0, #13
    e6c4:	e6ff2073 	uxth	r2, r3
    e6c8:	e51b3014 	ldr	r3, [fp, #-20]	; 0xffffffec
    e6cc:	e1c320b4 	strh	r2, [r3, #4]
    e6d0:	e51b2008 	ldr	r2, [fp, #-8]
    e6d4:	e3a03000 	mov	r3, #0
    e6d8:	e3413fff 	movt	r3, #8191	; 0x1fff
    e6dc:	e0033002 	and	r3, r3, r2
    e6e0:	e1a03823 	lsr	r3, r3, #16
    e6e4:	e6ff2073 	uxth	r2, r3
    e6e8:	e51b3014 	ldr	r3, [fp, #-20]	; 0xffffffec
    e6ec:	e1c320b6 	strh	r2, [r3, #6]
    e6f0:	e51b3010 	ldr	r3, [fp, #-16]
    e6f4:	e5933004 	ldr	r3, [r3, #4]
    e6f8:	e283307c 	add	r3, r3, #124	; 0x7c
    e6fc:	e1a00003 	mov	r0, r3
    e700:	eb000586 	bl	fd20 <Xil_In32>
    e704:	e50b0008 	str	r0, [fp, #-8]
    e708:	e51b3008 	ldr	r3, [fp, #-8]
    e70c:	e6ff3073 	uxth	r3, r3
    e710:	e7ec3053 	ubfx	r3, r3, #0, #13
    e714:	e6ff2073 	uxth	r2, r3
    e718:	e51b3014 	ldr	r3, [fp, #-20]	; 0xffffffec
    e71c:	e1c320b8 	strh	r2, [r3, #8]
    e720:	e51b2008 	ldr	r2, [fp, #-8]
    e724:	e3a03000 	mov	r3, #0
    e728:	e3413fff 	movt	r3, #8191	; 0x1fff
    e72c:	e0033002 	and	r3, r3, r2
    e730:	e1a03823 	lsr	r3, r3, #16
    e734:	e6ff2073 	uxth	r2, r3
    e738:	e51b3014 	ldr	r3, [fp, #-20]	; 0xffffffec
    e73c:	e1c320ba 	strh	r2, [r3, #10]
    e740:	e51b3010 	ldr	r3, [fp, #-16]
    e744:	e5933004 	ldr	r3, [r3, #4]
    e748:	e2833084 	add	r3, r3, #132	; 0x84
    e74c:	e1a00003 	mov	r0, r3
    e750:	eb000572 	bl	fd20 <Xil_In32>
    e754:	e50b0008 	str	r0, [fp, #-8]
    e758:	e51b3008 	ldr	r3, [fp, #-8]
    e75c:	e6ff3073 	uxth	r3, r3
    e760:	e7ec3053 	ubfx	r3, r3, #0, #13
    e764:	e6ff2073 	uxth	r2, r3
    e768:	e51b3014 	ldr	r3, [fp, #-20]	; 0xffffffec
    e76c:	e1c320bc 	strh	r2, [r3, #12]
    e770:	e51b2008 	ldr	r2, [fp, #-8]
    e774:	e3a03000 	mov	r3, #0
    e778:	e3413fff 	movt	r3, #8191	; 0x1fff
    e77c:	e0033002 	and	r3, r3, r2
    e780:	e1a03823 	lsr	r3, r3, #16
    e784:	e6ff2073 	uxth	r2, r3
    e788:	e51b3014 	ldr	r3, [fp, #-20]	; 0xffffffec
    e78c:	e1c320be 	strh	r2, [r3, #14]
    e790:	e1a00000 	nop			; (mov r0, r0)
    e794:	ea000008 	b	e7bc <XVtc_GetGeneratorHoriOffset+0x230>
    e798:	e30b0c90 	movw	r0, #48272	; 0xbc90
    e79c:	e3400001 	movt	r0, #1
    e7a0:	e30013cb 	movw	r1, #971	; 0x3cb
    e7a4:	eb000524 	bl	fc3c <Xil_Assert>
    e7a8:	e30c3768 	movw	r3, #51048	; 0xc768
    e7ac:	e3403001 	movt	r3, #1
    e7b0:	e3a02001 	mov	r2, #1
    e7b4:	e5832000 	str	r2, [r3]
    e7b8:	e1a00000 	nop			; (mov r0, r0)
    e7bc:	e24bd004 	sub	sp, fp, #4
    e7c0:	e8bd8800 	pop	{fp, pc}

0000e7c4 <XVtc_GetDetectorHoriOffset>:
    e7c4:	e92d4800 	push	{fp, lr}
    e7c8:	e28db004 	add	fp, sp, #4
    e7cc:	e24dd010 	sub	sp, sp, #16
    e7d0:	e50b0010 	str	r0, [fp, #-16]
    e7d4:	e50b1014 	str	r1, [fp, #-20]	; 0xffffffec
    e7d8:	e51b3010 	ldr	r3, [fp, #-16]
    e7dc:	e3530000 	cmp	r3, #0
    e7e0:	0a00000a 	beq	e810 <XVtc_GetDetectorHoriOffset+0x4c>
    e7e4:	e30c3768 	movw	r3, #51048	; 0xc768
    e7e8:	e3403001 	movt	r3, #1
    e7ec:	e3a02000 	mov	r2, #0
    e7f0:	e5832000 	str	r2, [r3]
    e7f4:	e51b3010 	ldr	r3, [fp, #-16]
    e7f8:	e5932008 	ldr	r2, [r3, #8]
    e7fc:	e3013111 	movw	r3, #4369	; 0x1111
    e800:	e3413111 	movt	r3, #4369	; 0x1111
    e804:	e1520003 	cmp	r2, r3
    e808:	1a000011 	bne	e854 <XVtc_GetDetectorHoriOffset+0x90>
    e80c:	ea000008 	b	e834 <XVtc_GetDetectorHoriOffset+0x70>
    e810:	e30b0c90 	movw	r0, #48272	; 0xbc90
    e814:	e3400001 	movt	r0, #1
    e818:	e30013fb 	movw	r1, #1019	; 0x3fb
    e81c:	eb000506 	bl	fc3c <Xil_Assert>
    e820:	e30c3768 	movw	r3, #51048	; 0xc768
    e824:	e3403001 	movt	r3, #1
    e828:	e3a02001 	mov	r2, #1
    e82c:	e5832000 	str	r2, [r3]
    e830:	ea00006f 	b	e9f4 <XVtc_GetDetectorHoriOffset+0x230>
    e834:	e30c3768 	movw	r3, #51048	; 0xc768
    e838:	e3403001 	movt	r3, #1
    e83c:	e3a02000 	mov	r2, #0
    e840:	e5832000 	str	r2, [r3]
    e844:	e51b3014 	ldr	r3, [fp, #-20]	; 0xffffffec
    e848:	e3530000 	cmp	r3, #0
    e84c:	0a00005f 	beq	e9d0 <XVtc_GetDetectorHoriOffset+0x20c>
    e850:	ea000008 	b	e878 <XVtc_GetDetectorHoriOffset+0xb4>
    e854:	e30b0c90 	movw	r0, #48272	; 0xbc90
    e858:	e3400001 	movt	r0, #1
    e85c:	e3a01fff 	mov	r1, #1020	; 0x3fc
    e860:	eb0004f5 	bl	fc3c <Xil_Assert>
    e864:	e30c3768 	movw	r3, #51048	; 0xc768
    e868:	e3403001 	movt	r3, #1
    e86c:	e3a02001 	mov	r2, #1
    e870:	e5832000 	str	r2, [r3]
    e874:	ea00005e 	b	e9f4 <XVtc_GetDetectorHoriOffset+0x230>
    e878:	e30c3768 	movw	r3, #51048	; 0xc768
    e87c:	e3403001 	movt	r3, #1
    e880:	e3a02000 	mov	r2, #0
    e884:	e5832000 	str	r2, [r3]
    e888:	e51b3010 	ldr	r3, [fp, #-16]
    e88c:	e5933004 	ldr	r3, [r3, #4]
    e890:	e283303c 	add	r3, r3, #60	; 0x3c
    e894:	e1a00003 	mov	r0, r3
    e898:	eb000520 	bl	fd20 <Xil_In32>
    e89c:	e50b0008 	str	r0, [fp, #-8]
    e8a0:	e51b3008 	ldr	r3, [fp, #-8]
    e8a4:	e6ff3073 	uxth	r3, r3
    e8a8:	e7ec3053 	ubfx	r3, r3, #0, #13
    e8ac:	e6ff2073 	uxth	r2, r3
    e8b0:	e51b3014 	ldr	r3, [fp, #-20]	; 0xffffffec
    e8b4:	e1c320b0 	strh	r2, [r3]
    e8b8:	e51b2008 	ldr	r2, [fp, #-8]
    e8bc:	e3a03000 	mov	r3, #0
    e8c0:	e3413fff 	movt	r3, #8191	; 0x1fff
    e8c4:	e0033002 	and	r3, r3, r2
    e8c8:	e1a03823 	lsr	r3, r3, #16
    e8cc:	e6ff2073 	uxth	r2, r3
    e8d0:	e51b3014 	ldr	r3, [fp, #-20]	; 0xffffffec
    e8d4:	e1c320b2 	strh	r2, [r3, #2]
    e8d8:	e51b3010 	ldr	r3, [fp, #-16]
    e8dc:	e5933004 	ldr	r3, [r3, #4]
    e8e0:	e2833044 	add	r3, r3, #68	; 0x44
    e8e4:	e1a00003 	mov	r0, r3
    e8e8:	eb00050c 	bl	fd20 <Xil_In32>
    e8ec:	e50b0008 	str	r0, [fp, #-8]
    e8f0:	e51b3008 	ldr	r3, [fp, #-8]
    e8f4:	e6ff3073 	uxth	r3, r3
    e8f8:	e7ec3053 	ubfx	r3, r3, #0, #13
    e8fc:	e6ff2073 	uxth	r2, r3
    e900:	e51b3014 	ldr	r3, [fp, #-20]	; 0xffffffec
    e904:	e1c320b4 	strh	r2, [r3, #4]
    e908:	e51b2008 	ldr	r2, [fp, #-8]
    e90c:	e3a03000 	mov	r3, #0
    e910:	e3413fff 	movt	r3, #8191	; 0x1fff
    e914:	e0033002 	and	r3, r3, r2
    e918:	e1a03823 	lsr	r3, r3, #16
    e91c:	e6ff2073 	uxth	r2, r3
    e920:	e51b3014 	ldr	r3, [fp, #-20]	; 0xffffffec
    e924:	e1c320b6 	strh	r2, [r3, #6]
    e928:	e51b3010 	ldr	r3, [fp, #-16]
    e92c:	e5933004 	ldr	r3, [r3, #4]
    e930:	e283303c 	add	r3, r3, #60	; 0x3c
    e934:	e1a00003 	mov	r0, r3
    e938:	eb0004f8 	bl	fd20 <Xil_In32>
    e93c:	e50b0008 	str	r0, [fp, #-8]
    e940:	e51b3008 	ldr	r3, [fp, #-8]
    e944:	e6ff3073 	uxth	r3, r3
    e948:	e7ec3053 	ubfx	r3, r3, #0, #13
    e94c:	e6ff2073 	uxth	r2, r3
    e950:	e51b3014 	ldr	r3, [fp, #-20]	; 0xffffffec
    e954:	e1c320b8 	strh	r2, [r3, #8]
    e958:	e51b2008 	ldr	r2, [fp, #-8]
    e95c:	e3a03000 	mov	r3, #0
    e960:	e3413fff 	movt	r3, #8191	; 0x1fff
    e964:	e0033002 	and	r3, r3, r2
    e968:	e1a03823 	lsr	r3, r3, #16
    e96c:	e6ff2073 	uxth	r2, r3
    e970:	e51b3014 	ldr	r3, [fp, #-20]	; 0xffffffec
    e974:	e1c320ba 	strh	r2, [r3, #10]
    e978:	e51b3010 	ldr	r3, [fp, #-16]
    e97c:	e5933004 	ldr	r3, [r3, #4]
    e980:	e2833044 	add	r3, r3, #68	; 0x44
    e984:	e1a00003 	mov	r0, r3
    e988:	eb0004e4 	bl	fd20 <Xil_In32>
    e98c:	e50b0008 	str	r0, [fp, #-8]
    e990:	e51b3008 	ldr	r3, [fp, #-8]
    e994:	e6ff3073 	uxth	r3, r3
    e998:	e7ec3053 	ubfx	r3, r3, #0, #13
    e99c:	e6ff2073 	uxth	r2, r3
    e9a0:	e51b3014 	ldr	r3, [fp, #-20]	; 0xffffffec
    e9a4:	e1c320bc 	strh	r2, [r3, #12]
    e9a8:	e51b2008 	ldr	r2, [fp, #-8]
    e9ac:	e3a03000 	mov	r3, #0
    e9b0:	e3413fff 	movt	r3, #8191	; 0x1fff
    e9b4:	e0033002 	and	r3, r3, r2
    e9b8:	e1a03823 	lsr	r3, r3, #16
    e9bc:	e6ff2073 	uxth	r2, r3
    e9c0:	e51b3014 	ldr	r3, [fp, #-20]	; 0xffffffec
    e9c4:	e1c320be 	strh	r2, [r3, #14]
    e9c8:	e1a00000 	nop			; (mov r0, r0)
    e9cc:	ea000008 	b	e9f4 <XVtc_GetDetectorHoriOffset+0x230>
    e9d0:	e30b0c90 	movw	r0, #48272	; 0xbc90
    e9d4:	e3400001 	movt	r0, #1
    e9d8:	e30013fd 	movw	r1, #1021	; 0x3fd
    e9dc:	eb000496 	bl	fc3c <Xil_Assert>
    e9e0:	e30c3768 	movw	r3, #51048	; 0xc768
    e9e4:	e3403001 	movt	r3, #1
    e9e8:	e3a02001 	mov	r2, #1
    e9ec:	e5832000 	str	r2, [r3]
    e9f0:	e1a00000 	nop			; (mov r0, r0)
    e9f4:	e24bd004 	sub	sp, fp, #4
    e9f8:	e8bd8800 	pop	{fp, pc}

0000e9fc <XVtc_SetGenerator>:
    e9fc:	e92d4800 	push	{fp, lr}
    ea00:	e28db004 	add	fp, sp, #4
    ea04:	e24dd030 	sub	sp, sp, #48	; 0x30
    ea08:	e50b0030 	str	r0, [fp, #-48]	; 0xffffffd0
    ea0c:	e50b1034 	str	r1, [fp, #-52]	; 0xffffffcc
    ea10:	e51b3030 	ldr	r3, [fp, #-48]	; 0xffffffd0
    ea14:	e3530000 	cmp	r3, #0
    ea18:	0a00000a 	beq	ea48 <XVtc_SetGenerator+0x4c>
    ea1c:	e30c3768 	movw	r3, #51048	; 0xc768
    ea20:	e3403001 	movt	r3, #1
    ea24:	e3a02000 	mov	r2, #0
    ea28:	e5832000 	str	r2, [r3]
    ea2c:	e51b3030 	ldr	r3, [fp, #-48]	; 0xffffffd0
    ea30:	e5932008 	ldr	r2, [r3, #8]
    ea34:	e3013111 	movw	r3, #4369	; 0x1111
    ea38:	e3413111 	movt	r3, #4369	; 0x1111
    ea3c:	e1520003 	cmp	r2, r3
    ea40:	1a000011 	bne	ea8c <XVtc_SetGenerator+0x90>
    ea44:	ea000008 	b	ea6c <XVtc_SetGenerator+0x70>
    ea48:	e30b0c90 	movw	r0, #48272	; 0xbc90
    ea4c:	e3400001 	movt	r0, #1
    ea50:	e300142f 	movw	r1, #1071	; 0x42f
    ea54:	eb000478 	bl	fc3c <Xil_Assert>
    ea58:	e30c3768 	movw	r3, #51048	; 0xc768
    ea5c:	e3403001 	movt	r3, #1
    ea60:	e3a02001 	mov	r2, #1
    ea64:	e5832000 	str	r2, [r3]
    ea68:	ea00014f 	b	efac <XVtc_SetGenerator+0x5b0>
    ea6c:	e30c3768 	movw	r3, #51048	; 0xc768
    ea70:	e3403001 	movt	r3, #1
    ea74:	e3a02000 	mov	r2, #0
    ea78:	e5832000 	str	r2, [r3]
    ea7c:	e51b3034 	ldr	r3, [fp, #-52]	; 0xffffffcc
    ea80:	e3530000 	cmp	r3, #0
    ea84:	0a000014 	beq	eadc <XVtc_SetGenerator+0xe0>
    ea88:	ea000008 	b	eab0 <XVtc_SetGenerator+0xb4>
    ea8c:	e30b0c90 	movw	r0, #48272	; 0xbc90
    ea90:	e3400001 	movt	r0, #1
    ea94:	e3a01e43 	mov	r1, #1072	; 0x430
    ea98:	eb000467 	bl	fc3c <Xil_Assert>
    ea9c:	e30c3768 	movw	r3, #51048	; 0xc768
    eaa0:	e3403001 	movt	r3, #1
    eaa4:	e3a02001 	mov	r2, #1
    eaa8:	e5832000 	str	r2, [r3]
    eaac:	ea00013e 	b	efac <XVtc_SetGenerator+0x5b0>
    eab0:	e30c3768 	movw	r3, #51048	; 0xc768
    eab4:	e3403001 	movt	r3, #1
    eab8:	e3a02000 	mov	r2, #0
    eabc:	e5832000 	str	r2, [r3]
    eac0:	e51b3034 	ldr	r3, [fp, #-52]	; 0xffffffcc
    eac4:	e50b3008 	str	r3, [fp, #-8]
    eac8:	e51b3008 	ldr	r3, [fp, #-8]
    eacc:	e1d330b0 	ldrh	r3, [r3]
    ead0:	e3530000 	cmp	r3, #0
    ead4:	1a0000a9 	bne	ed80 <XVtc_SetGenerator+0x384>
    ead8:	ea000008 	b	eb00 <XVtc_SetGenerator+0x104>
    eadc:	e30b0c90 	movw	r0, #48272	; 0xbc90
    eae0:	e3400001 	movt	r0, #1
    eae4:	e3001431 	movw	r1, #1073	; 0x431
    eae8:	eb000453 	bl	fc3c <Xil_Assert>
    eaec:	e30c3768 	movw	r3, #51048	; 0xc768
    eaf0:	e3403001 	movt	r3, #1
    eaf4:	e3a02001 	mov	r2, #1
    eaf8:	e5832000 	str	r2, [r3]
    eafc:	ea00012a 	b	efac <XVtc_SetGenerator+0x5b0>
    eb00:	e51b3008 	ldr	r3, [fp, #-8]
    eb04:	e1d330b2 	ldrh	r3, [r3, #2]
    eb08:	e2833001 	add	r3, r3, #1
    eb0c:	e50b300c 	str	r3, [fp, #-12]
    eb10:	e51b3008 	ldr	r3, [fp, #-8]
    eb14:	e1d330bc 	ldrh	r3, [r3, #12]
    eb18:	e2833001 	add	r3, r3, #1
    eb1c:	e50b3010 	str	r3, [fp, #-16]
    eb20:	e51b3008 	ldr	r3, [fp, #-8]
    eb24:	e1d330ba 	ldrh	r3, [r3, #10]
    eb28:	e1a02003 	mov	r2, r3
    eb2c:	e51b300c 	ldr	r3, [fp, #-12]
    eb30:	e0623003 	rsb	r3, r2, r3
    eb34:	e50b3014 	str	r3, [fp, #-20]	; 0xffffffec
    eb38:	e51b3008 	ldr	r3, [fp, #-8]
    eb3c:	e1d331b4 	ldrh	r3, [r3, #20]
    eb40:	e1a02003 	mov	r2, r3
    eb44:	e51b3010 	ldr	r3, [fp, #-16]
    eb48:	e0623003 	rsb	r3, r2, r3
    eb4c:	e50b3018 	str	r3, [fp, #-24]	; 0xffffffe8
    eb50:	e51b300c 	ldr	r3, [fp, #-12]
    eb54:	e7ec3053 	ubfx	r3, r3, #0, #13
    eb58:	e50b301c 	str	r3, [fp, #-28]	; 0xffffffe4
    eb5c:	e51b3030 	ldr	r3, [fp, #-48]	; 0xffffffd0
    eb60:	e5933004 	ldr	r3, [r3, #4]
    eb64:	e2833070 	add	r3, r3, #112	; 0x70
    eb68:	e1a00003 	mov	r0, r3
    eb6c:	e51b101c 	ldr	r1, [fp, #-28]	; 0xffffffe4
    eb70:	eb00048c 	bl	fda8 <Xil_Out32>
    eb74:	e51b3010 	ldr	r3, [fp, #-16]
    eb78:	e7ec3053 	ubfx	r3, r3, #0, #13
    eb7c:	e50b301c 	str	r3, [fp, #-28]	; 0xffffffe4
    eb80:	e51b3030 	ldr	r3, [fp, #-48]	; 0xffffffd0
    eb84:	e5933004 	ldr	r3, [r3, #4]
    eb88:	e2833074 	add	r3, r3, #116	; 0x74
    eb8c:	e1a00003 	mov	r0, r3
    eb90:	e51b101c 	ldr	r1, [fp, #-28]	; 0xffffffe4
    eb94:	eb000483 	bl	fda8 <Xil_Out32>
    eb98:	e51b3014 	ldr	r3, [fp, #-20]	; 0xffffffec
    eb9c:	e7ec3053 	ubfx	r3, r3, #0, #13
    eba0:	e50b301c 	str	r3, [fp, #-28]	; 0xffffffe4
    eba4:	e51b3018 	ldr	r3, [fp, #-24]	; 0xffffffe8
    eba8:	e7ec3053 	ubfx	r3, r3, #0, #13
    ebac:	e1a03803 	lsl	r3, r3, #16
    ebb0:	e51b201c 	ldr	r2, [fp, #-28]	; 0xffffffe4
    ebb4:	e1823003 	orr	r3, r2, r3
    ebb8:	e50b301c 	str	r3, [fp, #-28]	; 0xffffffe4
    ebbc:	e51b3030 	ldr	r3, [fp, #-48]	; 0xffffffd0
    ebc0:	e5933004 	ldr	r3, [r3, #4]
    ebc4:	e2833060 	add	r3, r3, #96	; 0x60
    ebc8:	e1a00003 	mov	r0, r3
    ebcc:	e51b101c 	ldr	r1, [fp, #-28]	; 0xffffffe4
    ebd0:	eb000474 	bl	fda8 <Xil_Out32>
    ebd4:	e51b3008 	ldr	r3, [fp, #-8]
    ebd8:	e1d330b6 	ldrh	r3, [r3, #6]
    ebdc:	e1a02003 	mov	r2, r3
    ebe0:	e51b3014 	ldr	r3, [fp, #-20]	; 0xffffffec
    ebe4:	e0823003 	add	r3, r2, r3
    ebe8:	e7ec3053 	ubfx	r3, r3, #0, #13
    ebec:	e50b301c 	str	r3, [fp, #-28]	; 0xffffffe4
    ebf0:	e51b3008 	ldr	r3, [fp, #-8]
    ebf4:	e1d330b8 	ldrh	r3, [r3, #8]
    ebf8:	e1a02003 	mov	r2, r3
    ebfc:	e51b3014 	ldr	r3, [fp, #-20]	; 0xffffffec
    ec00:	e0823003 	add	r3, r2, r3
    ec04:	e1a02803 	lsl	r2, r3, #16
    ec08:	e3a03000 	mov	r3, #0
    ec0c:	e3413fff 	movt	r3, #8191	; 0x1fff
    ec10:	e0033002 	and	r3, r3, r2
    ec14:	e51b201c 	ldr	r2, [fp, #-28]	; 0xffffffe4
    ec18:	e1823003 	orr	r3, r2, r3
    ec1c:	e50b301c 	str	r3, [fp, #-28]	; 0xffffffe4
    ec20:	e51b3030 	ldr	r3, [fp, #-48]	; 0xffffffd0
    ec24:	e5933004 	ldr	r3, [r3, #4]
    ec28:	e2833078 	add	r3, r3, #120	; 0x78
    ec2c:	e1a00003 	mov	r0, r3
    ec30:	e51b101c 	ldr	r1, [fp, #-28]	; 0xffffffe4
    ec34:	eb00045b 	bl	fda8 <Xil_Out32>
    ec38:	e51b3008 	ldr	r3, [fp, #-8]
    ec3c:	e1d331b0 	ldrh	r3, [r3, #16]
    ec40:	e1a02003 	mov	r2, r3
    ec44:	e51b3018 	ldr	r3, [fp, #-24]	; 0xffffffe8
    ec48:	e0823003 	add	r3, r2, r3
    ec4c:	e2433001 	sub	r3, r3, #1
    ec50:	e7ec3053 	ubfx	r3, r3, #0, #13
    ec54:	e50b301c 	str	r3, [fp, #-28]	; 0xffffffe4
    ec58:	e51b3008 	ldr	r3, [fp, #-8]
    ec5c:	e1d331b2 	ldrh	r3, [r3, #18]
    ec60:	e1a02003 	mov	r2, r3
    ec64:	e51b3018 	ldr	r3, [fp, #-24]	; 0xffffffe8
    ec68:	e0823003 	add	r3, r2, r3
    ec6c:	e2433001 	sub	r3, r3, #1
    ec70:	e1a02803 	lsl	r2, r3, #16
    ec74:	e3a03000 	mov	r3, #0
    ec78:	e3413fff 	movt	r3, #8191	; 0x1fff
    ec7c:	e0033002 	and	r3, r3, r2
    ec80:	e51b201c 	ldr	r2, [fp, #-28]	; 0xffffffe4
    ec84:	e1823003 	orr	r3, r2, r3
    ec88:	e50b301c 	str	r3, [fp, #-28]	; 0xffffffe4
    ec8c:	e51b3030 	ldr	r3, [fp, #-48]	; 0xffffffd0
    ec90:	e5933004 	ldr	r3, [r3, #4]
    ec94:	e2833080 	add	r3, r3, #128	; 0x80
    ec98:	e1a00003 	mov	r0, r3
    ec9c:	e51b101c 	ldr	r1, [fp, #-28]	; 0xffffffe4
    eca0:	eb000440 	bl	fda8 <Xil_Out32>
    eca4:	e51b3030 	ldr	r3, [fp, #-48]	; 0xffffffd0
    eca8:	e5933004 	ldr	r3, [r3, #4]
    ecac:	e2833028 	add	r3, r3, #40	; 0x28
    ecb0:	e1a00003 	mov	r0, r3
    ecb4:	eb000419 	bl	fd20 <Xil_In32>
    ecb8:	e50b001c 	str	r0, [fp, #-28]	; 0xffffffe4
    ecbc:	e51b301c 	ldr	r3, [fp, #-28]	; 0xffffffe4
    ecc0:	e3c33c01 	bic	r3, r3, #256	; 0x100
    ecc4:	e50b301c 	str	r3, [fp, #-28]	; 0xffffffe4
    ecc8:	e51b3008 	ldr	r3, [fp, #-8]
    eccc:	e1d331b6 	ldrh	r3, [r3, #22]
    ecd0:	e1a02003 	mov	r2, r3
    ecd4:	e51b3008 	ldr	r3, [fp, #-8]
    ecd8:	e1d331b4 	ldrh	r3, [r3, #20]
    ecdc:	e0633002 	rsb	r3, r3, r2
    ece0:	e1a03403 	lsl	r3, r3, #8
    ece4:	e2033c01 	and	r3, r3, #256	; 0x100
    ece8:	e51b201c 	ldr	r2, [fp, #-28]	; 0xffffffe4
    ecec:	e1823003 	orr	r3, r2, r3
    ecf0:	e50b301c 	str	r3, [fp, #-28]	; 0xffffffe4
    ecf4:	e51b3030 	ldr	r3, [fp, #-48]	; 0xffffffd0
    ecf8:	e5933004 	ldr	r3, [r3, #4]
    ecfc:	e2833028 	add	r3, r3, #40	; 0x28
    ed00:	e1a00003 	mov	r0, r3
    ed04:	e51b101c 	ldr	r1, [fp, #-28]	; 0xffffffe4
    ed08:	eb000426 	bl	fda8 <Xil_Out32>
    ed0c:	e51b3014 	ldr	r3, [fp, #-20]	; 0xffffffec
    ed10:	e6ff3073 	uxth	r3, r3
    ed14:	e14b32bc 	strh	r3, [fp, #-44]	; 0xffffffd4
    ed18:	e51b3014 	ldr	r3, [fp, #-20]	; 0xffffffec
    ed1c:	e6ff3073 	uxth	r3, r3
    ed20:	e14b32ba 	strh	r3, [fp, #-42]	; 0xffffffd6
    ed24:	e51b3014 	ldr	r3, [fp, #-20]	; 0xffffffec
    ed28:	e6ff3073 	uxth	r3, r3
    ed2c:	e14b32b8 	strh	r3, [fp, #-40]	; 0xffffffd8
    ed30:	e51b3014 	ldr	r3, [fp, #-20]	; 0xffffffec
    ed34:	e6ff3073 	uxth	r3, r3
    ed38:	e14b32b6 	strh	r3, [fp, #-38]	; 0xffffffda
    ed3c:	e51b3014 	ldr	r3, [fp, #-20]	; 0xffffffec
    ed40:	e6ff3073 	uxth	r3, r3
    ed44:	e14b32b4 	strh	r3, [fp, #-36]	; 0xffffffdc
    ed48:	e51b3014 	ldr	r3, [fp, #-20]	; 0xffffffec
    ed4c:	e6ff3073 	uxth	r3, r3
    ed50:	e14b32b2 	strh	r3, [fp, #-34]	; 0xffffffde
    ed54:	e51b3014 	ldr	r3, [fp, #-20]	; 0xffffffec
    ed58:	e6ff3073 	uxth	r3, r3
    ed5c:	e14b32b0 	strh	r3, [fp, #-32]	; 0xffffffe0
    ed60:	e51b3014 	ldr	r3, [fp, #-20]	; 0xffffffec
    ed64:	e6ff3073 	uxth	r3, r3
    ed68:	e14b31be 	strh	r3, [fp, #-30]	; 0xffffffe2
    ed6c:	e24b302c 	sub	r3, fp, #44	; 0x2c
    ed70:	e51b0030 	ldr	r0, [fp, #-48]	; 0xffffffd0
    ed74:	e1a01003 	mov	r1, r3
    ed78:	ebfffd9d 	bl	e3f4 <XVtc_SetGeneratorHoriOffset>
    ed7c:	ea00008a 	b	efac <XVtc_SetGenerator+0x5b0>
    ed80:	e51b3008 	ldr	r3, [fp, #-8]
    ed84:	e1d330b2 	ldrh	r3, [r3, #2]
    ed88:	e50b300c 	str	r3, [fp, #-12]
    ed8c:	e51b3008 	ldr	r3, [fp, #-8]
    ed90:	e1d330bc 	ldrh	r3, [r3, #12]
    ed94:	e50b3010 	str	r3, [fp, #-16]
    ed98:	e51b3008 	ldr	r3, [fp, #-8]
    ed9c:	e1d330b4 	ldrh	r3, [r3, #4]
    eda0:	e50b3014 	str	r3, [fp, #-20]	; 0xffffffec
    eda4:	e51b3008 	ldr	r3, [fp, #-8]
    eda8:	e1d330be 	ldrh	r3, [r3, #14]
    edac:	e50b3018 	str	r3, [fp, #-24]	; 0xffffffe8
    edb0:	e51b300c 	ldr	r3, [fp, #-12]
    edb4:	e7ec3053 	ubfx	r3, r3, #0, #13
    edb8:	e50b301c 	str	r3, [fp, #-28]	; 0xffffffe4
    edbc:	e51b3030 	ldr	r3, [fp, #-48]	; 0xffffffd0
    edc0:	e5933004 	ldr	r3, [r3, #4]
    edc4:	e2833070 	add	r3, r3, #112	; 0x70
    edc8:	e1a00003 	mov	r0, r3
    edcc:	e51b101c 	ldr	r1, [fp, #-28]	; 0xffffffe4
    edd0:	eb0003f4 	bl	fda8 <Xil_Out32>
    edd4:	e51b3010 	ldr	r3, [fp, #-16]
    edd8:	e7ec3053 	ubfx	r3, r3, #0, #13
    eddc:	e50b301c 	str	r3, [fp, #-28]	; 0xffffffe4
    ede0:	e51b3030 	ldr	r3, [fp, #-48]	; 0xffffffd0
    ede4:	e5933004 	ldr	r3, [r3, #4]
    ede8:	e2833074 	add	r3, r3, #116	; 0x74
    edec:	e1a00003 	mov	r0, r3
    edf0:	e51b101c 	ldr	r1, [fp, #-28]	; 0xffffffe4
    edf4:	eb0003eb 	bl	fda8 <Xil_Out32>
    edf8:	e51b3014 	ldr	r3, [fp, #-20]	; 0xffffffec
    edfc:	e7ec3053 	ubfx	r3, r3, #0, #13
    ee00:	e50b301c 	str	r3, [fp, #-28]	; 0xffffffe4
    ee04:	e51b3018 	ldr	r3, [fp, #-24]	; 0xffffffe8
    ee08:	e7ec3053 	ubfx	r3, r3, #0, #13
    ee0c:	e1a03803 	lsl	r3, r3, #16
    ee10:	e51b201c 	ldr	r2, [fp, #-28]	; 0xffffffe4
    ee14:	e1823003 	orr	r3, r2, r3
    ee18:	e50b301c 	str	r3, [fp, #-28]	; 0xffffffe4
    ee1c:	e51b3030 	ldr	r3, [fp, #-48]	; 0xffffffd0
    ee20:	e5933004 	ldr	r3, [r3, #4]
    ee24:	e2833060 	add	r3, r3, #96	; 0x60
    ee28:	e1a00003 	mov	r0, r3
    ee2c:	e51b101c 	ldr	r1, [fp, #-28]	; 0xffffffe4
    ee30:	eb0003dc 	bl	fda8 <Xil_Out32>
    ee34:	e51b3008 	ldr	r3, [fp, #-8]
    ee38:	e1d330b6 	ldrh	r3, [r3, #6]
    ee3c:	e7ec3053 	ubfx	r3, r3, #0, #13
    ee40:	e50b301c 	str	r3, [fp, #-28]	; 0xffffffe4
    ee44:	e51b3008 	ldr	r3, [fp, #-8]
    ee48:	e1d330b8 	ldrh	r3, [r3, #8]
    ee4c:	e1a03803 	lsl	r3, r3, #16
    ee50:	e1a02003 	mov	r2, r3
    ee54:	e3a03000 	mov	r3, #0
    ee58:	e3413fff 	movt	r3, #8191	; 0x1fff
    ee5c:	e0033002 	and	r3, r3, r2
    ee60:	e51b201c 	ldr	r2, [fp, #-28]	; 0xffffffe4
    ee64:	e1823003 	orr	r3, r2, r3
    ee68:	e50b301c 	str	r3, [fp, #-28]	; 0xffffffe4
    ee6c:	e51b3030 	ldr	r3, [fp, #-48]	; 0xffffffd0
    ee70:	e5933004 	ldr	r3, [r3, #4]
    ee74:	e2833078 	add	r3, r3, #120	; 0x78
    ee78:	e1a00003 	mov	r0, r3
    ee7c:	e51b101c 	ldr	r1, [fp, #-28]	; 0xffffffe4
    ee80:	eb0003c8 	bl	fda8 <Xil_Out32>
    ee84:	e51b3008 	ldr	r3, [fp, #-8]
    ee88:	e1d331b0 	ldrh	r3, [r3, #16]
    ee8c:	e7ec3053 	ubfx	r3, r3, #0, #13
    ee90:	e50b301c 	str	r3, [fp, #-28]	; 0xffffffe4
    ee94:	e51b3008 	ldr	r3, [fp, #-8]
    ee98:	e1d331b2 	ldrh	r3, [r3, #18]
    ee9c:	e1a03803 	lsl	r3, r3, #16
    eea0:	e1a02003 	mov	r2, r3
    eea4:	e3a03000 	mov	r3, #0
    eea8:	e3413fff 	movt	r3, #8191	; 0x1fff
    eeac:	e0033002 	and	r3, r3, r2
    eeb0:	e51b201c 	ldr	r2, [fp, #-28]	; 0xffffffe4
    eeb4:	e1823003 	orr	r3, r2, r3
    eeb8:	e50b301c 	str	r3, [fp, #-28]	; 0xffffffe4
    eebc:	e51b3030 	ldr	r3, [fp, #-48]	; 0xffffffd0
    eec0:	e5933004 	ldr	r3, [r3, #4]
    eec4:	e2833080 	add	r3, r3, #128	; 0x80
    eec8:	e1a00003 	mov	r0, r3
    eecc:	e51b101c 	ldr	r1, [fp, #-28]	; 0xffffffe4
    eed0:	eb0003b4 	bl	fda8 <Xil_Out32>
    eed4:	e51b3030 	ldr	r3, [fp, #-48]	; 0xffffffd0
    eed8:	e5933004 	ldr	r3, [r3, #4]
    eedc:	e2833028 	add	r3, r3, #40	; 0x28
    eee0:	e1a00003 	mov	r0, r3
    eee4:	eb00038d 	bl	fd20 <Xil_In32>
    eee8:	e50b001c 	str	r0, [fp, #-28]	; 0xffffffe4
    eeec:	e51b301c 	ldr	r3, [fp, #-28]	; 0xffffffe4
    eef0:	e3c33c01 	bic	r3, r3, #256	; 0x100
    eef4:	e50b301c 	str	r3, [fp, #-28]	; 0xffffffe4
    eef8:	e51b3008 	ldr	r3, [fp, #-8]
    eefc:	e1d331b6 	ldrh	r3, [r3, #22]
    ef00:	e1a02003 	mov	r2, r3
    ef04:	e51b3008 	ldr	r3, [fp, #-8]
    ef08:	e1d331b4 	ldrh	r3, [r3, #20]
    ef0c:	e0633002 	rsb	r3, r3, r2
    ef10:	e1a03403 	lsl	r3, r3, #8
    ef14:	e2033c01 	and	r3, r3, #256	; 0x100
    ef18:	e51b201c 	ldr	r2, [fp, #-28]	; 0xffffffe4
    ef1c:	e1823003 	orr	r3, r2, r3
    ef20:	e50b301c 	str	r3, [fp, #-28]	; 0xffffffe4
    ef24:	e51b3030 	ldr	r3, [fp, #-48]	; 0xffffffd0
    ef28:	e5933004 	ldr	r3, [r3, #4]
    ef2c:	e2833028 	add	r3, r3, #40	; 0x28
    ef30:	e1a00003 	mov	r0, r3
    ef34:	e51b101c 	ldr	r1, [fp, #-28]	; 0xffffffe4
    ef38:	eb00039a 	bl	fda8 <Xil_Out32>
    ef3c:	e51b3014 	ldr	r3, [fp, #-20]	; 0xffffffec
    ef40:	e6ff3073 	uxth	r3, r3
    ef44:	e14b32bc 	strh	r3, [fp, #-44]	; 0xffffffd4
    ef48:	e51b3014 	ldr	r3, [fp, #-20]	; 0xffffffec
    ef4c:	e6ff3073 	uxth	r3, r3
    ef50:	e14b32ba 	strh	r3, [fp, #-42]	; 0xffffffd6
    ef54:	e51b3014 	ldr	r3, [fp, #-20]	; 0xffffffec
    ef58:	e6ff3073 	uxth	r3, r3
    ef5c:	e14b32b8 	strh	r3, [fp, #-40]	; 0xffffffd8
    ef60:	e51b3014 	ldr	r3, [fp, #-20]	; 0xffffffec
    ef64:	e6ff3073 	uxth	r3, r3
    ef68:	e14b32b6 	strh	r3, [fp, #-38]	; 0xffffffda
    ef6c:	e51b3014 	ldr	r3, [fp, #-20]	; 0xffffffec
    ef70:	e6ff3073 	uxth	r3, r3
    ef74:	e14b32b4 	strh	r3, [fp, #-36]	; 0xffffffdc
    ef78:	e51b3014 	ldr	r3, [fp, #-20]	; 0xffffffec
    ef7c:	e6ff3073 	uxth	r3, r3
    ef80:	e14b32b2 	strh	r3, [fp, #-34]	; 0xffffffde
    ef84:	e51b3014 	ldr	r3, [fp, #-20]	; 0xffffffec
    ef88:	e6ff3073 	uxth	r3, r3
    ef8c:	e14b32b0 	strh	r3, [fp, #-32]	; 0xffffffe0
    ef90:	e51b3014 	ldr	r3, [fp, #-20]	; 0xffffffec
    ef94:	e6ff3073 	uxth	r3, r3
    ef98:	e14b31be 	strh	r3, [fp, #-30]	; 0xffffffe2
    ef9c:	e24b302c 	sub	r3, fp, #44	; 0x2c
    efa0:	e51b0030 	ldr	r0, [fp, #-48]	; 0xffffffd0
    efa4:	e1a01003 	mov	r1, r3
    efa8:	ebfffd11 	bl	e3f4 <XVtc_SetGeneratorHoriOffset>
    efac:	e24bd004 	sub	sp, fp, #4
    efb0:	e8bd8800 	pop	{fp, pc}

0000efb4 <XVtc_GetGenerator>:
    efb4:	e92d4800 	push	{fp, lr}
    efb8:	e28db004 	add	fp, sp, #4
    efbc:	e24dd020 	sub	sp, sp, #32
    efc0:	e50b0020 	str	r0, [fp, #-32]	; 0xffffffe0
    efc4:	e50b1024 	str	r1, [fp, #-36]	; 0xffffffdc
    efc8:	e51b3020 	ldr	r3, [fp, #-32]	; 0xffffffe0
    efcc:	e3530000 	cmp	r3, #0
    efd0:	0a00000a 	beq	f000 <XVtc_GetGenerator+0x4c>
    efd4:	e30c3768 	movw	r3, #51048	; 0xc768
    efd8:	e3403001 	movt	r3, #1
    efdc:	e3a02000 	mov	r2, #0
    efe0:	e5832000 	str	r2, [r3]
    efe4:	e51b3020 	ldr	r3, [fp, #-32]	; 0xffffffe0
    efe8:	e5932008 	ldr	r2, [r3, #8]
    efec:	e3013111 	movw	r3, #4369	; 0x1111
    eff0:	e3413111 	movt	r3, #4369	; 0x1111
    eff4:	e1520003 	cmp	r2, r3
    eff8:	1a000011 	bne	f044 <XVtc_GetGenerator+0x90>
    effc:	ea000008 	b	f024 <XVtc_GetGenerator+0x70>
    f000:	e30b0c90 	movw	r0, #48272	; 0xbc90
    f004:	e3400001 	movt	r0, #1
    f008:	e30014b5 	movw	r1, #1205	; 0x4b5
    f00c:	eb00030a 	bl	fc3c <Xil_Assert>
    f010:	e30c3768 	movw	r3, #51048	; 0xc768
    f014:	e3403001 	movt	r3, #1
    f018:	e3a02001 	mov	r2, #1
    f01c:	e5832000 	str	r2, [r3]
    f020:	ea00012f 	b	f4e4 <XVtc_GetGenerator+0x530>
    f024:	e30c3768 	movw	r3, #51048	; 0xc768
    f028:	e3403001 	movt	r3, #1
    f02c:	e3a02000 	mov	r2, #0
    f030:	e5832000 	str	r2, [r3]
    f034:	e51b3024 	ldr	r3, [fp, #-36]	; 0xffffffdc
    f038:	e3530000 	cmp	r3, #0
    f03c:	0a000014 	beq	f094 <XVtc_GetGenerator+0xe0>
    f040:	ea000008 	b	f068 <XVtc_GetGenerator+0xb4>
    f044:	e30b0c90 	movw	r0, #48272	; 0xbc90
    f048:	e3400001 	movt	r0, #1
    f04c:	e30014b6 	movw	r1, #1206	; 0x4b6
    f050:	eb0002f9 	bl	fc3c <Xil_Assert>
    f054:	e30c3768 	movw	r3, #51048	; 0xc768
    f058:	e3403001 	movt	r3, #1
    f05c:	e3a02001 	mov	r2, #1
    f060:	e5832000 	str	r2, [r3]
    f064:	ea00011e 	b	f4e4 <XVtc_GetGenerator+0x530>
    f068:	e30c3768 	movw	r3, #51048	; 0xc768
    f06c:	e3403001 	movt	r3, #1
    f070:	e3a02000 	mov	r2, #0
    f074:	e5832000 	str	r2, [r3]
    f078:	e51b3024 	ldr	r3, [fp, #-36]	; 0xffffffdc
    f07c:	e50b3008 	str	r3, [fp, #-8]
    f080:	e51b3008 	ldr	r3, [fp, #-8]
    f084:	e1d330b0 	ldrh	r3, [r3]
    f088:	e3530000 	cmp	r3, #0
    f08c:	1a0000a3 	bne	f320 <XVtc_GetGenerator+0x36c>
    f090:	ea000008 	b	f0b8 <XVtc_GetGenerator+0x104>
    f094:	e30b0c90 	movw	r0, #48272	; 0xbc90
    f098:	e3400001 	movt	r0, #1
    f09c:	e30014b7 	movw	r1, #1207	; 0x4b7
    f0a0:	eb0002e5 	bl	fc3c <Xil_Assert>
    f0a4:	e30c3768 	movw	r3, #51048	; 0xc768
    f0a8:	e3403001 	movt	r3, #1
    f0ac:	e3a02001 	mov	r2, #1
    f0b0:	e5832000 	str	r2, [r3]
    f0b4:	ea00010a 	b	f4e4 <XVtc_GetGenerator+0x530>
    f0b8:	e51b3020 	ldr	r3, [fp, #-32]	; 0xffffffe0
    f0bc:	e5933004 	ldr	r3, [r3, #4]
    f0c0:	e2833070 	add	r3, r3, #112	; 0x70
    f0c4:	e1a00003 	mov	r0, r3
    f0c8:	eb000314 	bl	fd20 <Xil_In32>
    f0cc:	e50b000c 	str	r0, [fp, #-12]
    f0d0:	e51b300c 	ldr	r3, [fp, #-12]
    f0d4:	e7ec3053 	ubfx	r3, r3, #0, #13
    f0d8:	e50b3010 	str	r3, [fp, #-16]
    f0dc:	e51b3010 	ldr	r3, [fp, #-16]
    f0e0:	e6ff3073 	uxth	r3, r3
    f0e4:	e2433001 	sub	r3, r3, #1
    f0e8:	e6ff3073 	uxth	r3, r3
    f0ec:	e7ec3053 	ubfx	r3, r3, #0, #13
    f0f0:	e6ff2073 	uxth	r2, r3
    f0f4:	e51b3008 	ldr	r3, [fp, #-8]
    f0f8:	e1c320b2 	strh	r2, [r3, #2]
    f0fc:	e51b3020 	ldr	r3, [fp, #-32]	; 0xffffffe0
    f100:	e5933004 	ldr	r3, [r3, #4]
    f104:	e2833074 	add	r3, r3, #116	; 0x74
    f108:	e1a00003 	mov	r0, r3
    f10c:	eb000303 	bl	fd20 <Xil_In32>
    f110:	e50b000c 	str	r0, [fp, #-12]
    f114:	e51b300c 	ldr	r3, [fp, #-12]
    f118:	e7ec3053 	ubfx	r3, r3, #0, #13
    f11c:	e50b3014 	str	r3, [fp, #-20]	; 0xffffffec
    f120:	e51b3014 	ldr	r3, [fp, #-20]	; 0xffffffec
    f124:	e6ff3073 	uxth	r3, r3
    f128:	e2433001 	sub	r3, r3, #1
    f12c:	e6ff3073 	uxth	r3, r3
    f130:	e7ec3053 	ubfx	r3, r3, #0, #13
    f134:	e6ff2073 	uxth	r2, r3
    f138:	e51b3008 	ldr	r3, [fp, #-8]
    f13c:	e1c320bc 	strh	r2, [r3, #12]
    f140:	e51b3020 	ldr	r3, [fp, #-32]	; 0xffffffe0
    f144:	e5933004 	ldr	r3, [r3, #4]
    f148:	e2833060 	add	r3, r3, #96	; 0x60
    f14c:	e1a00003 	mov	r0, r3
    f150:	eb0002f2 	bl	fd20 <Xil_In32>
    f154:	e50b000c 	str	r0, [fp, #-12]
    f158:	e51b300c 	ldr	r3, [fp, #-12]
    f15c:	e7ec3053 	ubfx	r3, r3, #0, #13
    f160:	e50b3018 	str	r3, [fp, #-24]	; 0xffffffe8
    f164:	e51b3010 	ldr	r3, [fp, #-16]
    f168:	e6ff2073 	uxth	r2, r3
    f16c:	e51b3018 	ldr	r3, [fp, #-24]	; 0xffffffe8
    f170:	e6ff3073 	uxth	r3, r3
    f174:	e0633002 	rsb	r3, r3, r2
    f178:	e6ff3073 	uxth	r3, r3
    f17c:	e7ec3053 	ubfx	r3, r3, #0, #13
    f180:	e6ff2073 	uxth	r2, r3
    f184:	e51b3008 	ldr	r3, [fp, #-8]
    f188:	e1c320ba 	strh	r2, [r3, #10]
    f18c:	e51b300c 	ldr	r3, [fp, #-12]
    f190:	e1a03823 	lsr	r3, r3, #16
    f194:	e7ec3053 	ubfx	r3, r3, #0, #13
    f198:	e50b301c 	str	r3, [fp, #-28]	; 0xffffffe4
    f19c:	e51b3014 	ldr	r3, [fp, #-20]	; 0xffffffec
    f1a0:	e6ff2073 	uxth	r2, r3
    f1a4:	e51b301c 	ldr	r3, [fp, #-28]	; 0xffffffe4
    f1a8:	e6ff3073 	uxth	r3, r3
    f1ac:	e0633002 	rsb	r3, r3, r2
    f1b0:	e6ff3073 	uxth	r3, r3
    f1b4:	e7ec3053 	ubfx	r3, r3, #0, #13
    f1b8:	e6ff2073 	uxth	r2, r3
    f1bc:	e51b3008 	ldr	r3, [fp, #-8]
    f1c0:	e1c321b4 	strh	r2, [r3, #20]
    f1c4:	e51b3020 	ldr	r3, [fp, #-32]	; 0xffffffe0
    f1c8:	e5933004 	ldr	r3, [r3, #4]
    f1cc:	e2833078 	add	r3, r3, #120	; 0x78
    f1d0:	e1a00003 	mov	r0, r3
    f1d4:	eb0002d1 	bl	fd20 <Xil_In32>
    f1d8:	e50b000c 	str	r0, [fp, #-12]
    f1dc:	e51b300c 	ldr	r3, [fp, #-12]
    f1e0:	e6ff2073 	uxth	r2, r3
    f1e4:	e51b3018 	ldr	r3, [fp, #-24]	; 0xffffffe8
    f1e8:	e6ff3073 	uxth	r3, r3
    f1ec:	e0633002 	rsb	r3, r3, r2
    f1f0:	e6ff3073 	uxth	r3, r3
    f1f4:	e7ec3053 	ubfx	r3, r3, #0, #13
    f1f8:	e6ff2073 	uxth	r2, r3
    f1fc:	e51b3008 	ldr	r3, [fp, #-8]
    f200:	e1c320b6 	strh	r2, [r3, #6]
    f204:	e51b300c 	ldr	r3, [fp, #-12]
    f208:	e1a03823 	lsr	r3, r3, #16
    f20c:	e6ff2073 	uxth	r2, r3
    f210:	e51b3018 	ldr	r3, [fp, #-24]	; 0xffffffe8
    f214:	e6ff3073 	uxth	r3, r3
    f218:	e0633002 	rsb	r3, r3, r2
    f21c:	e6ff3073 	uxth	r3, r3
    f220:	e7ec3053 	ubfx	r3, r3, #0, #13
    f224:	e6ff2073 	uxth	r2, r3
    f228:	e51b3008 	ldr	r3, [fp, #-8]
    f22c:	e1c320b8 	strh	r2, [r3, #8]
    f230:	e51b3020 	ldr	r3, [fp, #-32]	; 0xffffffe0
    f234:	e5933004 	ldr	r3, [r3, #4]
    f238:	e2833080 	add	r3, r3, #128	; 0x80
    f23c:	e1a00003 	mov	r0, r3
    f240:	eb0002b6 	bl	fd20 <Xil_In32>
    f244:	e50b000c 	str	r0, [fp, #-12]
    f248:	e51b300c 	ldr	r3, [fp, #-12]
    f24c:	e6ff2073 	uxth	r2, r3
    f250:	e51b301c 	ldr	r3, [fp, #-28]	; 0xffffffe4
    f254:	e6ff3073 	uxth	r3, r3
    f258:	e0633002 	rsb	r3, r3, r2
    f25c:	e6ff3073 	uxth	r3, r3
    f260:	e2833001 	add	r3, r3, #1
    f264:	e6ff3073 	uxth	r3, r3
    f268:	e7ec3053 	ubfx	r3, r3, #0, #13
    f26c:	e6ff2073 	uxth	r2, r3
    f270:	e51b3008 	ldr	r3, [fp, #-8]
    f274:	e1c321b0 	strh	r2, [r3, #16]
    f278:	e51b300c 	ldr	r3, [fp, #-12]
    f27c:	e1a03823 	lsr	r3, r3, #16
    f280:	e6ff2073 	uxth	r2, r3
    f284:	e51b301c 	ldr	r3, [fp, #-28]	; 0xffffffe4
    f288:	e6ff3073 	uxth	r3, r3
    f28c:	e0633002 	rsb	r3, r3, r2
    f290:	e6ff3073 	uxth	r3, r3
    f294:	e2833001 	add	r3, r3, #1
    f298:	e6ff3073 	uxth	r3, r3
    f29c:	e7ec3053 	ubfx	r3, r3, #0, #13
    f2a0:	e6ff2073 	uxth	r2, r3
    f2a4:	e51b3008 	ldr	r3, [fp, #-8]
    f2a8:	e1c321b2 	strh	r2, [r3, #18]
    f2ac:	e51b3020 	ldr	r3, [fp, #-32]	; 0xffffffe0
    f2b0:	e5933004 	ldr	r3, [r3, #4]
    f2b4:	e2833068 	add	r3, r3, #104	; 0x68
    f2b8:	e1a00003 	mov	r0, r3
    f2bc:	eb000297 	bl	fd20 <Xil_In32>
    f2c0:	e50b000c 	str	r0, [fp, #-12]
    f2c4:	e51b300c 	ldr	r3, [fp, #-12]
    f2c8:	e2033c01 	and	r3, r3, #256	; 0x100
    f2cc:	e1a03423 	lsr	r3, r3, #8
    f2d0:	e6ff2073 	uxth	r2, r3
    f2d4:	e51b3014 	ldr	r3, [fp, #-20]	; 0xffffffec
    f2d8:	e6ff1073 	uxth	r1, r3
    f2dc:	e51b301c 	ldr	r3, [fp, #-28]	; 0xffffffe4
    f2e0:	e6ff3073 	uxth	r3, r3
    f2e4:	e0633001 	rsb	r3, r3, r1
    f2e8:	e6ff3073 	uxth	r3, r3
    f2ec:	e0823003 	add	r3, r2, r3
    f2f0:	e6ff3073 	uxth	r3, r3
    f2f4:	e7ec3053 	ubfx	r3, r3, #0, #13
    f2f8:	e6ff2073 	uxth	r2, r3
    f2fc:	e51b3008 	ldr	r3, [fp, #-8]
    f300:	e1c321b6 	strh	r2, [r3, #22]
    f304:	e51b3008 	ldr	r3, [fp, #-8]
    f308:	e3a02000 	mov	r2, #0
    f30c:	e1c320b4 	strh	r2, [r3, #4]
    f310:	e51b3008 	ldr	r3, [fp, #-8]
    f314:	e3a02000 	mov	r2, #0
    f318:	e1c320be 	strh	r2, [r3, #14]
    f31c:	ea000070 	b	f4e4 <XVtc_GetGenerator+0x530>
    f320:	e51b3020 	ldr	r3, [fp, #-32]	; 0xffffffe0
    f324:	e5933004 	ldr	r3, [r3, #4]
    f328:	e2833070 	add	r3, r3, #112	; 0x70
    f32c:	e1a00003 	mov	r0, r3
    f330:	eb00027a 	bl	fd20 <Xil_In32>
    f334:	e50b000c 	str	r0, [fp, #-12]
    f338:	e51b300c 	ldr	r3, [fp, #-12]
    f33c:	e7ec3053 	ubfx	r3, r3, #0, #13
    f340:	e50b3010 	str	r3, [fp, #-16]
    f344:	e51b3010 	ldr	r3, [fp, #-16]
    f348:	e6ff3073 	uxth	r3, r3
    f34c:	e7ec3053 	ubfx	r3, r3, #0, #13
    f350:	e6ff2073 	uxth	r2, r3
    f354:	e51b3008 	ldr	r3, [fp, #-8]
    f358:	e1c320b2 	strh	r2, [r3, #2]
    f35c:	e51b3020 	ldr	r3, [fp, #-32]	; 0xffffffe0
    f360:	e5933004 	ldr	r3, [r3, #4]
    f364:	e2833074 	add	r3, r3, #116	; 0x74
    f368:	e1a00003 	mov	r0, r3
    f36c:	eb00026b 	bl	fd20 <Xil_In32>
    f370:	e50b000c 	str	r0, [fp, #-12]
    f374:	e51b300c 	ldr	r3, [fp, #-12]
    f378:	e7ec3053 	ubfx	r3, r3, #0, #13
    f37c:	e50b3014 	str	r3, [fp, #-20]	; 0xffffffec
    f380:	e51b3014 	ldr	r3, [fp, #-20]	; 0xffffffec
    f384:	e6ff3073 	uxth	r3, r3
    f388:	e7ec3053 	ubfx	r3, r3, #0, #13
    f38c:	e6ff2073 	uxth	r2, r3
    f390:	e51b3008 	ldr	r3, [fp, #-8]
    f394:	e1c320bc 	strh	r2, [r3, #12]
    f398:	e51b3020 	ldr	r3, [fp, #-32]	; 0xffffffe0
    f39c:	e5933004 	ldr	r3, [r3, #4]
    f3a0:	e2833060 	add	r3, r3, #96	; 0x60
    f3a4:	e1a00003 	mov	r0, r3
    f3a8:	eb00025c 	bl	fd20 <Xil_In32>
    f3ac:	e50b000c 	str	r0, [fp, #-12]
    f3b0:	e51b300c 	ldr	r3, [fp, #-12]
    f3b4:	e7ec3053 	ubfx	r3, r3, #0, #13
    f3b8:	e50b3018 	str	r3, [fp, #-24]	; 0xffffffe8
    f3bc:	e51b3018 	ldr	r3, [fp, #-24]	; 0xffffffe8
    f3c0:	e6ff3073 	uxth	r3, r3
    f3c4:	e7ec3053 	ubfx	r3, r3, #0, #13
    f3c8:	e6ff2073 	uxth	r2, r3
    f3cc:	e51b3008 	ldr	r3, [fp, #-8]
    f3d0:	e1c320b4 	strh	r2, [r3, #4]
    f3d4:	e51b300c 	ldr	r3, [fp, #-12]
    f3d8:	e1a03823 	lsr	r3, r3, #16
    f3dc:	e7ec3053 	ubfx	r3, r3, #0, #13
    f3e0:	e50b301c 	str	r3, [fp, #-28]	; 0xffffffe4
    f3e4:	e51b301c 	ldr	r3, [fp, #-28]	; 0xffffffe4
    f3e8:	e6ff3073 	uxth	r3, r3
    f3ec:	e7ec3053 	ubfx	r3, r3, #0, #13
    f3f0:	e6ff2073 	uxth	r2, r3
    f3f4:	e51b3008 	ldr	r3, [fp, #-8]
    f3f8:	e1c320be 	strh	r2, [r3, #14]
    f3fc:	e51b3020 	ldr	r3, [fp, #-32]	; 0xffffffe0
    f400:	e5933004 	ldr	r3, [r3, #4]
    f404:	e2833078 	add	r3, r3, #120	; 0x78
    f408:	e1a00003 	mov	r0, r3
    f40c:	eb000243 	bl	fd20 <Xil_In32>
    f410:	e50b000c 	str	r0, [fp, #-12]
    f414:	e51b300c 	ldr	r3, [fp, #-12]
    f418:	e6ff3073 	uxth	r3, r3
    f41c:	e7ec3053 	ubfx	r3, r3, #0, #13
    f420:	e6ff2073 	uxth	r2, r3
    f424:	e51b3008 	ldr	r3, [fp, #-8]
    f428:	e1c320b6 	strh	r2, [r3, #6]
    f42c:	e51b300c 	ldr	r3, [fp, #-12]
    f430:	e1a03823 	lsr	r3, r3, #16
    f434:	e6ff3073 	uxth	r3, r3
    f438:	e7ec3053 	ubfx	r3, r3, #0, #13
    f43c:	e6ff2073 	uxth	r2, r3
    f440:	e51b3008 	ldr	r3, [fp, #-8]
    f444:	e1c320b8 	strh	r2, [r3, #8]
    f448:	e51b3020 	ldr	r3, [fp, #-32]	; 0xffffffe0
    f44c:	e5933004 	ldr	r3, [r3, #4]
    f450:	e2833080 	add	r3, r3, #128	; 0x80
    f454:	e1a00003 	mov	r0, r3
    f458:	eb000230 	bl	fd20 <Xil_In32>
    f45c:	e50b000c 	str	r0, [fp, #-12]
    f460:	e51b300c 	ldr	r3, [fp, #-12]
    f464:	e6ff3073 	uxth	r3, r3
    f468:	e7ec3053 	ubfx	r3, r3, #0, #13
    f46c:	e6ff2073 	uxth	r2, r3
    f470:	e51b3008 	ldr	r3, [fp, #-8]
    f474:	e1c321b0 	strh	r2, [r3, #16]
    f478:	e51b300c 	ldr	r3, [fp, #-12]
    f47c:	e1a03823 	lsr	r3, r3, #16
    f480:	e6ff3073 	uxth	r3, r3
    f484:	e7ec3053 	ubfx	r3, r3, #0, #13
    f488:	e6ff2073 	uxth	r2, r3
    f48c:	e51b3008 	ldr	r3, [fp, #-8]
    f490:	e1c321b2 	strh	r2, [r3, #18]
    f494:	e51b3020 	ldr	r3, [fp, #-32]	; 0xffffffe0
    f498:	e5933004 	ldr	r3, [r3, #4]
    f49c:	e2833068 	add	r3, r3, #104	; 0x68
    f4a0:	e1a00003 	mov	r0, r3
    f4a4:	eb00021d 	bl	fd20 <Xil_In32>
    f4a8:	e50b000c 	str	r0, [fp, #-12]
    f4ac:	e51b300c 	ldr	r3, [fp, #-12]
    f4b0:	e2033c01 	and	r3, r3, #256	; 0x100
    f4b4:	e1a03423 	lsr	r3, r3, #8
    f4b8:	e6ff3073 	uxth	r3, r3
    f4bc:	e7ec3053 	ubfx	r3, r3, #0, #13
    f4c0:	e6ff2073 	uxth	r2, r3
    f4c4:	e51b3008 	ldr	r3, [fp, #-8]
    f4c8:	e1c321b6 	strh	r2, [r3, #22]
    f4cc:	e51b3008 	ldr	r3, [fp, #-8]
    f4d0:	e3a02000 	mov	r2, #0
    f4d4:	e1c320ba 	strh	r2, [r3, #10]
    f4d8:	e51b3008 	ldr	r3, [fp, #-8]
    f4dc:	e3a02000 	mov	r2, #0
    f4e0:	e1c321b4 	strh	r2, [r3, #20]
    f4e4:	e24bd004 	sub	sp, fp, #4
    f4e8:	e8bd8800 	pop	{fp, pc}

0000f4ec <XVtc_GetDetector>:
    f4ec:	e92d4800 	push	{fp, lr}
    f4f0:	e28db004 	add	fp, sp, #4
    f4f4:	e24dd020 	sub	sp, sp, #32
    f4f8:	e50b0020 	str	r0, [fp, #-32]	; 0xffffffe0
    f4fc:	e50b1024 	str	r1, [fp, #-36]	; 0xffffffdc
    f500:	e51b3020 	ldr	r3, [fp, #-32]	; 0xffffffe0
    f504:	e3530000 	cmp	r3, #0
    f508:	0a00000a 	beq	f538 <XVtc_GetDetector+0x4c>
    f50c:	e30c3768 	movw	r3, #51048	; 0xc768
    f510:	e3403001 	movt	r3, #1
    f514:	e3a02000 	mov	r2, #0
    f518:	e5832000 	str	r2, [r3]
    f51c:	e51b3020 	ldr	r3, [fp, #-32]	; 0xffffffe0
    f520:	e5932008 	ldr	r2, [r3, #8]
    f524:	e3013111 	movw	r3, #4369	; 0x1111
    f528:	e3413111 	movt	r3, #4369	; 0x1111
    f52c:	e1520003 	cmp	r2, r3
    f530:	1a000011 	bne	f57c <XVtc_GetDetector+0x90>
    f534:	ea000008 	b	f55c <XVtc_GetDetector+0x70>
    f538:	e30b0c90 	movw	r0, #48272	; 0xbc90
    f53c:	e3400001 	movt	r0, #1
    f540:	e3001515 	movw	r1, #1301	; 0x515
    f544:	eb0001bc 	bl	fc3c <Xil_Assert>
    f548:	e30c3768 	movw	r3, #51048	; 0xc768
    f54c:	e3403001 	movt	r3, #1
    f550:	e3a02001 	mov	r2, #1
    f554:	e5832000 	str	r2, [r3]
    f558:	ea000131 	b	fa24 <XVtc_GetDetector+0x538>
    f55c:	e30c3768 	movw	r3, #51048	; 0xc768
    f560:	e3403001 	movt	r3, #1
    f564:	e3a02000 	mov	r2, #0
    f568:	e5832000 	str	r2, [r3]
    f56c:	e51b3024 	ldr	r3, [fp, #-36]	; 0xffffffdc
    f570:	e3530000 	cmp	r3, #0
    f574:	0a000014 	beq	f5cc <XVtc_GetDetector+0xe0>
    f578:	ea000008 	b	f5a0 <XVtc_GetDetector+0xb4>
    f57c:	e30b0c90 	movw	r0, #48272	; 0xbc90
    f580:	e3400001 	movt	r0, #1
    f584:	e3001516 	movw	r1, #1302	; 0x516
    f588:	eb0001ab 	bl	fc3c <Xil_Assert>
    f58c:	e30c3768 	movw	r3, #51048	; 0xc768
    f590:	e3403001 	movt	r3, #1
    f594:	e3a02001 	mov	r2, #1
    f598:	e5832000 	str	r2, [r3]
    f59c:	ea000120 	b	fa24 <XVtc_GetDetector+0x538>
    f5a0:	e30c3768 	movw	r3, #51048	; 0xc768
    f5a4:	e3403001 	movt	r3, #1
    f5a8:	e3a02000 	mov	r2, #0
    f5ac:	e5832000 	str	r2, [r3]
    f5b0:	e51b3024 	ldr	r3, [fp, #-36]	; 0xffffffdc
    f5b4:	e50b3008 	str	r3, [fp, #-8]
    f5b8:	e51b3008 	ldr	r3, [fp, #-8]
    f5bc:	e1d330b0 	ldrh	r3, [r3]
    f5c0:	e3530000 	cmp	r3, #0
    f5c4:	1a0000a3 	bne	f858 <XVtc_GetDetector+0x36c>
    f5c8:	ea000008 	b	f5f0 <XVtc_GetDetector+0x104>
    f5cc:	e30b0c90 	movw	r0, #48272	; 0xbc90
    f5d0:	e3400001 	movt	r0, #1
    f5d4:	e3001517 	movw	r1, #1303	; 0x517
    f5d8:	eb000197 	bl	fc3c <Xil_Assert>
    f5dc:	e30c3768 	movw	r3, #51048	; 0xc768
    f5e0:	e3403001 	movt	r3, #1
    f5e4:	e3a02001 	mov	r2, #1
    f5e8:	e5832000 	str	r2, [r3]
    f5ec:	ea00010c 	b	fa24 <XVtc_GetDetector+0x538>
    f5f0:	e51b3020 	ldr	r3, [fp, #-32]	; 0xffffffe0
    f5f4:	e5933004 	ldr	r3, [r3, #4]
    f5f8:	e2833030 	add	r3, r3, #48	; 0x30
    f5fc:	e1a00003 	mov	r0, r3
    f600:	eb0001c6 	bl	fd20 <Xil_In32>
    f604:	e50b000c 	str	r0, [fp, #-12]
    f608:	e51b300c 	ldr	r3, [fp, #-12]
    f60c:	e7ec3053 	ubfx	r3, r3, #0, #13
    f610:	e50b3010 	str	r3, [fp, #-16]
    f614:	e51b3010 	ldr	r3, [fp, #-16]
    f618:	e6ff3073 	uxth	r3, r3
    f61c:	e2433001 	sub	r3, r3, #1
    f620:	e6ff3073 	uxth	r3, r3
    f624:	e7ec3053 	ubfx	r3, r3, #0, #13
    f628:	e6ff2073 	uxth	r2, r3
    f62c:	e51b3008 	ldr	r3, [fp, #-8]
    f630:	e1c320b2 	strh	r2, [r3, #2]
    f634:	e51b3020 	ldr	r3, [fp, #-32]	; 0xffffffe0
    f638:	e5933004 	ldr	r3, [r3, #4]
    f63c:	e2833034 	add	r3, r3, #52	; 0x34
    f640:	e1a00003 	mov	r0, r3
    f644:	eb0001b5 	bl	fd20 <Xil_In32>
    f648:	e50b000c 	str	r0, [fp, #-12]
    f64c:	e51b300c 	ldr	r3, [fp, #-12]
    f650:	e7ec3053 	ubfx	r3, r3, #0, #13
    f654:	e50b3014 	str	r3, [fp, #-20]	; 0xffffffec
    f658:	e51b3014 	ldr	r3, [fp, #-20]	; 0xffffffec
    f65c:	e6ff3073 	uxth	r3, r3
    f660:	e2433001 	sub	r3, r3, #1
    f664:	e6ff3073 	uxth	r3, r3
    f668:	e7ec3053 	ubfx	r3, r3, #0, #13
    f66c:	e6ff2073 	uxth	r2, r3
    f670:	e51b3008 	ldr	r3, [fp, #-8]
    f674:	e1c320bc 	strh	r2, [r3, #12]
    f678:	e51b3020 	ldr	r3, [fp, #-32]	; 0xffffffe0
    f67c:	e5933004 	ldr	r3, [r3, #4]
    f680:	e2833020 	add	r3, r3, #32
    f684:	e1a00003 	mov	r0, r3
    f688:	eb0001a4 	bl	fd20 <Xil_In32>
    f68c:	e50b000c 	str	r0, [fp, #-12]
    f690:	e51b300c 	ldr	r3, [fp, #-12]
    f694:	e7ec3053 	ubfx	r3, r3, #0, #13
    f698:	e50b3018 	str	r3, [fp, #-24]	; 0xffffffe8
    f69c:	e51b3010 	ldr	r3, [fp, #-16]
    f6a0:	e6ff2073 	uxth	r2, r3
    f6a4:	e51b3018 	ldr	r3, [fp, #-24]	; 0xffffffe8
    f6a8:	e6ff3073 	uxth	r3, r3
    f6ac:	e0633002 	rsb	r3, r3, r2
    f6b0:	e6ff3073 	uxth	r3, r3
    f6b4:	e7ec3053 	ubfx	r3, r3, #0, #13
    f6b8:	e6ff2073 	uxth	r2, r3
    f6bc:	e51b3008 	ldr	r3, [fp, #-8]
    f6c0:	e1c320ba 	strh	r2, [r3, #10]
    f6c4:	e51b300c 	ldr	r3, [fp, #-12]
    f6c8:	e1a03823 	lsr	r3, r3, #16
    f6cc:	e7ec3053 	ubfx	r3, r3, #0, #13
    f6d0:	e50b301c 	str	r3, [fp, #-28]	; 0xffffffe4
    f6d4:	e51b3014 	ldr	r3, [fp, #-20]	; 0xffffffec
    f6d8:	e6ff2073 	uxth	r2, r3
    f6dc:	e51b301c 	ldr	r3, [fp, #-28]	; 0xffffffe4
    f6e0:	e6ff3073 	uxth	r3, r3
    f6e4:	e0633002 	rsb	r3, r3, r2
    f6e8:	e6ff3073 	uxth	r3, r3
    f6ec:	e7ec3053 	ubfx	r3, r3, #0, #13
    f6f0:	e6ff2073 	uxth	r2, r3
    f6f4:	e51b3008 	ldr	r3, [fp, #-8]
    f6f8:	e1c321b4 	strh	r2, [r3, #20]
    f6fc:	e51b3020 	ldr	r3, [fp, #-32]	; 0xffffffe0
    f700:	e5933004 	ldr	r3, [r3, #4]
    f704:	e2833038 	add	r3, r3, #56	; 0x38
    f708:	e1a00003 	mov	r0, r3
    f70c:	eb000183 	bl	fd20 <Xil_In32>
    f710:	e50b000c 	str	r0, [fp, #-12]
    f714:	e51b300c 	ldr	r3, [fp, #-12]
    f718:	e6ff2073 	uxth	r2, r3
    f71c:	e51b3018 	ldr	r3, [fp, #-24]	; 0xffffffe8
    f720:	e6ff3073 	uxth	r3, r3
    f724:	e0633002 	rsb	r3, r3, r2
    f728:	e6ff3073 	uxth	r3, r3
    f72c:	e7ec3053 	ubfx	r3, r3, #0, #13
    f730:	e6ff2073 	uxth	r2, r3
    f734:	e51b3008 	ldr	r3, [fp, #-8]
    f738:	e1c320b6 	strh	r2, [r3, #6]
    f73c:	e51b300c 	ldr	r3, [fp, #-12]
    f740:	e1a03823 	lsr	r3, r3, #16
    f744:	e6ff2073 	uxth	r2, r3
    f748:	e51b3018 	ldr	r3, [fp, #-24]	; 0xffffffe8
    f74c:	e6ff3073 	uxth	r3, r3
    f750:	e0633002 	rsb	r3, r3, r2
    f754:	e6ff3073 	uxth	r3, r3
    f758:	e7ec3053 	ubfx	r3, r3, #0, #13
    f75c:	e6ff2073 	uxth	r2, r3
    f760:	e51b3008 	ldr	r3, [fp, #-8]
    f764:	e1c320b8 	strh	r2, [r3, #8]
    f768:	e51b3020 	ldr	r3, [fp, #-32]	; 0xffffffe0
    f76c:	e5933004 	ldr	r3, [r3, #4]
    f770:	e2833040 	add	r3, r3, #64	; 0x40
    f774:	e1a00003 	mov	r0, r3
    f778:	eb000168 	bl	fd20 <Xil_In32>
    f77c:	e50b000c 	str	r0, [fp, #-12]
    f780:	e51b300c 	ldr	r3, [fp, #-12]
    f784:	e6ff2073 	uxth	r2, r3
    f788:	e51b301c 	ldr	r3, [fp, #-28]	; 0xffffffe4
    f78c:	e6ff3073 	uxth	r3, r3
    f790:	e0633002 	rsb	r3, r3, r2
    f794:	e6ff3073 	uxth	r3, r3
    f798:	e2833001 	add	r3, r3, #1
    f79c:	e6ff3073 	uxth	r3, r3
    f7a0:	e7ec3053 	ubfx	r3, r3, #0, #13
    f7a4:	e6ff2073 	uxth	r2, r3
    f7a8:	e51b3008 	ldr	r3, [fp, #-8]
    f7ac:	e1c321b0 	strh	r2, [r3, #16]
    f7b0:	e51b300c 	ldr	r3, [fp, #-12]
    f7b4:	e1a03823 	lsr	r3, r3, #16
    f7b8:	e6ff2073 	uxth	r2, r3
    f7bc:	e51b301c 	ldr	r3, [fp, #-28]	; 0xffffffe4
    f7c0:	e6ff3073 	uxth	r3, r3
    f7c4:	e0633002 	rsb	r3, r3, r2
    f7c8:	e6ff3073 	uxth	r3, r3
    f7cc:	e2833001 	add	r3, r3, #1
    f7d0:	e6ff3073 	uxth	r3, r3
    f7d4:	e7ec3053 	ubfx	r3, r3, #0, #13
    f7d8:	e6ff2073 	uxth	r2, r3
    f7dc:	e51b3008 	ldr	r3, [fp, #-8]
    f7e0:	e1c321b2 	strh	r2, [r3, #18]
    f7e4:	e51b3020 	ldr	r3, [fp, #-32]	; 0xffffffe0
    f7e8:	e5933004 	ldr	r3, [r3, #4]
    f7ec:	e2833028 	add	r3, r3, #40	; 0x28
    f7f0:	e1a00003 	mov	r0, r3
    f7f4:	eb000149 	bl	fd20 <Xil_In32>
    f7f8:	e50b000c 	str	r0, [fp, #-12]
    f7fc:	e51b300c 	ldr	r3, [fp, #-12]
    f800:	e2033c01 	and	r3, r3, #256	; 0x100
    f804:	e1a03423 	lsr	r3, r3, #8
    f808:	e6ff2073 	uxth	r2, r3
    f80c:	e51b3014 	ldr	r3, [fp, #-20]	; 0xffffffec
    f810:	e6ff1073 	uxth	r1, r3
    f814:	e51b301c 	ldr	r3, [fp, #-28]	; 0xffffffe4
    f818:	e6ff3073 	uxth	r3, r3
    f81c:	e0633001 	rsb	r3, r3, r1
    f820:	e6ff3073 	uxth	r3, r3
    f824:	e0823003 	add	r3, r2, r3
    f828:	e6ff3073 	uxth	r3, r3
    f82c:	e7ec3053 	ubfx	r3, r3, #0, #13
    f830:	e6ff2073 	uxth	r2, r3
    f834:	e51b3008 	ldr	r3, [fp, #-8]
    f838:	e1c321b6 	strh	r2, [r3, #22]
    f83c:	e51b3008 	ldr	r3, [fp, #-8]
    f840:	e3a02000 	mov	r2, #0
    f844:	e1c320b4 	strh	r2, [r3, #4]
    f848:	e51b3008 	ldr	r3, [fp, #-8]
    f84c:	e3a02000 	mov	r2, #0
    f850:	e1c320be 	strh	r2, [r3, #14]
    f854:	ea000072 	b	fa24 <XVtc_GetDetector+0x538>
    f858:	e51b3020 	ldr	r3, [fp, #-32]	; 0xffffffe0
    f85c:	e5933004 	ldr	r3, [r3, #4]
    f860:	e2833030 	add	r3, r3, #48	; 0x30
    f864:	e1a00003 	mov	r0, r3
    f868:	eb00012c 	bl	fd20 <Xil_In32>
    f86c:	e50b000c 	str	r0, [fp, #-12]
    f870:	e51b300c 	ldr	r3, [fp, #-12]
    f874:	e7ec3053 	ubfx	r3, r3, #0, #13
    f878:	e50b3010 	str	r3, [fp, #-16]
    f87c:	e51b3010 	ldr	r3, [fp, #-16]
    f880:	e6ff3073 	uxth	r3, r3
    f884:	e7ec3053 	ubfx	r3, r3, #0, #13
    f888:	e6ff2073 	uxth	r2, r3
    f88c:	e51b3008 	ldr	r3, [fp, #-8]
    f890:	e1c320b2 	strh	r2, [r3, #2]
    f894:	e51b3020 	ldr	r3, [fp, #-32]	; 0xffffffe0
    f898:	e5933004 	ldr	r3, [r3, #4]
    f89c:	e2833034 	add	r3, r3, #52	; 0x34
    f8a0:	e1a00003 	mov	r0, r3
    f8a4:	eb00011d 	bl	fd20 <Xil_In32>
    f8a8:	e50b000c 	str	r0, [fp, #-12]
    f8ac:	e51b300c 	ldr	r3, [fp, #-12]
    f8b0:	e7ec3053 	ubfx	r3, r3, #0, #13
    f8b4:	e50b3014 	str	r3, [fp, #-20]	; 0xffffffec
    f8b8:	e51b3014 	ldr	r3, [fp, #-20]	; 0xffffffec
    f8bc:	e6ff3073 	uxth	r3, r3
    f8c0:	e7ec3053 	ubfx	r3, r3, #0, #13
    f8c4:	e6ff2073 	uxth	r2, r3
    f8c8:	e51b3008 	ldr	r3, [fp, #-8]
    f8cc:	e1c320bc 	strh	r2, [r3, #12]
    f8d0:	e51b3020 	ldr	r3, [fp, #-32]	; 0xffffffe0
    f8d4:	e5933004 	ldr	r3, [r3, #4]
    f8d8:	e2833020 	add	r3, r3, #32
    f8dc:	e1a00003 	mov	r0, r3
    f8e0:	eb00010e 	bl	fd20 <Xil_In32>
    f8e4:	e50b000c 	str	r0, [fp, #-12]
    f8e8:	e51b300c 	ldr	r3, [fp, #-12]
    f8ec:	e7ec3053 	ubfx	r3, r3, #0, #13
    f8f0:	e50b3018 	str	r3, [fp, #-24]	; 0xffffffe8
    f8f4:	e51b3018 	ldr	r3, [fp, #-24]	; 0xffffffe8
    f8f8:	e6ff3073 	uxth	r3, r3
    f8fc:	e7ec3053 	ubfx	r3, r3, #0, #13
    f900:	e6ff2073 	uxth	r2, r3
    f904:	e51b3008 	ldr	r3, [fp, #-8]
    f908:	e1c320b4 	strh	r2, [r3, #4]
    f90c:	e51b300c 	ldr	r3, [fp, #-12]
    f910:	e1a03823 	lsr	r3, r3, #16
    f914:	e7ec3053 	ubfx	r3, r3, #0, #13
    f918:	e50b301c 	str	r3, [fp, #-28]	; 0xffffffe4
    f91c:	e51b301c 	ldr	r3, [fp, #-28]	; 0xffffffe4
    f920:	e6ff3073 	uxth	r3, r3
    f924:	e7ec3053 	ubfx	r3, r3, #0, #13
    f928:	e6ff2073 	uxth	r2, r3
    f92c:	e51b3008 	ldr	r3, [fp, #-8]
    f930:	e1c320be 	strh	r2, [r3, #14]
    f934:	e51b3020 	ldr	r3, [fp, #-32]	; 0xffffffe0
    f938:	e5933004 	ldr	r3, [r3, #4]
    f93c:	e2833038 	add	r3, r3, #56	; 0x38
    f940:	e1a00003 	mov	r0, r3
    f944:	eb0000f5 	bl	fd20 <Xil_In32>
    f948:	e50b000c 	str	r0, [fp, #-12]
    f94c:	e51b300c 	ldr	r3, [fp, #-12]
    f950:	e6ff3073 	uxth	r3, r3
    f954:	e7ec3053 	ubfx	r3, r3, #0, #13
    f958:	e6ff2073 	uxth	r2, r3
    f95c:	e51b3008 	ldr	r3, [fp, #-8]
    f960:	e1c320b6 	strh	r2, [r3, #6]
    f964:	e51b300c 	ldr	r3, [fp, #-12]
    f968:	e1a03823 	lsr	r3, r3, #16
    f96c:	e6ff3073 	uxth	r3, r3
    f970:	e7ec3053 	ubfx	r3, r3, #0, #13
    f974:	e6ff2073 	uxth	r2, r3
    f978:	e51b3008 	ldr	r3, [fp, #-8]
    f97c:	e1c320b8 	strh	r2, [r3, #8]
    f980:	e51b3020 	ldr	r3, [fp, #-32]	; 0xffffffe0
    f984:	e5933004 	ldr	r3, [r3, #4]
    f988:	e2833040 	add	r3, r3, #64	; 0x40
    f98c:	e1a00003 	mov	r0, r3
    f990:	eb0000e2 	bl	fd20 <Xil_In32>
    f994:	e50b000c 	str	r0, [fp, #-12]
    f998:	e51b300c 	ldr	r3, [fp, #-12]
    f99c:	e6ff3073 	uxth	r3, r3
    f9a0:	e7ec3053 	ubfx	r3, r3, #0, #13
    f9a4:	e6ff2073 	uxth	r2, r3
    f9a8:	e51b3008 	ldr	r3, [fp, #-8]
    f9ac:	e1c321b0 	strh	r2, [r3, #16]
    f9b0:	e51b300c 	ldr	r3, [fp, #-12]
    f9b4:	e1a03823 	lsr	r3, r3, #16
    f9b8:	e6ff3073 	uxth	r3, r3
    f9bc:	e7ec3053 	ubfx	r3, r3, #0, #13
    f9c0:	e6ff2073 	uxth	r2, r3
    f9c4:	e51b3008 	ldr	r3, [fp, #-8]
    f9c8:	e1c321b2 	strh	r2, [r3, #18]
    f9cc:	e51b3020 	ldr	r3, [fp, #-32]	; 0xffffffe0
    f9d0:	e5933004 	ldr	r3, [r3, #4]
    f9d4:	e2833028 	add	r3, r3, #40	; 0x28
    f9d8:	e1a00003 	mov	r0, r3
    f9dc:	eb0000cf 	bl	fd20 <Xil_In32>
    f9e0:	e50b000c 	str	r0, [fp, #-12]
    f9e4:	e51b200c 	ldr	r2, [fp, #-12]
    f9e8:	e3a03000 	mov	r3, #0
    f9ec:	e3413fff 	movt	r3, #8191	; 0x1fff
    f9f0:	e0033002 	and	r3, r3, r2
    f9f4:	e1a03823 	lsr	r3, r3, #16
    f9f8:	e6ff3073 	uxth	r3, r3
    f9fc:	e7ec3053 	ubfx	r3, r3, #0, #13
    fa00:	e6ff2073 	uxth	r2, r3
    fa04:	e51b3008 	ldr	r3, [fp, #-8]
    fa08:	e1c321b6 	strh	r2, [r3, #22]
    fa0c:	e51b3008 	ldr	r3, [fp, #-8]
    fa10:	e3a02000 	mov	r2, #0
    fa14:	e1c320ba 	strh	r2, [r3, #10]
    fa18:	e51b3008 	ldr	r3, [fp, #-8]
    fa1c:	e3a02000 	mov	r2, #0
    fa20:	e1c321b4 	strh	r2, [r3, #20]
    fa24:	e24bd004 	sub	sp, fp, #4
    fa28:	e8bd8800 	pop	{fp, pc}

0000fa2c <XVtc_GetVersion>:
    fa2c:	e92d4800 	push	{fp, lr}
    fa30:	e28db004 	add	fp, sp, #4
    fa34:	e24dd018 	sub	sp, sp, #24
    fa38:	e50b0010 	str	r0, [fp, #-16]
    fa3c:	e50b1014 	str	r1, [fp, #-20]	; 0xffffffec
    fa40:	e50b2018 	str	r2, [fp, #-24]	; 0xffffffe8
    fa44:	e50b301c 	str	r3, [fp, #-28]	; 0xffffffe4
    fa48:	e51b3010 	ldr	r3, [fp, #-16]
    fa4c:	e3530000 	cmp	r3, #0
    fa50:	0a000007 	beq	fa74 <XVtc_GetVersion+0x48>
    fa54:	e30c3768 	movw	r3, #51048	; 0xc768
    fa58:	e3403001 	movt	r3, #1
    fa5c:	e3a02000 	mov	r2, #0
    fa60:	e5832000 	str	r2, [r3]
    fa64:	e51b3014 	ldr	r3, [fp, #-20]	; 0xffffffec
    fa68:	e3530000 	cmp	r3, #0
    fa6c:	0a000011 	beq	fab8 <XVtc_GetVersion+0x8c>
    fa70:	ea000008 	b	fa98 <XVtc_GetVersion+0x6c>
    fa74:	e30b0c90 	movw	r0, #48272	; 0xbc90
    fa78:	e3400001 	movt	r0, #1
    fa7c:	e300157d 	movw	r1, #1405	; 0x57d
    fa80:	eb00006d 	bl	fc3c <Xil_Assert>
    fa84:	e30c3768 	movw	r3, #51048	; 0xc768
    fa88:	e3403001 	movt	r3, #1
    fa8c:	e3a02001 	mov	r2, #1
    fa90:	e5832000 	str	r2, [r3]
    fa94:	ea000047 	b	fbb8 <XVtc_GetVersion+0x18c>
    fa98:	e30c3768 	movw	r3, #51048	; 0xc768
    fa9c:	e3403001 	movt	r3, #1
    faa0:	e3a02000 	mov	r2, #0
    faa4:	e5832000 	str	r2, [r3]
    faa8:	e51b3018 	ldr	r3, [fp, #-24]	; 0xffffffe8
    faac:	e3530000 	cmp	r3, #0
    fab0:	0a000011 	beq	fafc <XVtc_GetVersion+0xd0>
    fab4:	ea000008 	b	fadc <XVtc_GetVersion+0xb0>
    fab8:	e30b0c90 	movw	r0, #48272	; 0xbc90
    fabc:	e3400001 	movt	r0, #1
    fac0:	e300157e 	movw	r1, #1406	; 0x57e
    fac4:	eb00005c 	bl	fc3c <Xil_Assert>
    fac8:	e30c3768 	movw	r3, #51048	; 0xc768
    facc:	e3403001 	movt	r3, #1
    fad0:	e3a02001 	mov	r2, #1
    fad4:	e5832000 	str	r2, [r3]
    fad8:	ea000036 	b	fbb8 <XVtc_GetVersion+0x18c>
    fadc:	e30c3768 	movw	r3, #51048	; 0xc768
    fae0:	e3403001 	movt	r3, #1
    fae4:	e3a02000 	mov	r2, #0
    fae8:	e5832000 	str	r2, [r3]
    faec:	e51b301c 	ldr	r3, [fp, #-28]	; 0xffffffe4
    faf0:	e3530000 	cmp	r3, #0
    faf4:	0a000026 	beq	fb94 <XVtc_GetVersion+0x168>
    faf8:	ea000008 	b	fb20 <XVtc_GetVersion+0xf4>
    fafc:	e30b0c90 	movw	r0, #48272	; 0xbc90
    fb00:	e3400001 	movt	r0, #1
    fb04:	e300157f 	movw	r1, #1407	; 0x57f
    fb08:	eb00004b 	bl	fc3c <Xil_Assert>
    fb0c:	e30c3768 	movw	r3, #51048	; 0xc768
    fb10:	e3403001 	movt	r3, #1
    fb14:	e3a02001 	mov	r2, #1
    fb18:	e5832000 	str	r2, [r3]
    fb1c:	ea000025 	b	fbb8 <XVtc_GetVersion+0x18c>
    fb20:	e30c3768 	movw	r3, #51048	; 0xc768
    fb24:	e3403001 	movt	r3, #1
    fb28:	e3a02000 	mov	r2, #0
    fb2c:	e5832000 	str	r2, [r3]
    fb30:	e51b3010 	ldr	r3, [fp, #-16]
    fb34:	e5933004 	ldr	r3, [r3, #4]
    fb38:	e2833010 	add	r3, r3, #16
    fb3c:	e1a00003 	mov	r0, r3
    fb40:	eb000076 	bl	fd20 <Xil_In32>
    fb44:	e50b0008 	str	r0, [fp, #-8]
    fb48:	e51b3008 	ldr	r3, [fp, #-8]
    fb4c:	e1a03c23 	lsr	r3, r3, #24
    fb50:	e6ff2073 	uxth	r2, r3
    fb54:	e51b3014 	ldr	r3, [fp, #-20]	; 0xffffffec
    fb58:	e1c320b0 	strh	r2, [r3]
    fb5c:	e51b3008 	ldr	r3, [fp, #-8]
    fb60:	e20338ff 	and	r3, r3, #16711680	; 0xff0000
    fb64:	e1a03823 	lsr	r3, r3, #16
    fb68:	e6ff2073 	uxth	r2, r3
    fb6c:	e51b3018 	ldr	r3, [fp, #-24]	; 0xffffffe8
    fb70:	e1c320b0 	strh	r2, [r3]
    fb74:	e51b3008 	ldr	r3, [fp, #-8]
    fb78:	e2033a0f 	and	r3, r3, #61440	; 0xf000
    fb7c:	e1a03623 	lsr	r3, r3, #12
    fb80:	e6ff2073 	uxth	r2, r3
    fb84:	e51b301c 	ldr	r3, [fp, #-28]	; 0xffffffe4
    fb88:	e1c320b0 	strh	r2, [r3]
    fb8c:	e1a00000 	nop			; (mov r0, r0)
    fb90:	ea000008 	b	fbb8 <XVtc_GetVersion+0x18c>
    fb94:	e30b0c90 	movw	r0, #48272	; 0xbc90
    fb98:	e3400001 	movt	r0, #1
    fb9c:	e3a01d16 	mov	r1, #1408	; 0x580
    fba0:	eb000025 	bl	fc3c <Xil_Assert>
    fba4:	e30c3768 	movw	r3, #51048	; 0xc768
    fba8:	e3403001 	movt	r3, #1
    fbac:	e3a02001 	mov	r2, #1
    fbb0:	e5832000 	str	r2, [r3]
    fbb4:	e1a00000 	nop			; (mov r0, r0)
    fbb8:	e24bd004 	sub	sp, fp, #4
    fbbc:	e8bd8800 	pop	{fp, pc}

0000fbc0 <StubCallBack>:
    fbc0:	e92d4800 	push	{fp, lr}
    fbc4:	e28db004 	add	fp, sp, #4
    fbc8:	e24dd008 	sub	sp, sp, #8
    fbcc:	e50b0008 	str	r0, [fp, #-8]
    fbd0:	e30b0c90 	movw	r0, #48272	; 0xbc90
    fbd4:	e3400001 	movt	r0, #1
    fbd8:	e300159e 	movw	r1, #1438	; 0x59e
    fbdc:	eb000016 	bl	fc3c <Xil_Assert>
    fbe0:	e30c3768 	movw	r3, #51048	; 0xc768
    fbe4:	e3403001 	movt	r3, #1
    fbe8:	e3a02001 	mov	r2, #1
    fbec:	e5832000 	str	r2, [r3]
    fbf0:	e1a00000 	nop			; (mov r0, r0)
    fbf4:	e24bd004 	sub	sp, fp, #4
    fbf8:	e8bd8800 	pop	{fp, pc}

0000fbfc <StubErrCallBack>:
    fbfc:	e92d4800 	push	{fp, lr}
    fc00:	e28db004 	add	fp, sp, #4
    fc04:	e24dd008 	sub	sp, sp, #8
    fc08:	e50b0008 	str	r0, [fp, #-8]
    fc0c:	e50b100c 	str	r1, [fp, #-12]
    fc10:	e30b0c90 	movw	r0, #48272	; 0xbc90
    fc14:	e3400001 	movt	r0, #1
    fc18:	e30015ab 	movw	r1, #1451	; 0x5ab
    fc1c:	eb000006 	bl	fc3c <Xil_Assert>
    fc20:	e30c3768 	movw	r3, #51048	; 0xc768
    fc24:	e3403001 	movt	r3, #1
    fc28:	e3a02001 	mov	r2, #1
    fc2c:	e5832000 	str	r2, [r3]
    fc30:	e1a00000 	nop			; (mov r0, r0)
    fc34:	e24bd004 	sub	sp, fp, #4
    fc38:	e8bd8800 	pop	{fp, pc}

0000fc3c <Xil_Assert>:
    fc3c:	e92d4800 	push	{fp, lr}
    fc40:	e28db004 	add	fp, sp, #4
    fc44:	e24dd008 	sub	sp, sp, #8
    fc48:	e50b0008 	str	r0, [fp, #-8]
    fc4c:	e50b100c 	str	r1, [fp, #-12]
    fc50:	e30c3750 	movw	r3, #51024	; 0xc750
    fc54:	e3403001 	movt	r3, #1
    fc58:	e5933000 	ldr	r3, [r3]
    fc5c:	e3530000 	cmp	r3, #0
    fc60:	0a000005 	beq	fc7c <Xil_Assert+0x40>
    fc64:	e30c3750 	movw	r3, #51024	; 0xc750
    fc68:	e3403001 	movt	r3, #1
    fc6c:	e5933000 	ldr	r3, [r3]
    fc70:	e51b0008 	ldr	r0, [fp, #-8]
    fc74:	e51b100c 	ldr	r1, [fp, #-12]
    fc78:	e12fff33 	blx	r3
    fc7c:	e1a00000 	nop			; (mov r0, r0)
    fc80:	e30c3398 	movw	r3, #50072	; 0xc398
    fc84:	e3403001 	movt	r3, #1
    fc88:	e5933000 	ldr	r3, [r3]
    fc8c:	e3530000 	cmp	r3, #0
    fc90:	1afffffa 	bne	fc80 <Xil_Assert+0x44>
    fc94:	e24bd004 	sub	sp, fp, #4
    fc98:	e8bd8800 	pop	{fp, pc}

0000fc9c <Xil_AssertSetCallback>:
    fc9c:	e52db004 	push	{fp}		; (str fp, [sp, #-4]!)
    fca0:	e28db000 	add	fp, sp, #0
    fca4:	e24dd00c 	sub	sp, sp, #12
    fca8:	e50b0008 	str	r0, [fp, #-8]
    fcac:	e30c3750 	movw	r3, #51024	; 0xc750
    fcb0:	e3403001 	movt	r3, #1
    fcb4:	e51b2008 	ldr	r2, [fp, #-8]
    fcb8:	e5832000 	str	r2, [r3]
    fcbc:	e24bd000 	sub	sp, fp, #0
    fcc0:	e49db004 	pop	{fp}		; (ldr fp, [sp], #4)
    fcc4:	e12fff1e 	bx	lr

0000fcc8 <Xil_In8>:
    fcc8:	e52db004 	push	{fp}		; (str fp, [sp, #-4]!)
    fccc:	e28db000 	add	fp, sp, #0
    fcd0:	e24dd00c 	sub	sp, sp, #12
    fcd4:	e50b0008 	str	r0, [fp, #-8]
    fcd8:	e51b3008 	ldr	r3, [fp, #-8]
    fcdc:	e5d33000 	ldrb	r3, [r3]
    fce0:	e6ef3073 	uxtb	r3, r3
    fce4:	e1a00003 	mov	r0, r3
    fce8:	e24bd000 	sub	sp, fp, #0
    fcec:	e49db004 	pop	{fp}		; (ldr fp, [sp], #4)
    fcf0:	e12fff1e 	bx	lr

0000fcf4 <Xil_In16>:
    fcf4:	e52db004 	push	{fp}		; (str fp, [sp, #-4]!)
    fcf8:	e28db000 	add	fp, sp, #0
    fcfc:	e24dd00c 	sub	sp, sp, #12
    fd00:	e50b0008 	str	r0, [fp, #-8]
    fd04:	e51b3008 	ldr	r3, [fp, #-8]
    fd08:	e1d330b0 	ldrh	r3, [r3]
    fd0c:	e6ff3073 	uxth	r3, r3
    fd10:	e1a00003 	mov	r0, r3
    fd14:	e24bd000 	sub	sp, fp, #0
    fd18:	e49db004 	pop	{fp}		; (ldr fp, [sp], #4)
    fd1c:	e12fff1e 	bx	lr

0000fd20 <Xil_In32>:
    fd20:	e52db004 	push	{fp}		; (str fp, [sp, #-4]!)
    fd24:	e28db000 	add	fp, sp, #0
    fd28:	e24dd00c 	sub	sp, sp, #12
    fd2c:	e50b0008 	str	r0, [fp, #-8]
    fd30:	e51b3008 	ldr	r3, [fp, #-8]
    fd34:	e5933000 	ldr	r3, [r3]
    fd38:	e1a00003 	mov	r0, r3
    fd3c:	e24bd000 	sub	sp, fp, #0
    fd40:	e49db004 	pop	{fp}		; (ldr fp, [sp], #4)
    fd44:	e12fff1e 	bx	lr

0000fd48 <Xil_Out8>:
    fd48:	e52db004 	push	{fp}		; (str fp, [sp, #-4]!)
    fd4c:	e28db000 	add	fp, sp, #0
    fd50:	e24dd00c 	sub	sp, sp, #12
    fd54:	e50b0008 	str	r0, [fp, #-8]
    fd58:	e1a03001 	mov	r3, r1
    fd5c:	e54b3009 	strb	r3, [fp, #-9]
    fd60:	e51b3008 	ldr	r3, [fp, #-8]
    fd64:	e55b2009 	ldrb	r2, [fp, #-9]
    fd68:	e5c32000 	strb	r2, [r3]
    fd6c:	e24bd000 	sub	sp, fp, #0
    fd70:	e49db004 	pop	{fp}		; (ldr fp, [sp], #4)
    fd74:	e12fff1e 	bx	lr

0000fd78 <Xil_Out16>:
    fd78:	e52db004 	push	{fp}		; (str fp, [sp, #-4]!)
    fd7c:	e28db000 	add	fp, sp, #0
    fd80:	e24dd00c 	sub	sp, sp, #12
    fd84:	e50b0008 	str	r0, [fp, #-8]
    fd88:	e1a03001 	mov	r3, r1
    fd8c:	e14b30ba 	strh	r3, [fp, #-10]
    fd90:	e51b3008 	ldr	r3, [fp, #-8]
    fd94:	e15b20ba 	ldrh	r2, [fp, #-10]
    fd98:	e1c320b0 	strh	r2, [r3]
    fd9c:	e24bd000 	sub	sp, fp, #0
    fda0:	e49db004 	pop	{fp}		; (ldr fp, [sp], #4)
    fda4:	e12fff1e 	bx	lr

0000fda8 <Xil_Out32>:
    fda8:	e52db004 	push	{fp}		; (str fp, [sp, #-4]!)
    fdac:	e28db000 	add	fp, sp, #0
    fdb0:	e24dd00c 	sub	sp, sp, #12
    fdb4:	e50b0008 	str	r0, [fp, #-8]
    fdb8:	e50b100c 	str	r1, [fp, #-12]
    fdbc:	e51b3008 	ldr	r3, [fp, #-8]
    fdc0:	e51b200c 	ldr	r2, [fp, #-12]
    fdc4:	e5832000 	str	r2, [r3]
    fdc8:	e24bd000 	sub	sp, fp, #0
    fdcc:	e49db004 	pop	{fp}		; (ldr fp, [sp], #4)
    fdd0:	e12fff1e 	bx	lr

0000fdd4 <Xil_In16BE>:
    fdd4:	e92d4800 	push	{fp, lr}
    fdd8:	e28db004 	add	fp, sp, #4
    fddc:	e24dd010 	sub	sp, sp, #16
    fde0:	e50b0010 	str	r0, [fp, #-16]
    fde4:	e51b0010 	ldr	r0, [fp, #-16]
    fde8:	ebffffc1 	bl	fcf4 <Xil_In16>
    fdec:	e1a03000 	mov	r3, r0
    fdf0:	e14b30b6 	strh	r3, [fp, #-6]
    fdf4:	e15b30b6 	ldrh	r3, [fp, #-6]
    fdf8:	e1a00003 	mov	r0, r3
    fdfc:	eb000031 	bl	fec8 <Xil_EndianSwap16>
    fe00:	e1a03000 	mov	r3, r0
    fe04:	e14b30b8 	strh	r3, [fp, #-8]
    fe08:	e15b30b8 	ldrh	r3, [fp, #-8]
    fe0c:	e1a00003 	mov	r0, r3
    fe10:	e24bd004 	sub	sp, fp, #4
    fe14:	e8bd8800 	pop	{fp, pc}

0000fe18 <Xil_In32BE>:
    fe18:	e92d4800 	push	{fp, lr}
    fe1c:	e28db004 	add	fp, sp, #4
    fe20:	e24dd010 	sub	sp, sp, #16
    fe24:	e50b0010 	str	r0, [fp, #-16]
    fe28:	e51b0010 	ldr	r0, [fp, #-16]
    fe2c:	ebffffbb 	bl	fd20 <Xil_In32>
    fe30:	e50b0008 	str	r0, [fp, #-8]
    fe34:	e51b0008 	ldr	r0, [fp, #-8]
    fe38:	eb000035 	bl	ff14 <Xil_EndianSwap32>
    fe3c:	e50b000c 	str	r0, [fp, #-12]
    fe40:	e51b300c 	ldr	r3, [fp, #-12]
    fe44:	e1a00003 	mov	r0, r3
    fe48:	e24bd004 	sub	sp, fp, #4
    fe4c:	e8bd8800 	pop	{fp, pc}

0000fe50 <Xil_Out16BE>:
    fe50:	e92d4800 	push	{fp, lr}
    fe54:	e28db004 	add	fp, sp, #4
    fe58:	e24dd010 	sub	sp, sp, #16
    fe5c:	e50b0010 	str	r0, [fp, #-16]
    fe60:	e1a03001 	mov	r3, r1
    fe64:	e14b31b2 	strh	r3, [fp, #-18]	; 0xffffffee
    fe68:	e15b31b2 	ldrh	r3, [fp, #-18]	; 0xffffffee
    fe6c:	e1a00003 	mov	r0, r3
    fe70:	eb000014 	bl	fec8 <Xil_EndianSwap16>
    fe74:	e1a03000 	mov	r3, r0
    fe78:	e14b30b6 	strh	r3, [fp, #-6]
    fe7c:	e15b30b6 	ldrh	r3, [fp, #-6]
    fe80:	e51b0010 	ldr	r0, [fp, #-16]
    fe84:	e1a01003 	mov	r1, r3
    fe88:	ebffffba 	bl	fd78 <Xil_Out16>
    fe8c:	e24bd004 	sub	sp, fp, #4
    fe90:	e8bd8800 	pop	{fp, pc}

0000fe94 <Xil_Out32BE>:
    fe94:	e92d4800 	push	{fp, lr}
    fe98:	e28db004 	add	fp, sp, #4
    fe9c:	e24dd010 	sub	sp, sp, #16
    fea0:	e50b0010 	str	r0, [fp, #-16]
    fea4:	e50b1014 	str	r1, [fp, #-20]	; 0xffffffec
    fea8:	e51b0014 	ldr	r0, [fp, #-20]	; 0xffffffec
    feac:	eb000018 	bl	ff14 <Xil_EndianSwap32>
    feb0:	e50b0008 	str	r0, [fp, #-8]
    feb4:	e51b0010 	ldr	r0, [fp, #-16]
    feb8:	e51b1008 	ldr	r1, [fp, #-8]
    febc:	ebffffb9 	bl	fda8 <Xil_Out32>
    fec0:	e24bd004 	sub	sp, fp, #4
    fec4:	e8bd8800 	pop	{fp, pc}

0000fec8 <Xil_EndianSwap16>:
    fec8:	e52db004 	push	{fp}		; (str fp, [sp, #-4]!)
    fecc:	e28db000 	add	fp, sp, #0
    fed0:	e24dd00c 	sub	sp, sp, #12
    fed4:	e1a03000 	mov	r3, r0
    fed8:	e14b30b6 	strh	r3, [fp, #-6]
    fedc:	e15b30b6 	ldrh	r3, [fp, #-6]
    fee0:	e1a03423 	lsr	r3, r3, #8
    fee4:	e6ff3073 	uxth	r3, r3
    fee8:	e6ff2073 	uxth	r2, r3
    feec:	e15b30b6 	ldrh	r3, [fp, #-6]
    fef0:	e1a03403 	lsl	r3, r3, #8
    fef4:	e6ff3073 	uxth	r3, r3
    fef8:	e1823003 	orr	r3, r2, r3
    fefc:	e6ff3073 	uxth	r3, r3
    ff00:	e6ff3073 	uxth	r3, r3
    ff04:	e1a00003 	mov	r0, r3
    ff08:	e24bd000 	sub	sp, fp, #0
    ff0c:	e49db004 	pop	{fp}		; (ldr fp, [sp], #4)
    ff10:	e12fff1e 	bx	lr

0000ff14 <Xil_EndianSwap32>:
    ff14:	e52db004 	push	{fp}		; (str fp, [sp, #-4]!)
    ff18:	e28db000 	add	fp, sp, #0
    ff1c:	e24dd014 	sub	sp, sp, #20
    ff20:	e50b0010 	str	r0, [fp, #-16]
    ff24:	e51b3010 	ldr	r3, [fp, #-16]
    ff28:	e14b30b6 	strh	r3, [fp, #-6]
    ff2c:	e51b3010 	ldr	r3, [fp, #-16]
    ff30:	e1a03823 	lsr	r3, r3, #16
    ff34:	e14b30b8 	strh	r3, [fp, #-8]
    ff38:	e15b30b6 	ldrh	r3, [fp, #-6]
    ff3c:	e1a03423 	lsr	r3, r3, #8
    ff40:	e6ff3073 	uxth	r3, r3
    ff44:	e6ff2073 	uxth	r2, r3
    ff48:	e15b30b6 	ldrh	r3, [fp, #-6]
    ff4c:	e1a03403 	lsl	r3, r3, #8
    ff50:	e6ff3073 	uxth	r3, r3
    ff54:	e1823003 	orr	r3, r2, r3
    ff58:	e6ff3073 	uxth	r3, r3
    ff5c:	e14b30b6 	strh	r3, [fp, #-6]
    ff60:	e15b30b8 	ldrh	r3, [fp, #-8]
    ff64:	e1a03423 	lsr	r3, r3, #8
    ff68:	e6ff3073 	uxth	r3, r3
    ff6c:	e6ff2073 	uxth	r2, r3
    ff70:	e15b30b8 	ldrh	r3, [fp, #-8]
    ff74:	e1a03403 	lsl	r3, r3, #8
    ff78:	e6ff3073 	uxth	r3, r3
    ff7c:	e1823003 	orr	r3, r2, r3
    ff80:	e6ff3073 	uxth	r3, r3
    ff84:	e14b30b8 	strh	r3, [fp, #-8]
    ff88:	e15b30b6 	ldrh	r3, [fp, #-6]
    ff8c:	e1a02803 	lsl	r2, r3, #16
    ff90:	e15b30b8 	ldrh	r3, [fp, #-8]
    ff94:	e1823003 	orr	r3, r2, r3
    ff98:	e1a00003 	mov	r0, r3
    ff9c:	e24bd000 	sub	sp, fp, #0
    ffa0:	e49db004 	pop	{fp}		; (ldr fp, [sp], #4)
    ffa4:	e12fff1e 	bx	lr

0000ffa8 <sleep>:
    ffa8:	e92d4800 	push	{fp, lr}
    ffac:	e28db004 	add	fp, sp, #4
    ffb0:	e24dd018 	sub	sp, sp, #24
    ffb4:	e50b0018 	str	r0, [fp, #-24]	; 0xffffffe8
    ffb8:	e24b3014 	sub	r3, fp, #20
    ffbc:	e1a00003 	mov	r0, r3
    ffc0:	eb00067e 	bl	119c0 <XTime_GetTime>
    ffc4:	e51b3018 	ldr	r3, [fp, #-24]	; 0xffffffe8
    ffc8:	e1a02003 	mov	r2, r3
    ffcc:	e3a03000 	mov	r3, #0
    ffd0:	e304135f 	movw	r1, #17247	; 0x435f
    ffd4:	e34113de 	movt	r1, #5086	; 0x13de
    ffd8:	e0000391 	mul	r0, r1, r3
    ffdc:	e3a01000 	mov	r1, #0
    ffe0:	e0010291 	mul	r1, r1, r2
    ffe4:	e0800001 	add	r0, r0, r1
    ffe8:	e304135f 	movw	r1, #17247	; 0x435f
    ffec:	e34113de 	movt	r1, #5086	; 0x13de
    fff0:	e0832192 	umull	r2, r3, r2, r1
    fff4:	e0801003 	add	r1, r0, r3
    fff8:	e1a03001 	mov	r3, r1
    fffc:	e14b01d4 	ldrd	r0, [fp, #-20]	; 0xffffffec
   10000:	e0922000 	adds	r2, r2, r0
   10004:	e0a33001 	adc	r3, r3, r1
   10008:	e14b20fc 	strd	r2, [fp, #-12]
   1000c:	e24b3014 	sub	r3, fp, #20
   10010:	e1a00003 	mov	r0, r3
   10014:	eb000669 	bl	119c0 <XTime_GetTime>
   10018:	e14b01d4 	ldrd	r0, [fp, #-20]	; 0xffffffec
   1001c:	e14b20dc 	ldrd	r2, [fp, #-12]
   10020:	e1510003 	cmp	r1, r3
   10024:	01500002 	cmpeq	r0, r2
   10028:	3afffff7 	bcc	1000c <sleep+0x64>
   1002c:	e3a03000 	mov	r3, #0
   10030:	e1a00003 	mov	r0, r3
   10034:	e24bd004 	sub	sp, fp, #4
   10038:	e8bd8800 	pop	{fp, pc}

0001003c <nanosleep>:
   1003c:	e52db004 	push	{fp}		; (str fp, [sp, #-4]!)
   10040:	e28db000 	add	fp, sp, #0
   10044:	e24dd00c 	sub	sp, sp, #12
   10048:	e50b0008 	str	r0, [fp, #-8]
   1004c:	e24bd000 	sub	sp, fp, #0
   10050:	e49db004 	pop	{fp}		; (ldr fp, [sp], #4)
   10054:	e12fff1e 	bx	lr

00010058 <usleep>:
   10058:	e92d4bf0 	push	{r4, r5, r6, r7, r8, r9, fp, lr}
   1005c:	e28db01c 	add	fp, sp, #28
   10060:	e24dd018 	sub	sp, sp, #24
   10064:	e50b0030 	str	r0, [fp, #-48]	; 0xffffffd0
   10068:	e24b302c 	sub	r3, fp, #44	; 0x2c
   1006c:	e1a00003 	mov	r0, r3
   10070:	eb000652 	bl	119c0 <XTime_GetTime>
   10074:	e51b3030 	ldr	r3, [fp, #-48]	; 0xffffffd0
   10078:	e1a00003 	mov	r0, r3
   1007c:	e3a01000 	mov	r1, #0
   10080:	e1a02000 	mov	r2, r0
   10084:	e1a03001 	mov	r3, r1
   10088:	e1a09103 	lsl	r9, r3, #2
   1008c:	e1899f22 	orr	r9, r9, r2, lsr #30
   10090:	e1a08102 	lsl	r8, r2, #2
   10094:	e1a02008 	mov	r2, r8
   10098:	e1a03009 	mov	r3, r9
   1009c:	e1a07183 	lsl	r7, r3, #3
   100a0:	e1877ea2 	orr	r7, r7, r2, lsr #29
   100a4:	e1a06182 	lsl	r6, r2, #3
   100a8:	e0922006 	adds	r2, r2, r6
   100ac:	e0a33007 	adc	r3, r3, r7
   100b0:	e0922000 	adds	r2, r2, r0
   100b4:	e0a33001 	adc	r3, r3, r1
   100b8:	e1a05183 	lsl	r5, r3, #3
   100bc:	e1855ea2 	orr	r5, r5, r2, lsr #29
   100c0:	e1a04182 	lsl	r4, r2, #3
   100c4:	e0920004 	adds	r0, r2, r4
   100c8:	e0a31005 	adc	r1, r3, r5
   100cc:	e14b22dc 	ldrd	r2, [fp, #-44]	; 0xffffffd4
   100d0:	e0922000 	adds	r2, r2, r0
   100d4:	e0a33001 	adc	r3, r3, r1
   100d8:	e14b22f4 	strd	r2, [fp, #-36]	; 0xffffffdc
   100dc:	e24b302c 	sub	r3, fp, #44	; 0x2c
   100e0:	e1a00003 	mov	r0, r3
   100e4:	eb000635 	bl	119c0 <XTime_GetTime>
   100e8:	e14b02dc 	ldrd	r0, [fp, #-44]	; 0xffffffd4
   100ec:	e14b22d4 	ldrd	r2, [fp, #-36]	; 0xffffffdc
   100f0:	e1510003 	cmp	r1, r3
   100f4:	01500002 	cmpeq	r0, r2
   100f8:	3afffff7 	bcc	100dc <usleep+0x84>
   100fc:	e3a03000 	mov	r3, #0
   10100:	e1a00003 	mov	r0, r3
   10104:	e24bd01c 	sub	sp, fp, #28
   10108:	e8bd8bf0 	pop	{r4, r5, r6, r7, r8, r9, fp, pc}

0001010c <XAxiVdma_GetChannel>:
   1010c:	e52db004 	push	{fp}		; (str fp, [sp, #-4]!)
   10110:	e28db000 	add	fp, sp, #0
   10114:	e24dd00c 	sub	sp, sp, #12
   10118:	e50b0008 	str	r0, [fp, #-8]
   1011c:	e1a03001 	mov	r3, r1
   10120:	e14b30ba 	strh	r3, [fp, #-10]
   10124:	e15b30ba 	ldrh	r3, [fp, #-10]
   10128:	e3530002 	cmp	r3, #2
   1012c:	1a000002 	bne	1013c <XAxiVdma_GetChannel+0x30>
   10130:	e51b3008 	ldr	r3, [fp, #-8]
   10134:	e2833060 	add	r3, r3, #96	; 0x60
   10138:	ea000006 	b	10158 <XAxiVdma_GetChannel+0x4c>
   1013c:	e15b30ba 	ldrh	r3, [fp, #-10]
   10140:	e3530001 	cmp	r3, #1
   10144:	1a000002 	bne	10154 <XAxiVdma_GetChannel+0x48>
   10148:	e51b3008 	ldr	r3, [fp, #-8]
   1014c:	e2833e4e 	add	r3, r3, #1248	; 0x4e0
   10150:	ea000000 	b	10158 <XAxiVdma_GetChannel+0x4c>
   10154:	e3a03000 	mov	r3, #0
   10158:	e1a00003 	mov	r0, r3
   1015c:	e24bd000 	sub	sp, fp, #0
   10160:	e49db004 	pop	{fp}		; (ldr fp, [sp], #4)
   10164:	e12fff1e 	bx	lr

00010168 <XAxiVdma_Major>:
   10168:	e92d4800 	push	{fp, lr}
   1016c:	e28db004 	add	fp, sp, #4
   10170:	e24dd010 	sub	sp, sp, #16
   10174:	e50b0010 	str	r0, [fp, #-16]
   10178:	e51b3010 	ldr	r3, [fp, #-16]
   1017c:	e5933000 	ldr	r3, [r3]
   10180:	e283302c 	add	r3, r3, #44	; 0x2c
   10184:	e1a00003 	mov	r0, r3
   10188:	ebfffee4 	bl	fd20 <Xil_In32>
   1018c:	e50b0008 	str	r0, [fp, #-8]
   10190:	e51b3008 	ldr	r3, [fp, #-8]
   10194:	e1a03e23 	lsr	r3, r3, #28
   10198:	e1a00003 	mov	r0, r3
   1019c:	e24bd004 	sub	sp, fp, #4
   101a0:	e8bd8800 	pop	{fp, pc}

000101a4 <XAxiVdma_CfgInitialize>:
   101a4:	e92d4800 	push	{fp, lr}
   101a8:	e28db004 	add	fp, sp, #4
   101ac:	e24dd020 	sub	sp, sp, #32
   101b0:	e50b0018 	str	r0, [fp, #-24]	; 0xffffffe8
   101b4:	e50b101c 	str	r1, [fp, #-28]	; 0xffffffe4
   101b8:	e50b2020 	str	r2, [fp, #-32]	; 0xffffffe0
   101bc:	e51b3018 	ldr	r3, [fp, #-24]	; 0xffffffe8
   101c0:	e3530000 	cmp	r3, #0
   101c4:	0a000007 	beq	101e8 <XAxiVdma_CfgInitialize+0x44>
   101c8:	e30c3768 	movw	r3, #51048	; 0xc768
   101cc:	e3403001 	movt	r3, #1
   101d0:	e3a02000 	mov	r2, #0
   101d4:	e5832000 	str	r2, [r3]
   101d8:	e51b301c 	ldr	r3, [fp, #-28]	; 0xffffffe4
   101dc:	e3530000 	cmp	r3, #0
   101e0:	0a000038 	beq	102c8 <XAxiVdma_CfgInitialize+0x124>
   101e4:	ea000009 	b	10210 <XAxiVdma_CfgInitialize+0x6c>
   101e8:	e30b0c98 	movw	r0, #48280	; 0xbc98
   101ec:	e3400001 	movt	r0, #1
   101f0:	e3a0109d 	mov	r1, #157	; 0x9d
   101f4:	ebfffe90 	bl	fc3c <Xil_Assert>
   101f8:	e30c3768 	movw	r3, #51048	; 0xc768
   101fc:	e3403001 	movt	r3, #1
   10200:	e3a02001 	mov	r2, #1
   10204:	e5832000 	str	r2, [r3]
   10208:	e3a03000 	mov	r3, #0
   1020c:	ea000167 	b	107b0 <XAxiVdma_CfgInitialize+0x60c>
   10210:	e30c3768 	movw	r3, #51048	; 0xc768
   10214:	e3403001 	movt	r3, #1
   10218:	e3a02000 	mov	r2, #0
   1021c:	e5832000 	str	r2, [r3]
   10220:	e51b3018 	ldr	r3, [fp, #-24]	; 0xffffffe8
   10224:	e3a02000 	mov	r2, #0
   10228:	e583202c 	str	r2, [r3, #44]	; 0x2c
   1022c:	e51b3018 	ldr	r3, [fp, #-24]	; 0xffffffe8
   10230:	e3a02000 	mov	r2, #0
   10234:	e5832034 	str	r2, [r3, #52]	; 0x34
   10238:	e51b3018 	ldr	r3, [fp, #-24]	; 0xffffffe8
   1023c:	e3a02000 	mov	r2, #0
   10240:	e583203c 	str	r2, [r3, #60]	; 0x3c
   10244:	e51b3018 	ldr	r3, [fp, #-24]	; 0xffffffe8
   10248:	e3a02000 	mov	r2, #0
   1024c:	e5832044 	str	r2, [r3, #68]	; 0x44
   10250:	e51b3018 	ldr	r3, [fp, #-24]	; 0xffffffe8
   10254:	e51b2020 	ldr	r2, [fp, #-32]	; 0xffffffe0
   10258:	e5832000 	str	r2, [r3]
   1025c:	e51b301c 	ldr	r3, [fp, #-28]	; 0xffffffe4
   10260:	e1d330b8 	ldrh	r3, [r3, #8]
   10264:	e1a02003 	mov	r2, r3
   10268:	e51b3018 	ldr	r3, [fp, #-24]	; 0xffffffe8
   1026c:	e583200c 	str	r2, [r3, #12]
   10270:	e51b301c 	ldr	r3, [fp, #-28]	; 0xffffffe4
   10274:	e593200c 	ldr	r2, [r3, #12]
   10278:	e51b3018 	ldr	r3, [fp, #-24]	; 0xffffffe8
   1027c:	e5832010 	str	r2, [r3, #16]
   10280:	e51b301c 	ldr	r3, [fp, #-28]	; 0xffffffe4
   10284:	e5932018 	ldr	r2, [r3, #24]
   10288:	e51b3018 	ldr	r3, [fp, #-24]	; 0xffffffe8
   1028c:	e5832018 	str	r2, [r3, #24]
   10290:	e51b301c 	ldr	r3, [fp, #-28]	; 0xffffffe4
   10294:	e593202c 	ldr	r2, [r3, #44]	; 0x2c
   10298:	e51b3018 	ldr	r3, [fp, #-24]	; 0xffffffe8
   1029c:	e5832024 	str	r2, [r3, #36]	; 0x24
   102a0:	e51b301c 	ldr	r3, [fp, #-28]	; 0xffffffe4
   102a4:	e5932044 	ldr	r2, [r3, #68]	; 0x44
   102a8:	e51b3018 	ldr	r3, [fp, #-24]	; 0xffffffe8
   102ac:	e5832028 	str	r2, [r3, #40]	; 0x28
   102b0:	e51b0018 	ldr	r0, [fp, #-24]	; 0xffffffe8
   102b4:	ebffffab 	bl	10168 <XAxiVdma_Major>
   102b8:	e1a03000 	mov	r3, r0
   102bc:	e3530002 	cmp	r3, #2
   102c0:	ca00000e 	bgt	10300 <XAxiVdma_CfgInitialize+0x15c>
   102c4:	ea000009 	b	102f0 <XAxiVdma_CfgInitialize+0x14c>
   102c8:	e30b0c98 	movw	r0, #48280	; 0xbc98
   102cc:	e3400001 	movt	r0, #1
   102d0:	e3a0109e 	mov	r1, #158	; 0x9e
   102d4:	ebfffe58 	bl	fc3c <Xil_Assert>
   102d8:	e30c3768 	movw	r3, #51048	; 0xc768
   102dc:	e3403001 	movt	r3, #1
   102e0:	e3a02001 	mov	r2, #1
   102e4:	e5832000 	str	r2, [r3]
   102e8:	e3a03000 	mov	r3, #0
   102ec:	ea00012f 	b	107b0 <XAxiVdma_CfgInitialize+0x60c>
   102f0:	e51b3018 	ldr	r3, [fp, #-24]	; 0xffffffe8
   102f4:	e3a02001 	mov	r2, #1
   102f8:	e5832004 	str	r2, [r3, #4]
   102fc:	ea000003 	b	10310 <XAxiVdma_CfgInitialize+0x16c>
   10300:	e51b301c 	ldr	r3, [fp, #-28]	; 0xffffffe4
   10304:	e5932024 	ldr	r2, [r3, #36]	; 0x24
   10308:	e51b3018 	ldr	r3, [fp, #-24]	; 0xffffffe8
   1030c:	e5832004 	str	r2, [r3, #4]
   10310:	e51b0018 	ldr	r0, [fp, #-24]	; 0xffffffe8
   10314:	e3a01002 	mov	r1, #2
   10318:	ebffff7b 	bl	1010c <XAxiVdma_GetChannel>
   1031c:	e50b000c 	str	r0, [fp, #-12]
   10320:	e51b300c 	ldr	r3, [fp, #-12]
   10324:	e3a02000 	mov	r2, #0
   10328:	e583200c 	str	r2, [r3, #12]
   1032c:	e51b0018 	ldr	r0, [fp, #-24]	; 0xffffffe8
   10330:	e3a01001 	mov	r1, #1
   10334:	ebffff74 	bl	1010c <XAxiVdma_GetChannel>
   10338:	e50b0010 	str	r0, [fp, #-16]
   1033c:	e51b3010 	ldr	r3, [fp, #-16]
   10340:	e3a02000 	mov	r2, #0
   10344:	e583200c 	str	r2, [r3, #12]
   10348:	e51b3018 	ldr	r3, [fp, #-24]	; 0xffffffe8
   1034c:	e5933010 	ldr	r3, [r3, #16]
   10350:	e3530000 	cmp	r3, #0
   10354:	0a000083 	beq	10568 <XAxiVdma_CfgInitialize+0x3c4>
   10358:	e51b3018 	ldr	r3, [fp, #-24]	; 0xffffffe8
   1035c:	e5932000 	ldr	r2, [r3]
   10360:	e51b300c 	ldr	r3, [fp, #-12]
   10364:	e5832000 	str	r2, [r3]
   10368:	e51b3018 	ldr	r3, [fp, #-24]	; 0xffffffe8
   1036c:	e5932000 	ldr	r2, [r3]
   10370:	e51b300c 	ldr	r3, [fp, #-12]
   10374:	e5832004 	str	r2, [r3, #4]
   10378:	e51b3018 	ldr	r3, [fp, #-24]	; 0xffffffe8
   1037c:	e5932004 	ldr	r2, [r3, #4]
   10380:	e51b300c 	ldr	r3, [fp, #-12]
   10384:	e5832014 	str	r2, [r3, #20]
   10388:	e51b300c 	ldr	r3, [fp, #-12]
   1038c:	e3a02001 	mov	r2, #1
   10390:	e5832018 	str	r2, [r3, #24]
   10394:	e51b3018 	ldr	r3, [fp, #-24]	; 0xffffffe8
   10398:	e5933000 	ldr	r3, [r3]
   1039c:	e2832050 	add	r2, r3, #80	; 0x50
   103a0:	e51b300c 	ldr	r3, [fp, #-12]
   103a4:	e5832008 	str	r2, [r3, #8]
   103a8:	e51b301c 	ldr	r3, [fp, #-28]	; 0xffffffe4
   103ac:	e1d330b8 	ldrh	r3, [r3, #8]
   103b0:	e1a02003 	mov	r2, r3
   103b4:	e51b300c 	ldr	r3, [fp, #-12]
   103b8:	e583202c 	str	r2, [r3, #44]	; 0x2c
   103bc:	e51b301c 	ldr	r3, [fp, #-28]	; 0xffffffe4
   103c0:	e5932030 	ldr	r2, [r3, #48]	; 0x30
   103c4:	e51b300c 	ldr	r3, [fp, #-12]
   103c8:	e5832010 	str	r2, [r3, #16]
   103cc:	e51b301c 	ldr	r3, [fp, #-28]	; 0xffffffe4
   103d0:	e5932034 	ldr	r2, [r3, #52]	; 0x34
   103d4:	e51b300c 	ldr	r3, [fp, #-12]
   103d8:	e5832020 	str	r2, [r3, #32]
   103dc:	e51b300c 	ldr	r3, [fp, #-12]
   103e0:	e5933020 	ldr	r3, [r3, #32]
   103e4:	e3530000 	cmp	r3, #0
   103e8:	da000008 	ble	10410 <XAxiVdma_CfgInitialize+0x26c>
   103ec:	e51b300c 	ldr	r3, [fp, #-12]
   103f0:	e5933000 	ldr	r3, [r3]
   103f4:	e283301c 	add	r3, r3, #28
   103f8:	e1a00003 	mov	r0, r3
   103fc:	ebfffe47 	bl	fd20 <Xil_In32>
   10400:	e1a03000 	mov	r3, r0
   10404:	e1a02003 	mov	r2, r3
   10408:	e51b300c 	ldr	r3, [fp, #-12]
   1040c:	e5832024 	str	r2, [r3, #36]	; 0x24
   10410:	e51b301c 	ldr	r3, [fp, #-28]	; 0xffffffe4
   10414:	e5932010 	ldr	r2, [r3, #16]
   10418:	e51b300c 	ldr	r3, [fp, #-12]
   1041c:	e583201c 	str	r2, [r3, #28]
   10420:	e51b301c 	ldr	r3, [fp, #-28]	; 0xffffffe4
   10424:	e5933014 	ldr	r3, [r3, #20]
   10428:	e1a021c3 	asr	r2, r3, #3
   1042c:	e51b300c 	ldr	r3, [fp, #-12]
   10430:	e5832028 	str	r2, [r3, #40]	; 0x28
   10434:	e51b301c 	ldr	r3, [fp, #-28]	; 0xffffffe4
   10438:	e593304c 	ldr	r3, [r3, #76]	; 0x4c
   1043c:	e1a021c3 	asr	r2, r3, #3
   10440:	e51b300c 	ldr	r3, [fp, #-12]
   10444:	e5832054 	str	r2, [r3, #84]	; 0x54
   10448:	e51b301c 	ldr	r3, [fp, #-28]	; 0xffffffe4
   1044c:	e593203c 	ldr	r2, [r3, #60]	; 0x3c
   10450:	e51b300c 	ldr	r3, [fp, #-12]
   10454:	e583204c 	str	r2, [r3, #76]	; 0x4c
   10458:	e51b301c 	ldr	r3, [fp, #-28]	; 0xffffffe4
   1045c:	e5933074 	ldr	r3, [r3, #116]	; 0x74
   10460:	e3530000 	cmp	r3, #0
   10464:	1a000024 	bne	104fc <XAxiVdma_CfgInitialize+0x358>
   10468:	e51b301c 	ldr	r3, [fp, #-28]	; 0xffffffe4
   1046c:	e5933054 	ldr	r3, [r3, #84]	; 0x54
   10470:	e3530000 	cmp	r3, #0
   10474:	0a000004 	beq	1048c <XAxiVdma_CfgInitialize+0x2e8>
   10478:	e51b300c 	ldr	r3, [fp, #-12]
   1047c:	e5933460 	ldr	r3, [r3, #1120]	; 0x460
   10480:	e3832001 	orr	r2, r3, #1
   10484:	e51b300c 	ldr	r3, [fp, #-12]
   10488:	e5832460 	str	r2, [r3, #1120]	; 0x460
   1048c:	e51b301c 	ldr	r3, [fp, #-28]	; 0xffffffe4
   10490:	e5933058 	ldr	r3, [r3, #88]	; 0x58
   10494:	e3530000 	cmp	r3, #0
   10498:	0a000004 	beq	104b0 <XAxiVdma_CfgInitialize+0x30c>
   1049c:	e51b300c 	ldr	r3, [fp, #-12]
   104a0:	e5933460 	ldr	r3, [r3, #1120]	; 0x460
   104a4:	e3832002 	orr	r2, r3, #2
   104a8:	e51b300c 	ldr	r3, [fp, #-12]
   104ac:	e5832460 	str	r2, [r3, #1120]	; 0x460
   104b0:	e51b301c 	ldr	r3, [fp, #-28]	; 0xffffffe4
   104b4:	e593305c 	ldr	r3, [r3, #92]	; 0x5c
   104b8:	e3530000 	cmp	r3, #0
   104bc:	0a000004 	beq	104d4 <XAxiVdma_CfgInitialize+0x330>
   104c0:	e51b300c 	ldr	r3, [fp, #-12]
   104c4:	e5933460 	ldr	r3, [r3, #1120]	; 0x460
   104c8:	e3832008 	orr	r2, r3, #8
   104cc:	e51b300c 	ldr	r3, [fp, #-12]
   104d0:	e5832460 	str	r2, [r3, #1120]	; 0x460
   104d4:	e51b301c 	ldr	r3, [fp, #-28]	; 0xffffffe4
   104d8:	e5933060 	ldr	r3, [r3, #96]	; 0x60
   104dc:	e3530000 	cmp	r3, #0
   104e0:	0a000008 	beq	10508 <XAxiVdma_CfgInitialize+0x364>
   104e4:	e51b300c 	ldr	r3, [fp, #-12]
   104e8:	e5933460 	ldr	r3, [r3, #1120]	; 0x460
   104ec:	e3832004 	orr	r2, r3, #4
   104f0:	e51b300c 	ldr	r3, [fp, #-12]
   104f4:	e5832460 	str	r2, [r3, #1120]	; 0x460
   104f8:	ea000002 	b	10508 <XAxiVdma_CfgInitialize+0x364>
   104fc:	e51b300c 	ldr	r3, [fp, #-12]
   10500:	e3a0200f 	mov	r2, #15
   10504:	e5832460 	str	r2, [r3, #1120]	; 0x460
   10508:	e51b000c 	ldr	r0, [fp, #-12]
   1050c:	eb00054c 	bl	11a44 <XAxiVdma_ChannelInit>
   10510:	e51b000c 	ldr	r0, [fp, #-12]
   10514:	eb0005b5 	bl	11bf0 <XAxiVdma_ChannelReset>
   10518:	e30836a0 	movw	r3, #34464	; 0x86a0
   1051c:	e3403001 	movt	r3, #1
   10520:	e50b3008 	str	r3, [fp, #-8]
   10524:	ea000002 	b	10534 <XAxiVdma_CfgInitialize+0x390>
   10528:	e51b3008 	ldr	r3, [fp, #-8]
   1052c:	e2433001 	sub	r3, r3, #1
   10530:	e50b3008 	str	r3, [fp, #-8]
   10534:	e51b3008 	ldr	r3, [fp, #-8]
   10538:	e3530000 	cmp	r3, #0
   1053c:	0a000004 	beq	10554 <XAxiVdma_CfgInitialize+0x3b0>
   10540:	e51b000c 	ldr	r0, [fp, #-12]
   10544:	eb00059c 	bl	11bbc <XAxiVdma_ChannelResetNotDone>
   10548:	e1a03000 	mov	r3, r0
   1054c:	e3530000 	cmp	r3, #0
   10550:	1afffff4 	bne	10528 <XAxiVdma_CfgInitialize+0x384>
   10554:	e51b3008 	ldr	r3, [fp, #-8]
   10558:	e3530000 	cmp	r3, #0
   1055c:	1a000001 	bne	10568 <XAxiVdma_CfgInitialize+0x3c4>
   10560:	e3a03001 	mov	r3, #1
   10564:	ea000091 	b	107b0 <XAxiVdma_CfgInitialize+0x60c>
   10568:	e51b3018 	ldr	r3, [fp, #-24]	; 0xffffffe8
   1056c:	e5933018 	ldr	r3, [r3, #24]
   10570:	e3530000 	cmp	r3, #0
   10574:	0a000088 	beq	1079c <XAxiVdma_CfgInitialize+0x5f8>
   10578:	e51b3018 	ldr	r3, [fp, #-24]	; 0xffffffe8
   1057c:	e5933000 	ldr	r3, [r3]
   10580:	e2832030 	add	r2, r3, #48	; 0x30
   10584:	e51b3010 	ldr	r3, [fp, #-16]
   10588:	e5832000 	str	r2, [r3]
   1058c:	e51b3018 	ldr	r3, [fp, #-24]	; 0xffffffe8
   10590:	e5932000 	ldr	r2, [r3]
   10594:	e51b3010 	ldr	r3, [fp, #-16]
   10598:	e5832004 	str	r2, [r3, #4]
   1059c:	e51b3018 	ldr	r3, [fp, #-24]	; 0xffffffe8
   105a0:	e5932004 	ldr	r2, [r3, #4]
   105a4:	e51b3010 	ldr	r3, [fp, #-16]
   105a8:	e5832014 	str	r2, [r3, #20]
   105ac:	e51b3010 	ldr	r3, [fp, #-16]
   105b0:	e3a02000 	mov	r2, #0
   105b4:	e5832018 	str	r2, [r3, #24]
   105b8:	e51b3018 	ldr	r3, [fp, #-24]	; 0xffffffe8
   105bc:	e5933000 	ldr	r3, [r3]
   105c0:	e28320a0 	add	r2, r3, #160	; 0xa0
   105c4:	e51b3010 	ldr	r3, [fp, #-16]
   105c8:	e5832008 	str	r2, [r3, #8]
   105cc:	e51b301c 	ldr	r3, [fp, #-28]	; 0xffffffe4
   105d0:	e1d330b8 	ldrh	r3, [r3, #8]
   105d4:	e1a02003 	mov	r2, r3
   105d8:	e51b3010 	ldr	r3, [fp, #-16]
   105dc:	e583202c 	str	r2, [r3, #44]	; 0x2c
   105e0:	e51b301c 	ldr	r3, [fp, #-28]	; 0xffffffe4
   105e4:	e5932030 	ldr	r2, [r3, #48]	; 0x30
   105e8:	e51b3010 	ldr	r3, [fp, #-16]
   105ec:	e5832010 	str	r2, [r3, #16]
   105f0:	e51b301c 	ldr	r3, [fp, #-28]	; 0xffffffe4
   105f4:	e5932038 	ldr	r2, [r3, #56]	; 0x38
   105f8:	e51b3010 	ldr	r3, [fp, #-16]
   105fc:	e5832020 	str	r2, [r3, #32]
   10600:	e51b3010 	ldr	r3, [fp, #-16]
   10604:	e5933020 	ldr	r3, [r3, #32]
   10608:	e3530000 	cmp	r3, #0
   1060c:	da000008 	ble	10634 <XAxiVdma_CfgInitialize+0x490>
   10610:	e51b3010 	ldr	r3, [fp, #-16]
   10614:	e5933000 	ldr	r3, [r3]
   10618:	e283301c 	add	r3, r3, #28
   1061c:	e1a00003 	mov	r0, r3
   10620:	ebfffdbe 	bl	fd20 <Xil_In32>
   10624:	e1a03000 	mov	r3, r0
   10628:	e1a02003 	mov	r2, r3
   1062c:	e51b3010 	ldr	r3, [fp, #-16]
   10630:	e5832024 	str	r2, [r3, #36]	; 0x24
   10634:	e51b301c 	ldr	r3, [fp, #-28]	; 0xffffffe4
   10638:	e593201c 	ldr	r2, [r3, #28]
   1063c:	e51b3010 	ldr	r3, [fp, #-16]
   10640:	e583201c 	str	r2, [r3, #28]
   10644:	e51b301c 	ldr	r3, [fp, #-28]	; 0xffffffe4
   10648:	e5933020 	ldr	r3, [r3, #32]
   1064c:	e1a021c3 	asr	r2, r3, #3
   10650:	e51b3010 	ldr	r3, [fp, #-16]
   10654:	e5832028 	str	r2, [r3, #40]	; 0x28
   10658:	e51b301c 	ldr	r3, [fp, #-28]	; 0xffffffe4
   1065c:	e5933050 	ldr	r3, [r3, #80]	; 0x50
   10660:	e1a021c3 	asr	r2, r3, #3
   10664:	e51b3010 	ldr	r3, [fp, #-16]
   10668:	e5832054 	str	r2, [r3, #84]	; 0x54
   1066c:	e51b301c 	ldr	r3, [fp, #-28]	; 0xffffffe4
   10670:	e5932040 	ldr	r2, [r3, #64]	; 0x40
   10674:	e51b3010 	ldr	r3, [fp, #-16]
   10678:	e583204c 	str	r2, [r3, #76]	; 0x4c
   1067c:	e51b301c 	ldr	r3, [fp, #-28]	; 0xffffffe4
   10680:	e5932048 	ldr	r2, [r3, #72]	; 0x48
   10684:	e51b3010 	ldr	r3, [fp, #-16]
   10688:	e5832050 	str	r2, [r3, #80]	; 0x50
   1068c:	e51b301c 	ldr	r3, [fp, #-28]	; 0xffffffe4
   10690:	e5933074 	ldr	r3, [r3, #116]	; 0x74
   10694:	e3530000 	cmp	r3, #0
   10698:	1a000024 	bne	10730 <XAxiVdma_CfgInitialize+0x58c>
   1069c:	e51b301c 	ldr	r3, [fp, #-28]	; 0xffffffe4
   106a0:	e5933064 	ldr	r3, [r3, #100]	; 0x64
   106a4:	e3530000 	cmp	r3, #0
   106a8:	0a000004 	beq	106c0 <XAxiVdma_CfgInitialize+0x51c>
   106ac:	e51b3010 	ldr	r3, [fp, #-16]
   106b0:	e5933460 	ldr	r3, [r3, #1120]	; 0x460
   106b4:	e3832001 	orr	r2, r3, #1
   106b8:	e51b3010 	ldr	r3, [fp, #-16]
   106bc:	e5832460 	str	r2, [r3, #1120]	; 0x460
   106c0:	e51b301c 	ldr	r3, [fp, #-28]	; 0xffffffe4
   106c4:	e5933068 	ldr	r3, [r3, #104]	; 0x68
   106c8:	e3530000 	cmp	r3, #0
   106cc:	0a000004 	beq	106e4 <XAxiVdma_CfgInitialize+0x540>
   106d0:	e51b3010 	ldr	r3, [fp, #-16]
   106d4:	e5933460 	ldr	r3, [r3, #1120]	; 0x460
   106d8:	e3832002 	orr	r2, r3, #2
   106dc:	e51b3010 	ldr	r3, [fp, #-16]
   106e0:	e5832460 	str	r2, [r3, #1120]	; 0x460
   106e4:	e51b301c 	ldr	r3, [fp, #-28]	; 0xffffffe4
   106e8:	e593306c 	ldr	r3, [r3, #108]	; 0x6c
   106ec:	e3530000 	cmp	r3, #0
   106f0:	0a000004 	beq	10708 <XAxiVdma_CfgInitialize+0x564>
   106f4:	e51b3010 	ldr	r3, [fp, #-16]
   106f8:	e5933460 	ldr	r3, [r3, #1120]	; 0x460
   106fc:	e3832008 	orr	r2, r3, #8
   10700:	e51b3010 	ldr	r3, [fp, #-16]
   10704:	e5832460 	str	r2, [r3, #1120]	; 0x460
   10708:	e51b301c 	ldr	r3, [fp, #-28]	; 0xffffffe4
   1070c:	e5933070 	ldr	r3, [r3, #112]	; 0x70
   10710:	e3530000 	cmp	r3, #0
   10714:	0a000008 	beq	1073c <XAxiVdma_CfgInitialize+0x598>
   10718:	e51b3010 	ldr	r3, [fp, #-16]
   1071c:	e5933460 	ldr	r3, [r3, #1120]	; 0x460
   10720:	e3832004 	orr	r2, r3, #4
   10724:	e51b3010 	ldr	r3, [fp, #-16]
   10728:	e5832460 	str	r2, [r3, #1120]	; 0x460
   1072c:	ea000002 	b	1073c <XAxiVdma_CfgInitialize+0x598>
   10730:	e51b3010 	ldr	r3, [fp, #-16]
   10734:	e3a0200f 	mov	r2, #15
   10738:	e5832460 	str	r2, [r3, #1120]	; 0x460
   1073c:	e51b0010 	ldr	r0, [fp, #-16]
   10740:	eb0004bf 	bl	11a44 <XAxiVdma_ChannelInit>
   10744:	e51b0010 	ldr	r0, [fp, #-16]
   10748:	eb000528 	bl	11bf0 <XAxiVdma_ChannelReset>
   1074c:	e30836a0 	movw	r3, #34464	; 0x86a0
   10750:	e3403001 	movt	r3, #1
   10754:	e50b3008 	str	r3, [fp, #-8]
   10758:	ea000002 	b	10768 <XAxiVdma_CfgInitialize+0x5c4>
   1075c:	e51b3008 	ldr	r3, [fp, #-8]
   10760:	e2433001 	sub	r3, r3, #1
   10764:	e50b3008 	str	r3, [fp, #-8]
   10768:	e51b3008 	ldr	r3, [fp, #-8]
   1076c:	e3530000 	cmp	r3, #0
   10770:	0a000004 	beq	10788 <XAxiVdma_CfgInitialize+0x5e4>
   10774:	e51b0010 	ldr	r0, [fp, #-16]
   10778:	eb00050f 	bl	11bbc <XAxiVdma_ChannelResetNotDone>
   1077c:	e1a03000 	mov	r3, r0
   10780:	e3530000 	cmp	r3, #0
   10784:	1afffff4 	bne	1075c <XAxiVdma_CfgInitialize+0x5b8>
   10788:	e51b3008 	ldr	r3, [fp, #-8]
   1078c:	e3530000 	cmp	r3, #0
   10790:	1a000001 	bne	1079c <XAxiVdma_CfgInitialize+0x5f8>
   10794:	e3a03001 	mov	r3, #1
   10798:	ea000004 	b	107b0 <XAxiVdma_CfgInitialize+0x60c>
   1079c:	e51b2018 	ldr	r2, [fp, #-24]	; 0xffffffe8
   107a0:	e3013111 	movw	r3, #4369	; 0x1111
   107a4:	e3413111 	movt	r3, #4369	; 0x1111
   107a8:	e5823008 	str	r3, [r2, #8]
   107ac:	e3a03000 	mov	r3, #0
   107b0:	e1a00003 	mov	r0, r3
   107b4:	e24bd004 	sub	sp, fp, #4
   107b8:	e8bd8800 	pop	{fp, pc}

000107bc <XAxiVdma_Reset>:
   107bc:	e92d4800 	push	{fp, lr}
   107c0:	e28db004 	add	fp, sp, #4
   107c4:	e24dd010 	sub	sp, sp, #16
   107c8:	e50b0010 	str	r0, [fp, #-16]
   107cc:	e1a03001 	mov	r3, r1
   107d0:	e14b31b2 	strh	r3, [fp, #-18]	; 0xffffffee
   107d4:	e15b31b2 	ldrh	r3, [fp, #-18]	; 0xffffffee
   107d8:	e51b0010 	ldr	r0, [fp, #-16]
   107dc:	e1a01003 	mov	r1, r3
   107e0:	ebfffe49 	bl	1010c <XAxiVdma_GetChannel>
   107e4:	e50b0008 	str	r0, [fp, #-8]
   107e8:	e51b3008 	ldr	r3, [fp, #-8]
   107ec:	e3530000 	cmp	r3, #0
   107f0:	1a000000 	bne	107f8 <XAxiVdma_Reset+0x3c>
   107f4:	ea000006 	b	10814 <XAxiVdma_Reset+0x58>
   107f8:	e51b3008 	ldr	r3, [fp, #-8]
   107fc:	e593300c 	ldr	r3, [r3, #12]
   10800:	e3530000 	cmp	r3, #0
   10804:	0a000002 	beq	10814 <XAxiVdma_Reset+0x58>
   10808:	e51b0008 	ldr	r0, [fp, #-8]
   1080c:	eb0004f7 	bl	11bf0 <XAxiVdma_ChannelReset>
   10810:	e1a00000 	nop			; (mov r0, r0)
   10814:	e24bd004 	sub	sp, fp, #4
   10818:	e8bd8800 	pop	{fp, pc}

0001081c <XAxiVdma_ResetNotDone>:
   1081c:	e92d4800 	push	{fp, lr}
   10820:	e28db004 	add	fp, sp, #4
   10824:	e24dd010 	sub	sp, sp, #16
   10828:	e50b0010 	str	r0, [fp, #-16]
   1082c:	e1a03001 	mov	r3, r1
   10830:	e14b31b2 	strh	r3, [fp, #-18]	; 0xffffffee
   10834:	e15b31b2 	ldrh	r3, [fp, #-18]	; 0xffffffee
   10838:	e51b0010 	ldr	r0, [fp, #-16]
   1083c:	e1a01003 	mov	r1, r3
   10840:	ebfffe31 	bl	1010c <XAxiVdma_GetChannel>
   10844:	e50b0008 	str	r0, [fp, #-8]
   10848:	e51b3008 	ldr	r3, [fp, #-8]
   1084c:	e3530000 	cmp	r3, #0
   10850:	1a000001 	bne	1085c <XAxiVdma_ResetNotDone+0x40>
   10854:	e3a03001 	mov	r3, #1
   10858:	ea000002 	b	10868 <XAxiVdma_ResetNotDone+0x4c>
   1085c:	e51b0008 	ldr	r0, [fp, #-8]
   10860:	eb0004d5 	bl	11bbc <XAxiVdma_ChannelResetNotDone>
   10864:	e1a03000 	mov	r3, r0
   10868:	e1a00003 	mov	r0, r3
   1086c:	e24bd004 	sub	sp, fp, #4
   10870:	e8bd8800 	pop	{fp, pc}

00010874 <XAxiVdma_IsBusy>:
   10874:	e92d4800 	push	{fp, lr}
   10878:	e28db004 	add	fp, sp, #4
   1087c:	e24dd010 	sub	sp, sp, #16
   10880:	e50b0010 	str	r0, [fp, #-16]
   10884:	e1a03001 	mov	r3, r1
   10888:	e14b31b2 	strh	r3, [fp, #-18]	; 0xffffffee
   1088c:	e15b31b2 	ldrh	r3, [fp, #-18]	; 0xffffffee
   10890:	e51b0010 	ldr	r0, [fp, #-16]
   10894:	e1a01003 	mov	r1, r3
   10898:	ebfffe1b 	bl	1010c <XAxiVdma_GetChannel>
   1089c:	e50b0008 	str	r0, [fp, #-8]
   108a0:	e51b3008 	ldr	r3, [fp, #-8]
   108a4:	e3530000 	cmp	r3, #0
   108a8:	1a000001 	bne	108b4 <XAxiVdma_IsBusy+0x40>
   108ac:	e3a03000 	mov	r3, #0
   108b0:	ea000008 	b	108d8 <XAxiVdma_IsBusy+0x64>
   108b4:	e51b3008 	ldr	r3, [fp, #-8]
   108b8:	e593300c 	ldr	r3, [r3, #12]
   108bc:	e3530000 	cmp	r3, #0
   108c0:	0a000003 	beq	108d4 <XAxiVdma_IsBusy+0x60>
   108c4:	e51b0008 	ldr	r0, [fp, #-8]
   108c8:	eb0004f5 	bl	11ca4 <XAxiVdma_ChannelIsBusy>
   108cc:	e1a03000 	mov	r3, r0
   108d0:	ea000000 	b	108d8 <XAxiVdma_IsBusy+0x64>
   108d4:	e3a03000 	mov	r3, #0
   108d8:	e1a00003 	mov	r0, r3
   108dc:	e24bd004 	sub	sp, fp, #4
   108e0:	e8bd8800 	pop	{fp, pc}

000108e4 <XAxiVdma_CurrFrameStore>:
   108e4:	e92d4800 	push	{fp, lr}
   108e8:	e28db004 	add	fp, sp, #4
   108ec:	e24dd010 	sub	sp, sp, #16
   108f0:	e50b0010 	str	r0, [fp, #-16]
   108f4:	e1a03001 	mov	r3, r1
   108f8:	e14b31b2 	strh	r3, [fp, #-18]	; 0xffffffee
   108fc:	e51b3010 	ldr	r3, [fp, #-16]
   10900:	e5933000 	ldr	r3, [r3]
   10904:	e2833028 	add	r3, r3, #40	; 0x28
   10908:	e1a00003 	mov	r0, r3
   1090c:	ebfffd03 	bl	fd20 <Xil_In32>
   10910:	e50b0008 	str	r0, [fp, #-8]
   10914:	e15b31b2 	ldrh	r3, [fp, #-18]	; 0xffffffee
   10918:	e3530002 	cmp	r3, #2
   1091c:	1a000005 	bne	10938 <XAxiVdma_CurrFrameStore+0x54>
   10920:	e51b3008 	ldr	r3, [fp, #-8]
   10924:	e203381f 	and	r3, r3, #2031616	; 0x1f0000
   10928:	e50b3008 	str	r3, [fp, #-8]
   1092c:	e51b3008 	ldr	r3, [fp, #-8]
   10930:	e1a03823 	lsr	r3, r3, #16
   10934:	ea000009 	b	10960 <XAxiVdma_CurrFrameStore+0x7c>
   10938:	e15b31b2 	ldrh	r3, [fp, #-18]	; 0xffffffee
   1093c:	e3530001 	cmp	r3, #1
   10940:	1a000005 	bne	1095c <XAxiVdma_CurrFrameStore+0x78>
   10944:	e51b3008 	ldr	r3, [fp, #-8]
   10948:	e203341f 	and	r3, r3, #520093696	; 0x1f000000
   1094c:	e50b3008 	str	r3, [fp, #-8]
   10950:	e51b3008 	ldr	r3, [fp, #-8]
   10954:	e1a03c23 	lsr	r3, r3, #24
   10958:	ea000000 	b	10960 <XAxiVdma_CurrFrameStore+0x7c>
   1095c:	e3e03000 	mvn	r3, #0
   10960:	e1a00003 	mov	r0, r3
   10964:	e24bd004 	sub	sp, fp, #4
   10968:	e8bd8800 	pop	{fp, pc}

0001096c <XAxiVdma_GetVersion>:
   1096c:	e92d4800 	push	{fp, lr}
   10970:	e28db004 	add	fp, sp, #4
   10974:	e24dd008 	sub	sp, sp, #8
   10978:	e50b0008 	str	r0, [fp, #-8]
   1097c:	e51b3008 	ldr	r3, [fp, #-8]
   10980:	e5933000 	ldr	r3, [r3]
   10984:	e283302c 	add	r3, r3, #44	; 0x2c
   10988:	e1a00003 	mov	r0, r3
   1098c:	ebfffce3 	bl	fd20 <Xil_In32>
   10990:	e1a03000 	mov	r3, r0
   10994:	e1a00003 	mov	r0, r3
   10998:	e24bd004 	sub	sp, fp, #4
   1099c:	e8bd8800 	pop	{fp, pc}

000109a0 <XAxiVdma_GetStatus>:
   109a0:	e92d4800 	push	{fp, lr}
   109a4:	e28db004 	add	fp, sp, #4
   109a8:	e24dd010 	sub	sp, sp, #16
   109ac:	e50b0010 	str	r0, [fp, #-16]
   109b0:	e1a03001 	mov	r3, r1
   109b4:	e14b31b2 	strh	r3, [fp, #-18]	; 0xffffffee
   109b8:	e15b31b2 	ldrh	r3, [fp, #-18]	; 0xffffffee
   109bc:	e51b0010 	ldr	r0, [fp, #-16]
   109c0:	e1a01003 	mov	r1, r3
   109c4:	ebfffdd0 	bl	1010c <XAxiVdma_GetChannel>
   109c8:	e50b0008 	str	r0, [fp, #-8]
   109cc:	e51b3008 	ldr	r3, [fp, #-8]
   109d0:	e3530000 	cmp	r3, #0
   109d4:	1a000001 	bne	109e0 <XAxiVdma_GetStatus+0x40>
   109d8:	e3e03000 	mvn	r3, #0
   109dc:	ea000008 	b	10a04 <XAxiVdma_GetStatus+0x64>
   109e0:	e51b3008 	ldr	r3, [fp, #-8]
   109e4:	e593300c 	ldr	r3, [r3, #12]
   109e8:	e3530000 	cmp	r3, #0
   109ec:	0a000003 	beq	10a00 <XAxiVdma_GetStatus+0x60>
   109f0:	e51b0008 	ldr	r0, [fp, #-8]
   109f4:	eb0004f1 	bl	11dc0 <XAxiVdma_ChannelGetStatus>
   109f8:	e1a03000 	mov	r3, r0
   109fc:	ea000000 	b	10a04 <XAxiVdma_GetStatus+0x64>
   10a00:	e3e03000 	mvn	r3, #0
   10a04:	e1a00003 	mov	r0, r3
   10a08:	e24bd004 	sub	sp, fp, #4
   10a0c:	e8bd8800 	pop	{fp, pc}

00010a10 <XAxiVdma_SetLineBufThreshold>:
   10a10:	e92d4800 	push	{fp, lr}
   10a14:	e28db004 	add	fp, sp, #4
   10a18:	e24dd018 	sub	sp, sp, #24
   10a1c:	e50b0010 	str	r0, [fp, #-16]
   10a20:	e50b1014 	str	r1, [fp, #-20]	; 0xffffffec
   10a24:	e1a03002 	mov	r3, r2
   10a28:	e14b31b6 	strh	r3, [fp, #-22]	; 0xffffffea
   10a2c:	e15b31b6 	ldrh	r3, [fp, #-22]	; 0xffffffea
   10a30:	e51b0010 	ldr	r0, [fp, #-16]
   10a34:	e1a01003 	mov	r1, r3
   10a38:	ebfffdb3 	bl	1010c <XAxiVdma_GetChannel>
   10a3c:	e50b0008 	str	r0, [fp, #-8]
   10a40:	e51b3008 	ldr	r3, [fp, #-8]
   10a44:	e5933460 	ldr	r3, [r3, #1120]	; 0x460
   10a48:	e2033001 	and	r3, r3, #1
   10a4c:	e3530000 	cmp	r3, #0
   10a50:	1a000001 	bne	10a5c <XAxiVdma_SetLineBufThreshold+0x4c>
   10a54:	e3a03013 	mov	r3, #19
   10a58:	ea00001d 	b	10ad4 <XAxiVdma_SetLineBufThreshold+0xc4>
   10a5c:	e51b3008 	ldr	r3, [fp, #-8]
   10a60:	e5933024 	ldr	r3, [r3, #36]	; 0x24
   10a64:	e3530000 	cmp	r3, #0
   10a68:	0a000018 	beq	10ad0 <XAxiVdma_SetLineBufThreshold+0xc0>
   10a6c:	e51b3008 	ldr	r3, [fp, #-8]
   10a70:	e5932020 	ldr	r2, [r3, #32]
   10a74:	e51b3014 	ldr	r3, [fp, #-20]	; 0xffffffec
   10a78:	e1520003 	cmp	r2, r3
   10a7c:	da000011 	ble	10ac8 <XAxiVdma_SetLineBufThreshold+0xb8>
   10a80:	e51b3008 	ldr	r3, [fp, #-8]
   10a84:	e5933054 	ldr	r3, [r3, #84]	; 0x54
   10a88:	e51b2014 	ldr	r2, [fp, #-20]	; 0xffffffec
   10a8c:	e1a00002 	mov	r0, r2
   10a90:	e1a01003 	mov	r1, r3
   10a94:	eb002958 	bl	1affc <__aeabi_idivmod>
   10a98:	e1a03001 	mov	r3, r1
   10a9c:	e3530000 	cmp	r3, #0
   10aa0:	1a000008 	bne	10ac8 <XAxiVdma_SetLineBufThreshold+0xb8>
   10aa4:	e51b3008 	ldr	r3, [fp, #-8]
   10aa8:	e5933000 	ldr	r3, [r3]
   10aac:	e283201c 	add	r2, r3, #28
   10ab0:	e51b3014 	ldr	r3, [fp, #-20]	; 0xffffffec
   10ab4:	e1a00002 	mov	r0, r2
   10ab8:	e1a01003 	mov	r1, r3
   10abc:	ebfffcb9 	bl	fda8 <Xil_Out32>
   10ac0:	e3a03000 	mov	r3, #0
   10ac4:	ea000002 	b	10ad4 <XAxiVdma_SetLineBufThreshold+0xc4>
   10ac8:	e3a03001 	mov	r3, #1
   10acc:	ea000000 	b	10ad4 <XAxiVdma_SetLineBufThreshold+0xc4>
   10ad0:	e3a03001 	mov	r3, #1
   10ad4:	e1a00003 	mov	r0, r3
   10ad8:	e24bd004 	sub	sp, fp, #4
   10adc:	e8bd8800 	pop	{fp, pc}

00010ae0 <XAxiVdma_FsyncSrcSelect>:
   10ae0:	e92d4800 	push	{fp, lr}
   10ae4:	e28db004 	add	fp, sp, #4
   10ae8:	e24dd020 	sub	sp, sp, #32
   10aec:	e50b0018 	str	r0, [fp, #-24]	; 0xffffffe8
   10af0:	e50b101c 	str	r1, [fp, #-28]	; 0xffffffe4
   10af4:	e1a03002 	mov	r3, r2
   10af8:	e14b31be 	strh	r3, [fp, #-30]	; 0xffffffe2
   10afc:	e15b31be 	ldrh	r3, [fp, #-30]	; 0xffffffe2
   10b00:	e51b0018 	ldr	r0, [fp, #-24]	; 0xffffffe8
   10b04:	e1a01003 	mov	r1, r3
   10b08:	ebfffd7f 	bl	1010c <XAxiVdma_GetChannel>
   10b0c:	e50b0010 	str	r0, [fp, #-16]
   10b10:	e15b31be 	ldrh	r3, [fp, #-30]	; 0xffffffe2
   10b14:	e3530001 	cmp	r3, #1
   10b18:	1a00000c 	bne	10b50 <XAxiVdma_FsyncSrcSelect+0x70>
   10b1c:	e51b3018 	ldr	r3, [fp, #-24]	; 0xffffffe8
   10b20:	e5933024 	ldr	r3, [r3, #36]	; 0x24
   10b24:	e3530001 	cmp	r3, #1
   10b28:	0a000003 	beq	10b3c <XAxiVdma_FsyncSrcSelect+0x5c>
   10b2c:	e51b3018 	ldr	r3, [fp, #-24]	; 0xffffffe8
   10b30:	e5933024 	ldr	r3, [r3, #36]	; 0x24
   10b34:	e3530003 	cmp	r3, #3
   10b38:	1a000001 	bne	10b44 <XAxiVdma_FsyncSrcSelect+0x64>
   10b3c:	e3a03001 	mov	r3, #1
   10b40:	ea000000 	b	10b48 <XAxiVdma_FsyncSrcSelect+0x68>
   10b44:	e3a03000 	mov	r3, #0
   10b48:	e50b300c 	str	r3, [fp, #-12]
   10b4c:	ea00000b 	b	10b80 <XAxiVdma_FsyncSrcSelect+0xa0>
   10b50:	e51b3018 	ldr	r3, [fp, #-24]	; 0xffffffe8
   10b54:	e5933024 	ldr	r3, [r3, #36]	; 0x24
   10b58:	e3530001 	cmp	r3, #1
   10b5c:	0a000003 	beq	10b70 <XAxiVdma_FsyncSrcSelect+0x90>
   10b60:	e51b3018 	ldr	r3, [fp, #-24]	; 0xffffffe8
   10b64:	e5933024 	ldr	r3, [r3, #36]	; 0x24
   10b68:	e3530002 	cmp	r3, #2
   10b6c:	1a000001 	bne	10b78 <XAxiVdma_FsyncSrcSelect+0x98>
   10b70:	e3a03001 	mov	r3, #1
   10b74:	ea000000 	b	10b7c <XAxiVdma_FsyncSrcSelect+0x9c>
   10b78:	e3a03000 	mov	r3, #0
   10b7c:	e50b300c 	str	r3, [fp, #-12]
   10b80:	e51b300c 	ldr	r3, [fp, #-12]
   10b84:	e3530000 	cmp	r3, #0
   10b88:	0a000025 	beq	10c24 <XAxiVdma_FsyncSrcSelect+0x144>
   10b8c:	e51b3010 	ldr	r3, [fp, #-16]
   10b90:	e5933000 	ldr	r3, [r3]
   10b94:	e1a00003 	mov	r0, r3
   10b98:	ebfffc60 	bl	fd20 <Xil_In32>
   10b9c:	e50b0008 	str	r0, [fp, #-8]
   10ba0:	e51b301c 	ldr	r3, [fp, #-28]	; 0xffffffe4
   10ba4:	e3530001 	cmp	r3, #1
   10ba8:	0a000008 	beq	10bd0 <XAxiVdma_FsyncSrcSelect+0xf0>
   10bac:	e3530001 	cmp	r3, #1
   10bb0:	3a000002 	bcc	10bc0 <XAxiVdma_FsyncSrcSelect+0xe0>
   10bb4:	e3530002 	cmp	r3, #2
   10bb8:	0a000008 	beq	10be0 <XAxiVdma_FsyncSrcSelect+0x100>
   10bbc:	ea000011 	b	10c08 <XAxiVdma_FsyncSrcSelect+0x128>
   10bc0:	e51b3008 	ldr	r3, [fp, #-8]
   10bc4:	e3c33060 	bic	r3, r3, #96	; 0x60
   10bc8:	e50b3008 	str	r3, [fp, #-8]
   10bcc:	ea00000d 	b	10c08 <XAxiVdma_FsyncSrcSelect+0x128>
   10bd0:	e51b3008 	ldr	r3, [fp, #-8]
   10bd4:	e3833020 	orr	r3, r3, #32
   10bd8:	e50b3008 	str	r3, [fp, #-8]
   10bdc:	ea000009 	b	10c08 <XAxiVdma_FsyncSrcSelect+0x128>
   10be0:	e51b3010 	ldr	r3, [fp, #-16]
   10be4:	e5933050 	ldr	r3, [r3, #80]	; 0x50
   10be8:	e3530000 	cmp	r3, #0
   10bec:	0a000003 	beq	10c00 <XAxiVdma_FsyncSrcSelect+0x120>
   10bf0:	e51b3008 	ldr	r3, [fp, #-8]
   10bf4:	e3833040 	orr	r3, r3, #64	; 0x40
   10bf8:	e50b3008 	str	r3, [fp, #-8]
   10bfc:	ea000001 	b	10c08 <XAxiVdma_FsyncSrcSelect+0x128>
   10c00:	e3a03001 	mov	r3, #1
   10c04:	ea000007 	b	10c28 <XAxiVdma_FsyncSrcSelect+0x148>
   10c08:	e51b3010 	ldr	r3, [fp, #-16]
   10c0c:	e5933000 	ldr	r3, [r3]
   10c10:	e1a00003 	mov	r0, r3
   10c14:	e51b1008 	ldr	r1, [fp, #-8]
   10c18:	ebfffc62 	bl	fda8 <Xil_Out32>
   10c1c:	e3a03000 	mov	r3, #0
   10c20:	ea000000 	b	10c28 <XAxiVdma_FsyncSrcSelect+0x148>
   10c24:	e3a03001 	mov	r3, #1
   10c28:	e1a00003 	mov	r0, r3
   10c2c:	e24bd004 	sub	sp, fp, #4
   10c30:	e8bd8800 	pop	{fp, pc}

00010c34 <XAxiVdma_GenLockSourceSelect>:
   10c34:	e92d4800 	push	{fp, lr}
   10c38:	e28db004 	add	fp, sp, #4
   10c3c:	e24dd020 	sub	sp, sp, #32
   10c40:	e50b0018 	str	r0, [fp, #-24]	; 0xffffffe8
   10c44:	e50b101c 	str	r1, [fp, #-28]	; 0xffffffe4
   10c48:	e1a03002 	mov	r3, r2
   10c4c:	e14b31be 	strh	r3, [fp, #-30]	; 0xffffffe2
   10c50:	e51b3018 	ldr	r3, [fp, #-24]	; 0xffffffe8
   10c54:	e5933010 	ldr	r3, [r3, #16]
   10c58:	e3530000 	cmp	r3, #0
   10c5c:	0a000059 	beq	10dc8 <XAxiVdma_GenLockSourceSelect+0x194>
   10c60:	e51b3018 	ldr	r3, [fp, #-24]	; 0xffffffe8
   10c64:	e5933018 	ldr	r3, [r3, #24]
   10c68:	e3530000 	cmp	r3, #0
   10c6c:	0a000055 	beq	10dc8 <XAxiVdma_GenLockSourceSelect+0x194>
   10c70:	e51b3018 	ldr	r3, [fp, #-24]	; 0xffffffe8
   10c74:	e5933028 	ldr	r3, [r3, #40]	; 0x28
   10c78:	e3530000 	cmp	r3, #0
   10c7c:	0a000051 	beq	10dc8 <XAxiVdma_GenLockSourceSelect+0x194>
   10c80:	e15b31be 	ldrh	r3, [fp, #-30]	; 0xffffffe2
   10c84:	e3530001 	cmp	r3, #1
   10c88:	1a000009 	bne	10cb4 <XAxiVdma_GenLockSourceSelect+0x80>
   10c8c:	e15b31be 	ldrh	r3, [fp, #-30]	; 0xffffffe2
   10c90:	e51b0018 	ldr	r0, [fp, #-24]	; 0xffffffe8
   10c94:	e1a01003 	mov	r1, r3
   10c98:	ebfffd1b 	bl	1010c <XAxiVdma_GetChannel>
   10c9c:	e50b0008 	str	r0, [fp, #-8]
   10ca0:	e51b0018 	ldr	r0, [fp, #-24]	; 0xffffffe8
   10ca4:	e3a01002 	mov	r1, #2
   10ca8:	ebfffd17 	bl	1010c <XAxiVdma_GetChannel>
   10cac:	e50b000c 	str	r0, [fp, #-12]
   10cb0:	ea000008 	b	10cd8 <XAxiVdma_GenLockSourceSelect+0xa4>
   10cb4:	e15b31be 	ldrh	r3, [fp, #-30]	; 0xffffffe2
   10cb8:	e51b0018 	ldr	r0, [fp, #-24]	; 0xffffffe8
   10cbc:	e1a01003 	mov	r1, r3
   10cc0:	ebfffd11 	bl	1010c <XAxiVdma_GetChannel>
   10cc4:	e50b0008 	str	r0, [fp, #-8]
   10cc8:	e51b0018 	ldr	r0, [fp, #-24]	; 0xffffffe8
   10ccc:	e3a01001 	mov	r1, #1
   10cd0:	ebfffd0d 	bl	1010c <XAxiVdma_GetChannel>
   10cd4:	e50b000c 	str	r0, [fp, #-12]
   10cd8:	e51b3008 	ldr	r3, [fp, #-8]
   10cdc:	e593304c 	ldr	r3, [r3, #76]	; 0x4c
   10ce0:	e3530000 	cmp	r3, #0
   10ce4:	1a000003 	bne	10cf8 <XAxiVdma_GenLockSourceSelect+0xc4>
   10ce8:	e51b300c 	ldr	r3, [fp, #-12]
   10cec:	e593304c 	ldr	r3, [r3, #76]	; 0x4c
   10cf0:	e3530001 	cmp	r3, #1
   10cf4:	0a000017 	beq	10d58 <XAxiVdma_GenLockSourceSelect+0x124>
   10cf8:	e51b3008 	ldr	r3, [fp, #-8]
   10cfc:	e593304c 	ldr	r3, [r3, #76]	; 0x4c
   10d00:	e3530001 	cmp	r3, #1
   10d04:	1a000003 	bne	10d18 <XAxiVdma_GenLockSourceSelect+0xe4>
   10d08:	e51b300c 	ldr	r3, [fp, #-12]
   10d0c:	e593304c 	ldr	r3, [r3, #76]	; 0x4c
   10d10:	e3530000 	cmp	r3, #0
   10d14:	0a00000f 	beq	10d58 <XAxiVdma_GenLockSourceSelect+0x124>
   10d18:	e51b3008 	ldr	r3, [fp, #-8]
   10d1c:	e593304c 	ldr	r3, [r3, #76]	; 0x4c
   10d20:	e3530002 	cmp	r3, #2
   10d24:	1a000003 	bne	10d38 <XAxiVdma_GenLockSourceSelect+0x104>
   10d28:	e51b300c 	ldr	r3, [fp, #-12]
   10d2c:	e593304c 	ldr	r3, [r3, #76]	; 0x4c
   10d30:	e3530003 	cmp	r3, #3
   10d34:	0a000007 	beq	10d58 <XAxiVdma_GenLockSourceSelect+0x124>
   10d38:	e51b3008 	ldr	r3, [fp, #-8]
   10d3c:	e593304c 	ldr	r3, [r3, #76]	; 0x4c
   10d40:	e3530003 	cmp	r3, #3
   10d44:	1a00001f 	bne	10dc8 <XAxiVdma_GenLockSourceSelect+0x194>
   10d48:	e51b300c 	ldr	r3, [fp, #-12]
   10d4c:	e593304c 	ldr	r3, [r3, #76]	; 0x4c
   10d50:	e3530002 	cmp	r3, #2
   10d54:	1a00001b 	bne	10dc8 <XAxiVdma_GenLockSourceSelect+0x194>
   10d58:	e51b3008 	ldr	r3, [fp, #-8]
   10d5c:	e5933000 	ldr	r3, [r3]
   10d60:	e1a00003 	mov	r0, r3
   10d64:	ebfffbed 	bl	fd20 <Xil_In32>
   10d68:	e50b0010 	str	r0, [fp, #-16]
   10d6c:	e51b301c 	ldr	r3, [fp, #-28]	; 0xffffffe4
   10d70:	e3530001 	cmp	r3, #1
   10d74:	1a000003 	bne	10d88 <XAxiVdma_GenLockSourceSelect+0x154>
   10d78:	e51b3010 	ldr	r3, [fp, #-16]
   10d7c:	e3833080 	orr	r3, r3, #128	; 0x80
   10d80:	e50b3010 	str	r3, [fp, #-16]
   10d84:	ea000008 	b	10dac <XAxiVdma_GenLockSourceSelect+0x178>
   10d88:	e51b301c 	ldr	r3, [fp, #-28]	; 0xffffffe4
   10d8c:	e3530000 	cmp	r3, #0
   10d90:	1a000003 	bne	10da4 <XAxiVdma_GenLockSourceSelect+0x170>
   10d94:	e51b3010 	ldr	r3, [fp, #-16]
   10d98:	e3c33080 	bic	r3, r3, #128	; 0x80
   10d9c:	e50b3010 	str	r3, [fp, #-16]
   10da0:	ea000001 	b	10dac <XAxiVdma_GenLockSourceSelect+0x178>
   10da4:	e3a03001 	mov	r3, #1
   10da8:	ea000007 	b	10dcc <XAxiVdma_GenLockSourceSelect+0x198>
   10dac:	e51b3008 	ldr	r3, [fp, #-8]
   10db0:	e5933000 	ldr	r3, [r3]
   10db4:	e1a00003 	mov	r0, r3
   10db8:	e51b1010 	ldr	r1, [fp, #-16]
   10dbc:	ebfffbf9 	bl	fda8 <Xil_Out32>
   10dc0:	e3a03000 	mov	r3, #0
   10dc4:	ea000000 	b	10dcc <XAxiVdma_GenLockSourceSelect+0x198>
   10dc8:	e3a03001 	mov	r3, #1
   10dcc:	e1a00003 	mov	r0, r3
   10dd0:	e24bd004 	sub	sp, fp, #4
   10dd4:	e8bd8800 	pop	{fp, pc}

00010dd8 <XAxiVdma_StartParking>:
   10dd8:	e92d4800 	push	{fp, lr}
   10ddc:	e28db004 	add	fp, sp, #4
   10de0:	e24dd020 	sub	sp, sp, #32
   10de4:	e50b0018 	str	r0, [fp, #-24]	; 0xffffffe8
   10de8:	e50b101c 	str	r1, [fp, #-28]	; 0xffffffe4
   10dec:	e1a03002 	mov	r3, r2
   10df0:	e14b31be 	strh	r3, [fp, #-30]	; 0xffffffe2
   10df4:	e51b301c 	ldr	r3, [fp, #-28]	; 0xffffffe4
   10df8:	e353000f 	cmp	r3, #15
   10dfc:	da000001 	ble	10e08 <XAxiVdma_StartParking+0x30>
   10e00:	e3a0300f 	mov	r3, #15
   10e04:	ea00004a 	b	10f34 <XAxiVdma_StartParking+0x15c>
   10e08:	e15b31be 	ldrh	r3, [fp, #-30]	; 0xffffffe2
   10e0c:	e3530002 	cmp	r3, #2
   10e10:	1a000016 	bne	10e70 <XAxiVdma_StartParking+0x98>
   10e14:	e51b301c 	ldr	r3, [fp, #-28]	; 0xffffffe4
   10e18:	e203301f 	and	r3, r3, #31
   10e1c:	e50b3008 	str	r3, [fp, #-8]
   10e20:	e51b3018 	ldr	r3, [fp, #-24]	; 0xffffffe8
   10e24:	e5933000 	ldr	r3, [r3]
   10e28:	e2833028 	add	r3, r3, #40	; 0x28
   10e2c:	e1a00003 	mov	r0, r3
   10e30:	ebfffbba 	bl	fd20 <Xil_In32>
   10e34:	e50b000c 	str	r0, [fp, #-12]
   10e38:	e51b300c 	ldr	r3, [fp, #-12]
   10e3c:	e3c3301f 	bic	r3, r3, #31
   10e40:	e50b300c 	str	r3, [fp, #-12]
   10e44:	e51b200c 	ldr	r2, [fp, #-12]
   10e48:	e51b3008 	ldr	r3, [fp, #-8]
   10e4c:	e1823003 	orr	r3, r2, r3
   10e50:	e50b300c 	str	r3, [fp, #-12]
   10e54:	e51b3018 	ldr	r3, [fp, #-24]	; 0xffffffe8
   10e58:	e5933000 	ldr	r3, [r3]
   10e5c:	e2833028 	add	r3, r3, #40	; 0x28
   10e60:	e1a00003 	mov	r0, r3
   10e64:	e51b100c 	ldr	r1, [fp, #-12]
   10e68:	ebfffbce 	bl	fda8 <Xil_Out32>
   10e6c:	ea00001e 	b	10eec <XAxiVdma_StartParking+0x114>
   10e70:	e15b31be 	ldrh	r3, [fp, #-30]	; 0xffffffe2
   10e74:	e3530001 	cmp	r3, #1
   10e78:	1a000019 	bne	10ee4 <XAxiVdma_StartParking+0x10c>
   10e7c:	e51b301c 	ldr	r3, [fp, #-28]	; 0xffffffe4
   10e80:	e1a03403 	lsl	r3, r3, #8
   10e84:	e50b3008 	str	r3, [fp, #-8]
   10e88:	e51b3008 	ldr	r3, [fp, #-8]
   10e8c:	e2033c1f 	and	r3, r3, #7936	; 0x1f00
   10e90:	e50b3008 	str	r3, [fp, #-8]
   10e94:	e51b3018 	ldr	r3, [fp, #-24]	; 0xffffffe8
   10e98:	e5933000 	ldr	r3, [r3]
   10e9c:	e2833028 	add	r3, r3, #40	; 0x28
   10ea0:	e1a00003 	mov	r0, r3
   10ea4:	ebfffb9d 	bl	fd20 <Xil_In32>
   10ea8:	e50b000c 	str	r0, [fp, #-12]
   10eac:	e51b300c 	ldr	r3, [fp, #-12]
   10eb0:	e3c33c1f 	bic	r3, r3, #7936	; 0x1f00
   10eb4:	e50b300c 	str	r3, [fp, #-12]
   10eb8:	e51b200c 	ldr	r2, [fp, #-12]
   10ebc:	e51b3008 	ldr	r3, [fp, #-8]
   10ec0:	e1823003 	orr	r3, r2, r3
   10ec4:	e50b300c 	str	r3, [fp, #-12]
   10ec8:	e51b3018 	ldr	r3, [fp, #-24]	; 0xffffffe8
   10ecc:	e5933000 	ldr	r3, [r3]
   10ed0:	e2833028 	add	r3, r3, #40	; 0x28
   10ed4:	e1a00003 	mov	r0, r3
   10ed8:	e51b100c 	ldr	r1, [fp, #-12]
   10edc:	ebfffbb1 	bl	fda8 <Xil_Out32>
   10ee0:	ea000001 	b	10eec <XAxiVdma_StartParking+0x114>
   10ee4:	e3a0300f 	mov	r3, #15
   10ee8:	ea000011 	b	10f34 <XAxiVdma_StartParking+0x15c>
   10eec:	e15b31be 	ldrh	r3, [fp, #-30]	; 0xffffffe2
   10ef0:	e51b0018 	ldr	r0, [fp, #-24]	; 0xffffffe8
   10ef4:	e1a01003 	mov	r1, r3
   10ef8:	ebfffc83 	bl	1010c <XAxiVdma_GetChannel>
   10efc:	e50b0010 	str	r0, [fp, #-16]
   10f00:	e51b3010 	ldr	r3, [fp, #-16]
   10f04:	e593300c 	ldr	r3, [r3, #12]
   10f08:	e3530000 	cmp	r3, #0
   10f0c:	0a000007 	beq	10f30 <XAxiVdma_StartParking+0x158>
   10f10:	e51b0010 	ldr	r0, [fp, #-16]
   10f14:	eb0003b6 	bl	11df4 <XAxiVdma_ChannelStartParking>
   10f18:	e50b0014 	str	r0, [fp, #-20]	; 0xffffffec
   10f1c:	e51b3014 	ldr	r3, [fp, #-20]	; 0xffffffec
   10f20:	e3530000 	cmp	r3, #0
   10f24:	0a000001 	beq	10f30 <XAxiVdma_StartParking+0x158>
   10f28:	e3a03001 	mov	r3, #1
   10f2c:	ea000000 	b	10f34 <XAxiVdma_StartParking+0x15c>
   10f30:	e3a03000 	mov	r3, #0
   10f34:	e1a00003 	mov	r0, r3
   10f38:	e24bd004 	sub	sp, fp, #4
   10f3c:	e8bd8800 	pop	{fp, pc}

00010f40 <XAxiVdma_StopParking>:
   10f40:	e92d4800 	push	{fp, lr}
   10f44:	e28db004 	add	fp, sp, #4
   10f48:	e24dd010 	sub	sp, sp, #16
   10f4c:	e50b0010 	str	r0, [fp, #-16]
   10f50:	e1a03001 	mov	r3, r1
   10f54:	e14b31b2 	strh	r3, [fp, #-18]	; 0xffffffee
   10f58:	e15b31b2 	ldrh	r3, [fp, #-18]	; 0xffffffee
   10f5c:	e51b0010 	ldr	r0, [fp, #-16]
   10f60:	e1a01003 	mov	r1, r3
   10f64:	ebfffc68 	bl	1010c <XAxiVdma_GetChannel>
   10f68:	e50b0008 	str	r0, [fp, #-8]
   10f6c:	e51b3008 	ldr	r3, [fp, #-8]
   10f70:	e3530000 	cmp	r3, #0
   10f74:	1a000000 	bne	10f7c <XAxiVdma_StopParking+0x3c>
   10f78:	ea000006 	b	10f98 <XAxiVdma_StopParking+0x58>
   10f7c:	e51b3008 	ldr	r3, [fp, #-8]
   10f80:	e593300c 	ldr	r3, [r3, #12]
   10f84:	e3530000 	cmp	r3, #0
   10f88:	0a000001 	beq	10f94 <XAxiVdma_StopParking+0x54>
   10f8c:	e51b0008 	ldr	r0, [fp, #-8]
   10f90:	eb0003b2 	bl	11e60 <XAxiVdma_ChannelStopParking>
   10f94:	e1a00000 	nop			; (mov r0, r0)
   10f98:	e24bd004 	sub	sp, fp, #4
   10f9c:	e8bd8800 	pop	{fp, pc}

00010fa0 <XAxiVdma_StartFrmCntEnable>:
   10fa0:	e92d4800 	push	{fp, lr}
   10fa4:	e28db004 	add	fp, sp, #4
   10fa8:	e24dd010 	sub	sp, sp, #16
   10fac:	e50b0010 	str	r0, [fp, #-16]
   10fb0:	e1a03001 	mov	r3, r1
   10fb4:	e14b31b2 	strh	r3, [fp, #-18]	; 0xffffffee
   10fb8:	e15b31b2 	ldrh	r3, [fp, #-18]	; 0xffffffee
   10fbc:	e51b0010 	ldr	r0, [fp, #-16]
   10fc0:	e1a01003 	mov	r1, r3
   10fc4:	ebfffc50 	bl	1010c <XAxiVdma_GetChannel>
   10fc8:	e50b0008 	str	r0, [fp, #-8]
   10fcc:	e51b3008 	ldr	r3, [fp, #-8]
   10fd0:	e593300c 	ldr	r3, [r3, #12]
   10fd4:	e3530000 	cmp	r3, #0
   10fd8:	0a000001 	beq	10fe4 <XAxiVdma_StartFrmCntEnable+0x44>
   10fdc:	e51b0008 	ldr	r0, [fp, #-8]
   10fe0:	eb0003b1 	bl	11eac <XAxiVdma_ChannelStartFrmCntEnable>
   10fe4:	e24bd004 	sub	sp, fp, #4
   10fe8:	e8bd8800 	pop	{fp, pc}

00010fec <XAxiVdma_SetBdAddrs>:
   10fec:	e92d4800 	push	{fp, lr}
   10ff0:	e28db004 	add	fp, sp, #4
   10ff4:	e24dd018 	sub	sp, sp, #24
   10ff8:	e50b0010 	str	r0, [fp, #-16]
   10ffc:	e50b1014 	str	r1, [fp, #-20]	; 0xffffffec
   11000:	e50b2018 	str	r2, [fp, #-24]	; 0xffffffe8
   11004:	e50b301c 	str	r3, [fp, #-28]	; 0xffffffe4
   11008:	e1db30b4 	ldrh	r3, [fp, #4]
   1100c:	e51b0010 	ldr	r0, [fp, #-16]
   11010:	e1a01003 	mov	r1, r3
   11014:	ebfffc3c 	bl	1010c <XAxiVdma_GetChannel>
   11018:	e50b0008 	str	r0, [fp, #-8]
   1101c:	e51b3008 	ldr	r3, [fp, #-8]
   11020:	e593300c 	ldr	r3, [r3, #12]
   11024:	e3530000 	cmp	r3, #0
   11028:	0a000018 	beq	11090 <XAxiVdma_SetBdAddrs+0xa4>
   1102c:	e51b3008 	ldr	r3, [fp, #-8]
   11030:	e5932048 	ldr	r2, [r3, #72]	; 0x48
   11034:	e51b301c 	ldr	r3, [fp, #-28]	; 0xffffffe4
   11038:	e1520003 	cmp	r2, r3
   1103c:	0a000001 	beq	11048 <XAxiVdma_SetBdAddrs+0x5c>
   11040:	e3a0300f 	mov	r3, #15
   11044:	ea000012 	b	11094 <XAxiVdma_SetBdAddrs+0xa8>
   11048:	e51b3014 	ldr	r3, [fp, #-20]	; 0xffffffec
   1104c:	e203301f 	and	r3, r3, #31
   11050:	e3530000 	cmp	r3, #0
   11054:	0a000001 	beq	11060 <XAxiVdma_SetBdAddrs+0x74>
   11058:	e3a0300f 	mov	r3, #15
   1105c:	ea00000c 	b	11094 <XAxiVdma_SetBdAddrs+0xa8>
   11060:	e51b3018 	ldr	r3, [fp, #-24]	; 0xffffffe8
   11064:	e203301f 	and	r3, r3, #31
   11068:	e3530000 	cmp	r3, #0
   1106c:	0a000001 	beq	11078 <XAxiVdma_SetBdAddrs+0x8c>
   11070:	e3a0300f 	mov	r3, #15
   11074:	ea000006 	b	11094 <XAxiVdma_SetBdAddrs+0xa8>
   11078:	e51b0008 	ldr	r0, [fp, #-8]
   1107c:	e51b1014 	ldr	r1, [fp, #-20]	; 0xffffffec
   11080:	e51b2018 	ldr	r2, [fp, #-24]	; 0xffffffe8
   11084:	eb00039b 	bl	11ef8 <XAxiVdma_ChannelSetBdAddrs>
   11088:	e1a03000 	mov	r3, r0
   1108c:	ea000000 	b	11094 <XAxiVdma_SetBdAddrs+0xa8>
   11090:	e3a03002 	mov	r3, #2
   11094:	e1a00003 	mov	r0, r3
   11098:	e24bd004 	sub	sp, fp, #4
   1109c:	e8bd8800 	pop	{fp, pc}

000110a0 <XAxiVdma_StartWriteFrame>:
   110a0:	e92d4800 	push	{fp, lr}
   110a4:	e28db004 	add	fp, sp, #4
   110a8:	e24dd010 	sub	sp, sp, #16
   110ac:	e50b0010 	str	r0, [fp, #-16]
   110b0:	e50b1014 	str	r1, [fp, #-20]	; 0xffffffec
   110b4:	e51b0010 	ldr	r0, [fp, #-16]
   110b8:	e3a01001 	mov	r1, #1
   110bc:	ebfffc12 	bl	1010c <XAxiVdma_GetChannel>
   110c0:	e50b0008 	str	r0, [fp, #-8]
   110c4:	e51b3008 	ldr	r3, [fp, #-8]
   110c8:	e593300c 	ldr	r3, [r3, #12]
   110cc:	e3530000 	cmp	r3, #0
   110d0:	0a000004 	beq	110e8 <XAxiVdma_StartWriteFrame+0x48>
   110d4:	e51b0008 	ldr	r0, [fp, #-8]
   110d8:	e51b1014 	ldr	r1, [fp, #-20]	; 0xffffffec
   110dc:	eb0003e0 	bl	12064 <XAxiVdma_ChannelStartTransfer>
   110e0:	e1a03000 	mov	r3, r0
   110e4:	ea000000 	b	110ec <XAxiVdma_StartWriteFrame+0x4c>
   110e8:	e3a03002 	mov	r3, #2
   110ec:	e1a00003 	mov	r0, r3
   110f0:	e24bd004 	sub	sp, fp, #4
   110f4:	e8bd8800 	pop	{fp, pc}

000110f8 <XAxiVdma_StartReadFrame>:
   110f8:	e92d4800 	push	{fp, lr}
   110fc:	e28db004 	add	fp, sp, #4
   11100:	e24dd010 	sub	sp, sp, #16
   11104:	e50b0010 	str	r0, [fp, #-16]
   11108:	e50b1014 	str	r1, [fp, #-20]	; 0xffffffec
   1110c:	e51b0010 	ldr	r0, [fp, #-16]
   11110:	e3a01002 	mov	r1, #2
   11114:	ebfffbfc 	bl	1010c <XAxiVdma_GetChannel>
   11118:	e50b0008 	str	r0, [fp, #-8]
   1111c:	e51b3008 	ldr	r3, [fp, #-8]
   11120:	e593300c 	ldr	r3, [r3, #12]
   11124:	e3530000 	cmp	r3, #0
   11128:	0a000004 	beq	11140 <XAxiVdma_StartReadFrame+0x48>
   1112c:	e51b0008 	ldr	r0, [fp, #-8]
   11130:	e51b1014 	ldr	r1, [fp, #-20]	; 0xffffffec
   11134:	eb0003ca 	bl	12064 <XAxiVdma_ChannelStartTransfer>
   11138:	e1a03000 	mov	r3, r0
   1113c:	ea000000 	b	11144 <XAxiVdma_StartReadFrame+0x4c>
   11140:	e3a03002 	mov	r3, #2
   11144:	e1a00003 	mov	r0, r3
   11148:	e24bd004 	sub	sp, fp, #4
   1114c:	e8bd8800 	pop	{fp, pc}

00011150 <XAxiVdma_DmaConfig>:
   11150:	e92d4800 	push	{fp, lr}
   11154:	e28db004 	add	fp, sp, #4
   11158:	e24dd018 	sub	sp, sp, #24
   1115c:	e50b0010 	str	r0, [fp, #-16]
   11160:	e1a03001 	mov	r3, r1
   11164:	e50b2018 	str	r2, [fp, #-24]	; 0xffffffe8
   11168:	e14b31b2 	strh	r3, [fp, #-18]	; 0xffffffee
   1116c:	e15b31b2 	ldrh	r3, [fp, #-18]	; 0xffffffee
   11170:	e51b0010 	ldr	r0, [fp, #-16]
   11174:	e1a01003 	mov	r1, r3
   11178:	ebfffbe3 	bl	1010c <XAxiVdma_GetChannel>
   1117c:	e50b0008 	str	r0, [fp, #-8]
   11180:	e51b3008 	ldr	r3, [fp, #-8]
   11184:	e3530000 	cmp	r3, #0
   11188:	1a000001 	bne	11194 <XAxiVdma_DmaConfig+0x44>
   1118c:	e3a0300f 	mov	r3, #15
   11190:	ea000009 	b	111bc <XAxiVdma_DmaConfig+0x6c>
   11194:	e51b3008 	ldr	r3, [fp, #-8]
   11198:	e593300c 	ldr	r3, [r3, #12]
   1119c:	e3530000 	cmp	r3, #0
   111a0:	0a000004 	beq	111b8 <XAxiVdma_DmaConfig+0x68>
   111a4:	e51b0008 	ldr	r0, [fp, #-8]
   111a8:	e51b1018 	ldr	r1, [fp, #-24]	; 0xffffffe8
   111ac:	eb0003e5 	bl	12148 <XAxiVdma_ChannelConfig>
   111b0:	e1a03000 	mov	r3, r0
   111b4:	ea000000 	b	111bc <XAxiVdma_DmaConfig+0x6c>
   111b8:	e3a03002 	mov	r3, #2
   111bc:	e1a00003 	mov	r0, r3
   111c0:	e24bd004 	sub	sp, fp, #4
   111c4:	e8bd8800 	pop	{fp, pc}

000111c8 <XAxiVdma_DmaSetBufferAddr>:
   111c8:	e92d4800 	push	{fp, lr}
   111cc:	e28db004 	add	fp, sp, #4
   111d0:	e24dd018 	sub	sp, sp, #24
   111d4:	e50b0010 	str	r0, [fp, #-16]
   111d8:	e1a03001 	mov	r3, r1
   111dc:	e50b2018 	str	r2, [fp, #-24]	; 0xffffffe8
   111e0:	e14b31b2 	strh	r3, [fp, #-18]	; 0xffffffee
   111e4:	e15b31b2 	ldrh	r3, [fp, #-18]	; 0xffffffee
   111e8:	e51b0010 	ldr	r0, [fp, #-16]
   111ec:	e1a01003 	mov	r1, r3
   111f0:	ebfffbc5 	bl	1010c <XAxiVdma_GetChannel>
   111f4:	e50b0008 	str	r0, [fp, #-8]
   111f8:	e51b3008 	ldr	r3, [fp, #-8]
   111fc:	e3530000 	cmp	r3, #0
   11200:	1a000001 	bne	1120c <XAxiVdma_DmaSetBufferAddr+0x44>
   11204:	e3a0300f 	mov	r3, #15
   11208:	ea00000c 	b	11240 <XAxiVdma_DmaSetBufferAddr+0x78>
   1120c:	e51b3008 	ldr	r3, [fp, #-8]
   11210:	e593300c 	ldr	r3, [r3, #12]
   11214:	e3530000 	cmp	r3, #0
   11218:	0a000007 	beq	1123c <XAxiVdma_DmaSetBufferAddr+0x74>
   1121c:	e51b3008 	ldr	r3, [fp, #-8]
   11220:	e593302c 	ldr	r3, [r3, #44]	; 0x2c
   11224:	e51b0008 	ldr	r0, [fp, #-8]
   11228:	e51b1018 	ldr	r1, [fp, #-24]	; 0xffffffe8
   1122c:	e1a02003 	mov	r2, r3
   11230:	eb000503 	bl	12644 <XAxiVdma_ChannelSetBufferAddr>
   11234:	e1a03000 	mov	r3, r0
   11238:	ea000000 	b	11240 <XAxiVdma_DmaSetBufferAddr+0x78>
   1123c:	e3a03002 	mov	r3, #2
   11240:	e1a00003 	mov	r0, r3
   11244:	e24bd004 	sub	sp, fp, #4
   11248:	e8bd8800 	pop	{fp, pc}

0001124c <XAxiVdma_DmaStart>:
   1124c:	e92d4800 	push	{fp, lr}
   11250:	e28db004 	add	fp, sp, #4
   11254:	e24dd010 	sub	sp, sp, #16
   11258:	e50b0010 	str	r0, [fp, #-16]
   1125c:	e1a03001 	mov	r3, r1
   11260:	e14b31b2 	strh	r3, [fp, #-18]	; 0xffffffee
   11264:	e15b31b2 	ldrh	r3, [fp, #-18]	; 0xffffffee
   11268:	e51b0010 	ldr	r0, [fp, #-16]
   1126c:	e1a01003 	mov	r1, r3
   11270:	ebfffba5 	bl	1010c <XAxiVdma_GetChannel>
   11274:	e50b0008 	str	r0, [fp, #-8]
   11278:	e51b3008 	ldr	r3, [fp, #-8]
   1127c:	e3530000 	cmp	r3, #0
   11280:	1a000001 	bne	1128c <XAxiVdma_DmaStart+0x40>
   11284:	e3a0300f 	mov	r3, #15
   11288:	ea000008 	b	112b0 <XAxiVdma_DmaStart+0x64>
   1128c:	e51b3008 	ldr	r3, [fp, #-8]
   11290:	e593300c 	ldr	r3, [r3, #12]
   11294:	e3530000 	cmp	r3, #0
   11298:	0a000003 	beq	112ac <XAxiVdma_DmaStart+0x60>
   1129c:	e51b0008 	ldr	r0, [fp, #-8]
   112a0:	eb000568 	bl	12848 <XAxiVdma_ChannelStart>
   112a4:	e1a03000 	mov	r3, r0
   112a8:	ea000000 	b	112b0 <XAxiVdma_DmaStart+0x64>
   112ac:	e3a03002 	mov	r3, #2
   112b0:	e1a00003 	mov	r0, r3
   112b4:	e24bd004 	sub	sp, fp, #4
   112b8:	e8bd8800 	pop	{fp, pc}

000112bc <XAxiVdma_DmaStop>:
   112bc:	e92d4800 	push	{fp, lr}
   112c0:	e28db004 	add	fp, sp, #4
   112c4:	e24dd010 	sub	sp, sp, #16
   112c8:	e50b0010 	str	r0, [fp, #-16]
   112cc:	e1a03001 	mov	r3, r1
   112d0:	e14b31b2 	strh	r3, [fp, #-18]	; 0xffffffee
   112d4:	e15b31b2 	ldrh	r3, [fp, #-18]	; 0xffffffee
   112d8:	e51b0010 	ldr	r0, [fp, #-16]
   112dc:	e1a01003 	mov	r1, r3
   112e0:	ebfffb89 	bl	1010c <XAxiVdma_GetChannel>
   112e4:	e50b0008 	str	r0, [fp, #-8]
   112e8:	e51b3008 	ldr	r3, [fp, #-8]
   112ec:	e3530000 	cmp	r3, #0
   112f0:	1a000000 	bne	112f8 <XAxiVdma_DmaStop+0x3c>
   112f4:	ea000006 	b	11314 <XAxiVdma_DmaStop+0x58>
   112f8:	e51b3008 	ldr	r3, [fp, #-8]
   112fc:	e593300c 	ldr	r3, [r3, #12]
   11300:	e3530000 	cmp	r3, #0
   11304:	0a000001 	beq	11310 <XAxiVdma_DmaStop+0x54>
   11308:	e51b0008 	ldr	r0, [fp, #-8]
   1130c:	eb0005a3 	bl	129a0 <XAxiVdma_ChannelStop>
   11310:	e1a00000 	nop			; (mov r0, r0)
   11314:	e24bd004 	sub	sp, fp, #4
   11318:	e8bd8800 	pop	{fp, pc}

0001131c <XAxiVdma_DmaRegisterDump>:
   1131c:	e92d4800 	push	{fp, lr}
   11320:	e28db004 	add	fp, sp, #4
   11324:	e24dd010 	sub	sp, sp, #16
   11328:	e50b0010 	str	r0, [fp, #-16]
   1132c:	e1a03001 	mov	r3, r1
   11330:	e14b31b2 	strh	r3, [fp, #-18]	; 0xffffffee
   11334:	e15b31b2 	ldrh	r3, [fp, #-18]	; 0xffffffee
   11338:	e51b0010 	ldr	r0, [fp, #-16]
   1133c:	e1a01003 	mov	r1, r3
   11340:	ebfffb71 	bl	1010c <XAxiVdma_GetChannel>
   11344:	e50b0008 	str	r0, [fp, #-8]
   11348:	e51b3008 	ldr	r3, [fp, #-8]
   1134c:	e3530000 	cmp	r3, #0
   11350:	1a000000 	bne	11358 <XAxiVdma_DmaRegisterDump+0x3c>
   11354:	ea000006 	b	11374 <XAxiVdma_DmaRegisterDump+0x58>
   11358:	e51b3008 	ldr	r3, [fp, #-8]
   1135c:	e593300c 	ldr	r3, [r3, #12]
   11360:	e3530000 	cmp	r3, #0
   11364:	0a000001 	beq	11370 <XAxiVdma_DmaRegisterDump+0x54>
   11368:	e51b0008 	ldr	r0, [fp, #-8]
   1136c:	eb0005a4 	bl	12a04 <XAxiVdma_ChannelRegisterDump>
   11370:	e1a00000 	nop			; (mov r0, r0)
   11374:	e24bd004 	sub	sp, fp, #4
   11378:	e8bd8800 	pop	{fp, pc}

0001137c <XAxiVdma_SetFrameCounter>:
   1137c:	e92d4800 	push	{fp, lr}
   11380:	e28db004 	add	fp, sp, #4
   11384:	e24dd010 	sub	sp, sp, #16
   11388:	e50b0010 	str	r0, [fp, #-16]
   1138c:	e50b1014 	str	r1, [fp, #-20]	; 0xffffffec
   11390:	e51b3010 	ldr	r3, [fp, #-16]
   11394:	e3530000 	cmp	r3, #0
   11398:	0a00000a 	beq	113c8 <XAxiVdma_SetFrameCounter+0x4c>
   1139c:	e30c3768 	movw	r3, #51048	; 0xc768
   113a0:	e3403001 	movt	r3, #1
   113a4:	e3a02000 	mov	r2, #0
   113a8:	e5832000 	str	r2, [r3]
   113ac:	e51b3010 	ldr	r3, [fp, #-16]
   113b0:	e5932008 	ldr	r2, [r3, #8]
   113b4:	e3013111 	movw	r3, #4369	; 0x1111
   113b8:	e3413111 	movt	r3, #4369	; 0x1111
   113bc:	e1520003 	cmp	r2, r3
   113c0:	1a000012 	bne	11410 <XAxiVdma_SetFrameCounter+0x94>
   113c4:	ea000009 	b	113f0 <XAxiVdma_SetFrameCounter+0x74>
   113c8:	e30b0c98 	movw	r0, #48280	; 0xbc98
   113cc:	e3400001 	movt	r0, #1
   113d0:	e300147e 	movw	r1, #1150	; 0x47e
   113d4:	ebfffa18 	bl	fc3c <Xil_Assert>
   113d8:	e30c3768 	movw	r3, #51048	; 0xc768
   113dc:	e3403001 	movt	r3, #1
   113e0:	e3a02001 	mov	r2, #1
   113e4:	e5832000 	str	r2, [r3]
   113e8:	e3a03000 	mov	r3, #0
   113ec:	ea000057 	b	11550 <XAxiVdma_SetFrameCounter+0x1d4>
   113f0:	e30c3768 	movw	r3, #51048	; 0xc768
   113f4:	e3403001 	movt	r3, #1
   113f8:	e3a02000 	mov	r2, #0
   113fc:	e5832000 	str	r2, [r3]
   11400:	e51b3014 	ldr	r3, [fp, #-20]	; 0xffffffec
   11404:	e3530000 	cmp	r3, #0
   11408:	0a000013 	beq	1145c <XAxiVdma_SetFrameCounter+0xe0>
   1140c:	ea000009 	b	11438 <XAxiVdma_SetFrameCounter+0xbc>
   11410:	e30b0c98 	movw	r0, #48280	; 0xbc98
   11414:	e3400001 	movt	r0, #1
   11418:	e300147f 	movw	r1, #1151	; 0x47f
   1141c:	ebfffa06 	bl	fc3c <Xil_Assert>
   11420:	e30c3768 	movw	r3, #51048	; 0xc768
   11424:	e3403001 	movt	r3, #1
   11428:	e3a02001 	mov	r2, #1
   1142c:	e5832000 	str	r2, [r3]
   11430:	e3a03000 	mov	r3, #0
   11434:	ea000045 	b	11550 <XAxiVdma_SetFrameCounter+0x1d4>
   11438:	e30c3768 	movw	r3, #51048	; 0xc768
   1143c:	e3403001 	movt	r3, #1
   11440:	e3a02000 	mov	r2, #0
   11444:	e5832000 	str	r2, [r3]
   11448:	e51b3014 	ldr	r3, [fp, #-20]	; 0xffffffec
   1144c:	e5d33000 	ldrb	r3, [r3]
   11450:	e3530000 	cmp	r3, #0
   11454:	0a00000e 	beq	11494 <XAxiVdma_SetFrameCounter+0x118>
   11458:	ea000009 	b	11484 <XAxiVdma_SetFrameCounter+0x108>
   1145c:	e30b0c98 	movw	r0, #48280	; 0xbc98
   11460:	e3400001 	movt	r0, #1
   11464:	e3a01d12 	mov	r1, #1152	; 0x480
   11468:	ebfff9f3 	bl	fc3c <Xil_Assert>
   1146c:	e30c3768 	movw	r3, #51048	; 0xc768
   11470:	e3403001 	movt	r3, #1
   11474:	e3a02001 	mov	r2, #1
   11478:	e5832000 	str	r2, [r3]
   1147c:	e3a03000 	mov	r3, #0
   11480:	ea000032 	b	11550 <XAxiVdma_SetFrameCounter+0x1d4>
   11484:	e51b3014 	ldr	r3, [fp, #-20]	; 0xffffffec
   11488:	e5d33002 	ldrb	r3, [r3, #2]
   1148c:	e3530000 	cmp	r3, #0
   11490:	1a000001 	bne	1149c <XAxiVdma_SetFrameCounter+0x120>
   11494:	e3a0300f 	mov	r3, #15
   11498:	ea00002c 	b	11550 <XAxiVdma_SetFrameCounter+0x1d4>
   1149c:	e51b0010 	ldr	r0, [fp, #-16]
   114a0:	e3a01002 	mov	r1, #2
   114a4:	ebfffb18 	bl	1010c <XAxiVdma_GetChannel>
   114a8:	e50b0008 	str	r0, [fp, #-8]
   114ac:	e51b3008 	ldr	r3, [fp, #-8]
   114b0:	e593300c 	ldr	r3, [r3, #12]
   114b4:	e3530000 	cmp	r3, #0
   114b8:	0a00000d 	beq	114f4 <XAxiVdma_SetFrameCounter+0x178>
   114bc:	e51b3014 	ldr	r3, [fp, #-20]	; 0xffffffec
   114c0:	e5d32000 	ldrb	r2, [r3]
   114c4:	e51b3014 	ldr	r3, [fp, #-20]	; 0xffffffec
   114c8:	e5d33001 	ldrb	r3, [r3, #1]
   114cc:	e51b0008 	ldr	r0, [fp, #-8]
   114d0:	e1a01002 	mov	r1, r2
   114d4:	e1a02003 	mov	r2, r3
   114d8:	eb00057d 	bl	12ad4 <XAxiVdma_ChannelSetFrmCnt>
   114dc:	e50b000c 	str	r0, [fp, #-12]
   114e0:	e51b300c 	ldr	r3, [fp, #-12]
   114e4:	e3530000 	cmp	r3, #0
   114e8:	0a000001 	beq	114f4 <XAxiVdma_SetFrameCounter+0x178>
   114ec:	e51b300c 	ldr	r3, [fp, #-12]
   114f0:	ea000016 	b	11550 <XAxiVdma_SetFrameCounter+0x1d4>
   114f4:	e51b0010 	ldr	r0, [fp, #-16]
   114f8:	e3a01001 	mov	r1, #1
   114fc:	ebfffb02 	bl	1010c <XAxiVdma_GetChannel>
   11500:	e50b0008 	str	r0, [fp, #-8]
   11504:	e51b3008 	ldr	r3, [fp, #-8]
   11508:	e593300c 	ldr	r3, [r3, #12]
   1150c:	e3530000 	cmp	r3, #0
   11510:	0a00000d 	beq	1154c <XAxiVdma_SetFrameCounter+0x1d0>
   11514:	e51b3014 	ldr	r3, [fp, #-20]	; 0xffffffec
   11518:	e5d32002 	ldrb	r2, [r3, #2]
   1151c:	e51b3014 	ldr	r3, [fp, #-20]	; 0xffffffec
   11520:	e5d33003 	ldrb	r3, [r3, #3]
   11524:	e51b0008 	ldr	r0, [fp, #-8]
   11528:	e1a01002 	mov	r1, r2
   1152c:	e1a02003 	mov	r2, r3
   11530:	eb000567 	bl	12ad4 <XAxiVdma_ChannelSetFrmCnt>
   11534:	e50b000c 	str	r0, [fp, #-12]
   11538:	e51b300c 	ldr	r3, [fp, #-12]
   1153c:	e3530000 	cmp	r3, #0
   11540:	0a000001 	beq	1154c <XAxiVdma_SetFrameCounter+0x1d0>
   11544:	e51b300c 	ldr	r3, [fp, #-12]
   11548:	ea000000 	b	11550 <XAxiVdma_SetFrameCounter+0x1d4>
   1154c:	e3a03000 	mov	r3, #0
   11550:	e1a00003 	mov	r0, r3
   11554:	e24bd004 	sub	sp, fp, #4
   11558:	e8bd8800 	pop	{fp, pc}

0001155c <XAxiVdma_GetFrameCounter>:
   1155c:	e92d4800 	push	{fp, lr}
   11560:	e28db004 	add	fp, sp, #4
   11564:	e24dd010 	sub	sp, sp, #16
   11568:	e50b0010 	str	r0, [fp, #-16]
   1156c:	e50b1014 	str	r1, [fp, #-20]	; 0xffffffec
   11570:	e51b3010 	ldr	r3, [fp, #-16]
   11574:	e3530000 	cmp	r3, #0
   11578:	0a00000a 	beq	115a8 <XAxiVdma_GetFrameCounter+0x4c>
   1157c:	e30c3768 	movw	r3, #51048	; 0xc768
   11580:	e3403001 	movt	r3, #1
   11584:	e3a02000 	mov	r2, #0
   11588:	e5832000 	str	r2, [r3]
   1158c:	e51b3010 	ldr	r3, [fp, #-16]
   11590:	e5932008 	ldr	r2, [r3, #8]
   11594:	e3013111 	movw	r3, #4369	; 0x1111
   11598:	e3413111 	movt	r3, #4369	; 0x1111
   1159c:	e1520003 	cmp	r2, r3
   115a0:	1a000011 	bne	115ec <XAxiVdma_GetFrameCounter+0x90>
   115a4:	ea000008 	b	115cc <XAxiVdma_GetFrameCounter+0x70>
   115a8:	e30b0c98 	movw	r0, #48280	; 0xbc98
   115ac:	e3400001 	movt	r0, #1
   115b0:	e30014bf 	movw	r1, #1215	; 0x4bf
   115b4:	ebfff9a0 	bl	fc3c <Xil_Assert>
   115b8:	e30c3768 	movw	r3, #51048	; 0xc768
   115bc:	e3403001 	movt	r3, #1
   115c0:	e3a02001 	mov	r2, #1
   115c4:	e5832000 	str	r2, [r3]
   115c8:	ea00004b 	b	116fc <XAxiVdma_GetFrameCounter+0x1a0>
   115cc:	e30c3768 	movw	r3, #51048	; 0xc768
   115d0:	e3403001 	movt	r3, #1
   115d4:	e3a02000 	mov	r2, #0
   115d8:	e5832000 	str	r2, [r3]
   115dc:	e51b3014 	ldr	r3, [fp, #-20]	; 0xffffffec
   115e0:	e3530000 	cmp	r3, #0
   115e4:	0a000018 	beq	1164c <XAxiVdma_GetFrameCounter+0xf0>
   115e8:	ea000008 	b	11610 <XAxiVdma_GetFrameCounter+0xb4>
   115ec:	e30b0c98 	movw	r0, #48280	; 0xbc98
   115f0:	e3400001 	movt	r0, #1
   115f4:	e3a01d13 	mov	r1, #1216	; 0x4c0
   115f8:	ebfff98f 	bl	fc3c <Xil_Assert>
   115fc:	e30c3768 	movw	r3, #51048	; 0xc768
   11600:	e3403001 	movt	r3, #1
   11604:	e3a02001 	mov	r2, #1
   11608:	e5832000 	str	r2, [r3]
   1160c:	ea00003a 	b	116fc <XAxiVdma_GetFrameCounter+0x1a0>
   11610:	e30c3768 	movw	r3, #51048	; 0xc768
   11614:	e3403001 	movt	r3, #1
   11618:	e3a02000 	mov	r2, #0
   1161c:	e5832000 	str	r2, [r3]
   11620:	e3a03000 	mov	r3, #0
   11624:	e54b3009 	strb	r3, [fp, #-9]
   11628:	e51b0010 	ldr	r0, [fp, #-16]
   1162c:	e3a01002 	mov	r1, #2
   11630:	ebfffab5 	bl	1010c <XAxiVdma_GetChannel>
   11634:	e50b0008 	str	r0, [fp, #-8]
   11638:	e51b3008 	ldr	r3, [fp, #-8]
   1163c:	e593300c 	ldr	r3, [r3, #12]
   11640:	e3530000 	cmp	r3, #0
   11644:	0a00000f 	beq	11688 <XAxiVdma_GetFrameCounter+0x12c>
   11648:	ea000008 	b	11670 <XAxiVdma_GetFrameCounter+0x114>
   1164c:	e30b0c98 	movw	r0, #48280	; 0xbc98
   11650:	e3400001 	movt	r0, #1
   11654:	e30014c1 	movw	r1, #1217	; 0x4c1
   11658:	ebfff977 	bl	fc3c <Xil_Assert>
   1165c:	e30c3768 	movw	r3, #51048	; 0xc768
   11660:	e3403001 	movt	r3, #1
   11664:	e3a02001 	mov	r2, #1
   11668:	e5832000 	str	r2, [r3]
   1166c:	ea000022 	b	116fc <XAxiVdma_GetFrameCounter+0x1a0>
   11670:	e24b2009 	sub	r2, fp, #9
   11674:	e24b300a 	sub	r3, fp, #10
   11678:	e51b0008 	ldr	r0, [fp, #-8]
   1167c:	e1a01002 	mov	r1, r2
   11680:	e1a02003 	mov	r2, r3
   11684:	eb000550 	bl	12bcc <XAxiVdma_ChannelGetFrmCnt>
   11688:	e55b2009 	ldrb	r2, [fp, #-9]
   1168c:	e51b3014 	ldr	r3, [fp, #-20]	; 0xffffffec
   11690:	e5c32000 	strb	r2, [r3]
   11694:	e55b200a 	ldrb	r2, [fp, #-10]
   11698:	e51b3014 	ldr	r3, [fp, #-20]	; 0xffffffec
   1169c:	e5c32001 	strb	r2, [r3, #1]
   116a0:	e3a03000 	mov	r3, #0
   116a4:	e54b3009 	strb	r3, [fp, #-9]
   116a8:	e51b0010 	ldr	r0, [fp, #-16]
   116ac:	e3a01001 	mov	r1, #1
   116b0:	ebfffa95 	bl	1010c <XAxiVdma_GetChannel>
   116b4:	e50b0008 	str	r0, [fp, #-8]
   116b8:	e51b3008 	ldr	r3, [fp, #-8]
   116bc:	e593300c 	ldr	r3, [r3, #12]
   116c0:	e3530000 	cmp	r3, #0
   116c4:	0a000005 	beq	116e0 <XAxiVdma_GetFrameCounter+0x184>
   116c8:	e24b2009 	sub	r2, fp, #9
   116cc:	e24b300a 	sub	r3, fp, #10
   116d0:	e51b0008 	ldr	r0, [fp, #-8]
   116d4:	e1a01002 	mov	r1, r2
   116d8:	e1a02003 	mov	r2, r3
   116dc:	eb00053a 	bl	12bcc <XAxiVdma_ChannelGetFrmCnt>
   116e0:	e55b2009 	ldrb	r2, [fp, #-9]
   116e4:	e51b3014 	ldr	r3, [fp, #-20]	; 0xffffffec
   116e8:	e5c32002 	strb	r2, [r3, #2]
   116ec:	e55b200a 	ldrb	r2, [fp, #-10]
   116f0:	e51b3014 	ldr	r3, [fp, #-20]	; 0xffffffec
   116f4:	e5c32003 	strb	r2, [r3, #3]
   116f8:	e1a00000 	nop			; (mov r0, r0)
   116fc:	e24bd004 	sub	sp, fp, #4
   11700:	e8bd8800 	pop	{fp, pc}

00011704 <XAxiVdma_SetFrmStore>:
   11704:	e92d4800 	push	{fp, lr}
   11708:	e28db004 	add	fp, sp, #4
   1170c:	e24dd010 	sub	sp, sp, #16
   11710:	e50b0010 	str	r0, [fp, #-16]
   11714:	e1a03002 	mov	r3, r2
   11718:	e1a02001 	mov	r2, r1
   1171c:	e54b2011 	strb	r2, [fp, #-17]	; 0xffffffef
   11720:	e14b31b4 	strh	r3, [fp, #-20]	; 0xffffffec
   11724:	e55b2011 	ldrb	r2, [fp, #-17]	; 0xffffffef
   11728:	e51b3010 	ldr	r3, [fp, #-16]
   1172c:	e593300c 	ldr	r3, [r3, #12]
   11730:	e1520003 	cmp	r2, r3
   11734:	da000001 	ble	11740 <XAxiVdma_SetFrmStore+0x3c>
   11738:	e3a03001 	mov	r3, #1
   1173c:	ea000025 	b	117d8 <XAxiVdma_SetFrmStore+0xd4>
   11740:	e15b31b4 	ldrh	r3, [fp, #-20]	; 0xffffffec
   11744:	e51b0010 	ldr	r0, [fp, #-16]
   11748:	e1a01003 	mov	r1, r3
   1174c:	ebfffa6e 	bl	1010c <XAxiVdma_GetChannel>
   11750:	e50b0008 	str	r0, [fp, #-8]
   11754:	e51b3008 	ldr	r3, [fp, #-8]
   11758:	e3530000 	cmp	r3, #0
   1175c:	1a000001 	bne	11768 <XAxiVdma_SetFrmStore+0x64>
   11760:	e3a03001 	mov	r3, #1
   11764:	ea00001b 	b	117d8 <XAxiVdma_SetFrmStore+0xd4>
   11768:	e51b0008 	ldr	r0, [fp, #-8]
   1176c:	eb00012b 	bl	11c20 <XAxiVdma_ChannelIsRunning>
   11770:	e1a03000 	mov	r3, r0
   11774:	e3530000 	cmp	r3, #0
   11778:	0a000001 	beq	11784 <XAxiVdma_SetFrmStore+0x80>
   1177c:	e3a03001 	mov	r3, #1
   11780:	ea000014 	b	117d8 <XAxiVdma_SetFrmStore+0xd4>
   11784:	e51b3008 	ldr	r3, [fp, #-8]
   11788:	e5933460 	ldr	r3, [r3, #1120]	; 0x460
   1178c:	e2033002 	and	r3, r3, #2
   11790:	e3530000 	cmp	r3, #0
   11794:	1a000001 	bne	117a0 <XAxiVdma_SetFrmStore+0x9c>
   11798:	e3a03013 	mov	r3, #19
   1179c:	ea00000d 	b	117d8 <XAxiVdma_SetFrmStore+0xd4>
   117a0:	e51b3008 	ldr	r3, [fp, #-8]
   117a4:	e5933000 	ldr	r3, [r3]
   117a8:	e2832018 	add	r2, r3, #24
   117ac:	e55b3011 	ldrb	r3, [fp, #-17]	; 0xffffffef
   117b0:	e203303f 	and	r3, r3, #63	; 0x3f
   117b4:	e1a00002 	mov	r0, r2
   117b8:	e1a01003 	mov	r1, r3
   117bc:	ebfff979 	bl	fda8 <Xil_Out32>
   117c0:	e55b2011 	ldrb	r2, [fp, #-17]	; 0xffffffef
   117c4:	e51b3008 	ldr	r3, [fp, #-8]
   117c8:	e583202c 	str	r2, [r3, #44]	; 0x2c
   117cc:	e51b0008 	ldr	r0, [fp, #-8]
   117d0:	eb00009b 	bl	11a44 <XAxiVdma_ChannelInit>
   117d4:	e3a03000 	mov	r3, #0
   117d8:	e1a00003 	mov	r0, r3
   117dc:	e24bd004 	sub	sp, fp, #4
   117e0:	e8bd8800 	pop	{fp, pc}

000117e4 <XAxiVdma_GetFrmStore>:
   117e4:	e92d4800 	push	{fp, lr}
   117e8:	e28db004 	add	fp, sp, #4
   117ec:	e24dd018 	sub	sp, sp, #24
   117f0:	e50b0010 	str	r0, [fp, #-16]
   117f4:	e50b1014 	str	r1, [fp, #-20]	; 0xffffffec
   117f8:	e1a03002 	mov	r3, r2
   117fc:	e14b31b6 	strh	r3, [fp, #-22]	; 0xffffffea
   11800:	e15b31b6 	ldrh	r3, [fp, #-22]	; 0xffffffea
   11804:	e51b0010 	ldr	r0, [fp, #-16]
   11808:	e1a01003 	mov	r1, r3
   1180c:	ebfffa3e 	bl	1010c <XAxiVdma_GetChannel>
   11810:	e50b0008 	str	r0, [fp, #-8]
   11814:	e51b3008 	ldr	r3, [fp, #-8]
   11818:	e3530000 	cmp	r3, #0
   1181c:	1a000000 	bne	11824 <XAxiVdma_GetFrmStore+0x40>
   11820:	ea00000f 	b	11864 <XAxiVdma_GetFrmStore+0x80>
   11824:	e51b3008 	ldr	r3, [fp, #-8]
   11828:	e5933460 	ldr	r3, [r3, #1120]	; 0x460
   1182c:	e2033002 	and	r3, r3, #2
   11830:	e3530000 	cmp	r3, #0
   11834:	0a00000a 	beq	11864 <XAxiVdma_GetFrmStore+0x80>
   11838:	e51b3008 	ldr	r3, [fp, #-8]
   1183c:	e5933000 	ldr	r3, [r3]
   11840:	e2833018 	add	r3, r3, #24
   11844:	e1a00003 	mov	r0, r3
   11848:	ebfff934 	bl	fd20 <Xil_In32>
   1184c:	e1a03000 	mov	r3, r0
   11850:	e6ef3073 	uxtb	r3, r3
   11854:	e203303f 	and	r3, r3, #63	; 0x3f
   11858:	e6ef2073 	uxtb	r2, r3
   1185c:	e51b3014 	ldr	r3, [fp, #-20]	; 0xffffffec
   11860:	e5c32000 	strb	r2, [r3]
   11864:	e24bd004 	sub	sp, fp, #4
   11868:	e8bd8800 	pop	{fp, pc}

0001186c <XAxiVdma_GetDmaChannelErrors>:
   1186c:	e92d4800 	push	{fp, lr}
   11870:	e28db004 	add	fp, sp, #4
   11874:	e24dd010 	sub	sp, sp, #16
   11878:	e50b0010 	str	r0, [fp, #-16]
   1187c:	e1a03001 	mov	r3, r1
   11880:	e14b31b2 	strh	r3, [fp, #-18]	; 0xffffffee
   11884:	e15b31b2 	ldrh	r3, [fp, #-18]	; 0xffffffee
   11888:	e51b0010 	ldr	r0, [fp, #-16]
   1188c:	e1a01003 	mov	r1, r3
   11890:	ebfffa1d 	bl	1010c <XAxiVdma_GetChannel>
   11894:	e50b0008 	str	r0, [fp, #-8]
   11898:	e51b3008 	ldr	r3, [fp, #-8]
   1189c:	e3530000 	cmp	r3, #0
   118a0:	1a000001 	bne	118ac <XAxiVdma_GetDmaChannelErrors+0x40>
   118a4:	e3a0300f 	mov	r3, #15
   118a8:	ea000008 	b	118d0 <XAxiVdma_GetDmaChannelErrors+0x64>
   118ac:	e51b3008 	ldr	r3, [fp, #-8]
   118b0:	e593300c 	ldr	r3, [r3, #12]
   118b4:	e3530000 	cmp	r3, #0
   118b8:	0a000003 	beq	118cc <XAxiVdma_GetDmaChannelErrors+0x60>
   118bc:	e51b0008 	ldr	r0, [fp, #-8]
   118c0:	eb000119 	bl	11d2c <XAxiVdma_ChannelErrors>
   118c4:	e1a03000 	mov	r3, r0
   118c8:	ea000000 	b	118d0 <XAxiVdma_GetDmaChannelErrors+0x64>
   118cc:	e3a03002 	mov	r3, #2
   118d0:	e1a00003 	mov	r0, r3
   118d4:	e24bd004 	sub	sp, fp, #4
   118d8:	e8bd8800 	pop	{fp, pc}

000118dc <XAxiVdma_ClearDmaChannelErrors>:
   118dc:	e92d4800 	push	{fp, lr}
   118e0:	e28db004 	add	fp, sp, #4
   118e4:	e24dd018 	sub	sp, sp, #24
   118e8:	e50b0010 	str	r0, [fp, #-16]
   118ec:	e1a03001 	mov	r3, r1
   118f0:	e50b2018 	str	r2, [fp, #-24]	; 0xffffffe8
   118f4:	e14b31b2 	strh	r3, [fp, #-18]	; 0xffffffee
   118f8:	e15b31b2 	ldrh	r3, [fp, #-18]	; 0xffffffee
   118fc:	e51b0010 	ldr	r0, [fp, #-16]
   11900:	e1a01003 	mov	r1, r3
   11904:	ebfffa00 	bl	1010c <XAxiVdma_GetChannel>
   11908:	e50b0008 	str	r0, [fp, #-8]
   1190c:	e51b3008 	ldr	r3, [fp, #-8]
   11910:	e3530000 	cmp	r3, #0
   11914:	1a000001 	bne	11920 <XAxiVdma_ClearDmaChannelErrors+0x44>
   11918:	e3a0300f 	mov	r3, #15
   1191c:	ea000009 	b	11948 <XAxiVdma_ClearDmaChannelErrors+0x6c>
   11920:	e51b3008 	ldr	r3, [fp, #-8]
   11924:	e593300c 	ldr	r3, [r3, #12]
   11928:	e3530000 	cmp	r3, #0
   1192c:	0a000004 	beq	11944 <XAxiVdma_ClearDmaChannelErrors+0x68>
   11930:	e51b0008 	ldr	r0, [fp, #-8]
   11934:	e51b1018 	ldr	r1, [fp, #-24]	; 0xffffffe8
   11938:	eb000109 	bl	11d64 <XAxiVdma_ClearChannelErrors>
   1193c:	e3a03000 	mov	r3, #0
   11940:	ea000000 	b	11948 <XAxiVdma_ClearDmaChannelErrors+0x6c>
   11944:	e3a03002 	mov	r3, #2
   11948:	e1a00003 	mov	r0, r3
   1194c:	e24bd004 	sub	sp, fp, #4
   11950:	e8bd8800 	pop	{fp, pc}

00011954 <XTime_SetTime>:
   11954:	e92d4830 	push	{r4, r5, fp, lr}
   11958:	e28db00c 	add	fp, sp, #12
   1195c:	e24dd008 	sub	sp, sp, #8
   11960:	e14b01f4 	strd	r0, [fp, #-20]	; 0xffffffec
   11964:	e3a00f82 	mov	r0, #520	; 0x208
   11968:	e34f08f0 	movt	r0, #63728	; 0xf8f0
   1196c:	e3a01000 	mov	r1, #0
   11970:	ebfff90c 	bl	fda8 <Xil_Out32>
   11974:	e51b3014 	ldr	r3, [fp, #-20]	; 0xffffffec
   11978:	e3a00c02 	mov	r0, #512	; 0x200
   1197c:	e34f08f0 	movt	r0, #63728	; 0xf8f0
   11980:	e1a01003 	mov	r1, r3
   11984:	ebfff907 	bl	fda8 <Xil_Out32>
   11988:	e14b21d4 	ldrd	r2, [fp, #-20]	; 0xffffffec
   1198c:	e1a04003 	mov	r4, r3
   11990:	e3a05000 	mov	r5, #0
   11994:	e1a03004 	mov	r3, r4
   11998:	e3a00f81 	mov	r0, #516	; 0x204
   1199c:	e34f08f0 	movt	r0, #63728	; 0xf8f0
   119a0:	e1a01003 	mov	r1, r3
   119a4:	ebfff8ff 	bl	fda8 <Xil_Out32>
   119a8:	e3a00f82 	mov	r0, #520	; 0x208
   119ac:	e34f08f0 	movt	r0, #63728	; 0xf8f0
   119b0:	e3a01001 	mov	r1, #1
   119b4:	ebfff8fb 	bl	fda8 <Xil_Out32>
   119b8:	e24bd00c 	sub	sp, fp, #12
   119bc:	e8bd8830 	pop	{r4, r5, fp, pc}

000119c0 <XTime_GetTime>:
   119c0:	e92d4830 	push	{r4, r5, fp, lr}
   119c4:	e28db00c 	add	fp, sp, #12
   119c8:	e24dd010 	sub	sp, sp, #16
   119cc:	e50b0018 	str	r0, [fp, #-24]	; 0xffffffe8
   119d0:	e3a00f81 	mov	r0, #516	; 0x204
   119d4:	e34f08f0 	movt	r0, #63728	; 0xf8f0
   119d8:	ebfff8d0 	bl	fd20 <Xil_In32>
   119dc:	e50b0010 	str	r0, [fp, #-16]
   119e0:	e3a00c02 	mov	r0, #512	; 0x200
   119e4:	e34f08f0 	movt	r0, #63728	; 0xf8f0
   119e8:	ebfff8cc 	bl	fd20 <Xil_In32>
   119ec:	e50b0014 	str	r0, [fp, #-20]	; 0xffffffec
   119f0:	e3a00f81 	mov	r0, #516	; 0x204
   119f4:	e34f08f0 	movt	r0, #63728	; 0xf8f0
   119f8:	ebfff8c8 	bl	fd20 <Xil_In32>
   119fc:	e1a02000 	mov	r2, r0
   11a00:	e51b3010 	ldr	r3, [fp, #-16]
   11a04:	e1520003 	cmp	r2, r3
   11a08:	1afffff0 	bne	119d0 <XTime_GetTime+0x10>
   11a0c:	e51b3010 	ldr	r3, [fp, #-16]
   11a10:	e1a02003 	mov	r2, r3
   11a14:	e3a03000 	mov	r3, #0
   11a18:	e1a05002 	mov	r5, r2
   11a1c:	e3a04000 	mov	r4, #0
   11a20:	e51b3014 	ldr	r3, [fp, #-20]	; 0xffffffec
   11a24:	e1a02003 	mov	r2, r3
   11a28:	e3a03000 	mov	r3, #0
   11a2c:	e1822004 	orr	r2, r2, r4
   11a30:	e1833005 	orr	r3, r3, r5
   11a34:	e51b1018 	ldr	r1, [fp, #-24]	; 0xffffffe8
   11a38:	e1c120f0 	strd	r2, [r1]
   11a3c:	e24bd00c 	sub	sp, fp, #12
   11a40:	e8bd8830 	pop	{r4, r5, fp, pc}

00011a44 <XAxiVdma_ChannelInit>:
   11a44:	e92d4800 	push	{fp, lr}
   11a48:	e28db004 	add	fp, sp, #4
   11a4c:	e24dd020 	sub	sp, sp, #32
   11a50:	e50b0020 	str	r0, [fp, #-32]	; 0xffffffe0
   11a54:	e51b3020 	ldr	r3, [fp, #-32]	; 0xffffffe0
   11a58:	e2833060 	add	r3, r3, #96	; 0x60
   11a5c:	e50b3010 	str	r3, [fp, #-16]
   11a60:	e51b3020 	ldr	r3, [fp, #-32]	; 0xffffffe0
   11a64:	e593302c 	ldr	r3, [r3, #44]	; 0x2c
   11a68:	e50b3014 	str	r3, [fp, #-20]	; 0xffffffec
   11a6c:	e51b3020 	ldr	r3, [fp, #-32]	; 0xffffffe0
   11a70:	e3a02000 	mov	r2, #0
   11a74:	e583200c 	str	r2, [r3, #12]
   11a78:	e51b3020 	ldr	r3, [fp, #-32]	; 0xffffffe0
   11a7c:	e3a02000 	mov	r2, #0
   11a80:	e5832030 	str	r2, [r3, #48]	; 0x30
   11a84:	e51b3020 	ldr	r3, [fp, #-32]	; 0xffffffe0
   11a88:	e3a02000 	mov	r2, #0
   11a8c:	e5832034 	str	r2, [r3, #52]	; 0x34
   11a90:	e51b3020 	ldr	r3, [fp, #-32]	; 0xffffffe0
   11a94:	e3a02000 	mov	r2, #0
   11a98:	e5832038 	str	r2, [r3, #56]	; 0x38
   11a9c:	e51b3020 	ldr	r3, [fp, #-32]	; 0xffffffe0
   11aa0:	e3a02000 	mov	r2, #0
   11aa4:	e583203c 	str	r2, [r3, #60]	; 0x3c
   11aa8:	e51b3014 	ldr	r3, [fp, #-20]	; 0xffffffec
   11aac:	e2433001 	sub	r3, r3, #1
   11ab0:	e2833003 	add	r3, r3, #3
   11ab4:	e1a03283 	lsl	r3, r3, #5
   11ab8:	e51b2020 	ldr	r2, [fp, #-32]	; 0xffffffe0
   11abc:	e0823003 	add	r3, r2, r3
   11ac0:	e50b3018 	str	r3, [fp, #-24]	; 0xffffffe8
   11ac4:	e51b3014 	ldr	r3, [fp, #-20]	; 0xffffffec
   11ac8:	e1a03283 	lsl	r3, r3, #5
   11acc:	e51b0010 	ldr	r0, [fp, #-16]
   11ad0:	e3a01000 	mov	r1, #0
   11ad4:	e1a02003 	mov	r2, r3
   11ad8:	ebffeb58 	bl	c840 <memset>
   11adc:	e3a03000 	mov	r3, #0
   11ae0:	e50b3008 	str	r3, [fp, #-8]
   11ae4:	ea00001b 	b	11b58 <XAxiVdma_ChannelInit+0x114>
   11ae8:	e51b3008 	ldr	r3, [fp, #-8]
   11aec:	e2833003 	add	r3, r3, #3
   11af0:	e1a03283 	lsl	r3, r3, #5
   11af4:	e51b2020 	ldr	r2, [fp, #-32]	; 0xffffffe0
   11af8:	e0823003 	add	r3, r2, r3
   11afc:	e50b301c 	str	r3, [fp, #-28]	; 0xffffffe4
   11b00:	e51b3014 	ldr	r3, [fp, #-20]	; 0xffffffec
   11b04:	e2432001 	sub	r2, r3, #1
   11b08:	e51b3008 	ldr	r3, [fp, #-8]
   11b0c:	e1520003 	cmp	r2, r3
   11b10:	1a000002 	bne	11b20 <XAxiVdma_ChannelInit+0xdc>
   11b14:	e51b3010 	ldr	r3, [fp, #-16]
   11b18:	e50b300c 	str	r3, [fp, #-12]
   11b1c:	ea000006 	b	11b3c <XAxiVdma_ChannelInit+0xf8>
   11b20:	e51b3008 	ldr	r3, [fp, #-8]
   11b24:	e2833001 	add	r3, r3, #1
   11b28:	e2833003 	add	r3, r3, #3
   11b2c:	e1a03283 	lsl	r3, r3, #5
   11b30:	e51b2020 	ldr	r2, [fp, #-32]	; 0xffffffe0
   11b34:	e0823003 	add	r3, r2, r3
   11b38:	e50b300c 	str	r3, [fp, #-12]
   11b3c:	e51b300c 	ldr	r3, [fp, #-12]
   11b40:	e51b001c 	ldr	r0, [fp, #-28]	; 0xffffffe4
   11b44:	e1a01003 	mov	r1, r3
   11b48:	eb0004d9 	bl	12eb4 <XAxiVdma_BdSetNextPtr>
   11b4c:	e51b3008 	ldr	r3, [fp, #-8]
   11b50:	e2833001 	add	r3, r3, #1
   11b54:	e50b3008 	str	r3, [fp, #-8]
   11b58:	e51b2008 	ldr	r2, [fp, #-8]
   11b5c:	e51b3014 	ldr	r3, [fp, #-20]	; 0xffffffec
   11b60:	e1520003 	cmp	r2, r3
   11b64:	baffffdf 	blt	11ae8 <XAxiVdma_ChannelInit+0xa4>
   11b68:	e51b3020 	ldr	r3, [fp, #-32]	; 0xffffffe0
   11b6c:	e51b2014 	ldr	r2, [fp, #-20]	; 0xffffffec
   11b70:	e5832048 	str	r2, [r3, #72]	; 0x48
   11b74:	e51b2010 	ldr	r2, [fp, #-16]
   11b78:	e51b3020 	ldr	r3, [fp, #-32]	; 0xffffffe0
   11b7c:	e5832034 	str	r2, [r3, #52]	; 0x34
   11b80:	e51b2010 	ldr	r2, [fp, #-16]
   11b84:	e51b3020 	ldr	r3, [fp, #-32]	; 0xffffffe0
   11b88:	e5832030 	str	r2, [r3, #48]	; 0x30
   11b8c:	e51b2018 	ldr	r2, [fp, #-24]	; 0xffffffe8
   11b90:	e51b3020 	ldr	r3, [fp, #-32]	; 0xffffffe0
   11b94:	e583203c 	str	r2, [r3, #60]	; 0x3c
   11b98:	e51b2018 	ldr	r2, [fp, #-24]	; 0xffffffe8
   11b9c:	e51b3020 	ldr	r3, [fp, #-32]	; 0xffffffe0
   11ba0:	e5832038 	str	r2, [r3, #56]	; 0x38
   11ba4:	e51b3020 	ldr	r3, [fp, #-32]	; 0xffffffe0
   11ba8:	e3a02001 	mov	r2, #1
   11bac:	e583200c 	str	r2, [r3, #12]
   11bb0:	e1a00000 	nop			; (mov r0, r0)
   11bb4:	e24bd004 	sub	sp, fp, #4
   11bb8:	e8bd8800 	pop	{fp, pc}

00011bbc <XAxiVdma_ChannelResetNotDone>:
   11bbc:	e92d4800 	push	{fp, lr}
   11bc0:	e28db004 	add	fp, sp, #4
   11bc4:	e24dd008 	sub	sp, sp, #8
   11bc8:	e50b0008 	str	r0, [fp, #-8]
   11bcc:	e51b3008 	ldr	r3, [fp, #-8]
   11bd0:	e5933000 	ldr	r3, [r3]
   11bd4:	e1a00003 	mov	r0, r3
   11bd8:	ebfff850 	bl	fd20 <Xil_In32>
   11bdc:	e1a03000 	mov	r3, r0
   11be0:	e2033004 	and	r3, r3, #4
   11be4:	e1a00003 	mov	r0, r3
   11be8:	e24bd004 	sub	sp, fp, #4
   11bec:	e8bd8800 	pop	{fp, pc}

00011bf0 <XAxiVdma_ChannelReset>:
   11bf0:	e92d4800 	push	{fp, lr}
   11bf4:	e28db004 	add	fp, sp, #4
   11bf8:	e24dd008 	sub	sp, sp, #8
   11bfc:	e50b0008 	str	r0, [fp, #-8]
   11c00:	e51b3008 	ldr	r3, [fp, #-8]
   11c04:	e5933000 	ldr	r3, [r3]
   11c08:	e1a00003 	mov	r0, r3
   11c0c:	e3a01004 	mov	r1, #4
   11c10:	ebfff864 	bl	fda8 <Xil_Out32>
   11c14:	e1a00000 	nop			; (mov r0, r0)
   11c18:	e24bd004 	sub	sp, fp, #4
   11c1c:	e8bd8800 	pop	{fp, pc}

00011c20 <XAxiVdma_ChannelIsRunning>:
   11c20:	e92d4800 	push	{fp, lr}
   11c24:	e28db004 	add	fp, sp, #4
   11c28:	e24dd010 	sub	sp, sp, #16
   11c2c:	e50b0010 	str	r0, [fp, #-16]
   11c30:	e51b3010 	ldr	r3, [fp, #-16]
   11c34:	e5933000 	ldr	r3, [r3]
   11c38:	e2833004 	add	r3, r3, #4
   11c3c:	e1a00003 	mov	r0, r3
   11c40:	ebfff836 	bl	fd20 <Xil_In32>
   11c44:	e1a03000 	mov	r3, r0
   11c48:	e2033001 	and	r3, r3, #1
   11c4c:	e50b3008 	str	r3, [fp, #-8]
   11c50:	e51b3008 	ldr	r3, [fp, #-8]
   11c54:	e3530000 	cmp	r3, #0
   11c58:	0a000001 	beq	11c64 <XAxiVdma_ChannelIsRunning+0x44>
   11c5c:	e3a03000 	mov	r3, #0
   11c60:	ea00000c 	b	11c98 <XAxiVdma_ChannelIsRunning+0x78>
   11c64:	e51b3010 	ldr	r3, [fp, #-16]
   11c68:	e5933000 	ldr	r3, [r3]
   11c6c:	e1a00003 	mov	r0, r3
   11c70:	ebfff82a 	bl	fd20 <Xil_In32>
   11c74:	e1a03000 	mov	r3, r0
   11c78:	e2033001 	and	r3, r3, #1
   11c7c:	e50b3008 	str	r3, [fp, #-8]
   11c80:	e51b3008 	ldr	r3, [fp, #-8]
   11c84:	e3530000 	cmp	r3, #0
   11c88:	1a000001 	bne	11c94 <XAxiVdma_ChannelIsRunning+0x74>
   11c8c:	e3a03000 	mov	r3, #0
   11c90:	ea000000 	b	11c98 <XAxiVdma_ChannelIsRunning+0x78>
   11c94:	e3a03001 	mov	r3, #1
   11c98:	e1a00003 	mov	r0, r3
   11c9c:	e24bd004 	sub	sp, fp, #4
   11ca0:	e8bd8800 	pop	{fp, pc}

00011ca4 <XAxiVdma_ChannelIsBusy>:
   11ca4:	e92d4800 	push	{fp, lr}
   11ca8:	e28db004 	add	fp, sp, #4
   11cac:	e24dd010 	sub	sp, sp, #16
   11cb0:	e50b0010 	str	r0, [fp, #-16]
   11cb4:	e51b3010 	ldr	r3, [fp, #-16]
   11cb8:	e5933000 	ldr	r3, [r3]
   11cbc:	e2833004 	add	r3, r3, #4
   11cc0:	e1a00003 	mov	r0, r3
   11cc4:	ebfff815 	bl	fd20 <Xil_In32>
   11cc8:	e1a03000 	mov	r3, r0
   11ccc:	e2033002 	and	r3, r3, #2
   11cd0:	e50b3008 	str	r3, [fp, #-8]
   11cd4:	e51b3008 	ldr	r3, [fp, #-8]
   11cd8:	e3530000 	cmp	r3, #0
   11cdc:	0a000001 	beq	11ce8 <XAxiVdma_ChannelIsBusy+0x44>
   11ce0:	e3a03000 	mov	r3, #0
   11ce4:	ea00000d 	b	11d20 <XAxiVdma_ChannelIsBusy+0x7c>
   11ce8:	e51b3010 	ldr	r3, [fp, #-16]
   11cec:	e5933000 	ldr	r3, [r3]
   11cf0:	e2833004 	add	r3, r3, #4
   11cf4:	e1a00003 	mov	r0, r3
   11cf8:	ebfff808 	bl	fd20 <Xil_In32>
   11cfc:	e1a03000 	mov	r3, r0
   11d00:	e2033001 	and	r3, r3, #1
   11d04:	e50b3008 	str	r3, [fp, #-8]
   11d08:	e51b3008 	ldr	r3, [fp, #-8]
   11d0c:	e3530000 	cmp	r3, #0
   11d10:	0a000001 	beq	11d1c <XAxiVdma_ChannelIsBusy+0x78>
   11d14:	e3a03000 	mov	r3, #0
   11d18:	ea000000 	b	11d20 <XAxiVdma_ChannelIsBusy+0x7c>
   11d1c:	e3a03001 	mov	r3, #1
   11d20:	e1a00003 	mov	r0, r3
   11d24:	e24bd004 	sub	sp, fp, #4
   11d28:	e8bd8800 	pop	{fp, pc}

00011d2c <XAxiVdma_ChannelErrors>:
   11d2c:	e92d4800 	push	{fp, lr}
   11d30:	e28db004 	add	fp, sp, #4
   11d34:	e24dd008 	sub	sp, sp, #8
   11d38:	e50b0008 	str	r0, [fp, #-8]
   11d3c:	e51b3008 	ldr	r3, [fp, #-8]
   11d40:	e5933000 	ldr	r3, [r3]
   11d44:	e2833004 	add	r3, r3, #4
   11d48:	e1a00003 	mov	r0, r3
   11d4c:	ebfff7f3 	bl	fd20 <Xil_In32>
   11d50:	e1a03000 	mov	r3, r0
   11d54:	e2033eff 	and	r3, r3, #4080	; 0xff0
   11d58:	e1a00003 	mov	r0, r3
   11d5c:	e24bd004 	sub	sp, fp, #4
   11d60:	e8bd8800 	pop	{fp, pc}

00011d64 <XAxiVdma_ClearChannelErrors>:
   11d64:	e92d4800 	push	{fp, lr}
   11d68:	e28db004 	add	fp, sp, #4
   11d6c:	e24dd010 	sub	sp, sp, #16
   11d70:	e50b0010 	str	r0, [fp, #-16]
   11d74:	e50b1014 	str	r1, [fp, #-20]	; 0xffffffec
   11d78:	e51b3010 	ldr	r3, [fp, #-16]
   11d7c:	e5933000 	ldr	r3, [r3]
   11d80:	e2833004 	add	r3, r3, #4
   11d84:	e1a00003 	mov	r0, r3
   11d88:	ebfff7e4 	bl	fd20 <Xil_In32>
   11d8c:	e1a02000 	mov	r2, r0
   11d90:	e51b3014 	ldr	r3, [fp, #-20]	; 0xffffffec
   11d94:	e1823003 	orr	r3, r2, r3
   11d98:	e50b3008 	str	r3, [fp, #-8]
   11d9c:	e51b3010 	ldr	r3, [fp, #-16]
   11da0:	e5933000 	ldr	r3, [r3]
   11da4:	e2833004 	add	r3, r3, #4
   11da8:	e1a00003 	mov	r0, r3
   11dac:	e51b1008 	ldr	r1, [fp, #-8]
   11db0:	ebfff7fc 	bl	fda8 <Xil_Out32>
   11db4:	e1a00000 	nop			; (mov r0, r0)
   11db8:	e24bd004 	sub	sp, fp, #4
   11dbc:	e8bd8800 	pop	{fp, pc}

00011dc0 <XAxiVdma_ChannelGetStatus>:
   11dc0:	e92d4800 	push	{fp, lr}
   11dc4:	e28db004 	add	fp, sp, #4
   11dc8:	e24dd008 	sub	sp, sp, #8
   11dcc:	e50b0008 	str	r0, [fp, #-8]
   11dd0:	e51b3008 	ldr	r3, [fp, #-8]
   11dd4:	e5933000 	ldr	r3, [r3]
   11dd8:	e2833004 	add	r3, r3, #4
   11ddc:	e1a00003 	mov	r0, r3
   11de0:	ebfff7ce 	bl	fd20 <Xil_In32>
   11de4:	e1a03000 	mov	r3, r0
   11de8:	e1a00003 	mov	r0, r3
   11dec:	e24bd004 	sub	sp, fp, #4
   11df0:	e8bd8800 	pop	{fp, pc}

00011df4 <XAxiVdma_ChannelStartParking>:
   11df4:	e92d4800 	push	{fp, lr}
   11df8:	e28db004 	add	fp, sp, #4
   11dfc:	e24dd010 	sub	sp, sp, #16
   11e00:	e50b0010 	str	r0, [fp, #-16]
   11e04:	e51b0010 	ldr	r0, [fp, #-16]
   11e08:	ebffff84 	bl	11c20 <XAxiVdma_ChannelIsRunning>
   11e0c:	e1a03000 	mov	r3, r0
   11e10:	e3530000 	cmp	r3, #0
   11e14:	1a000001 	bne	11e20 <XAxiVdma_ChannelStartParking+0x2c>
   11e18:	e3a03001 	mov	r3, #1
   11e1c:	ea00000c 	b	11e54 <XAxiVdma_ChannelStartParking+0x60>
   11e20:	e51b3010 	ldr	r3, [fp, #-16]
   11e24:	e5933000 	ldr	r3, [r3]
   11e28:	e1a00003 	mov	r0, r3
   11e2c:	ebfff7bb 	bl	fd20 <Xil_In32>
   11e30:	e1a03000 	mov	r3, r0
   11e34:	e3c33002 	bic	r3, r3, #2
   11e38:	e50b3008 	str	r3, [fp, #-8]
   11e3c:	e51b3010 	ldr	r3, [fp, #-16]
   11e40:	e5933000 	ldr	r3, [r3]
   11e44:	e1a00003 	mov	r0, r3
   11e48:	e51b1008 	ldr	r1, [fp, #-8]
   11e4c:	ebfff7d5 	bl	fda8 <Xil_Out32>
   11e50:	e3a03000 	mov	r3, #0
   11e54:	e1a00003 	mov	r0, r3
   11e58:	e24bd004 	sub	sp, fp, #4
   11e5c:	e8bd8800 	pop	{fp, pc}

00011e60 <XAxiVdma_ChannelStopParking>:
   11e60:	e92d4800 	push	{fp, lr}
   11e64:	e28db004 	add	fp, sp, #4
   11e68:	e24dd010 	sub	sp, sp, #16
   11e6c:	e50b0010 	str	r0, [fp, #-16]
   11e70:	e51b3010 	ldr	r3, [fp, #-16]
   11e74:	e5933000 	ldr	r3, [r3]
   11e78:	e1a00003 	mov	r0, r3
   11e7c:	ebfff7a7 	bl	fd20 <Xil_In32>
   11e80:	e1a03000 	mov	r3, r0
   11e84:	e3833002 	orr	r3, r3, #2
   11e88:	e50b3008 	str	r3, [fp, #-8]
   11e8c:	e51b3010 	ldr	r3, [fp, #-16]
   11e90:	e5933000 	ldr	r3, [r3]
   11e94:	e1a00003 	mov	r0, r3
   11e98:	e51b1008 	ldr	r1, [fp, #-8]
   11e9c:	ebfff7c1 	bl	fda8 <Xil_Out32>
   11ea0:	e1a00000 	nop			; (mov r0, r0)
   11ea4:	e24bd004 	sub	sp, fp, #4
   11ea8:	e8bd8800 	pop	{fp, pc}

00011eac <XAxiVdma_ChannelStartFrmCntEnable>:
   11eac:	e92d4800 	push	{fp, lr}
   11eb0:	e28db004 	add	fp, sp, #4
   11eb4:	e24dd010 	sub	sp, sp, #16
   11eb8:	e50b0010 	str	r0, [fp, #-16]
   11ebc:	e51b3010 	ldr	r3, [fp, #-16]
   11ec0:	e5933000 	ldr	r3, [r3]
   11ec4:	e1a00003 	mov	r0, r3
   11ec8:	ebfff794 	bl	fd20 <Xil_In32>
   11ecc:	e1a03000 	mov	r3, r0
   11ed0:	e3833010 	orr	r3, r3, #16
   11ed4:	e50b3008 	str	r3, [fp, #-8]
   11ed8:	e51b3010 	ldr	r3, [fp, #-16]
   11edc:	e5933000 	ldr	r3, [r3]
   11ee0:	e1a00003 	mov	r0, r3
   11ee4:	e51b1008 	ldr	r1, [fp, #-8]
   11ee8:	ebfff7ae 	bl	fda8 <Xil_Out32>
   11eec:	e1a00000 	nop			; (mov r0, r0)
   11ef0:	e24bd004 	sub	sp, fp, #4
   11ef4:	e8bd8800 	pop	{fp, pc}

00011ef8 <XAxiVdma_ChannelSetBdAddrs>:
   11ef8:	e92d4800 	push	{fp, lr}
   11efc:	e28db004 	add	fp, sp, #4
   11f00:	e24dd028 	sub	sp, sp, #40	; 0x28
   11f04:	e50b0020 	str	r0, [fp, #-32]	; 0xffffffe0
   11f08:	e50b1024 	str	r1, [fp, #-36]	; 0xffffffdc
   11f0c:	e50b2028 	str	r2, [fp, #-40]	; 0xffffffd8
   11f10:	e51b3020 	ldr	r3, [fp, #-32]	; 0xffffffe0
   11f14:	e5933048 	ldr	r3, [r3, #72]	; 0x48
   11f18:	e50b3014 	str	r3, [fp, #-20]	; 0xffffffec
   11f1c:	e51b3024 	ldr	r3, [fp, #-36]	; 0xffffffdc
   11f20:	e50b300c 	str	r3, [fp, #-12]
   11f24:	e51b3028 	ldr	r3, [fp, #-40]	; 0xffffffd8
   11f28:	e50b3010 	str	r3, [fp, #-16]
   11f2c:	e51b3020 	ldr	r3, [fp, #-32]	; 0xffffffe0
   11f30:	e5933014 	ldr	r3, [r3, #20]
   11f34:	e3530000 	cmp	r3, #0
   11f38:	0a000006 	beq	11f58 <XAxiVdma_ChannelSetBdAddrs+0x60>
   11f3c:	e51b0020 	ldr	r0, [fp, #-32]	; 0xffffffe0
   11f40:	ebffff57 	bl	11ca4 <XAxiVdma_ChannelIsBusy>
   11f44:	e1a03000 	mov	r3, r0
   11f48:	e3530000 	cmp	r3, #0
   11f4c:	0a000001 	beq	11f58 <XAxiVdma_ChannelSetBdAddrs+0x60>
   11f50:	e3a03015 	mov	r3, #21
   11f54:	ea00003f 	b	12058 <XAxiVdma_ChannelSetBdAddrs+0x160>
   11f58:	e51b2024 	ldr	r2, [fp, #-36]	; 0xffffffdc
   11f5c:	e51b3014 	ldr	r3, [fp, #-20]	; 0xffffffec
   11f60:	e1a03283 	lsl	r3, r3, #5
   11f64:	e1a00002 	mov	r0, r2
   11f68:	e3a01000 	mov	r1, #0
   11f6c:	e1a02003 	mov	r2, r3
   11f70:	ebffea32 	bl	c840 <memset>
   11f74:	e51b2028 	ldr	r2, [fp, #-40]	; 0xffffffd8
   11f78:	e51b3014 	ldr	r3, [fp, #-20]	; 0xffffffec
   11f7c:	e1a03283 	lsl	r3, r3, #5
   11f80:	e1a00002 	mov	r0, r2
   11f84:	e3a01000 	mov	r1, #0
   11f88:	e1a02003 	mov	r2, r3
   11f8c:	ebffea2b 	bl	c840 <memset>
   11f90:	e3a03000 	mov	r3, #0
   11f94:	e50b3008 	str	r3, [fp, #-8]
   11f98:	ea000015 	b	11ff4 <XAxiVdma_ChannelSetBdAddrs+0xfc>
   11f9c:	e51b3010 	ldr	r3, [fp, #-16]
   11fa0:	e50b3018 	str	r3, [fp, #-24]	; 0xffffffe8
   11fa4:	e51b3014 	ldr	r3, [fp, #-20]	; 0xffffffec
   11fa8:	e2432001 	sub	r2, r3, #1
   11fac:	e51b3008 	ldr	r3, [fp, #-8]
   11fb0:	e1520003 	cmp	r2, r3
   11fb4:	1a000002 	bne	11fc4 <XAxiVdma_ChannelSetBdAddrs+0xcc>
   11fb8:	e51b3024 	ldr	r3, [fp, #-36]	; 0xffffffdc
   11fbc:	e50b300c 	str	r3, [fp, #-12]
   11fc0:	ea000002 	b	11fd0 <XAxiVdma_ChannelSetBdAddrs+0xd8>
   11fc4:	e51b300c 	ldr	r3, [fp, #-12]
   11fc8:	e2833020 	add	r3, r3, #32
   11fcc:	e50b300c 	str	r3, [fp, #-12]
   11fd0:	e51b0018 	ldr	r0, [fp, #-24]	; 0xffffffe8
   11fd4:	e51b100c 	ldr	r1, [fp, #-12]
   11fd8:	eb0003b5 	bl	12eb4 <XAxiVdma_BdSetNextPtr>
   11fdc:	e51b3010 	ldr	r3, [fp, #-16]
   11fe0:	e2833020 	add	r3, r3, #32
   11fe4:	e50b3010 	str	r3, [fp, #-16]
   11fe8:	e51b3008 	ldr	r3, [fp, #-8]
   11fec:	e2833001 	add	r3, r3, #1
   11ff0:	e50b3008 	str	r3, [fp, #-8]
   11ff4:	e51b2008 	ldr	r2, [fp, #-8]
   11ff8:	e51b3014 	ldr	r3, [fp, #-20]	; 0xffffffec
   11ffc:	e1520003 	cmp	r2, r3
   12000:	baffffe5 	blt	11f9c <XAxiVdma_ChannelSetBdAddrs+0xa4>
   12004:	e51b3020 	ldr	r3, [fp, #-32]	; 0xffffffe0
   12008:	e51b2024 	ldr	r2, [fp, #-36]	; 0xffffffdc
   1200c:	e5832030 	str	r2, [r3, #48]	; 0x30
   12010:	e51b3020 	ldr	r3, [fp, #-32]	; 0xffffffe0
   12014:	e51b2028 	ldr	r2, [fp, #-40]	; 0xffffffd8
   12018:	e5832034 	str	r2, [r3, #52]	; 0x34
   1201c:	e51b3014 	ldr	r3, [fp, #-20]	; 0xffffffec
   12020:	e2433001 	sub	r3, r3, #1
   12024:	e1a02283 	lsl	r2, r3, #5
   12028:	e51b3024 	ldr	r3, [fp, #-36]	; 0xffffffdc
   1202c:	e0822003 	add	r2, r2, r3
   12030:	e51b3020 	ldr	r3, [fp, #-32]	; 0xffffffe0
   12034:	e5832038 	str	r2, [r3, #56]	; 0x38
   12038:	e51b3014 	ldr	r3, [fp, #-20]	; 0xffffffec
   1203c:	e2433001 	sub	r3, r3, #1
   12040:	e1a02283 	lsl	r2, r3, #5
   12044:	e51b3028 	ldr	r3, [fp, #-40]	; 0xffffffd8
   12048:	e0822003 	add	r2, r2, r3
   1204c:	e51b3020 	ldr	r3, [fp, #-32]	; 0xffffffe0
   12050:	e583203c 	str	r2, [r3, #60]	; 0x3c
   12054:	e3a03000 	mov	r3, #0
   12058:	e1a00003 	mov	r0, r3
   1205c:	e24bd004 	sub	sp, fp, #4
   12060:	e8bd8800 	pop	{fp, pc}

00012064 <XAxiVdma_ChannelStartTransfer>:
   12064:	e92d4800 	push	{fp, lr}
   12068:	e28db004 	add	fp, sp, #4
   1206c:	e24dd010 	sub	sp, sp, #16
   12070:	e50b0010 	str	r0, [fp, #-16]
   12074:	e50b1014 	str	r1, [fp, #-20]	; 0xffffffec
   12078:	e51b3010 	ldr	r3, [fp, #-16]
   1207c:	e593300c 	ldr	r3, [r3, #12]
   12080:	e3530000 	cmp	r3, #0
   12084:	1a000001 	bne	12090 <XAxiVdma_ChannelStartTransfer+0x2c>
   12088:	e3a03001 	mov	r3, #1
   1208c:	ea00002a 	b	1213c <XAxiVdma_ChannelStartTransfer+0xd8>
   12090:	e51b3010 	ldr	r3, [fp, #-16]
   12094:	e5933014 	ldr	r3, [r3, #20]
   12098:	e3530000 	cmp	r3, #0
   1209c:	0a000006 	beq	120bc <XAxiVdma_ChannelStartTransfer+0x58>
   120a0:	e51b0010 	ldr	r0, [fp, #-16]
   120a4:	ebfffefe 	bl	11ca4 <XAxiVdma_ChannelIsBusy>
   120a8:	e1a03000 	mov	r3, r0
   120ac:	e3530000 	cmp	r3, #0
   120b0:	0a000001 	beq	120bc <XAxiVdma_ChannelStartTransfer+0x58>
   120b4:	e3a03015 	mov	r3, #21
   120b8:	ea00001f 	b	1213c <XAxiVdma_ChannelStartTransfer+0xd8>
   120bc:	e51b0010 	ldr	r0, [fp, #-16]
   120c0:	e51b1014 	ldr	r1, [fp, #-20]	; 0xffffffec
   120c4:	eb00001f 	bl	12148 <XAxiVdma_ChannelConfig>
   120c8:	e50b0008 	str	r0, [fp, #-8]
   120cc:	e51b3008 	ldr	r3, [fp, #-8]
   120d0:	e3530000 	cmp	r3, #0
   120d4:	0a000001 	beq	120e0 <XAxiVdma_ChannelStartTransfer+0x7c>
   120d8:	e51b3008 	ldr	r3, [fp, #-8]
   120dc:	ea000016 	b	1213c <XAxiVdma_ChannelStartTransfer+0xd8>
   120e0:	e51b3014 	ldr	r3, [fp, #-20]	; 0xffffffec
   120e4:	e2832020 	add	r2, r3, #32
   120e8:	e51b3010 	ldr	r3, [fp, #-16]
   120ec:	e5933048 	ldr	r3, [r3, #72]	; 0x48
   120f0:	e51b0010 	ldr	r0, [fp, #-16]
   120f4:	e1a01002 	mov	r1, r2
   120f8:	e1a02003 	mov	r2, r3
   120fc:	eb000150 	bl	12644 <XAxiVdma_ChannelSetBufferAddr>
   12100:	e50b0008 	str	r0, [fp, #-8]
   12104:	e51b3008 	ldr	r3, [fp, #-8]
   12108:	e3530000 	cmp	r3, #0
   1210c:	0a000001 	beq	12118 <XAxiVdma_ChannelStartTransfer+0xb4>
   12110:	e51b3008 	ldr	r3, [fp, #-8]
   12114:	ea000008 	b	1213c <XAxiVdma_ChannelStartTransfer+0xd8>
   12118:	e51b0010 	ldr	r0, [fp, #-16]
   1211c:	eb0001c9 	bl	12848 <XAxiVdma_ChannelStart>
   12120:	e50b0008 	str	r0, [fp, #-8]
   12124:	e51b3008 	ldr	r3, [fp, #-8]
   12128:	e3530000 	cmp	r3, #0
   1212c:	0a000001 	beq	12138 <XAxiVdma_ChannelStartTransfer+0xd4>
   12130:	e51b3008 	ldr	r3, [fp, #-8]
   12134:	ea000000 	b	1213c <XAxiVdma_ChannelStartTransfer+0xd8>
   12138:	e3a03000 	mov	r3, #0
   1213c:	e1a00003 	mov	r0, r3
   12140:	e24bd004 	sub	sp, fp, #4
   12144:	e8bd8800 	pop	{fp, pc}

00012148 <XAxiVdma_ChannelConfig>:
   12148:	e92d4800 	push	{fp, lr}
   1214c:	e28db004 	add	fp, sp, #4
   12150:	e24dd028 	sub	sp, sp, #40	; 0x28
   12154:	e50b0028 	str	r0, [fp, #-40]	; 0xffffffd8
   12158:	e50b102c 	str	r1, [fp, #-44]	; 0xffffffd4
   1215c:	e51b3028 	ldr	r3, [fp, #-40]	; 0xffffffd8
   12160:	e593300c 	ldr	r3, [r3, #12]
   12164:	e3530000 	cmp	r3, #0
   12168:	1a000001 	bne	12174 <XAxiVdma_ChannelConfig+0x2c>
   1216c:	e3a03001 	mov	r3, #1
   12170:	ea000130 	b	12638 <XAxiVdma_ChannelConfig+0x4f0>
   12174:	e51b3028 	ldr	r3, [fp, #-40]	; 0xffffffd8
   12178:	e5933014 	ldr	r3, [r3, #20]
   1217c:	e3530000 	cmp	r3, #0
   12180:	0a000006 	beq	121a0 <XAxiVdma_ChannelConfig+0x58>
   12184:	e51b0028 	ldr	r0, [fp, #-40]	; 0xffffffd8
   12188:	ebfffec5 	bl	11ca4 <XAxiVdma_ChannelIsBusy>
   1218c:	e1a03000 	mov	r3, r0
   12190:	e3530000 	cmp	r3, #0
   12194:	0a000001 	beq	121a0 <XAxiVdma_ChannelConfig+0x58>
   12198:	e3a03015 	mov	r3, #21
   1219c:	ea000125 	b	12638 <XAxiVdma_ChannelConfig+0x4f0>
   121a0:	e51b302c 	ldr	r3, [fp, #-44]	; 0xffffffd4
   121a4:	e5932000 	ldr	r2, [r3]
   121a8:	e51b3028 	ldr	r3, [fp, #-40]	; 0xffffffd8
   121ac:	e5832044 	str	r2, [r3, #68]	; 0x44
   121b0:	e51b3028 	ldr	r3, [fp, #-40]	; 0xffffffd8
   121b4:	e5933028 	ldr	r3, [r3, #40]	; 0x28
   121b8:	e2433001 	sub	r3, r3, #1
   121bc:	e50b3010 	str	r3, [fp, #-16]
   121c0:	e51b3028 	ldr	r3, [fp, #-40]	; 0xffffffd8
   121c4:	e593301c 	ldr	r3, [r3, #28]
   121c8:	e3530000 	cmp	r3, #0
   121cc:	1a000011 	bne	12218 <XAxiVdma_ChannelConfig+0xd0>
   121d0:	e51b302c 	ldr	r3, [fp, #-44]	; 0xffffffd4
   121d4:	e5933004 	ldr	r3, [r3, #4]
   121d8:	e1a02003 	mov	r2, r3
   121dc:	e51b3010 	ldr	r3, [fp, #-16]
   121e0:	e0033002 	and	r3, r3, r2
   121e4:	e3530000 	cmp	r3, #0
   121e8:	0a000001 	beq	121f4 <XAxiVdma_ChannelConfig+0xac>
   121ec:	e3a0300f 	mov	r3, #15
   121f0:	ea000110 	b	12638 <XAxiVdma_ChannelConfig+0x4f0>
   121f4:	e51b302c 	ldr	r3, [fp, #-44]	; 0xffffffd4
   121f8:	e5933008 	ldr	r3, [r3, #8]
   121fc:	e1a02003 	mov	r2, r3
   12200:	e51b3010 	ldr	r3, [fp, #-16]
   12204:	e0033002 	and	r3, r3, r2
   12208:	e3530000 	cmp	r3, #0
   1220c:	0a000001 	beq	12218 <XAxiVdma_ChannelConfig+0xd0>
   12210:	e3a0300f 	mov	r3, #15
   12214:	ea000107 	b	12638 <XAxiVdma_ChannelConfig+0x4f0>
   12218:	e51b302c 	ldr	r3, [fp, #-44]	; 0xffffffd4
   1221c:	e5932004 	ldr	r2, [r3, #4]
   12220:	e51b3028 	ldr	r3, [fp, #-40]	; 0xffffffd8
   12224:	e5832040 	str	r2, [r3, #64]	; 0x40
   12228:	e51b3028 	ldr	r3, [fp, #-40]	; 0xffffffd8
   1222c:	e5933000 	ldr	r3, [r3]
   12230:	e1a00003 	mov	r0, r3
   12234:	ebfff6b9 	bl	fd20 <Xil_In32>
   12238:	e50b0008 	str	r0, [fp, #-8]
   1223c:	e51b3028 	ldr	r3, [fp, #-40]	; 0xffffffd8
   12240:	e5933000 	ldr	r3, [r3]
   12244:	e1a00003 	mov	r0, r3
   12248:	ebfff6b4 	bl	fd20 <Xil_In32>
   1224c:	e1a03000 	mov	r3, r0
   12250:	e3c33ef1 	bic	r3, r3, #3856	; 0xf10
   12254:	e3c3300a 	bic	r3, r3, #10
   12258:	e50b3008 	str	r3, [fp, #-8]
   1225c:	e51b302c 	ldr	r3, [fp, #-44]	; 0xffffffd4
   12260:	e5933010 	ldr	r3, [r3, #16]
   12264:	e3530000 	cmp	r3, #0
   12268:	0a000003 	beq	1227c <XAxiVdma_ChannelConfig+0x134>
   1226c:	e51b3008 	ldr	r3, [fp, #-8]
   12270:	e3833002 	orr	r3, r3, #2
   12274:	e50b3008 	str	r3, [fp, #-8]
   12278:	ea000046 	b	12398 <XAxiVdma_ChannelConfig+0x250>
   1227c:	e51b0028 	ldr	r0, [fp, #-40]	; 0xffffffd8
   12280:	ebfffe66 	bl	11c20 <XAxiVdma_ChannelIsRunning>
   12284:	e1a03000 	mov	r3, r0
   12288:	e3530000 	cmp	r3, #0
   1228c:	1a000005 	bne	122a8 <XAxiVdma_ChannelConfig+0x160>
   12290:	e51b3028 	ldr	r3, [fp, #-40]	; 0xffffffd8
   12294:	e5933014 	ldr	r3, [r3, #20]
   12298:	e3530000 	cmp	r3, #0
   1229c:	0a000001 	beq	122a8 <XAxiVdma_ChannelConfig+0x160>
   122a0:	e3a0300f 	mov	r3, #15
   122a4:	ea0000e3 	b	12638 <XAxiVdma_ChannelConfig+0x4f0>
   122a8:	e51b302c 	ldr	r3, [fp, #-44]	; 0xffffffd4
   122ac:	e59330a0 	ldr	r3, [r3, #160]	; 0xa0
   122b0:	e353000f 	cmp	r3, #15
   122b4:	da000001 	ble	122c0 <XAxiVdma_ChannelConfig+0x178>
   122b8:	e3a0300f 	mov	r3, #15
   122bc:	ea0000dd 	b	12638 <XAxiVdma_ChannelConfig+0x4f0>
   122c0:	e51b3028 	ldr	r3, [fp, #-40]	; 0xffffffd8
   122c4:	e5933018 	ldr	r3, [r3, #24]
   122c8:	e3530000 	cmp	r3, #0
   122cc:	0a000017 	beq	12330 <XAxiVdma_ChannelConfig+0x1e8>
   122d0:	e51b302c 	ldr	r3, [fp, #-44]	; 0xffffffd4
   122d4:	e59330a0 	ldr	r3, [r3, #160]	; 0xa0
   122d8:	e203301f 	and	r3, r3, #31
   122dc:	e50b3014 	str	r3, [fp, #-20]	; 0xffffffec
   122e0:	e51b3028 	ldr	r3, [fp, #-40]	; 0xffffffd8
   122e4:	e5933004 	ldr	r3, [r3, #4]
   122e8:	e2833028 	add	r3, r3, #40	; 0x28
   122ec:	e1a00003 	mov	r0, r3
   122f0:	ebfff68a 	bl	fd20 <Xil_In32>
   122f4:	e50b0018 	str	r0, [fp, #-24]	; 0xffffffe8
   122f8:	e51b3018 	ldr	r3, [fp, #-24]	; 0xffffffe8
   122fc:	e3c3301f 	bic	r3, r3, #31
   12300:	e50b3018 	str	r3, [fp, #-24]	; 0xffffffe8
   12304:	e51b2018 	ldr	r2, [fp, #-24]	; 0xffffffe8
   12308:	e51b3014 	ldr	r3, [fp, #-20]	; 0xffffffec
   1230c:	e1823003 	orr	r3, r2, r3
   12310:	e50b3018 	str	r3, [fp, #-24]	; 0xffffffe8
   12314:	e51b3028 	ldr	r3, [fp, #-40]	; 0xffffffd8
   12318:	e5933004 	ldr	r3, [r3, #4]
   1231c:	e2833028 	add	r3, r3, #40	; 0x28
   12320:	e1a00003 	mov	r0, r3
   12324:	e51b1018 	ldr	r1, [fp, #-24]	; 0xffffffe8
   12328:	ebfff69e 	bl	fda8 <Xil_Out32>
   1232c:	ea000019 	b	12398 <XAxiVdma_ChannelConfig+0x250>
   12330:	e51b302c 	ldr	r3, [fp, #-44]	; 0xffffffd4
   12334:	e59330a0 	ldr	r3, [r3, #160]	; 0xa0
   12338:	e1a03403 	lsl	r3, r3, #8
   1233c:	e50b3014 	str	r3, [fp, #-20]	; 0xffffffec
   12340:	e51b3014 	ldr	r3, [fp, #-20]	; 0xffffffec
   12344:	e2033c1f 	and	r3, r3, #7936	; 0x1f00
   12348:	e50b3014 	str	r3, [fp, #-20]	; 0xffffffec
   1234c:	e51b3028 	ldr	r3, [fp, #-40]	; 0xffffffd8
   12350:	e5933004 	ldr	r3, [r3, #4]
   12354:	e2833028 	add	r3, r3, #40	; 0x28
   12358:	e1a00003 	mov	r0, r3
   1235c:	ebfff66f 	bl	fd20 <Xil_In32>
   12360:	e50b0018 	str	r0, [fp, #-24]	; 0xffffffe8
   12364:	e51b3018 	ldr	r3, [fp, #-24]	; 0xffffffe8
   12368:	e3c33c1f 	bic	r3, r3, #7936	; 0x1f00
   1236c:	e50b3018 	str	r3, [fp, #-24]	; 0xffffffe8
   12370:	e51b2018 	ldr	r2, [fp, #-24]	; 0xffffffe8
   12374:	e51b3014 	ldr	r3, [fp, #-20]	; 0xffffffec
   12378:	e1823003 	orr	r3, r2, r3
   1237c:	e50b3018 	str	r3, [fp, #-24]	; 0xffffffe8
   12380:	e51b3028 	ldr	r3, [fp, #-40]	; 0xffffffd8
   12384:	e5933004 	ldr	r3, [r3, #4]
   12388:	e2833028 	add	r3, r3, #40	; 0x28
   1238c:	e1a00003 	mov	r0, r3
   12390:	e51b1018 	ldr	r1, [fp, #-24]	; 0xffffffe8
   12394:	ebfff683 	bl	fda8 <Xil_Out32>
   12398:	e51b302c 	ldr	r3, [fp, #-44]	; 0xffffffd4
   1239c:	e5933014 	ldr	r3, [r3, #20]
   123a0:	e3530000 	cmp	r3, #0
   123a4:	0a000006 	beq	123c4 <XAxiVdma_ChannelConfig+0x27c>
   123a8:	e51b3028 	ldr	r3, [fp, #-40]	; 0xffffffd8
   123ac:	e593304c 	ldr	r3, [r3, #76]	; 0x4c
   123b0:	e3530000 	cmp	r3, #0
   123b4:	0a000002 	beq	123c4 <XAxiVdma_ChannelConfig+0x27c>
   123b8:	e51b3008 	ldr	r3, [fp, #-8]
   123bc:	e3833008 	orr	r3, r3, #8
   123c0:	e50b3008 	str	r3, [fp, #-8]
   123c4:	e51b302c 	ldr	r3, [fp, #-44]	; 0xffffffd4
   123c8:	e59330a4 	ldr	r3, [r3, #164]	; 0xa4
   123cc:	e3530000 	cmp	r3, #0
   123d0:	0a00000a 	beq	12400 <XAxiVdma_ChannelConfig+0x2b8>
   123d4:	e51b3028 	ldr	r3, [fp, #-40]	; 0xffffffd8
   123d8:	e593304c 	ldr	r3, [r3, #76]	; 0x4c
   123dc:	e3530000 	cmp	r3, #0
   123e0:	0a000003 	beq	123f4 <XAxiVdma_ChannelConfig+0x2ac>
   123e4:	e51b3028 	ldr	r3, [fp, #-40]	; 0xffffffd8
   123e8:	e593304c 	ldr	r3, [r3, #76]	; 0x4c
   123ec:	e3530002 	cmp	r3, #2
   123f0:	1a000002 	bne	12400 <XAxiVdma_ChannelConfig+0x2b8>
   123f4:	e51b3008 	ldr	r3, [fp, #-8]
   123f8:	e3833902 	orr	r3, r3, #32768	; 0x8000
   123fc:	e50b3008 	str	r3, [fp, #-8]
   12400:	e51b302c 	ldr	r3, [fp, #-44]	; 0xffffffd4
   12404:	e593301c 	ldr	r3, [r3, #28]
   12408:	e3530000 	cmp	r3, #0
   1240c:	0a000002 	beq	1241c <XAxiVdma_ChannelConfig+0x2d4>
   12410:	e51b3008 	ldr	r3, [fp, #-8]
   12414:	e3833010 	orr	r3, r3, #16
   12418:	e50b3008 	str	r3, [fp, #-8]
   1241c:	e51b302c 	ldr	r3, [fp, #-44]	; 0xffffffd4
   12420:	e5933018 	ldr	r3, [r3, #24]
   12424:	e1a03403 	lsl	r3, r3, #8
   12428:	e2033c0f 	and	r3, r3, #3840	; 0xf00
   1242c:	e51b2008 	ldr	r2, [fp, #-8]
   12430:	e1823003 	orr	r3, r2, r3
   12434:	e50b3008 	str	r3, [fp, #-8]
   12438:	e51b3028 	ldr	r3, [fp, #-40]	; 0xffffffd8
   1243c:	e5933000 	ldr	r3, [r3]
   12440:	e1a00003 	mov	r0, r3
   12444:	e51b1008 	ldr	r1, [fp, #-8]
   12448:	ebfff656 	bl	fda8 <Xil_Out32>
   1244c:	e51b3028 	ldr	r3, [fp, #-40]	; 0xffffffd8
   12450:	e5933014 	ldr	r3, [r3, #20]
   12454:	e3530000 	cmp	r3, #0
   12458:	0a00003f 	beq	1255c <XAxiVdma_ChannelConfig+0x414>
   1245c:	e51b3028 	ldr	r3, [fp, #-40]	; 0xffffffd8
   12460:	e5933048 	ldr	r3, [r3, #72]	; 0x48
   12464:	e50b301c 	str	r3, [fp, #-28]	; 0xffffffe4
   12468:	e3a03000 	mov	r3, #0
   1246c:	e50b300c 	str	r3, [fp, #-12]
   12470:	ea000034 	b	12548 <XAxiVdma_ChannelConfig+0x400>
   12474:	e51b3028 	ldr	r3, [fp, #-40]	; 0xffffffd8
   12478:	e5932034 	ldr	r2, [r3, #52]	; 0x34
   1247c:	e51b300c 	ldr	r3, [fp, #-12]
   12480:	e1a03283 	lsl	r3, r3, #5
   12484:	e0823003 	add	r3, r2, r3
   12488:	e50b3020 	str	r3, [fp, #-32]	; 0xffffffe0
   1248c:	e51b302c 	ldr	r3, [fp, #-44]	; 0xffffffd4
   12490:	e5933000 	ldr	r3, [r3]
   12494:	e51b0020 	ldr	r0, [fp, #-32]	; 0xffffffe0
   12498:	e1a01003 	mov	r1, r3
   1249c:	eb00029c 	bl	12f14 <XAxiVdma_BdSetVsize>
   124a0:	e50b0024 	str	r0, [fp, #-36]	; 0xffffffdc
   124a4:	e51b3024 	ldr	r3, [fp, #-36]	; 0xffffffdc
   124a8:	e3530000 	cmp	r3, #0
   124ac:	0a000001 	beq	124b8 <XAxiVdma_ChannelConfig+0x370>
   124b0:	e51b3024 	ldr	r3, [fp, #-36]	; 0xffffffdc
   124b4:	ea00005f 	b	12638 <XAxiVdma_ChannelConfig+0x4f0>
   124b8:	e51b302c 	ldr	r3, [fp, #-44]	; 0xffffffd4
   124bc:	e5933004 	ldr	r3, [r3, #4]
   124c0:	e51b0020 	ldr	r0, [fp, #-32]	; 0xffffffe0
   124c4:	e1a01003 	mov	r1, r3
   124c8:	eb0002a7 	bl	12f6c <XAxiVdma_BdSetHsize>
   124cc:	e50b0024 	str	r0, [fp, #-36]	; 0xffffffdc
   124d0:	e51b3024 	ldr	r3, [fp, #-36]	; 0xffffffdc
   124d4:	e3530000 	cmp	r3, #0
   124d8:	0a000001 	beq	124e4 <XAxiVdma_ChannelConfig+0x39c>
   124dc:	e51b3024 	ldr	r3, [fp, #-36]	; 0xffffffdc
   124e0:	ea000054 	b	12638 <XAxiVdma_ChannelConfig+0x4f0>
   124e4:	e51b302c 	ldr	r3, [fp, #-44]	; 0xffffffd4
   124e8:	e5933008 	ldr	r3, [r3, #8]
   124ec:	e51b0020 	ldr	r0, [fp, #-32]	; 0xffffffe0
   124f0:	e1a01003 	mov	r1, r3
   124f4:	eb0002b2 	bl	12fc4 <XAxiVdma_BdSetStride>
   124f8:	e50b0024 	str	r0, [fp, #-36]	; 0xffffffdc
   124fc:	e51b3024 	ldr	r3, [fp, #-36]	; 0xffffffdc
   12500:	e3530000 	cmp	r3, #0
   12504:	0a000001 	beq	12510 <XAxiVdma_ChannelConfig+0x3c8>
   12508:	e51b3024 	ldr	r3, [fp, #-36]	; 0xffffffdc
   1250c:	ea000049 	b	12638 <XAxiVdma_ChannelConfig+0x4f0>
   12510:	e51b302c 	ldr	r3, [fp, #-44]	; 0xffffffd4
   12514:	e593300c 	ldr	r3, [r3, #12]
   12518:	e51b0020 	ldr	r0, [fp, #-32]	; 0xffffffe0
   1251c:	e1a01003 	mov	r1, r3
   12520:	eb0002c6 	bl	13040 <XAxiVdma_BdSetFrmDly>
   12524:	e50b0024 	str	r0, [fp, #-36]	; 0xffffffdc
   12528:	e51b3024 	ldr	r3, [fp, #-36]	; 0xffffffdc
   1252c:	e3530000 	cmp	r3, #0
   12530:	0a000001 	beq	1253c <XAxiVdma_ChannelConfig+0x3f4>
   12534:	e51b3024 	ldr	r3, [fp, #-36]	; 0xffffffdc
   12538:	ea00003e 	b	12638 <XAxiVdma_ChannelConfig+0x4f0>
   1253c:	e51b300c 	ldr	r3, [fp, #-12]
   12540:	e2833001 	add	r3, r3, #1
   12544:	e50b300c 	str	r3, [fp, #-12]
   12548:	e51b200c 	ldr	r2, [fp, #-12]
   1254c:	e51b301c 	ldr	r3, [fp, #-28]	; 0xffffffe4
   12550:	e1520003 	cmp	r2, r3
   12554:	baffffc6 	blt	12474 <XAxiVdma_ChannelConfig+0x32c>
   12558:	ea000035 	b	12634 <XAxiVdma_ChannelConfig+0x4ec>
   1255c:	e51b302c 	ldr	r3, [fp, #-44]	; 0xffffffd4
   12560:	e5933000 	ldr	r3, [r3]
   12564:	e3530a02 	cmp	r3, #8192	; 0x2000
   12568:	aa00001b 	bge	125dc <XAxiVdma_ChannelConfig+0x494>
   1256c:	e51b302c 	ldr	r3, [fp, #-44]	; 0xffffffd4
   12570:	e5933000 	ldr	r3, [r3]
   12574:	e3530000 	cmp	r3, #0
   12578:	da000017 	ble	125dc <XAxiVdma_ChannelConfig+0x494>
   1257c:	e51b302c 	ldr	r3, [fp, #-44]	; 0xffffffd4
   12580:	e5933004 	ldr	r3, [r3, #4]
   12584:	e3530801 	cmp	r3, #65536	; 0x10000
   12588:	aa000013 	bge	125dc <XAxiVdma_ChannelConfig+0x494>
   1258c:	e51b302c 	ldr	r3, [fp, #-44]	; 0xffffffd4
   12590:	e5933004 	ldr	r3, [r3, #4]
   12594:	e3530000 	cmp	r3, #0
   12598:	da00000f 	ble	125dc <XAxiVdma_ChannelConfig+0x494>
   1259c:	e51b302c 	ldr	r3, [fp, #-44]	; 0xffffffd4
   125a0:	e5933008 	ldr	r3, [r3, #8]
   125a4:	e3530801 	cmp	r3, #65536	; 0x10000
   125a8:	aa00000b 	bge	125dc <XAxiVdma_ChannelConfig+0x494>
   125ac:	e51b302c 	ldr	r3, [fp, #-44]	; 0xffffffd4
   125b0:	e5933008 	ldr	r3, [r3, #8]
   125b4:	e3530000 	cmp	r3, #0
   125b8:	da000007 	ble	125dc <XAxiVdma_ChannelConfig+0x494>
   125bc:	e51b302c 	ldr	r3, [fp, #-44]	; 0xffffffd4
   125c0:	e593300c 	ldr	r3, [r3, #12]
   125c4:	e3530000 	cmp	r3, #0
   125c8:	ba000003 	blt	125dc <XAxiVdma_ChannelConfig+0x494>
   125cc:	e51b302c 	ldr	r3, [fp, #-44]	; 0xffffffd4
   125d0:	e593300c 	ldr	r3, [r3, #12]
   125d4:	e353000f 	cmp	r3, #15
   125d8:	da000001 	ble	125e4 <XAxiVdma_ChannelConfig+0x49c>
   125dc:	e3a0300f 	mov	r3, #15
   125e0:	ea000014 	b	12638 <XAxiVdma_ChannelConfig+0x4f0>
   125e4:	e51b3028 	ldr	r3, [fp, #-40]	; 0xffffffd8
   125e8:	e5933008 	ldr	r3, [r3, #8]
   125ec:	e2832004 	add	r2, r3, #4
   125f0:	e51b302c 	ldr	r3, [fp, #-44]	; 0xffffffd4
   125f4:	e5933004 	ldr	r3, [r3, #4]
   125f8:	e1a00002 	mov	r0, r2
   125fc:	e1a01003 	mov	r1, r3
   12600:	ebfff5e8 	bl	fda8 <Xil_Out32>
   12604:	e51b3028 	ldr	r3, [fp, #-40]	; 0xffffffd8
   12608:	e5933008 	ldr	r3, [r3, #8]
   1260c:	e2831008 	add	r1, r3, #8
   12610:	e51b302c 	ldr	r3, [fp, #-44]	; 0xffffffd4
   12614:	e593300c 	ldr	r3, [r3, #12]
   12618:	e1a02c03 	lsl	r2, r3, #24
   1261c:	e51b302c 	ldr	r3, [fp, #-44]	; 0xffffffd4
   12620:	e5933008 	ldr	r3, [r3, #8]
   12624:	e1823003 	orr	r3, r2, r3
   12628:	e1a00001 	mov	r0, r1
   1262c:	e1a01003 	mov	r1, r3
   12630:	ebfff5dc 	bl	fda8 <Xil_Out32>
   12634:	e3a03000 	mov	r3, #0
   12638:	e1a00003 	mov	r0, r3
   1263c:	e24bd004 	sub	sp, fp, #4
   12640:	e8bd8800 	pop	{fp, pc}

00012644 <XAxiVdma_ChannelSetBufferAddr>:
   12644:	e92d4800 	push	{fp, lr}
   12648:	e28db004 	add	fp, sp, #4
   1264c:	e24dd028 	sub	sp, sp, #40	; 0x28
   12650:	e50b0020 	str	r0, [fp, #-32]	; 0xffffffe0
   12654:	e50b1024 	str	r1, [fp, #-36]	; 0xffffffdc
   12658:	e50b2028 	str	r2, [fp, #-40]	; 0xffffffd8
   1265c:	e3a03000 	mov	r3, #0
   12660:	e50b300c 	str	r3, [fp, #-12]
   12664:	e3a0300f 	mov	r3, #15
   12668:	e50b3014 	str	r3, [fp, #-20]	; 0xffffffec
   1266c:	e3a03000 	mov	r3, #0
   12670:	e50b3010 	str	r3, [fp, #-16]
   12674:	e51b3020 	ldr	r3, [fp, #-32]	; 0xffffffe0
   12678:	e593300c 	ldr	r3, [r3, #12]
   1267c:	e3530000 	cmp	r3, #0
   12680:	1a000001 	bne	1268c <XAxiVdma_ChannelSetBufferAddr+0x48>
   12684:	e3a03001 	mov	r3, #1
   12688:	ea00006b 	b	1283c <XAxiVdma_ChannelSetBufferAddr+0x1f8>
   1268c:	e51b3020 	ldr	r3, [fp, #-32]	; 0xffffffe0
   12690:	e5933028 	ldr	r3, [r3, #40]	; 0x28
   12694:	e2433001 	sub	r3, r3, #1
   12698:	e50b3018 	str	r3, [fp, #-24]	; 0xffffffe8
   1269c:	e3a03000 	mov	r3, #0
   126a0:	e50b3008 	str	r3, [fp, #-8]
   126a4:	ea000011 	b	126f0 <XAxiVdma_ChannelSetBufferAddr+0xac>
   126a8:	e51b3020 	ldr	r3, [fp, #-32]	; 0xffffffe0
   126ac:	e593301c 	ldr	r3, [r3, #28]
   126b0:	e3530000 	cmp	r3, #0
   126b4:	1a00000a 	bne	126e4 <XAxiVdma_ChannelSetBufferAddr+0xa0>
   126b8:	e51b3008 	ldr	r3, [fp, #-8]
   126bc:	e1a03103 	lsl	r3, r3, #2
   126c0:	e51b2024 	ldr	r2, [fp, #-36]	; 0xffffffdc
   126c4:	e0823003 	add	r3, r2, r3
   126c8:	e5932000 	ldr	r2, [r3]
   126cc:	e51b3018 	ldr	r3, [fp, #-24]	; 0xffffffe8
   126d0:	e0033002 	and	r3, r3, r2
   126d4:	e3530000 	cmp	r3, #0
   126d8:	0a000001 	beq	126e4 <XAxiVdma_ChannelSetBufferAddr+0xa0>
   126dc:	e3a0300f 	mov	r3, #15
   126e0:	ea000055 	b	1283c <XAxiVdma_ChannelSetBufferAddr+0x1f8>
   126e4:	e51b3008 	ldr	r3, [fp, #-8]
   126e8:	e2833001 	add	r3, r3, #1
   126ec:	e50b3008 	str	r3, [fp, #-8]
   126f0:	e51b2008 	ldr	r2, [fp, #-8]
   126f4:	e51b3028 	ldr	r3, [fp, #-40]	; 0xffffffd8
   126f8:	e1520003 	cmp	r2, r3
   126fc:	baffffe9 	blt	126a8 <XAxiVdma_ChannelSetBufferAddr+0x64>
   12700:	e3a03000 	mov	r3, #0
   12704:	e50b3008 	str	r3, [fp, #-8]
   12708:	ea000046 	b	12828 <XAxiVdma_ChannelSetBufferAddr+0x1e4>
   1270c:	e51b3020 	ldr	r3, [fp, #-32]	; 0xffffffe0
   12710:	e5932034 	ldr	r2, [r3, #52]	; 0x34
   12714:	e51b3008 	ldr	r3, [fp, #-8]
   12718:	e1a03283 	lsl	r3, r3, #5
   1271c:	e0823003 	add	r3, r2, r3
   12720:	e50b301c 	str	r3, [fp, #-28]	; 0xffffffe4
   12724:	e51b3020 	ldr	r3, [fp, #-32]	; 0xffffffe0
   12728:	e5933014 	ldr	r3, [r3, #20]
   1272c:	e3530000 	cmp	r3, #0
   12730:	0a000008 	beq	12758 <XAxiVdma_ChannelSetBufferAddr+0x114>
   12734:	e51b3008 	ldr	r3, [fp, #-8]
   12738:	e1a03103 	lsl	r3, r3, #2
   1273c:	e51b2024 	ldr	r2, [fp, #-36]	; 0xffffffdc
   12740:	e0823003 	add	r3, r2, r3
   12744:	e5933000 	ldr	r3, [r3]
   12748:	e51b001c 	ldr	r0, [fp, #-28]	; 0xffffffe4
   1274c:	e1a01003 	mov	r1, r3
   12750:	eb0001e3 	bl	12ee4 <XAxiVdma_BdSetAddr>
   12754:	ea00002d 	b	12810 <XAxiVdma_ChannelSetBufferAddr+0x1cc>
   12758:	e51b2008 	ldr	r2, [fp, #-8]
   1275c:	e51b3014 	ldr	r3, [fp, #-20]	; 0xffffffec
   12760:	e1520003 	cmp	r2, r3
   12764:	da00000c 	ble	1279c <XAxiVdma_ChannelSetBufferAddr+0x158>
   12768:	e51b300c 	ldr	r3, [fp, #-12]
   1276c:	e3530000 	cmp	r3, #0
   12770:	1a000009 	bne	1279c <XAxiVdma_ChannelSetBufferAddr+0x158>
   12774:	e51b3020 	ldr	r3, [fp, #-32]	; 0xffffffe0
   12778:	e5933000 	ldr	r3, [r3]
   1277c:	e2833014 	add	r3, r3, #20
   12780:	e1a00003 	mov	r0, r3
   12784:	e3a01001 	mov	r1, #1
   12788:	ebfff586 	bl	fda8 <Xil_Out32>
   1278c:	e3a03001 	mov	r3, #1
   12790:	e50b300c 	str	r3, [fp, #-12]
   12794:	e3a03000 	mov	r3, #0
   12798:	e50b3010 	str	r3, [fp, #-16]
   1279c:	e51b3020 	ldr	r3, [fp, #-32]	; 0xffffffe0
   127a0:	e5933008 	ldr	r3, [r3, #8]
   127a4:	e51b2010 	ldr	r2, [fp, #-16]
   127a8:	e2822003 	add	r2, r2, #3
   127ac:	e1a02102 	lsl	r2, r2, #2
   127b0:	e0831002 	add	r1, r3, r2
   127b4:	e51b3008 	ldr	r3, [fp, #-8]
   127b8:	e1a03103 	lsl	r3, r3, #2
   127bc:	e51b2024 	ldr	r2, [fp, #-36]	; 0xffffffdc
   127c0:	e0823003 	add	r3, r2, r3
   127c4:	e5933000 	ldr	r3, [r3]
   127c8:	e1a00001 	mov	r0, r1
   127cc:	e1a01003 	mov	r1, r3
   127d0:	ebfff574 	bl	fda8 <Xil_Out32>
   127d4:	e51b2028 	ldr	r2, [fp, #-40]	; 0xffffffd8
   127d8:	e51b3014 	ldr	r3, [fp, #-20]	; 0xffffffec
   127dc:	e1520003 	cmp	r2, r3
   127e0:	da00000a 	ble	12810 <XAxiVdma_ChannelSetBufferAddr+0x1cc>
   127e4:	e51b3028 	ldr	r3, [fp, #-40]	; 0xffffffd8
   127e8:	e2432001 	sub	r2, r3, #1
   127ec:	e51b3008 	ldr	r3, [fp, #-8]
   127f0:	e1520003 	cmp	r2, r3
   127f4:	1a000005 	bne	12810 <XAxiVdma_ChannelSetBufferAddr+0x1cc>
   127f8:	e51b3020 	ldr	r3, [fp, #-32]	; 0xffffffe0
   127fc:	e5933000 	ldr	r3, [r3]
   12800:	e2833014 	add	r3, r3, #20
   12804:	e1a00003 	mov	r0, r3
   12808:	e3a01000 	mov	r1, #0
   1280c:	ebfff565 	bl	fda8 <Xil_Out32>
   12810:	e51b3008 	ldr	r3, [fp, #-8]
   12814:	e2833001 	add	r3, r3, #1
   12818:	e50b3008 	str	r3, [fp, #-8]
   1281c:	e51b3010 	ldr	r3, [fp, #-16]
   12820:	e2833001 	add	r3, r3, #1
   12824:	e50b3010 	str	r3, [fp, #-16]
   12828:	e51b2008 	ldr	r2, [fp, #-8]
   1282c:	e51b3028 	ldr	r3, [fp, #-40]	; 0xffffffd8
   12830:	e1520003 	cmp	r2, r3
   12834:	baffffb4 	blt	1270c <XAxiVdma_ChannelSetBufferAddr+0xc8>
   12838:	e3a03000 	mov	r3, #0
   1283c:	e1a00003 	mov	r0, r3
   12840:	e24bd004 	sub	sp, fp, #4
   12844:	e8bd8800 	pop	{fp, pc}

00012848 <XAxiVdma_ChannelStart>:
   12848:	e92d4800 	push	{fp, lr}
   1284c:	e28db004 	add	fp, sp, #4
   12850:	e24dd010 	sub	sp, sp, #16
   12854:	e50b0010 	str	r0, [fp, #-16]
   12858:	e51b3010 	ldr	r3, [fp, #-16]
   1285c:	e593300c 	ldr	r3, [r3, #12]
   12860:	e3530000 	cmp	r3, #0
   12864:	1a000001 	bne	12870 <XAxiVdma_ChannelStart+0x28>
   12868:	e3a03001 	mov	r3, #1
   1286c:	ea000048 	b	12994 <XAxiVdma_ChannelStart+0x14c>
   12870:	e51b3010 	ldr	r3, [fp, #-16]
   12874:	e5933014 	ldr	r3, [r3, #20]
   12878:	e3530000 	cmp	r3, #0
   1287c:	0a000006 	beq	1289c <XAxiVdma_ChannelStart+0x54>
   12880:	e51b0010 	ldr	r0, [fp, #-16]
   12884:	ebfffd06 	bl	11ca4 <XAxiVdma_ChannelIsBusy>
   12888:	e1a03000 	mov	r3, r0
   1288c:	e3530000 	cmp	r3, #0
   12890:	0a000001 	beq	1289c <XAxiVdma_ChannelStart+0x54>
   12894:	e3a03015 	mov	r3, #21
   12898:	ea00003d 	b	12994 <XAxiVdma_ChannelStart+0x14c>
   1289c:	e51b0010 	ldr	r0, [fp, #-16]
   128a0:	ebfffcde 	bl	11c20 <XAxiVdma_ChannelIsRunning>
   128a4:	e1a03000 	mov	r3, r0
   128a8:	e3530000 	cmp	r3, #0
   128ac:	1a00001c 	bne	12924 <XAxiVdma_ChannelStart+0xdc>
   128b0:	e51b3010 	ldr	r3, [fp, #-16]
   128b4:	e5933014 	ldr	r3, [r3, #20]
   128b8:	e3530000 	cmp	r3, #0
   128bc:	0a000007 	beq	128e0 <XAxiVdma_ChannelStart+0x98>
   128c0:	e51b3010 	ldr	r3, [fp, #-16]
   128c4:	e5933000 	ldr	r3, [r3]
   128c8:	e2832008 	add	r2, r3, #8
   128cc:	e51b3010 	ldr	r3, [fp, #-16]
   128d0:	e5933030 	ldr	r3, [r3, #48]	; 0x30
   128d4:	e1a00002 	mov	r0, r2
   128d8:	e1a01003 	mov	r1, r3
   128dc:	ebfff531 	bl	fda8 <Xil_Out32>
   128e0:	e51b3010 	ldr	r3, [fp, #-16]
   128e4:	e5933000 	ldr	r3, [r3]
   128e8:	e1a00003 	mov	r0, r3
   128ec:	ebfff50b 	bl	fd20 <Xil_In32>
   128f0:	e50b0008 	str	r0, [fp, #-8]
   128f4:	e51b3010 	ldr	r3, [fp, #-16]
   128f8:	e5933000 	ldr	r3, [r3]
   128fc:	e1a00003 	mov	r0, r3
   12900:	ebfff506 	bl	fd20 <Xil_In32>
   12904:	e1a03000 	mov	r3, r0
   12908:	e3833001 	orr	r3, r3, #1
   1290c:	e50b3008 	str	r3, [fp, #-8]
   12910:	e51b3010 	ldr	r3, [fp, #-16]
   12914:	e5933000 	ldr	r3, [r3]
   12918:	e1a00003 	mov	r0, r3
   1291c:	e51b1008 	ldr	r1, [fp, #-8]
   12920:	ebfff520 	bl	fda8 <Xil_Out32>
   12924:	e51b0010 	ldr	r0, [fp, #-16]
   12928:	ebfffcbc 	bl	11c20 <XAxiVdma_ChannelIsRunning>
   1292c:	e1a03000 	mov	r3, r0
   12930:	e3530000 	cmp	r3, #0
   12934:	0a000015 	beq	12990 <XAxiVdma_ChannelStart+0x148>
   12938:	e51b3010 	ldr	r3, [fp, #-16]
   1293c:	e5933014 	ldr	r3, [r3, #20]
   12940:	e3530000 	cmp	r3, #0
   12944:	0a000008 	beq	1296c <XAxiVdma_ChannelStart+0x124>
   12948:	e51b3010 	ldr	r3, [fp, #-16]
   1294c:	e5933000 	ldr	r3, [r3]
   12950:	e2832010 	add	r2, r3, #16
   12954:	e51b3010 	ldr	r3, [fp, #-16]
   12958:	e5933038 	ldr	r3, [r3, #56]	; 0x38
   1295c:	e1a00002 	mov	r0, r2
   12960:	e1a01003 	mov	r1, r3
   12964:	ebfff50f 	bl	fda8 <Xil_Out32>
   12968:	ea000006 	b	12988 <XAxiVdma_ChannelStart+0x140>
   1296c:	e51b3010 	ldr	r3, [fp, #-16]
   12970:	e5932008 	ldr	r2, [r3, #8]
   12974:	e51b3010 	ldr	r3, [fp, #-16]
   12978:	e5933044 	ldr	r3, [r3, #68]	; 0x44
   1297c:	e1a00002 	mov	r0, r2
   12980:	e1a01003 	mov	r1, r3
   12984:	ebfff507 	bl	fda8 <Xil_Out32>
   12988:	e3a03000 	mov	r3, #0
   1298c:	ea000000 	b	12994 <XAxiVdma_ChannelStart+0x14c>
   12990:	e3a03009 	mov	r3, #9
   12994:	e1a00003 	mov	r0, r3
   12998:	e24bd004 	sub	sp, fp, #4
   1299c:	e8bd8800 	pop	{fp, pc}

000129a0 <XAxiVdma_ChannelStop>:
   129a0:	e92d4800 	push	{fp, lr}
   129a4:	e28db004 	add	fp, sp, #4
   129a8:	e24dd010 	sub	sp, sp, #16
   129ac:	e50b0010 	str	r0, [fp, #-16]
   129b0:	e51b0010 	ldr	r0, [fp, #-16]
   129b4:	ebfffc99 	bl	11c20 <XAxiVdma_ChannelIsRunning>
   129b8:	e1a03000 	mov	r3, r0
   129bc:	e3530000 	cmp	r3, #0
   129c0:	1a000000 	bne	129c8 <XAxiVdma_ChannelStop+0x28>
   129c4:	ea00000c 	b	129fc <XAxiVdma_ChannelStop+0x5c>
   129c8:	e51b3010 	ldr	r3, [fp, #-16]
   129cc:	e5933000 	ldr	r3, [r3]
   129d0:	e1a00003 	mov	r0, r3
   129d4:	ebfff4d1 	bl	fd20 <Xil_In32>
   129d8:	e1a03000 	mov	r3, r0
   129dc:	e3c33001 	bic	r3, r3, #1
   129e0:	e50b3008 	str	r3, [fp, #-8]
   129e4:	e51b3010 	ldr	r3, [fp, #-16]
   129e8:	e5933000 	ldr	r3, [r3]
   129ec:	e1a00003 	mov	r0, r3
   129f0:	e51b1008 	ldr	r1, [fp, #-8]
   129f4:	ebfff4eb 	bl	fda8 <Xil_Out32>
   129f8:	e1a00000 	nop			; (mov r0, r0)
   129fc:	e24bd004 	sub	sp, fp, #4
   12a00:	e8bd8800 	pop	{fp, pc}

00012a04 <XAxiVdma_ChannelRegisterDump>:
   12a04:	e92d4800 	push	{fp, lr}
   12a08:	e28db004 	add	fp, sp, #4
   12a0c:	e24dd008 	sub	sp, sp, #8
   12a10:	e50b0008 	str	r0, [fp, #-8]
   12a14:	e51b3008 	ldr	r3, [fp, #-8]
   12a18:	e5933000 	ldr	r3, [r3]
   12a1c:	e30b0ca4 	movw	r0, #48292	; 0xbca4
   12a20:	e3400001 	movt	r0, #1
   12a24:	e1a01003 	mov	r1, r3
   12a28:	ebffd366 	bl	77c8 <printf>
   12a2c:	e51b3008 	ldr	r3, [fp, #-8]
   12a30:	e5933000 	ldr	r3, [r3]
   12a34:	e1a00003 	mov	r0, r3
   12a38:	ebfff4b8 	bl	fd20 <Xil_In32>
   12a3c:	e1a03000 	mov	r3, r0
   12a40:	e30b0cc4 	movw	r0, #48324	; 0xbcc4
   12a44:	e3400001 	movt	r0, #1
   12a48:	e1a01003 	mov	r1, r3
   12a4c:	ebffd35d 	bl	77c8 <printf>
   12a50:	e51b3008 	ldr	r3, [fp, #-8]
   12a54:	e5933000 	ldr	r3, [r3]
   12a58:	e2833004 	add	r3, r3, #4
   12a5c:	e1a00003 	mov	r0, r3
   12a60:	ebfff4ae 	bl	fd20 <Xil_In32>
   12a64:	e1a03000 	mov	r3, r0
   12a68:	e30b0cd8 	movw	r0, #48344	; 0xbcd8
   12a6c:	e3400001 	movt	r0, #1
   12a70:	e1a01003 	mov	r1, r3
   12a74:	ebffd353 	bl	77c8 <printf>
   12a78:	e51b3008 	ldr	r3, [fp, #-8]
   12a7c:	e5933000 	ldr	r3, [r3]
   12a80:	e2833008 	add	r3, r3, #8
   12a84:	e1a00003 	mov	r0, r3
   12a88:	ebfff4a4 	bl	fd20 <Xil_In32>
   12a8c:	e1a03000 	mov	r3, r0
   12a90:	e30b0cec 	movw	r0, #48364	; 0xbcec
   12a94:	e3400001 	movt	r0, #1
   12a98:	e1a01003 	mov	r1, r3
   12a9c:	ebffd349 	bl	77c8 <printf>
   12aa0:	e51b3008 	ldr	r3, [fp, #-8]
   12aa4:	e5933000 	ldr	r3, [r3]
   12aa8:	e2833010 	add	r3, r3, #16
   12aac:	e1a00003 	mov	r0, r3
   12ab0:	ebfff49a 	bl	fd20 <Xil_In32>
   12ab4:	e1a03000 	mov	r3, r0
   12ab8:	e30b0d00 	movw	r0, #48384	; 0xbd00
   12abc:	e3400001 	movt	r0, #1
   12ac0:	e1a01003 	mov	r1, r3
   12ac4:	ebffd33f 	bl	77c8 <printf>
   12ac8:	e1a00000 	nop			; (mov r0, r0)
   12acc:	e24bd004 	sub	sp, fp, #4
   12ad0:	e8bd8800 	pop	{fp, pc}

00012ad4 <XAxiVdma_ChannelSetFrmCnt>:
   12ad4:	e92d4800 	push	{fp, lr}
   12ad8:	e28db004 	add	fp, sp, #4
   12adc:	e24dd010 	sub	sp, sp, #16
   12ae0:	e50b0010 	str	r0, [fp, #-16]
   12ae4:	e1a03001 	mov	r3, r1
   12ae8:	e54b3011 	strb	r3, [fp, #-17]	; 0xffffffef
   12aec:	e1a03002 	mov	r3, r2
   12af0:	e54b3012 	strb	r3, [fp, #-18]	; 0xffffffee
   12af4:	e51b3010 	ldr	r3, [fp, #-16]
   12af8:	e593300c 	ldr	r3, [r3, #12]
   12afc:	e3530000 	cmp	r3, #0
   12b00:	1a000001 	bne	12b0c <XAxiVdma_ChannelSetFrmCnt+0x38>
   12b04:	e3a03001 	mov	r3, #1
   12b08:	ea00002c 	b	12bc0 <XAxiVdma_ChannelSetFrmCnt+0xec>
   12b0c:	e55b3011 	ldrb	r3, [fp, #-17]	; 0xffffffef
   12b10:	e3530000 	cmp	r3, #0
   12b14:	1a000001 	bne	12b20 <XAxiVdma_ChannelSetFrmCnt+0x4c>
   12b18:	e3a0300f 	mov	r3, #15
   12b1c:	ea000027 	b	12bc0 <XAxiVdma_ChannelSetFrmCnt+0xec>
   12b20:	e51b3010 	ldr	r3, [fp, #-16]
   12b24:	e5933000 	ldr	r3, [r3]
   12b28:	e1a00003 	mov	r0, r3
   12b2c:	ebfff47b 	bl	fd20 <Xil_In32>
   12b30:	e1a03000 	mov	r3, r0
   12b34:	e6ff3073 	uxth	r3, r3
   12b38:	e50b3008 	str	r3, [fp, #-8]
   12b3c:	e51b3010 	ldr	r3, [fp, #-16]
   12b40:	e5933460 	ldr	r3, [r3, #1120]	; 0x460
   12b44:	e2033004 	and	r3, r3, #4
   12b48:	e3530000 	cmp	r3, #0
   12b4c:	0a00000b 	beq	12b80 <XAxiVdma_ChannelSetFrmCnt+0xac>
   12b50:	e55b3011 	ldrb	r3, [fp, #-17]	; 0xffffffef
   12b54:	e1a03803 	lsl	r3, r3, #16
   12b58:	e1a02003 	mov	r2, r3
   12b5c:	e51b3008 	ldr	r3, [fp, #-8]
   12b60:	e1833002 	orr	r3, r3, r2
   12b64:	e50b3008 	str	r3, [fp, #-8]
   12b68:	e51b3010 	ldr	r3, [fp, #-16]
   12b6c:	e5933460 	ldr	r3, [r3, #1120]	; 0x460
   12b70:	e2033008 	and	r3, r3, #8
   12b74:	e3530000 	cmp	r3, #0
   12b78:	0a00000f 	beq	12bbc <XAxiVdma_ChannelSetFrmCnt+0xe8>
   12b7c:	ea000001 	b	12b88 <XAxiVdma_ChannelSetFrmCnt+0xb4>
   12b80:	e3a03013 	mov	r3, #19
   12b84:	ea00000d 	b	12bc0 <XAxiVdma_ChannelSetFrmCnt+0xec>
   12b88:	e55b3012 	ldrb	r3, [fp, #-18]	; 0xffffffee
   12b8c:	e1a03c03 	lsl	r3, r3, #24
   12b90:	e1a02003 	mov	r2, r3
   12b94:	e51b3008 	ldr	r3, [fp, #-8]
   12b98:	e1833002 	orr	r3, r3, r2
   12b9c:	e50b3008 	str	r3, [fp, #-8]
   12ba0:	e51b3010 	ldr	r3, [fp, #-16]
   12ba4:	e5933000 	ldr	r3, [r3]
   12ba8:	e1a00003 	mov	r0, r3
   12bac:	e51b1008 	ldr	r1, [fp, #-8]
   12bb0:	ebfff47c 	bl	fda8 <Xil_Out32>
   12bb4:	e3a03000 	mov	r3, #0
   12bb8:	ea000000 	b	12bc0 <XAxiVdma_ChannelSetFrmCnt+0xec>
   12bbc:	e3a03013 	mov	r3, #19
   12bc0:	e1a00003 	mov	r0, r3
   12bc4:	e24bd004 	sub	sp, fp, #4
   12bc8:	e8bd8800 	pop	{fp, pc}

00012bcc <XAxiVdma_ChannelGetFrmCnt>:
   12bcc:	e92d4800 	push	{fp, lr}
   12bd0:	e28db004 	add	fp, sp, #4
   12bd4:	e24dd018 	sub	sp, sp, #24
   12bd8:	e50b0010 	str	r0, [fp, #-16]
   12bdc:	e50b1014 	str	r1, [fp, #-20]	; 0xffffffec
   12be0:	e50b2018 	str	r2, [fp, #-24]	; 0xffffffe8
   12be4:	e51b3010 	ldr	r3, [fp, #-16]
   12be8:	e593300c 	ldr	r3, [r3, #12]
   12bec:	e3530000 	cmp	r3, #0
   12bf0:	1a000003 	bne	12c04 <XAxiVdma_ChannelGetFrmCnt+0x38>
   12bf4:	e51b3014 	ldr	r3, [fp, #-20]	; 0xffffffec
   12bf8:	e3a02000 	mov	r2, #0
   12bfc:	e5c32000 	strb	r2, [r3]
   12c00:	ea00001a 	b	12c70 <XAxiVdma_ChannelGetFrmCnt+0xa4>
   12c04:	e51b3010 	ldr	r3, [fp, #-16]
   12c08:	e5933000 	ldr	r3, [r3]
   12c0c:	e1a00003 	mov	r0, r3
   12c10:	ebfff442 	bl	fd20 <Xil_In32>
   12c14:	e50b0008 	str	r0, [fp, #-8]
   12c18:	e51b3010 	ldr	r3, [fp, #-16]
   12c1c:	e5933460 	ldr	r3, [r3, #1120]	; 0x460
   12c20:	e2033004 	and	r3, r3, #4
   12c24:	e3530000 	cmp	r3, #0
   12c28:	0a000005 	beq	12c44 <XAxiVdma_ChannelGetFrmCnt+0x78>
   12c2c:	e51b3008 	ldr	r3, [fp, #-8]
   12c30:	e20338ff 	and	r3, r3, #16711680	; 0xff0000
   12c34:	e1a03823 	lsr	r3, r3, #16
   12c38:	e6ef2073 	uxtb	r2, r3
   12c3c:	e51b3014 	ldr	r3, [fp, #-20]	; 0xffffffec
   12c40:	e5c32000 	strb	r2, [r3]
   12c44:	e51b3010 	ldr	r3, [fp, #-16]
   12c48:	e5933460 	ldr	r3, [r3, #1120]	; 0x460
   12c4c:	e2033008 	and	r3, r3, #8
   12c50:	e3530000 	cmp	r3, #0
   12c54:	0a000004 	beq	12c6c <XAxiVdma_ChannelGetFrmCnt+0xa0>
   12c58:	e51b3008 	ldr	r3, [fp, #-8]
   12c5c:	e1a03c23 	lsr	r3, r3, #24
   12c60:	e6ef2073 	uxtb	r2, r3
   12c64:	e51b3018 	ldr	r3, [fp, #-24]	; 0xffffffe8
   12c68:	e5c32000 	strb	r2, [r3]
   12c6c:	e1a00000 	nop			; (mov r0, r0)
   12c70:	e24bd004 	sub	sp, fp, #4
   12c74:	e8bd8800 	pop	{fp, pc}

00012c78 <XAxiVdma_ChannelEnableIntr>:
   12c78:	e92d4800 	push	{fp, lr}
   12c7c:	e28db004 	add	fp, sp, #4
   12c80:	e24dd010 	sub	sp, sp, #16
   12c84:	e50b0010 	str	r0, [fp, #-16]
   12c88:	e50b1014 	str	r1, [fp, #-20]	; 0xffffffec
   12c8c:	e51b3014 	ldr	r3, [fp, #-20]	; 0xffffffec
   12c90:	e2033a07 	and	r3, r3, #28672	; 0x7000
   12c94:	e3530000 	cmp	r3, #0
   12c98:	1a000000 	bne	12ca0 <XAxiVdma_ChannelEnableIntr+0x28>
   12c9c:	ea000011 	b	12ce8 <XAxiVdma_ChannelEnableIntr+0x70>
   12ca0:	e51b3010 	ldr	r3, [fp, #-16]
   12ca4:	e5933000 	ldr	r3, [r3]
   12ca8:	e1a00003 	mov	r0, r3
   12cac:	ebfff41b 	bl	fd20 <Xil_In32>
   12cb0:	e1a03000 	mov	r3, r0
   12cb4:	e3c33a07 	bic	r3, r3, #28672	; 0x7000
   12cb8:	e50b3008 	str	r3, [fp, #-8]
   12cbc:	e51b3014 	ldr	r3, [fp, #-20]	; 0xffffffec
   12cc0:	e2033a07 	and	r3, r3, #28672	; 0x7000
   12cc4:	e51b2008 	ldr	r2, [fp, #-8]
   12cc8:	e1823003 	orr	r3, r2, r3
   12ccc:	e50b3008 	str	r3, [fp, #-8]
   12cd0:	e51b3010 	ldr	r3, [fp, #-16]
   12cd4:	e5933000 	ldr	r3, [r3]
   12cd8:	e1a00003 	mov	r0, r3
   12cdc:	e51b1008 	ldr	r1, [fp, #-8]
   12ce0:	ebfff430 	bl	fda8 <Xil_Out32>
   12ce4:	e1a00000 	nop			; (mov r0, r0)
   12ce8:	e24bd004 	sub	sp, fp, #4
   12cec:	e8bd8800 	pop	{fp, pc}

00012cf0 <XAxiVdma_ChannelDisableIntr>:
   12cf0:	e92d4800 	push	{fp, lr}
   12cf4:	e28db004 	add	fp, sp, #4
   12cf8:	e24dd010 	sub	sp, sp, #16
   12cfc:	e50b0010 	str	r0, [fp, #-16]
   12d00:	e50b1014 	str	r1, [fp, #-20]	; 0xffffffec
   12d04:	e51b3014 	ldr	r3, [fp, #-20]	; 0xffffffec
   12d08:	e2033a07 	and	r3, r3, #28672	; 0x7000
   12d0c:	e3530000 	cmp	r3, #0
   12d10:	1a000000 	bne	12d18 <XAxiVdma_ChannelDisableIntr+0x28>
   12d14:	ea000017 	b	12d78 <XAxiVdma_ChannelDisableIntr+0x88>
   12d18:	e51b3010 	ldr	r3, [fp, #-16]
   12d1c:	e5933000 	ldr	r3, [r3]
   12d20:	e1a00003 	mov	r0, r3
   12d24:	ebfff3fd 	bl	fd20 <Xil_In32>
   12d28:	e50b0008 	str	r0, [fp, #-8]
   12d2c:	e51b3014 	ldr	r3, [fp, #-20]	; 0xffffffec
   12d30:	e2033a07 	and	r3, r3, #28672	; 0x7000
   12d34:	e1e02003 	mvn	r2, r3
   12d38:	e51b3008 	ldr	r3, [fp, #-8]
   12d3c:	e0033002 	and	r3, r3, r2
   12d40:	e2033a07 	and	r3, r3, #28672	; 0x7000
   12d44:	e50b300c 	str	r3, [fp, #-12]
   12d48:	e51b3008 	ldr	r3, [fp, #-8]
   12d4c:	e3c33a07 	bic	r3, r3, #28672	; 0x7000
   12d50:	e50b3008 	str	r3, [fp, #-8]
   12d54:	e51b3010 	ldr	r3, [fp, #-16]
   12d58:	e5931000 	ldr	r1, [r3]
   12d5c:	e51b2008 	ldr	r2, [fp, #-8]
   12d60:	e51b300c 	ldr	r3, [fp, #-12]
   12d64:	e1823003 	orr	r3, r2, r3
   12d68:	e1a00001 	mov	r0, r1
   12d6c:	e1a01003 	mov	r1, r3
   12d70:	ebfff40c 	bl	fda8 <Xil_Out32>
   12d74:	e1a00000 	nop			; (mov r0, r0)
   12d78:	e24bd004 	sub	sp, fp, #4
   12d7c:	e8bd8800 	pop	{fp, pc}

00012d80 <XAxiVdma_ChannelGetPendingIntr>:
   12d80:	e92d4800 	push	{fp, lr}
   12d84:	e28db004 	add	fp, sp, #4
   12d88:	e24dd008 	sub	sp, sp, #8
   12d8c:	e50b0008 	str	r0, [fp, #-8]
   12d90:	e51b3008 	ldr	r3, [fp, #-8]
   12d94:	e5933000 	ldr	r3, [r3]
   12d98:	e2833004 	add	r3, r3, #4
   12d9c:	e1a00003 	mov	r0, r3
   12da0:	ebfff3de 	bl	fd20 <Xil_In32>
   12da4:	e1a03000 	mov	r3, r0
   12da8:	e2033a07 	and	r3, r3, #28672	; 0x7000
   12dac:	e1a00003 	mov	r0, r3
   12db0:	e24bd004 	sub	sp, fp, #4
   12db4:	e8bd8800 	pop	{fp, pc}

00012db8 <XAxiVdma_ChannelIntrClear>:
   12db8:	e92d4800 	push	{fp, lr}
   12dbc:	e28db004 	add	fp, sp, #4
   12dc0:	e24dd008 	sub	sp, sp, #8
   12dc4:	e50b0008 	str	r0, [fp, #-8]
   12dc8:	e50b100c 	str	r1, [fp, #-12]
   12dcc:	e51b300c 	ldr	r3, [fp, #-12]
   12dd0:	e2033a07 	and	r3, r3, #28672	; 0x7000
   12dd4:	e3530000 	cmp	r3, #0
   12dd8:	1a000000 	bne	12de0 <XAxiVdma_ChannelIntrClear+0x28>
   12ddc:	ea000008 	b	12e04 <XAxiVdma_ChannelIntrClear+0x4c>
   12de0:	e51b3008 	ldr	r3, [fp, #-8]
   12de4:	e5933000 	ldr	r3, [r3]
   12de8:	e2832004 	add	r2, r3, #4
   12dec:	e51b300c 	ldr	r3, [fp, #-12]
   12df0:	e2033a07 	and	r3, r3, #28672	; 0x7000
   12df4:	e1a00002 	mov	r0, r2
   12df8:	e1a01003 	mov	r1, r3
   12dfc:	ebfff3e9 	bl	fda8 <Xil_Out32>
   12e00:	e1a00000 	nop			; (mov r0, r0)
   12e04:	e24bd004 	sub	sp, fp, #4
   12e08:	e8bd8800 	pop	{fp, pc}

00012e0c <XAxiVdma_ChannelGetEnabledIntr>:
   12e0c:	e92d4800 	push	{fp, lr}
   12e10:	e28db004 	add	fp, sp, #4
   12e14:	e24dd008 	sub	sp, sp, #8
   12e18:	e50b0008 	str	r0, [fp, #-8]
   12e1c:	e51b3008 	ldr	r3, [fp, #-8]
   12e20:	e5933000 	ldr	r3, [r3]
   12e24:	e1a00003 	mov	r0, r3
   12e28:	ebfff3bc 	bl	fd20 <Xil_In32>
   12e2c:	e1a03000 	mov	r3, r0
   12e30:	e2033a07 	and	r3, r3, #28672	; 0x7000
   12e34:	e1a00003 	mov	r0, r3
   12e38:	e24bd004 	sub	sp, fp, #4
   12e3c:	e8bd8800 	pop	{fp, pc}

00012e40 <XAxiVdma_BdRead>:
   12e40:	e52db004 	push	{fp}		; (str fp, [sp, #-4]!)
   12e44:	e28db000 	add	fp, sp, #0
   12e48:	e24dd00c 	sub	sp, sp, #12
   12e4c:	e50b0008 	str	r0, [fp, #-8]
   12e50:	e50b100c 	str	r1, [fp, #-12]
   12e54:	e51b2008 	ldr	r2, [fp, #-8]
   12e58:	e51b300c 	ldr	r3, [fp, #-12]
   12e5c:	e0823003 	add	r3, r2, r3
   12e60:	e5933000 	ldr	r3, [r3]
   12e64:	e1a00003 	mov	r0, r3
   12e68:	e24bd000 	sub	sp, fp, #0
   12e6c:	e49db004 	pop	{fp}		; (ldr fp, [sp], #4)
   12e70:	e12fff1e 	bx	lr

00012e74 <XAxiVdma_BdWrite>:
   12e74:	e52db004 	push	{fp}		; (str fp, [sp, #-4]!)
   12e78:	e28db000 	add	fp, sp, #0
   12e7c:	e24dd014 	sub	sp, sp, #20
   12e80:	e50b0008 	str	r0, [fp, #-8]
   12e84:	e50b100c 	str	r1, [fp, #-12]
   12e88:	e50b2010 	str	r2, [fp, #-16]
   12e8c:	e51b2008 	ldr	r2, [fp, #-8]
   12e90:	e51b300c 	ldr	r3, [fp, #-12]
   12e94:	e0823003 	add	r3, r2, r3
   12e98:	e1a02003 	mov	r2, r3
   12e9c:	e51b3010 	ldr	r3, [fp, #-16]
   12ea0:	e5823000 	str	r3, [r2]
   12ea4:	e1a00000 	nop			; (mov r0, r0)
   12ea8:	e24bd000 	sub	sp, fp, #0
   12eac:	e49db004 	pop	{fp}		; (ldr fp, [sp], #4)
   12eb0:	e12fff1e 	bx	lr

00012eb4 <XAxiVdma_BdSetNextPtr>:
   12eb4:	e92d4800 	push	{fp, lr}
   12eb8:	e28db004 	add	fp, sp, #4
   12ebc:	e24dd008 	sub	sp, sp, #8
   12ec0:	e50b0008 	str	r0, [fp, #-8]
   12ec4:	e50b100c 	str	r1, [fp, #-12]
   12ec8:	e51b0008 	ldr	r0, [fp, #-8]
   12ecc:	e3a01000 	mov	r1, #0
   12ed0:	e51b200c 	ldr	r2, [fp, #-12]
   12ed4:	ebffffe6 	bl	12e74 <XAxiVdma_BdWrite>
   12ed8:	e1a00000 	nop			; (mov r0, r0)
   12edc:	e24bd004 	sub	sp, fp, #4
   12ee0:	e8bd8800 	pop	{fp, pc}

00012ee4 <XAxiVdma_BdSetAddr>:
   12ee4:	e92d4800 	push	{fp, lr}
   12ee8:	e28db004 	add	fp, sp, #4
   12eec:	e24dd008 	sub	sp, sp, #8
   12ef0:	e50b0008 	str	r0, [fp, #-8]
   12ef4:	e50b100c 	str	r1, [fp, #-12]
   12ef8:	e51b0008 	ldr	r0, [fp, #-8]
   12efc:	e3a01008 	mov	r1, #8
   12f00:	e51b200c 	ldr	r2, [fp, #-12]
   12f04:	ebffffda 	bl	12e74 <XAxiVdma_BdWrite>
   12f08:	e1a00000 	nop			; (mov r0, r0)
   12f0c:	e24bd004 	sub	sp, fp, #4
   12f10:	e8bd8800 	pop	{fp, pc}

00012f14 <XAxiVdma_BdSetVsize>:
   12f14:	e92d4800 	push	{fp, lr}
   12f18:	e28db004 	add	fp, sp, #4
   12f1c:	e24dd008 	sub	sp, sp, #8
   12f20:	e50b0008 	str	r0, [fp, #-8]
   12f24:	e50b100c 	str	r1, [fp, #-12]
   12f28:	e51b300c 	ldr	r3, [fp, #-12]
   12f2c:	e3530000 	cmp	r3, #0
   12f30:	da000002 	ble	12f40 <XAxiVdma_BdSetVsize+0x2c>
   12f34:	e51b300c 	ldr	r3, [fp, #-12]
   12f38:	e3530a02 	cmp	r3, #8192	; 0x2000
   12f3c:	ba000001 	blt	12f48 <XAxiVdma_BdSetVsize+0x34>
   12f40:	e3a0300f 	mov	r3, #15
   12f44:	ea000005 	b	12f60 <XAxiVdma_BdSetVsize+0x4c>
   12f48:	e51b300c 	ldr	r3, [fp, #-12]
   12f4c:	e51b0008 	ldr	r0, [fp, #-8]
   12f50:	e3a01010 	mov	r1, #16
   12f54:	e1a02003 	mov	r2, r3
   12f58:	ebffffc5 	bl	12e74 <XAxiVdma_BdWrite>
   12f5c:	e3a03000 	mov	r3, #0
   12f60:	e1a00003 	mov	r0, r3
   12f64:	e24bd004 	sub	sp, fp, #4
   12f68:	e8bd8800 	pop	{fp, pc}

00012f6c <XAxiVdma_BdSetHsize>:
   12f6c:	e92d4800 	push	{fp, lr}
   12f70:	e28db004 	add	fp, sp, #4
   12f74:	e24dd008 	sub	sp, sp, #8
   12f78:	e50b0008 	str	r0, [fp, #-8]
   12f7c:	e50b100c 	str	r1, [fp, #-12]
   12f80:	e51b300c 	ldr	r3, [fp, #-12]
   12f84:	e3530000 	cmp	r3, #0
   12f88:	da000002 	ble	12f98 <XAxiVdma_BdSetHsize+0x2c>
   12f8c:	e51b300c 	ldr	r3, [fp, #-12]
   12f90:	e3530801 	cmp	r3, #65536	; 0x10000
   12f94:	ba000001 	blt	12fa0 <XAxiVdma_BdSetHsize+0x34>
   12f98:	e3a0300f 	mov	r3, #15
   12f9c:	ea000005 	b	12fb8 <XAxiVdma_BdSetHsize+0x4c>
   12fa0:	e51b300c 	ldr	r3, [fp, #-12]
   12fa4:	e51b0008 	ldr	r0, [fp, #-8]
   12fa8:	e3a01014 	mov	r1, #20
   12fac:	e1a02003 	mov	r2, r3
   12fb0:	ebffffaf 	bl	12e74 <XAxiVdma_BdWrite>
   12fb4:	e3a03000 	mov	r3, #0
   12fb8:	e1a00003 	mov	r0, r3
   12fbc:	e24bd004 	sub	sp, fp, #4
   12fc0:	e8bd8800 	pop	{fp, pc}

00012fc4 <XAxiVdma_BdSetStride>:
   12fc4:	e92d4800 	push	{fp, lr}
   12fc8:	e28db004 	add	fp, sp, #4
   12fcc:	e24dd010 	sub	sp, sp, #16
   12fd0:	e50b0010 	str	r0, [fp, #-16]
   12fd4:	e50b1014 	str	r1, [fp, #-20]	; 0xffffffec
   12fd8:	e51b3014 	ldr	r3, [fp, #-20]	; 0xffffffec
   12fdc:	e3530000 	cmp	r3, #0
   12fe0:	da000002 	ble	12ff0 <XAxiVdma_BdSetStride+0x2c>
   12fe4:	e51b3014 	ldr	r3, [fp, #-20]	; 0xffffffec
   12fe8:	e3530801 	cmp	r3, #65536	; 0x10000
   12fec:	ba000001 	blt	12ff8 <XAxiVdma_BdSetStride+0x34>
   12ff0:	e3a0300f 	mov	r3, #15
   12ff4:	ea00000e 	b	13034 <XAxiVdma_BdSetStride+0x70>
   12ff8:	e51b0010 	ldr	r0, [fp, #-16]
   12ffc:	e3a01018 	mov	r1, #24
   13000:	ebffff8e 	bl	12e40 <XAxiVdma_BdRead>
   13004:	e1a03000 	mov	r3, r0
   13008:	e1a03823 	lsr	r3, r3, #16
   1300c:	e1a03803 	lsl	r3, r3, #16
   13010:	e50b3008 	str	r3, [fp, #-8]
   13014:	e51b2014 	ldr	r2, [fp, #-20]	; 0xffffffec
   13018:	e51b3008 	ldr	r3, [fp, #-8]
   1301c:	e1823003 	orr	r3, r2, r3
   13020:	e51b0010 	ldr	r0, [fp, #-16]
   13024:	e3a01018 	mov	r1, #24
   13028:	e1a02003 	mov	r2, r3
   1302c:	ebffff90 	bl	12e74 <XAxiVdma_BdWrite>
   13030:	e3a03000 	mov	r3, #0
   13034:	e1a00003 	mov	r0, r3
   13038:	e24bd004 	sub	sp, fp, #4
   1303c:	e8bd8800 	pop	{fp, pc}

00013040 <XAxiVdma_BdSetFrmDly>:
   13040:	e92d4800 	push	{fp, lr}
   13044:	e28db004 	add	fp, sp, #4
   13048:	e24dd010 	sub	sp, sp, #16
   1304c:	e50b0010 	str	r0, [fp, #-16]
   13050:	e50b1014 	str	r1, [fp, #-20]	; 0xffffffec
   13054:	e51b3014 	ldr	r3, [fp, #-20]	; 0xffffffec
   13058:	e3530000 	cmp	r3, #0
   1305c:	ba000002 	blt	1306c <XAxiVdma_BdSetFrmDly+0x2c>
   13060:	e51b3014 	ldr	r3, [fp, #-20]	; 0xffffffec
   13064:	e353000f 	cmp	r3, #15
   13068:	da000001 	ble	13074 <XAxiVdma_BdSetFrmDly+0x34>
   1306c:	e3a0300f 	mov	r3, #15
   13070:	ea00000f 	b	130b4 <XAxiVdma_BdSetFrmDly+0x74>
   13074:	e51b0010 	ldr	r0, [fp, #-16]
   13078:	e3a01018 	mov	r1, #24
   1307c:	ebffff6f 	bl	12e40 <XAxiVdma_BdRead>
   13080:	e1a03000 	mov	r3, r0
   13084:	e3c3340f 	bic	r3, r3, #251658240	; 0xf000000
   13088:	e50b3008 	str	r3, [fp, #-8]
   1308c:	e51b3014 	ldr	r3, [fp, #-20]	; 0xffffffec
   13090:	e1a03c03 	lsl	r3, r3, #24
   13094:	e1a02003 	mov	r2, r3
   13098:	e51b3008 	ldr	r3, [fp, #-8]
   1309c:	e1823003 	orr	r3, r2, r3
   130a0:	e51b0010 	ldr	r0, [fp, #-16]
   130a4:	e3a01018 	mov	r1, #24
   130a8:	e1a02003 	mov	r2, r3
   130ac:	ebffff70 	bl	12e74 <XAxiVdma_BdWrite>
   130b0:	e3a03000 	mov	r3, #0
   130b4:	e1a00003 	mov	r0, r3
   130b8:	e24bd004 	sub	sp, fp, #4
   130bc:	e8bd8800 	pop	{fp, pc}

000130c0 <XVtc_LookupConfig>:
   130c0:	e52db004 	push	{fp}		; (str fp, [sp, #-4]!)
   130c4:	e28db000 	add	fp, sp, #0
   130c8:	e24dd014 	sub	sp, sp, #20
   130cc:	e1a03000 	mov	r3, r0
   130d0:	e14b30be 	strh	r3, [fp, #-14]
   130d4:	e3a03000 	mov	r3, #0
   130d8:	e50b3008 	str	r3, [fp, #-8]
   130dc:	e3a03000 	mov	r3, #0
   130e0:	e50b300c 	str	r3, [fp, #-12]
   130e4:	ea000012 	b	13134 <XVtc_LookupConfig+0x74>
   130e8:	e30c339c 	movw	r3, #50076	; 0xc39c
   130ec:	e3403001 	movt	r3, #1
   130f0:	e51b200c 	ldr	r2, [fp, #-12]
   130f4:	e1a02182 	lsl	r2, r2, #3
   130f8:	e0833002 	add	r3, r3, r2
   130fc:	e1d330b0 	ldrh	r3, [r3]
   13100:	e15b20be 	ldrh	r2, [fp, #-14]
   13104:	e1520003 	cmp	r2, r3
   13108:	1a000006 	bne	13128 <XVtc_LookupConfig+0x68>
   1310c:	e51b300c 	ldr	r3, [fp, #-12]
   13110:	e1a02183 	lsl	r2, r3, #3
   13114:	e30c339c 	movw	r3, #50076	; 0xc39c
   13118:	e3403001 	movt	r3, #1
   1311c:	e0823003 	add	r3, r2, r3
   13120:	e50b3008 	str	r3, [fp, #-8]
   13124:	ea000005 	b	13140 <XVtc_LookupConfig+0x80>
   13128:	e51b300c 	ldr	r3, [fp, #-12]
   1312c:	e2833001 	add	r3, r3, #1
   13130:	e50b300c 	str	r3, [fp, #-12]
   13134:	e51b300c 	ldr	r3, [fp, #-12]
   13138:	e3530001 	cmp	r3, #1
   1313c:	daffffe9 	ble	130e8 <XVtc_LookupConfig+0x28>
   13140:	e51b3008 	ldr	r3, [fp, #-8]
   13144:	e1a00003 	mov	r0, r3
   13148:	e24bd000 	sub	sp, fp, #0
   1314c:	e49db004 	pop	{fp}		; (ldr fp, [sp], #4)
   13150:	e12fff1e 	bx	lr

00013154 <XAxiVdma_LookupConfig>:
   13154:	e52db004 	push	{fp}		; (str fp, [sp, #-4]!)
   13158:	e28db000 	add	fp, sp, #0
   1315c:	e24dd014 	sub	sp, sp, #20
   13160:	e1a03000 	mov	r3, r0
   13164:	e14b30be 	strh	r3, [fp, #-14]
   13168:	e3a03000 	mov	r3, #0
   1316c:	e50b3008 	str	r3, [fp, #-8]
   13170:	e3a03000 	mov	r3, #0
   13174:	e50b300c 	str	r3, [fp, #-12]
   13178:	ea00001a 	b	131e8 <XAxiVdma_LookupConfig+0x94>
   1317c:	e30c23ac 	movw	r2, #50092	; 0xc3ac
   13180:	e3402001 	movt	r2, #1
   13184:	e51b300c 	ldr	r3, [fp, #-12]
   13188:	e1a01003 	mov	r1, r3
   1318c:	e1a03181 	lsl	r3, r1, #3
   13190:	e1a01003 	mov	r1, r3
   13194:	e1a03201 	lsl	r3, r1, #4
   13198:	e0613003 	rsb	r3, r1, r3
   1319c:	e0823003 	add	r3, r2, r3
   131a0:	e1d330b0 	ldrh	r3, [r3]
   131a4:	e15b20be 	ldrh	r2, [fp, #-14]
   131a8:	e1520003 	cmp	r2, r3
   131ac:	1a00000a 	bne	131dc <XAxiVdma_LookupConfig+0x88>
   131b0:	e51b300c 	ldr	r3, [fp, #-12]
   131b4:	e1a02003 	mov	r2, r3
   131b8:	e1a03182 	lsl	r3, r2, #3
   131bc:	e1a02003 	mov	r2, r3
   131c0:	e1a03202 	lsl	r3, r2, #4
   131c4:	e0623003 	rsb	r3, r2, r3
   131c8:	e30c23ac 	movw	r2, #50092	; 0xc3ac
   131cc:	e3402001 	movt	r2, #1
   131d0:	e0833002 	add	r3, r3, r2
   131d4:	e50b3008 	str	r3, [fp, #-8]
   131d8:	ea000005 	b	131f4 <XAxiVdma_LookupConfig+0xa0>
   131dc:	e51b300c 	ldr	r3, [fp, #-12]
   131e0:	e2833001 	add	r3, r3, #1
   131e4:	e50b300c 	str	r3, [fp, #-12]
   131e8:	e51b300c 	ldr	r3, [fp, #-12]
   131ec:	e3530000 	cmp	r3, #0
   131f0:	daffffe1 	ble	1317c <XAxiVdma_LookupConfig+0x28>
   131f4:	e51b3008 	ldr	r3, [fp, #-8]
   131f8:	e1a00003 	mov	r0, r3
   131fc:	e24bd000 	sub	sp, fp, #0
   13200:	e49db004 	pop	{fp}		; (ldr fp, [sp], #4)
   13204:	e12fff1e 	bx	lr

00013208 <XScuTimer_CfgInitialize>:
   13208:	e92d4800 	push	{fp, lr}
   1320c:	e28db004 	add	fp, sp, #4
   13210:	e24dd010 	sub	sp, sp, #16
   13214:	e50b0008 	str	r0, [fp, #-8]
   13218:	e50b100c 	str	r1, [fp, #-12]
   1321c:	e50b2010 	str	r2, [fp, #-16]
   13220:	e51b3008 	ldr	r3, [fp, #-8]
   13224:	e3530000 	cmp	r3, #0
   13228:	0a000007 	beq	1324c <XScuTimer_CfgInitialize+0x44>
   1322c:	e30c3768 	movw	r3, #51048	; 0xc768
   13230:	e3403001 	movt	r3, #1
   13234:	e3a02000 	mov	r2, #0
   13238:	e5832000 	str	r2, [r3]
   1323c:	e51b300c 	ldr	r3, [fp, #-12]
   13240:	e3530000 	cmp	r3, #0
   13244:	0a000015 	beq	132a0 <XScuTimer_CfgInitialize+0x98>
   13248:	ea000009 	b	13274 <XScuTimer_CfgInitialize+0x6c>
   1324c:	e30b0d14 	movw	r0, #48404	; 0xbd14
   13250:	e3400001 	movt	r0, #1
   13254:	e3a01060 	mov	r1, #96	; 0x60
   13258:	ebfff277 	bl	fc3c <Xil_Assert>
   1325c:	e30c3768 	movw	r3, #51048	; 0xc768
   13260:	e3403001 	movt	r3, #1
   13264:	e3a02001 	mov	r2, #1
   13268:	e5832000 	str	r2, [r3]
   1326c:	e3a03000 	mov	r3, #0
   13270:	ea000025 	b	1330c <XScuTimer_CfgInitialize+0x104>
   13274:	e30c3768 	movw	r3, #51048	; 0xc768
   13278:	e3403001 	movt	r3, #1
   1327c:	e3a02000 	mov	r2, #0
   13280:	e5832000 	str	r2, [r3]
   13284:	e51b3008 	ldr	r3, [fp, #-8]
   13288:	e593200c 	ldr	r2, [r3, #12]
   1328c:	e3023222 	movw	r3, #8738	; 0x2222
   13290:	e3423222 	movt	r3, #8738	; 0x2222
   13294:	e1520003 	cmp	r2, r3
   13298:	1a00000c 	bne	132d0 <XScuTimer_CfgInitialize+0xc8>
   1329c:	ea000009 	b	132c8 <XScuTimer_CfgInitialize+0xc0>
   132a0:	e30b0d14 	movw	r0, #48404	; 0xbd14
   132a4:	e3400001 	movt	r0, #1
   132a8:	e3a01061 	mov	r1, #97	; 0x61
   132ac:	ebfff262 	bl	fc3c <Xil_Assert>
   132b0:	e30c3768 	movw	r3, #51048	; 0xc768
   132b4:	e3403001 	movt	r3, #1
   132b8:	e3a02001 	mov	r2, #1
   132bc:	e5832000 	str	r2, [r3]
   132c0:	e3a03000 	mov	r3, #0
   132c4:	ea000010 	b	1330c <XScuTimer_CfgInitialize+0x104>
   132c8:	e3a03005 	mov	r3, #5
   132cc:	ea00000e 	b	1330c <XScuTimer_CfgInitialize+0x104>
   132d0:	e51b300c 	ldr	r3, [fp, #-12]
   132d4:	e1d320b0 	ldrh	r2, [r3]
   132d8:	e51b3008 	ldr	r3, [fp, #-8]
   132dc:	e1c320b0 	strh	r2, [r3]
   132e0:	e51b3008 	ldr	r3, [fp, #-8]
   132e4:	e51b2010 	ldr	r2, [fp, #-16]
   132e8:	e5832004 	str	r2, [r3, #4]
   132ec:	e51b3008 	ldr	r3, [fp, #-8]
   132f0:	e3a02000 	mov	r2, #0
   132f4:	e583200c 	str	r2, [r3, #12]
   132f8:	e51b2008 	ldr	r2, [fp, #-8]
   132fc:	e3013111 	movw	r3, #4369	; 0x1111
   13300:	e3413111 	movt	r3, #4369	; 0x1111
   13304:	e5823008 	str	r3, [r2, #8]
   13308:	e3a03000 	mov	r3, #0
   1330c:	e1a00003 	mov	r0, r3
   13310:	e24bd004 	sub	sp, fp, #4
   13314:	e8bd8800 	pop	{fp, pc}

00013318 <XScuTimer_Start>:
   13318:	e92d4800 	push	{fp, lr}
   1331c:	e28db004 	add	fp, sp, #4
   13320:	e24dd010 	sub	sp, sp, #16
   13324:	e50b0010 	str	r0, [fp, #-16]
   13328:	e51b3010 	ldr	r3, [fp, #-16]
   1332c:	e3530000 	cmp	r3, #0
   13330:	0a00000a 	beq	13360 <XScuTimer_Start+0x48>
   13334:	e30c3768 	movw	r3, #51048	; 0xc768
   13338:	e3403001 	movt	r3, #1
   1333c:	e3a02000 	mov	r2, #0
   13340:	e5832000 	str	r2, [r3]
   13344:	e51b3010 	ldr	r3, [fp, #-16]
   13348:	e5932008 	ldr	r2, [r3, #8]
   1334c:	e3013111 	movw	r3, #4369	; 0x1111
   13350:	e3413111 	movt	r3, #4369	; 0x1111
   13354:	e1520003 	cmp	r2, r3
   13358:	1a000021 	bne	133e4 <XScuTimer_Start+0xcc>
   1335c:	ea000008 	b	13384 <XScuTimer_Start+0x6c>
   13360:	e30b0d14 	movw	r0, #48404	; 0xbd14
   13364:	e3400001 	movt	r0, #1
   13368:	e3a01092 	mov	r1, #146	; 0x92
   1336c:	ebfff232 	bl	fc3c <Xil_Assert>
   13370:	e30c3768 	movw	r3, #51048	; 0xc768
   13374:	e3403001 	movt	r3, #1
   13378:	e3a02001 	mov	r2, #1
   1337c:	e5832000 	str	r2, [r3]
   13380:	ea000020 	b	13408 <XScuTimer_Start+0xf0>
   13384:	e30c3768 	movw	r3, #51048	; 0xc768
   13388:	e3403001 	movt	r3, #1
   1338c:	e3a02000 	mov	r2, #0
   13390:	e5832000 	str	r2, [r3]
   13394:	e51b3010 	ldr	r3, [fp, #-16]
   13398:	e5933004 	ldr	r3, [r3, #4]
   1339c:	e2833008 	add	r3, r3, #8
   133a0:	e1a00003 	mov	r0, r3
   133a4:	ebfff25d 	bl	fd20 <Xil_In32>
   133a8:	e50b0008 	str	r0, [fp, #-8]
   133ac:	e51b3008 	ldr	r3, [fp, #-8]
   133b0:	e3833001 	orr	r3, r3, #1
   133b4:	e50b3008 	str	r3, [fp, #-8]
   133b8:	e51b3010 	ldr	r3, [fp, #-16]
   133bc:	e5933004 	ldr	r3, [r3, #4]
   133c0:	e2833008 	add	r3, r3, #8
   133c4:	e1a00003 	mov	r0, r3
   133c8:	e51b1008 	ldr	r1, [fp, #-8]
   133cc:	ebfff275 	bl	fda8 <Xil_Out32>
   133d0:	e51b2010 	ldr	r2, [fp, #-16]
   133d4:	e3023222 	movw	r3, #8738	; 0x2222
   133d8:	e3423222 	movt	r3, #8738	; 0x2222
   133dc:	e582300c 	str	r3, [r2, #12]
   133e0:	ea000008 	b	13408 <XScuTimer_Start+0xf0>
   133e4:	e30b0d14 	movw	r0, #48404	; 0xbd14
   133e8:	e3400001 	movt	r0, #1
   133ec:	e3a01093 	mov	r1, #147	; 0x93
   133f0:	ebfff211 	bl	fc3c <Xil_Assert>
   133f4:	e30c3768 	movw	r3, #51048	; 0xc768
   133f8:	e3403001 	movt	r3, #1
   133fc:	e3a02001 	mov	r2, #1
   13400:	e5832000 	str	r2, [r3]
   13404:	e1a00000 	nop			; (mov r0, r0)
   13408:	e24bd004 	sub	sp, fp, #4
   1340c:	e8bd8800 	pop	{fp, pc}

00013410 <XScuTimer_Stop>:
   13410:	e92d4800 	push	{fp, lr}
   13414:	e28db004 	add	fp, sp, #4
   13418:	e24dd010 	sub	sp, sp, #16
   1341c:	e50b0010 	str	r0, [fp, #-16]
   13420:	e51b3010 	ldr	r3, [fp, #-16]
   13424:	e3530000 	cmp	r3, #0
   13428:	0a00000a 	beq	13458 <XScuTimer_Stop+0x48>
   1342c:	e30c3768 	movw	r3, #51048	; 0xc768
   13430:	e3403001 	movt	r3, #1
   13434:	e3a02000 	mov	r2, #0
   13438:	e5832000 	str	r2, [r3]
   1343c:	e51b3010 	ldr	r3, [fp, #-16]
   13440:	e5932008 	ldr	r2, [r3, #8]
   13444:	e3013111 	movw	r3, #4369	; 0x1111
   13448:	e3413111 	movt	r3, #4369	; 0x1111
   1344c:	e1520003 	cmp	r2, r3
   13450:	1a000020 	bne	134d8 <XScuTimer_Stop+0xc8>
   13454:	ea000008 	b	1347c <XScuTimer_Stop+0x6c>
   13458:	e30b0d14 	movw	r0, #48404	; 0xbd14
   1345c:	e3400001 	movt	r0, #1
   13460:	e3a010bc 	mov	r1, #188	; 0xbc
   13464:	ebfff1f4 	bl	fc3c <Xil_Assert>
   13468:	e30c3768 	movw	r3, #51048	; 0xc768
   1346c:	e3403001 	movt	r3, #1
   13470:	e3a02001 	mov	r2, #1
   13474:	e5832000 	str	r2, [r3]
   13478:	ea00001f 	b	134fc <XScuTimer_Stop+0xec>
   1347c:	e30c3768 	movw	r3, #51048	; 0xc768
   13480:	e3403001 	movt	r3, #1
   13484:	e3a02000 	mov	r2, #0
   13488:	e5832000 	str	r2, [r3]
   1348c:	e51b3010 	ldr	r3, [fp, #-16]
   13490:	e5933004 	ldr	r3, [r3, #4]
   13494:	e2833008 	add	r3, r3, #8
   13498:	e1a00003 	mov	r0, r3
   1349c:	ebfff21f 	bl	fd20 <Xil_In32>
   134a0:	e50b0008 	str	r0, [fp, #-8]
   134a4:	e51b3008 	ldr	r3, [fp, #-8]
   134a8:	e3c33001 	bic	r3, r3, #1
   134ac:	e50b3008 	str	r3, [fp, #-8]
   134b0:	e51b3010 	ldr	r3, [fp, #-16]
   134b4:	e5933004 	ldr	r3, [r3, #4]
   134b8:	e2833008 	add	r3, r3, #8
   134bc:	e1a00003 	mov	r0, r3
   134c0:	e51b1008 	ldr	r1, [fp, #-8]
   134c4:	ebfff237 	bl	fda8 <Xil_Out32>
   134c8:	e51b3010 	ldr	r3, [fp, #-16]
   134cc:	e3a02000 	mov	r2, #0
   134d0:	e583200c 	str	r2, [r3, #12]
   134d4:	ea000008 	b	134fc <XScuTimer_Stop+0xec>
   134d8:	e30b0d14 	movw	r0, #48404	; 0xbd14
   134dc:	e3400001 	movt	r0, #1
   134e0:	e3a010bd 	mov	r1, #189	; 0xbd
   134e4:	ebfff1d4 	bl	fc3c <Xil_Assert>
   134e8:	e30c3768 	movw	r3, #51048	; 0xc768
   134ec:	e3403001 	movt	r3, #1
   134f0:	e3a02001 	mov	r2, #1
   134f4:	e5832000 	str	r2, [r3]
   134f8:	e1a00000 	nop			; (mov r0, r0)
   134fc:	e24bd004 	sub	sp, fp, #4
   13500:	e8bd8800 	pop	{fp, pc}

00013504 <XScuTimer_SetPrescaler>:
   13504:	e92d4800 	push	{fp, lr}
   13508:	e28db004 	add	fp, sp, #4
   1350c:	e24dd010 	sub	sp, sp, #16
   13510:	e50b0010 	str	r0, [fp, #-16]
   13514:	e1a03001 	mov	r3, r1
   13518:	e54b3011 	strb	r3, [fp, #-17]	; 0xffffffef
   1351c:	e51b3010 	ldr	r3, [fp, #-16]
   13520:	e3530000 	cmp	r3, #0
   13524:	0a00000a 	beq	13554 <XScuTimer_SetPrescaler+0x50>
   13528:	e30c3768 	movw	r3, #51048	; 0xc768
   1352c:	e3403001 	movt	r3, #1
   13530:	e3a02000 	mov	r2, #0
   13534:	e5832000 	str	r2, [r3]
   13538:	e51b3010 	ldr	r3, [fp, #-16]
   1353c:	e5932008 	ldr	r2, [r3, #8]
   13540:	e3013111 	movw	r3, #4369	; 0x1111
   13544:	e3413111 	movt	r3, #4369	; 0x1111
   13548:	e1520003 	cmp	r2, r3
   1354c:	1a000023 	bne	135e0 <XScuTimer_SetPrescaler+0xdc>
   13550:	ea000008 	b	13578 <XScuTimer_SetPrescaler+0x74>
   13554:	e30b0d14 	movw	r0, #48404	; 0xbd14
   13558:	e3400001 	movt	r0, #1
   1355c:	e3a010ea 	mov	r1, #234	; 0xea
   13560:	ebfff1b5 	bl	fc3c <Xil_Assert>
   13564:	e30c3768 	movw	r3, #51048	; 0xc768
   13568:	e3403001 	movt	r3, #1
   1356c:	e3a02001 	mov	r2, #1
   13570:	e5832000 	str	r2, [r3]
   13574:	ea000022 	b	13604 <XScuTimer_SetPrescaler+0x100>
   13578:	e30c3768 	movw	r3, #51048	; 0xc768
   1357c:	e3403001 	movt	r3, #1
   13580:	e3a02000 	mov	r2, #0
   13584:	e5832000 	str	r2, [r3]
   13588:	e51b3010 	ldr	r3, [fp, #-16]
   1358c:	e5933004 	ldr	r3, [r3, #4]
   13590:	e2833008 	add	r3, r3, #8
   13594:	e1a00003 	mov	r0, r3
   13598:	ebfff1e0 	bl	fd20 <Xil_In32>
   1359c:	e50b0008 	str	r0, [fp, #-8]
   135a0:	e51b3008 	ldr	r3, [fp, #-8]
   135a4:	e3c33cff 	bic	r3, r3, #65280	; 0xff00
   135a8:	e50b3008 	str	r3, [fp, #-8]
   135ac:	e55b3011 	ldrb	r3, [fp, #-17]	; 0xffffffef
   135b0:	e1a03403 	lsl	r3, r3, #8
   135b4:	e1a02003 	mov	r2, r3
   135b8:	e51b3008 	ldr	r3, [fp, #-8]
   135bc:	e1833002 	orr	r3, r3, r2
   135c0:	e50b3008 	str	r3, [fp, #-8]
   135c4:	e51b3010 	ldr	r3, [fp, #-16]
   135c8:	e5933004 	ldr	r3, [r3, #4]
   135cc:	e2833008 	add	r3, r3, #8
   135d0:	e1a00003 	mov	r0, r3
   135d4:	e51b1008 	ldr	r1, [fp, #-8]
   135d8:	ebfff1f2 	bl	fda8 <Xil_Out32>
   135dc:	ea000008 	b	13604 <XScuTimer_SetPrescaler+0x100>
   135e0:	e30b0d14 	movw	r0, #48404	; 0xbd14
   135e4:	e3400001 	movt	r0, #1
   135e8:	e3a010eb 	mov	r1, #235	; 0xeb
   135ec:	ebfff192 	bl	fc3c <Xil_Assert>
   135f0:	e30c3768 	movw	r3, #51048	; 0xc768
   135f4:	e3403001 	movt	r3, #1
   135f8:	e3a02001 	mov	r2, #1
   135fc:	e5832000 	str	r2, [r3]
   13600:	e1a00000 	nop			; (mov r0, r0)
   13604:	e24bd004 	sub	sp, fp, #4
   13608:	e8bd8800 	pop	{fp, pc}

0001360c <XScuTimer_GetPrescaler>:
   1360c:	e92d4800 	push	{fp, lr}
   13610:	e28db004 	add	fp, sp, #4
   13614:	e24dd010 	sub	sp, sp, #16
   13618:	e50b0010 	str	r0, [fp, #-16]
   1361c:	e51b3010 	ldr	r3, [fp, #-16]
   13620:	e3530000 	cmp	r3, #0
   13624:	0a00000a 	beq	13654 <XScuTimer_GetPrescaler+0x48>
   13628:	e30c3768 	movw	r3, #51048	; 0xc768
   1362c:	e3403001 	movt	r3, #1
   13630:	e3a02000 	mov	r2, #0
   13634:	e5832000 	str	r2, [r3]
   13638:	e51b3010 	ldr	r3, [fp, #-16]
   1363c:	e5932008 	ldr	r2, [r3, #8]
   13640:	e3013111 	movw	r3, #4369	; 0x1111
   13644:	e3413111 	movt	r3, #4369	; 0x1111
   13648:	e1520003 	cmp	r2, r3
   1364c:	1a00001b 	bne	136c0 <XScuTimer_GetPrescaler+0xb4>
   13650:	ea000009 	b	1367c <XScuTimer_GetPrescaler+0x70>
   13654:	e30b0d14 	movw	r0, #48404	; 0xbd14
   13658:	e3400001 	movt	r0, #1
   1365c:	e3001116 	movw	r1, #278	; 0x116
   13660:	ebfff175 	bl	fc3c <Xil_Assert>
   13664:	e30c3768 	movw	r3, #51048	; 0xc768
   13668:	e3403001 	movt	r3, #1
   1366c:	e3a02001 	mov	r2, #1
   13670:	e5832000 	str	r2, [r3]
   13674:	e3a03000 	mov	r3, #0
   13678:	ea000019 	b	136e4 <XScuTimer_GetPrescaler+0xd8>
   1367c:	e30c3768 	movw	r3, #51048	; 0xc768
   13680:	e3403001 	movt	r3, #1
   13684:	e3a02000 	mov	r2, #0
   13688:	e5832000 	str	r2, [r3]
   1368c:	e51b3010 	ldr	r3, [fp, #-16]
   13690:	e5933004 	ldr	r3, [r3, #4]
   13694:	e2833008 	add	r3, r3, #8
   13698:	e1a00003 	mov	r0, r3
   1369c:	ebfff19f 	bl	fd20 <Xil_In32>
   136a0:	e50b0008 	str	r0, [fp, #-8]
   136a4:	e51b3008 	ldr	r3, [fp, #-8]
   136a8:	e2033cff 	and	r3, r3, #65280	; 0xff00
   136ac:	e50b3008 	str	r3, [fp, #-8]
   136b0:	e51b3008 	ldr	r3, [fp, #-8]
   136b4:	e1a03423 	lsr	r3, r3, #8
   136b8:	e6ef3073 	uxtb	r3, r3
   136bc:	ea000008 	b	136e4 <XScuTimer_GetPrescaler+0xd8>
   136c0:	e30b0d14 	movw	r0, #48404	; 0xbd14
   136c4:	e3400001 	movt	r0, #1
   136c8:	e3001117 	movw	r1, #279	; 0x117
   136cc:	ebfff15a 	bl	fc3c <Xil_Assert>
   136d0:	e30c3768 	movw	r3, #51048	; 0xc768
   136d4:	e3403001 	movt	r3, #1
   136d8:	e3a02001 	mov	r2, #1
   136dc:	e5832000 	str	r2, [r3]
   136e0:	e3a03000 	mov	r3, #0
   136e4:	e1a00003 	mov	r0, r3
   136e8:	e24bd004 	sub	sp, fp, #4
   136ec:	e8bd8800 	pop	{fp, pc}

000136f0 <XScuTimer_SelfTest>:
   136f0:	e92d4800 	push	{fp, lr}
   136f4:	e28db004 	add	fp, sp, #4
   136f8:	e24dd018 	sub	sp, sp, #24
   136fc:	e50b0018 	str	r0, [fp, #-24]	; 0xffffffe8
   13700:	e51b3018 	ldr	r3, [fp, #-24]	; 0xffffffe8
   13704:	e3530000 	cmp	r3, #0
   13708:	0a00000a 	beq	13738 <XScuTimer_SelfTest+0x48>
   1370c:	e30c3768 	movw	r3, #51048	; 0xc768
   13710:	e3403001 	movt	r3, #1
   13714:	e3a02000 	mov	r2, #0
   13718:	e5832000 	str	r2, [r3]
   1371c:	e51b3018 	ldr	r3, [fp, #-24]	; 0xffffffe8
   13720:	e5932008 	ldr	r2, [r3, #8]
   13724:	e3013111 	movw	r3, #4369	; 0x1111
   13728:	e3413111 	movt	r3, #4369	; 0x1111
   1372c:	e1520003 	cmp	r2, r3
   13730:	1a00003e 	bne	13830 <XScuTimer_SelfTest+0x140>
   13734:	ea000009 	b	13760 <XScuTimer_SelfTest+0x70>
   13738:	e30b0d20 	movw	r0, #48416	; 0xbd20
   1373c:	e3400001 	movt	r0, #1
   13740:	e3a01065 	mov	r1, #101	; 0x65
   13744:	ebfff13c 	bl	fc3c <Xil_Assert>
   13748:	e30c3768 	movw	r3, #51048	; 0xc768
   1374c:	e3403001 	movt	r3, #1
   13750:	e3a02001 	mov	r2, #1
   13754:	e5832000 	str	r2, [r3]
   13758:	e3a03000 	mov	r3, #0
   1375c:	ea000040 	b	13864 <XScuTimer_SelfTest+0x174>
   13760:	e30c3768 	movw	r3, #51048	; 0xc768
   13764:	e3403001 	movt	r3, #1
   13768:	e3a02000 	mov	r2, #0
   1376c:	e5832000 	str	r2, [r3]
   13770:	e51b3018 	ldr	r3, [fp, #-24]	; 0xffffffe8
   13774:	e5933004 	ldr	r3, [r3, #4]
   13778:	e2833008 	add	r3, r3, #8
   1377c:	e1a00003 	mov	r0, r3
   13780:	ebfff166 	bl	fd20 <Xil_In32>
   13784:	e50b0008 	str	r0, [fp, #-8]
   13788:	e51b3008 	ldr	r3, [fp, #-8]
   1378c:	e3c33001 	bic	r3, r3, #1
   13790:	e50b300c 	str	r3, [fp, #-12]
   13794:	e51b3018 	ldr	r3, [fp, #-24]	; 0xffffffe8
   13798:	e5933004 	ldr	r3, [r3, #4]
   1379c:	e2833008 	add	r3, r3, #8
   137a0:	e1a00003 	mov	r0, r3
   137a4:	e51b100c 	ldr	r1, [fp, #-12]
   137a8:	ebfff17e 	bl	fda8 <Xil_Out32>
   137ac:	e51b3018 	ldr	r3, [fp, #-24]	; 0xffffffe8
   137b0:	e5933004 	ldr	r3, [r3, #4]
   137b4:	e1a00003 	mov	r0, r3
   137b8:	ebfff158 	bl	fd20 <Xil_In32>
   137bc:	e50b0010 	str	r0, [fp, #-16]
   137c0:	e51b3018 	ldr	r3, [fp, #-24]	; 0xffffffe8
   137c4:	e5933004 	ldr	r3, [r3, #4]
   137c8:	e1a00003 	mov	r0, r3
   137cc:	e30f100f 	movw	r1, #61455	; 0xf00f
   137d0:	e34a155a 	movt	r1, #42330	; 0xa55a
   137d4:	ebfff173 	bl	fda8 <Xil_Out32>
   137d8:	e51b3018 	ldr	r3, [fp, #-24]	; 0xffffffe8
   137dc:	e5933004 	ldr	r3, [r3, #4]
   137e0:	e1a00003 	mov	r0, r3
   137e4:	ebfff14d 	bl	fd20 <Xil_In32>
   137e8:	e50b000c 	str	r0, [fp, #-12]
   137ec:	e51b3018 	ldr	r3, [fp, #-24]	; 0xffffffe8
   137f0:	e5933004 	ldr	r3, [r3, #4]
   137f4:	e1a00003 	mov	r0, r3
   137f8:	e51b1010 	ldr	r1, [fp, #-16]
   137fc:	ebfff169 	bl	fda8 <Xil_Out32>
   13800:	e51b3018 	ldr	r3, [fp, #-24]	; 0xffffffe8
   13804:	e5933004 	ldr	r3, [r3, #4]
   13808:	e2833008 	add	r3, r3, #8
   1380c:	e1a00003 	mov	r0, r3
   13810:	e51b1008 	ldr	r1, [fp, #-8]
   13814:	ebfff163 	bl	fda8 <Xil_Out32>
   13818:	e51b200c 	ldr	r2, [fp, #-12]
   1381c:	e30f300f 	movw	r3, #61455	; 0xf00f
   13820:	e34a355a 	movt	r3, #42330	; 0xa55a
   13824:	e1520003 	cmp	r2, r3
   13828:	0a00000c 	beq	13860 <XScuTimer_SelfTest+0x170>
   1382c:	ea000009 	b	13858 <XScuTimer_SelfTest+0x168>
   13830:	e30b0d20 	movw	r0, #48416	; 0xbd20
   13834:	e3400001 	movt	r0, #1
   13838:	e3a01066 	mov	r1, #102	; 0x66
   1383c:	ebfff0fe 	bl	fc3c <Xil_Assert>
   13840:	e30c3768 	movw	r3, #51048	; 0xc768
   13844:	e3403001 	movt	r3, #1
   13848:	e3a02001 	mov	r2, #1
   1384c:	e5832000 	str	r2, [r3]
   13850:	e3a03000 	mov	r3, #0
   13854:	ea000002 	b	13864 <XScuTimer_SelfTest+0x174>
   13858:	e3a03001 	mov	r3, #1
   1385c:	ea000000 	b	13864 <XScuTimer_SelfTest+0x174>
   13860:	e3a03000 	mov	r3, #0
   13864:	e1a00003 	mov	r0, r3
   13868:	e24bd004 	sub	sp, fp, #4
   1386c:	e8bd8800 	pop	{fp, pc}

00013870 <XScuTimer_LookupConfig>:
   13870:	e52db004 	push	{fp}		; (str fp, [sp, #-4]!)
   13874:	e28db000 	add	fp, sp, #0
   13878:	e24dd014 	sub	sp, sp, #20
   1387c:	e1a03000 	mov	r3, r0
   13880:	e14b30be 	strh	r3, [fp, #-14]
   13884:	e3a03000 	mov	r3, #0
   13888:	e50b3008 	str	r3, [fp, #-8]
   1388c:	e3a03000 	mov	r3, #0
   13890:	e50b300c 	str	r3, [fp, #-12]
   13894:	ea000012 	b	138e4 <XScuTimer_LookupConfig+0x74>
   13898:	e30c3424 	movw	r3, #50212	; 0xc424
   1389c:	e3403001 	movt	r3, #1
   138a0:	e51b200c 	ldr	r2, [fp, #-12]
   138a4:	e1a02182 	lsl	r2, r2, #3
   138a8:	e0833002 	add	r3, r3, r2
   138ac:	e1d330b0 	ldrh	r3, [r3]
   138b0:	e15b20be 	ldrh	r2, [fp, #-14]
   138b4:	e1520003 	cmp	r2, r3
   138b8:	1a000006 	bne	138d8 <XScuTimer_LookupConfig+0x68>
   138bc:	e51b300c 	ldr	r3, [fp, #-12]
   138c0:	e1a02183 	lsl	r2, r3, #3
   138c4:	e30c3424 	movw	r3, #50212	; 0xc424
   138c8:	e3403001 	movt	r3, #1
   138cc:	e0823003 	add	r3, r2, r3
   138d0:	e50b3008 	str	r3, [fp, #-8]
   138d4:	ea000005 	b	138f0 <XScuTimer_LookupConfig+0x80>
   138d8:	e51b300c 	ldr	r3, [fp, #-12]
   138dc:	e2833001 	add	r3, r3, #1
   138e0:	e50b300c 	str	r3, [fp, #-12]
   138e4:	e51b300c 	ldr	r3, [fp, #-12]
   138e8:	e3530000 	cmp	r3, #0
   138ec:	daffffe9 	ble	13898 <XScuTimer_LookupConfig+0x28>
   138f0:	e51b3008 	ldr	r3, [fp, #-8]
   138f4:	e1a00003 	mov	r0, r3
   138f8:	e24bd000 	sub	sp, fp, #0
   138fc:	e49db004 	pop	{fp}		; (ldr fp, [sp], #4)
   13900:	e12fff1e 	bx	lr

00013904 <XAxiCdma_BdRingCntCalc>:
   13904:	e92d4800 	push	{fp, lr}
   13908:	e28db004 	add	fp, sp, #4
   1390c:	e24dd010 	sub	sp, sp, #16
   13910:	e50b0008 	str	r0, [fp, #-8]
   13914:	e50b100c 	str	r1, [fp, #-12]
   13918:	e50b2010 	str	r2, [fp, #-16]
   1391c:	e51b2010 	ldr	r2, [fp, #-16]
   13920:	e51b3008 	ldr	r3, [fp, #-8]
   13924:	e0033002 	and	r3, r3, r2
   13928:	e3530000 	cmp	r3, #0
   1392c:	0a000001 	beq	13938 <XAxiCdma_BdRingCntCalc+0x34>
   13930:	e3a03000 	mov	r3, #0
   13934:	ea000008 	b	1395c <XAxiCdma_BdRingCntCalc+0x58>
   13938:	e51b3008 	ldr	r3, [fp, #-8]
   1393c:	e283203f 	add	r2, r3, #63	; 0x3f
   13940:	e51b3008 	ldr	r3, [fp, #-8]
   13944:	e2633000 	rsb	r3, r3, #0
   13948:	e0033002 	and	r3, r3, r2
   1394c:	e51b000c 	ldr	r0, [fp, #-12]
   13950:	e1a01003 	mov	r1, r3
   13954:	eb001c9d 	bl	1abd0 <__aeabi_uidiv>
   13958:	e1a03000 	mov	r3, r0
   1395c:	e1a00003 	mov	r0, r3
   13960:	e24bd004 	sub	sp, fp, #4
   13964:	e8bd8800 	pop	{fp, pc}

00013968 <XAxiCdma_BdRingMemCalc>:
   13968:	e52db004 	push	{fp}		; (str fp, [sp, #-4]!)
   1396c:	e28db000 	add	fp, sp, #0
   13970:	e24dd00c 	sub	sp, sp, #12
   13974:	e50b0008 	str	r0, [fp, #-8]
   13978:	e50b100c 	str	r1, [fp, #-12]
   1397c:	e51b3008 	ldr	r3, [fp, #-8]
   13980:	e283203f 	add	r2, r3, #63	; 0x3f
   13984:	e51b3008 	ldr	r3, [fp, #-8]
   13988:	e2633000 	rsb	r3, r3, #0
   1398c:	e0033002 	and	r3, r3, r2
   13990:	e51b200c 	ldr	r2, [fp, #-12]
   13994:	e0030392 	mul	r3, r2, r3
   13998:	e1a00003 	mov	r0, r3
   1399c:	e24bd000 	sub	sp, fp, #0
   139a0:	e49db004 	pop	{fp}		; (ldr fp, [sp], #4)
   139a4:	e12fff1e 	bx	lr

000139a8 <XAxiCdma_BdRingGetCnt>:
   139a8:	e52db004 	push	{fp}		; (str fp, [sp, #-4]!)
   139ac:	e28db000 	add	fp, sp, #0
   139b0:	e24dd00c 	sub	sp, sp, #12
   139b4:	e50b0008 	str	r0, [fp, #-8]
   139b8:	e51b3008 	ldr	r3, [fp, #-8]
   139bc:	e5933060 	ldr	r3, [r3, #96]	; 0x60
   139c0:	e1a00003 	mov	r0, r3
   139c4:	e24bd000 	sub	sp, fp, #0
   139c8:	e49db004 	pop	{fp}		; (ldr fp, [sp], #4)
   139cc:	e12fff1e 	bx	lr

000139d0 <XAxiCdma_BdRingGetFreeCnt>:
   139d0:	e52db004 	push	{fp}		; (str fp, [sp, #-4]!)
   139d4:	e28db000 	add	fp, sp, #0
   139d8:	e24dd00c 	sub	sp, sp, #12
   139dc:	e50b0008 	str	r0, [fp, #-8]
   139e0:	e51b3008 	ldr	r3, [fp, #-8]
   139e4:	e5933050 	ldr	r3, [r3, #80]	; 0x50
   139e8:	e1a00003 	mov	r0, r3
   139ec:	e24bd000 	sub	sp, fp, #0
   139f0:	e49db004 	pop	{fp}		; (ldr fp, [sp], #4)
   139f4:	e12fff1e 	bx	lr

000139f8 <XAxiCdma_BdRingSnapShotCurrBd>:
   139f8:	e92d4800 	push	{fp, lr}
   139fc:	e28db004 	add	fp, sp, #4
   13a00:	e24dd010 	sub	sp, sp, #16
   13a04:	e50b0010 	str	r0, [fp, #-16]
   13a08:	e51b3010 	ldr	r3, [fp, #-16]
   13a0c:	e5933000 	ldr	r3, [r3]
   13a10:	e2833008 	add	r3, r3, #8
   13a14:	e1a00003 	mov	r0, r3
   13a18:	ebfff0c0 	bl	fd20 <Xil_In32>
   13a1c:	e1a03000 	mov	r3, r0
   13a20:	e50b3008 	str	r3, [fp, #-8]
   13a24:	e51b0010 	ldr	r0, [fp, #-16]
   13a28:	e51b1008 	ldr	r1, [fp, #-8]
   13a2c:	eb000012 	bl	13a7c <XAxiCdma_BdRingNext>
   13a30:	e1a02000 	mov	r2, r0
   13a34:	e51b3010 	ldr	r3, [fp, #-16]
   13a38:	e583204c 	str	r2, [r3, #76]	; 0x4c
   13a3c:	e1a00000 	nop			; (mov r0, r0)
   13a40:	e24bd004 	sub	sp, fp, #4
   13a44:	e8bd8800 	pop	{fp, pc}

00013a48 <XAxiCdma_BdRingGetCurrBd>:
   13a48:	e92d4800 	push	{fp, lr}
   13a4c:	e28db004 	add	fp, sp, #4
   13a50:	e24dd008 	sub	sp, sp, #8
   13a54:	e50b0008 	str	r0, [fp, #-8]
   13a58:	e51b3008 	ldr	r3, [fp, #-8]
   13a5c:	e5933000 	ldr	r3, [r3]
   13a60:	e2833008 	add	r3, r3, #8
   13a64:	e1a00003 	mov	r0, r3
   13a68:	ebfff0ac 	bl	fd20 <Xil_In32>
   13a6c:	e1a03000 	mov	r3, r0
   13a70:	e1a00003 	mov	r0, r3
   13a74:	e24bd004 	sub	sp, fp, #4
   13a78:	e8bd8800 	pop	{fp, pc}

00013a7c <XAxiCdma_BdRingNext>:
   13a7c:	e52db004 	push	{fp}		; (str fp, [sp, #-4]!)
   13a80:	e28db000 	add	fp, sp, #0
   13a84:	e24dd014 	sub	sp, sp, #20
   13a88:	e50b0010 	str	r0, [fp, #-16]
   13a8c:	e50b1014 	str	r1, [fp, #-20]	; 0xffffffec
   13a90:	e51b2014 	ldr	r2, [fp, #-20]	; 0xffffffec
   13a94:	e51b3010 	ldr	r3, [fp, #-16]
   13a98:	e593302c 	ldr	r3, [r3, #44]	; 0x2c
   13a9c:	e1520003 	cmp	r2, r3
   13aa0:	8a00000b 	bhi	13ad4 <XAxiCdma_BdRingNext+0x58>
   13aa4:	e51b2014 	ldr	r2, [fp, #-20]	; 0xffffffec
   13aa8:	e51b3010 	ldr	r3, [fp, #-16]
   13aac:	e5933028 	ldr	r3, [r3, #40]	; 0x28
   13ab0:	e1520003 	cmp	r2, r3
   13ab4:	3a000006 	bcc	13ad4 <XAxiCdma_BdRingNext+0x58>
   13ab8:	e51b3010 	ldr	r3, [fp, #-16]
   13abc:	e5933034 	ldr	r3, [r3, #52]	; 0x34
   13ac0:	e2432001 	sub	r2, r3, #1
   13ac4:	e51b3014 	ldr	r3, [fp, #-20]	; 0xffffffec
   13ac8:	e0033002 	and	r3, r3, r2
   13acc:	e3530000 	cmp	r3, #0
   13ad0:	0a000002 	beq	13ae0 <XAxiCdma_BdRingNext+0x64>
   13ad4:	e3a03000 	mov	r3, #0
   13ad8:	e50b3008 	str	r3, [fp, #-8]
   13adc:	ea00000d 	b	13b18 <XAxiCdma_BdRingNext+0x9c>
   13ae0:	e51b2014 	ldr	r2, [fp, #-20]	; 0xffffffec
   13ae4:	e51b3010 	ldr	r3, [fp, #-16]
   13ae8:	e593302c 	ldr	r3, [r3, #44]	; 0x2c
   13aec:	e1520003 	cmp	r2, r3
   13af0:	1a000003 	bne	13b04 <XAxiCdma_BdRingNext+0x88>
   13af4:	e51b3010 	ldr	r3, [fp, #-16]
   13af8:	e5933028 	ldr	r3, [r3, #40]	; 0x28
   13afc:	e50b3008 	str	r3, [fp, #-8]
   13b00:	ea000004 	b	13b18 <XAxiCdma_BdRingNext+0x9c>
   13b04:	e51b3010 	ldr	r3, [fp, #-16]
   13b08:	e5932034 	ldr	r2, [r3, #52]	; 0x34
   13b0c:	e51b3014 	ldr	r3, [fp, #-20]	; 0xffffffec
   13b10:	e0823003 	add	r3, r2, r3
   13b14:	e50b3008 	str	r3, [fp, #-8]
   13b18:	e51b3008 	ldr	r3, [fp, #-8]
   13b1c:	e1a00003 	mov	r0, r3
   13b20:	e24bd000 	sub	sp, fp, #0
   13b24:	e49db004 	pop	{fp}		; (ldr fp, [sp], #4)
   13b28:	e12fff1e 	bx	lr

00013b2c <XAxiCdma_BdRingPrev>:
   13b2c:	e52db004 	push	{fp}		; (str fp, [sp, #-4]!)
   13b30:	e28db000 	add	fp, sp, #0
   13b34:	e24dd014 	sub	sp, sp, #20
   13b38:	e50b0010 	str	r0, [fp, #-16]
   13b3c:	e50b1014 	str	r1, [fp, #-20]	; 0xffffffec
   13b40:	e51b2014 	ldr	r2, [fp, #-20]	; 0xffffffec
   13b44:	e51b3010 	ldr	r3, [fp, #-16]
   13b48:	e593302c 	ldr	r3, [r3, #44]	; 0x2c
   13b4c:	e1520003 	cmp	r2, r3
   13b50:	8a00000b 	bhi	13b84 <XAxiCdma_BdRingPrev+0x58>
   13b54:	e51b2014 	ldr	r2, [fp, #-20]	; 0xffffffec
   13b58:	e51b3010 	ldr	r3, [fp, #-16]
   13b5c:	e5933028 	ldr	r3, [r3, #40]	; 0x28
   13b60:	e1520003 	cmp	r2, r3
   13b64:	3a000006 	bcc	13b84 <XAxiCdma_BdRingPrev+0x58>
   13b68:	e51b3010 	ldr	r3, [fp, #-16]
   13b6c:	e5933034 	ldr	r3, [r3, #52]	; 0x34
   13b70:	e2432001 	sub	r2, r3, #1
   13b74:	e51b3014 	ldr	r3, [fp, #-20]	; 0xffffffec
   13b78:	e0033002 	and	r3, r3, r2
   13b7c:	e3530000 	cmp	r3, #0
   13b80:	0a000002 	beq	13b90 <XAxiCdma_BdRingPrev+0x64>
   13b84:	e3a03000 	mov	r3, #0
   13b88:	e50b3008 	str	r3, [fp, #-8]
   13b8c:	ea00000d 	b	13bc8 <XAxiCdma_BdRingPrev+0x9c>
   13b90:	e51b2014 	ldr	r2, [fp, #-20]	; 0xffffffec
   13b94:	e51b3010 	ldr	r3, [fp, #-16]
   13b98:	e5933028 	ldr	r3, [r3, #40]	; 0x28
   13b9c:	e1520003 	cmp	r2, r3
   13ba0:	1a000003 	bne	13bb4 <XAxiCdma_BdRingPrev+0x88>
   13ba4:	e51b3010 	ldr	r3, [fp, #-16]
   13ba8:	e593302c 	ldr	r3, [r3, #44]	; 0x2c
   13bac:	e50b3008 	str	r3, [fp, #-8]
   13bb0:	ea000004 	b	13bc8 <XAxiCdma_BdRingPrev+0x9c>
   13bb4:	e51b2014 	ldr	r2, [fp, #-20]	; 0xffffffec
   13bb8:	e51b3010 	ldr	r3, [fp, #-16]
   13bbc:	e5933034 	ldr	r3, [r3, #52]	; 0x34
   13bc0:	e0633002 	rsb	r3, r3, r2
   13bc4:	e50b3008 	str	r3, [fp, #-8]
   13bc8:	e51b3008 	ldr	r3, [fp, #-8]
   13bcc:	e1a00003 	mov	r0, r3
   13bd0:	e24bd000 	sub	sp, fp, #0
   13bd4:	e49db004 	pop	{fp}		; (ldr fp, [sp], #4)
   13bd8:	e12fff1e 	bx	lr

00013bdc <XAxiCdma_BdRingCreate>:
   13bdc:	e92d4800 	push	{fp, lr}
   13be0:	e28db004 	add	fp, sp, #4
   13be4:	e24dd020 	sub	sp, sp, #32
   13be8:	e50b0018 	str	r0, [fp, #-24]	; 0xffffffe8
   13bec:	e50b101c 	str	r1, [fp, #-28]	; 0xffffffe4
   13bf0:	e50b2020 	str	r2, [fp, #-32]	; 0xffffffe0
   13bf4:	e50b3024 	str	r3, [fp, #-36]	; 0xffffffdc
   13bf8:	e51b3018 	ldr	r3, [fp, #-24]	; 0xffffffe8
   13bfc:	e5933008 	ldr	r3, [r3, #8]
   13c00:	e3530000 	cmp	r3, #0
   13c04:	0a000001 	beq	13c10 <XAxiCdma_BdRingCreate+0x34>
   13c08:	e3a03001 	mov	r3, #1
   13c0c:	ea0000d8 	b	13f74 <XAxiCdma_BdRingCreate+0x398>
   13c10:	e59b3004 	ldr	r3, [fp, #4]
   13c14:	e3530000 	cmp	r3, #0
   13c18:	ca000001 	bgt	13c24 <XAxiCdma_BdRingCreate+0x48>
   13c1c:	e3a0300f 	mov	r3, #15
   13c20:	ea0000d3 	b	13f74 <XAxiCdma_BdRingCreate+0x398>
   13c24:	e51b3018 	ldr	r3, [fp, #-24]	; 0xffffffe8
   13c28:	e3a02000 	mov	r2, #0
   13c2c:	e5832060 	str	r2, [r3, #96]	; 0x60
   13c30:	e51b3018 	ldr	r3, [fp, #-24]	; 0xffffffe8
   13c34:	e3a02000 	mov	r2, #0
   13c38:	e5832050 	str	r2, [r3, #80]	; 0x50
   13c3c:	e51b3018 	ldr	r3, [fp, #-24]	; 0xffffffe8
   13c40:	e3a02000 	mov	r2, #0
   13c44:	e5832058 	str	r2, [r3, #88]	; 0x58
   13c48:	e51b3018 	ldr	r3, [fp, #-24]	; 0xffffffe8
   13c4c:	e3a02000 	mov	r2, #0
   13c50:	e5832054 	str	r2, [r3, #84]	; 0x54
   13c54:	e51b3018 	ldr	r3, [fp, #-24]	; 0xffffffe8
   13c58:	e3a02000 	mov	r2, #0
   13c5c:	e583205c 	str	r2, [r3, #92]	; 0x5c
   13c60:	e51b3024 	ldr	r3, [fp, #-36]	; 0xffffffdc
   13c64:	e353003f 	cmp	r3, #63	; 0x3f
   13c68:	8a000001 	bhi	13c74 <XAxiCdma_BdRingCreate+0x98>
   13c6c:	e3a0300f 	mov	r3, #15
   13c70:	ea0000bf 	b	13f74 <XAxiCdma_BdRingCreate+0x398>
   13c74:	e51b3024 	ldr	r3, [fp, #-36]	; 0xffffffdc
   13c78:	e2432001 	sub	r2, r3, #1
   13c7c:	e51b3024 	ldr	r3, [fp, #-36]	; 0xffffffdc
   13c80:	e0033002 	and	r3, r3, r2
   13c84:	e3530000 	cmp	r3, #0
   13c88:	0a000001 	beq	13c94 <XAxiCdma_BdRingCreate+0xb8>
   13c8c:	e3a0300f 	mov	r3, #15
   13c90:	ea0000b7 	b	13f74 <XAxiCdma_BdRingCreate+0x398>
   13c94:	e51b3024 	ldr	r3, [fp, #-36]	; 0xffffffdc
   13c98:	e2432001 	sub	r2, r3, #1
   13c9c:	e51b301c 	ldr	r3, [fp, #-28]	; 0xffffffe4
   13ca0:	e0033002 	and	r3, r3, r2
   13ca4:	e3530000 	cmp	r3, #0
   13ca8:	1a000005 	bne	13cc4 <XAxiCdma_BdRingCreate+0xe8>
   13cac:	e51b3024 	ldr	r3, [fp, #-36]	; 0xffffffdc
   13cb0:	e2432001 	sub	r2, r3, #1
   13cb4:	e51b3020 	ldr	r3, [fp, #-32]	; 0xffffffe0
   13cb8:	e0033002 	and	r3, r3, r2
   13cbc:	e3530000 	cmp	r3, #0
   13cc0:	0a000001 	beq	13ccc <XAxiCdma_BdRingCreate+0xf0>
   13cc4:	e3a0300f 	mov	r3, #15
   13cc8:	ea0000a9 	b	13f74 <XAxiCdma_BdRingCreate+0x398>
   13ccc:	e51b3024 	ldr	r3, [fp, #-36]	; 0xffffffdc
   13cd0:	e283203f 	add	r2, r3, #63	; 0x3f
   13cd4:	e51b3024 	ldr	r3, [fp, #-36]	; 0xffffffdc
   13cd8:	e2633000 	rsb	r3, r3, #0
   13cdc:	e0022003 	and	r2, r2, r3
   13ce0:	e51b3018 	ldr	r3, [fp, #-24]	; 0xffffffe8
   13ce4:	e5832034 	str	r2, [r3, #52]	; 0x34
   13ce8:	e51b3018 	ldr	r3, [fp, #-24]	; 0xffffffe8
   13cec:	e5933034 	ldr	r3, [r3, #52]	; 0x34
   13cf0:	e59b2004 	ldr	r2, [fp, #4]
   13cf4:	e0020392 	mul	r2, r2, r3
   13cf8:	e51b3020 	ldr	r3, [fp, #-32]	; 0xffffffe0
   13cfc:	e0823003 	add	r3, r2, r3
   13d00:	e2432001 	sub	r2, r3, #1
   13d04:	e51b3020 	ldr	r3, [fp, #-32]	; 0xffffffe0
   13d08:	e1520003 	cmp	r2, r3
   13d0c:	2a000001 	bcs	13d18 <XAxiCdma_BdRingCreate+0x13c>
   13d10:	e300320e 	movw	r3, #526	; 0x20e
   13d14:	ea000096 	b	13f74 <XAxiCdma_BdRingCreate+0x398>
   13d18:	e51b1020 	ldr	r1, [fp, #-32]	; 0xffffffe0
   13d1c:	e51b3018 	ldr	r3, [fp, #-24]	; 0xffffffe8
   13d20:	e5933034 	ldr	r3, [r3, #52]	; 0x34
   13d24:	e59b2004 	ldr	r2, [fp, #4]
   13d28:	e0030392 	mul	r3, r2, r3
   13d2c:	e1a00001 	mov	r0, r1
   13d30:	e3a01000 	mov	r1, #0
   13d34:	e1a02003 	mov	r2, r3
   13d38:	ebffe2c0 	bl	c840 <memset>
   13d3c:	e51b3020 	ldr	r3, [fp, #-32]	; 0xffffffe0
   13d40:	e50b3008 	str	r3, [fp, #-8]
   13d44:	e51b3018 	ldr	r3, [fp, #-24]	; 0xffffffe8
   13d48:	e5932034 	ldr	r2, [r3, #52]	; 0x34
   13d4c:	e51b301c 	ldr	r3, [fp, #-28]	; 0xffffffe4
   13d50:	e0823003 	add	r3, r2, r3
   13d54:	e50b300c 	str	r3, [fp, #-12]
   13d58:	e51b301c 	ldr	r3, [fp, #-28]	; 0xffffffe4
   13d5c:	e50b3010 	str	r3, [fp, #-16]
   13d60:	e3a03001 	mov	r3, #1
   13d64:	e50b3014 	str	r3, [fp, #-20]	; 0xffffffec
   13d68:	ea000031 	b	13e34 <XAxiCdma_BdRingCreate+0x258>
   13d6c:	e51b3008 	ldr	r3, [fp, #-8]
   13d70:	e1a00003 	mov	r0, r3
   13d74:	e51b100c 	ldr	r1, [fp, #-12]
   13d78:	eb0006ae 	bl	15838 <XAxiCdma_BdSetNextPtr>
   13d7c:	e51b3008 	ldr	r3, [fp, #-8]
   13d80:	e1a00003 	mov	r0, r3
   13d84:	e51b1010 	ldr	r1, [fp, #-16]
   13d88:	eb000748 	bl	15ab0 <XAxiCdma_BdSetPhysAddr>
   13d8c:	e51b2008 	ldr	r2, [fp, #-8]
   13d90:	e51b3018 	ldr	r3, [fp, #-24]	; 0xffffffe8
   13d94:	e5933010 	ldr	r3, [r3, #16]
   13d98:	e1a00002 	mov	r0, r2
   13d9c:	e1a01003 	mov	r1, r3
   13da0:	eb000750 	bl	15ae8 <XAxiCdma_BdSetIsLite>
   13da4:	e51b2008 	ldr	r2, [fp, #-8]
   13da8:	e51b3018 	ldr	r3, [fp, #-24]	; 0xffffffe8
   13dac:	e593300c 	ldr	r3, [r3, #12]
   13db0:	e1a00002 	mov	r0, r2
   13db4:	e1a01003 	mov	r1, r3
   13db8:	eb000758 	bl	15b20 <XAxiCdma_BdSetHasDRE>
   13dbc:	e51b2008 	ldr	r2, [fp, #-8]
   13dc0:	e51b3018 	ldr	r3, [fp, #-24]	; 0xffffffe8
   13dc4:	e5933014 	ldr	r3, [r3, #20]
   13dc8:	e1a00002 	mov	r0, r2
   13dcc:	e1a01003 	mov	r1, r3
   13dd0:	eb000760 	bl	15b58 <XAxiCdma_BdSetWordLen>
   13dd4:	e51b2008 	ldr	r2, [fp, #-8]
   13dd8:	e51b3018 	ldr	r3, [fp, #-24]	; 0xffffffe8
   13ddc:	e5933018 	ldr	r3, [r3, #24]
   13de0:	e1a00002 	mov	r0, r2
   13de4:	e1a01003 	mov	r1, r3
   13de8:	eb000768 	bl	15b90 <XAxiCdma_BdSetMaxLen>
   13dec:	e51b3018 	ldr	r3, [fp, #-24]	; 0xffffffe8
   13df0:	e5933034 	ldr	r3, [r3, #52]	; 0x34
   13df4:	e51b2008 	ldr	r2, [fp, #-8]
   13df8:	e0823003 	add	r3, r2, r3
   13dfc:	e50b3008 	str	r3, [fp, #-8]
   13e00:	e51b3018 	ldr	r3, [fp, #-24]	; 0xffffffe8
   13e04:	e5933034 	ldr	r3, [r3, #52]	; 0x34
   13e08:	e51b200c 	ldr	r2, [fp, #-12]
   13e0c:	e0823003 	add	r3, r2, r3
   13e10:	e50b300c 	str	r3, [fp, #-12]
   13e14:	e51b3018 	ldr	r3, [fp, #-24]	; 0xffffffe8
   13e18:	e5933034 	ldr	r3, [r3, #52]	; 0x34
   13e1c:	e51b2010 	ldr	r2, [fp, #-16]
   13e20:	e0823003 	add	r3, r2, r3
   13e24:	e50b3010 	str	r3, [fp, #-16]
   13e28:	e51b3014 	ldr	r3, [fp, #-20]	; 0xffffffec
   13e2c:	e2833001 	add	r3, r3, #1
   13e30:	e50b3014 	str	r3, [fp, #-20]	; 0xffffffec
   13e34:	e51b2014 	ldr	r2, [fp, #-20]	; 0xffffffec
   13e38:	e59b3004 	ldr	r3, [fp, #4]
   13e3c:	e1520003 	cmp	r2, r3
   13e40:	baffffc9 	blt	13d6c <XAxiCdma_BdRingCreate+0x190>
   13e44:	e51b3008 	ldr	r3, [fp, #-8]
   13e48:	e1a00003 	mov	r0, r3
   13e4c:	e51b101c 	ldr	r1, [fp, #-28]	; 0xffffffe4
   13e50:	eb000678 	bl	15838 <XAxiCdma_BdSetNextPtr>
   13e54:	e51b3008 	ldr	r3, [fp, #-8]
   13e58:	e1a00003 	mov	r0, r3
   13e5c:	e51b1010 	ldr	r1, [fp, #-16]
   13e60:	eb000712 	bl	15ab0 <XAxiCdma_BdSetPhysAddr>
   13e64:	e51b2008 	ldr	r2, [fp, #-8]
   13e68:	e51b3018 	ldr	r3, [fp, #-24]	; 0xffffffe8
   13e6c:	e5933010 	ldr	r3, [r3, #16]
   13e70:	e1a00002 	mov	r0, r2
   13e74:	e1a01003 	mov	r1, r3
   13e78:	eb00071a 	bl	15ae8 <XAxiCdma_BdSetIsLite>
   13e7c:	e51b2008 	ldr	r2, [fp, #-8]
   13e80:	e51b3018 	ldr	r3, [fp, #-24]	; 0xffffffe8
   13e84:	e593300c 	ldr	r3, [r3, #12]
   13e88:	e1a00002 	mov	r0, r2
   13e8c:	e1a01003 	mov	r1, r3
   13e90:	eb000722 	bl	15b20 <XAxiCdma_BdSetHasDRE>
   13e94:	e51b2008 	ldr	r2, [fp, #-8]
   13e98:	e51b3018 	ldr	r3, [fp, #-24]	; 0xffffffe8
   13e9c:	e5933014 	ldr	r3, [r3, #20]
   13ea0:	e1a00002 	mov	r0, r2
   13ea4:	e1a01003 	mov	r1, r3
   13ea8:	eb00072a 	bl	15b58 <XAxiCdma_BdSetWordLen>
   13eac:	e51b2008 	ldr	r2, [fp, #-8]
   13eb0:	e51b3018 	ldr	r3, [fp, #-24]	; 0xffffffe8
   13eb4:	e5933018 	ldr	r3, [r3, #24]
   13eb8:	e1a00002 	mov	r0, r2
   13ebc:	e1a01003 	mov	r1, r3
   13ec0:	eb000732 	bl	15b90 <XAxiCdma_BdSetMaxLen>
   13ec4:	e51b3018 	ldr	r3, [fp, #-24]	; 0xffffffe8
   13ec8:	e51b2020 	ldr	r2, [fp, #-32]	; 0xffffffe0
   13ecc:	e5832028 	str	r2, [r3, #40]	; 0x28
   13ed0:	e51b3018 	ldr	r3, [fp, #-24]	; 0xffffffe8
   13ed4:	e51b201c 	ldr	r2, [fp, #-28]	; 0xffffffe4
   13ed8:	e5832024 	str	r2, [r3, #36]	; 0x24
   13edc:	e51b3018 	ldr	r3, [fp, #-24]	; 0xffffffe8
   13ee0:	e51b2008 	ldr	r2, [fp, #-8]
   13ee4:	e583202c 	str	r2, [r3, #44]	; 0x2c
   13ee8:	e51b3018 	ldr	r3, [fp, #-24]	; 0xffffffe8
   13eec:	e593202c 	ldr	r2, [r3, #44]	; 0x2c
   13ef0:	e51b3018 	ldr	r3, [fp, #-24]	; 0xffffffe8
   13ef4:	e5933028 	ldr	r3, [r3, #40]	; 0x28
   13ef8:	e0632002 	rsb	r2, r3, r2
   13efc:	e51b3018 	ldr	r3, [fp, #-24]	; 0xffffffe8
   13f00:	e5933034 	ldr	r3, [r3, #52]	; 0x34
   13f04:	e0822003 	add	r2, r2, r3
   13f08:	e51b3018 	ldr	r3, [fp, #-24]	; 0xffffffe8
   13f0c:	e5832030 	str	r2, [r3, #48]	; 0x30
   13f10:	e51b3018 	ldr	r3, [fp, #-24]	; 0xffffffe8
   13f14:	e59b2004 	ldr	r2, [fp, #4]
   13f18:	e5832060 	str	r2, [r3, #96]	; 0x60
   13f1c:	e51b3018 	ldr	r3, [fp, #-24]	; 0xffffffe8
   13f20:	e59b2004 	ldr	r2, [fp, #4]
   13f24:	e5832050 	str	r2, [r3, #80]	; 0x50
   13f28:	e51b2020 	ldr	r2, [fp, #-32]	; 0xffffffe0
   13f2c:	e51b3018 	ldr	r3, [fp, #-24]	; 0xffffffe8
   13f30:	e5832038 	str	r2, [r3, #56]	; 0x38
   13f34:	e51b2020 	ldr	r2, [fp, #-32]	; 0xffffffe0
   13f38:	e51b3018 	ldr	r3, [fp, #-24]	; 0xffffffe8
   13f3c:	e583203c 	str	r2, [r3, #60]	; 0x3c
   13f40:	e51b2020 	ldr	r2, [fp, #-32]	; 0xffffffe0
   13f44:	e51b3018 	ldr	r3, [fp, #-24]	; 0xffffffe8
   13f48:	e5832040 	str	r2, [r3, #64]	; 0x40
   13f4c:	e51b2020 	ldr	r2, [fp, #-32]	; 0xffffffe0
   13f50:	e51b3018 	ldr	r3, [fp, #-24]	; 0xffffffe8
   13f54:	e5832044 	str	r2, [r3, #68]	; 0x44
   13f58:	e51b2020 	ldr	r2, [fp, #-32]	; 0xffffffe0
   13f5c:	e51b3018 	ldr	r3, [fp, #-24]	; 0xffffffe8
   13f60:	e5832048 	str	r2, [r3, #72]	; 0x48
   13f64:	e51b201c 	ldr	r2, [fp, #-28]	; 0xffffffe4
   13f68:	e51b3018 	ldr	r3, [fp, #-24]	; 0xffffffe8
   13f6c:	e583204c 	str	r2, [r3, #76]	; 0x4c
   13f70:	e3a03000 	mov	r3, #0
   13f74:	e1a00003 	mov	r0, r3
   13f78:	e24bd004 	sub	sp, fp, #4
   13f7c:	e8bd8800 	pop	{fp, pc}

00013f80 <XAxiCdma_BdRingClone>:
   13f80:	e92d4800 	push	{fp, lr}
   13f84:	e28db004 	add	fp, sp, #4
   13f88:	e24dd050 	sub	sp, sp, #80	; 0x50
   13f8c:	e50b0050 	str	r0, [fp, #-80]	; 0xffffffb0
   13f90:	e50b1054 	str	r1, [fp, #-84]	; 0xffffffac
   13f94:	e51b3050 	ldr	r3, [fp, #-80]	; 0xffffffb0
   13f98:	e5933060 	ldr	r3, [r3, #96]	; 0x60
   13f9c:	e3530000 	cmp	r3, #0
   13fa0:	1a000001 	bne	13fac <XAxiCdma_BdRingClone+0x2c>
   13fa4:	e300320b 	movw	r3, #523	; 0x20b
   13fa8:	ea00002f 	b	1406c <XAxiCdma_BdRingClone+0xec>
   13fac:	e51b0050 	ldr	r0, [fp, #-80]	; 0xffffffb0
   13fb0:	eb00035f 	bl	14d34 <XAxiCdma_IsBusy>
   13fb4:	e1a03000 	mov	r3, r0
   13fb8:	e3530000 	cmp	r3, #0
   13fbc:	0a000001 	beq	13fc8 <XAxiCdma_BdRingClone+0x48>
   13fc0:	e3a03005 	mov	r3, #5
   13fc4:	ea000028 	b	1406c <XAxiCdma_BdRingClone+0xec>
   13fc8:	e51b3050 	ldr	r3, [fp, #-80]	; 0xffffffb0
   13fcc:	e5932050 	ldr	r2, [r3, #80]	; 0x50
   13fd0:	e51b3050 	ldr	r3, [fp, #-80]	; 0xffffffb0
   13fd4:	e5933060 	ldr	r3, [r3, #96]	; 0x60
   13fd8:	e1520003 	cmp	r2, r3
   13fdc:	0a000001 	beq	13fe8 <XAxiCdma_BdRingClone+0x68>
   13fe0:	e300320e 	movw	r3, #526	; 0x20e
   13fe4:	ea000020 	b	1406c <XAxiCdma_BdRingClone+0xec>
   13fe8:	e24b304c 	sub	r3, fp, #76	; 0x4c
   13fec:	e1a00003 	mov	r0, r3
   13ff0:	e51b1054 	ldr	r1, [fp, #-84]	; 0xffffffac
   13ff4:	e3a02040 	mov	r2, #64	; 0x40
   13ff8:	ebffd246 	bl	8918 <memcpy_cus>
   13ffc:	e24b304c 	sub	r3, fp, #76	; 0x4c
   14000:	e1a00003 	mov	r0, r3
   14004:	eb000623 	bl	15898 <XAxiCdma_BdClearSts>
   14008:	e3a03000 	mov	r3, #0
   1400c:	e50b3008 	str	r3, [fp, #-8]
   14010:	e51b3050 	ldr	r3, [fp, #-80]	; 0xffffffb0
   14014:	e5933028 	ldr	r3, [r3, #40]	; 0x28
   14018:	e50b300c 	str	r3, [fp, #-12]
   1401c:	ea00000c 	b	14054 <XAxiCdma_BdRingClone+0xd4>
   14020:	e51b200c 	ldr	r2, [fp, #-12]
   14024:	e24b304c 	sub	r3, fp, #76	; 0x4c
   14028:	e1a00002 	mov	r0, r2
   1402c:	e1a01003 	mov	r1, r3
   14030:	eb0005e5 	bl	157cc <XAxiCdma_BdClone>
   14034:	e51b3008 	ldr	r3, [fp, #-8]
   14038:	e2833001 	add	r3, r3, #1
   1403c:	e50b3008 	str	r3, [fp, #-8]
   14040:	e51b3050 	ldr	r3, [fp, #-80]	; 0xffffffb0
   14044:	e5933034 	ldr	r3, [r3, #52]	; 0x34
   14048:	e51b200c 	ldr	r2, [fp, #-12]
   1404c:	e0823003 	add	r3, r2, r3
   14050:	e50b300c 	str	r3, [fp, #-12]
   14054:	e51b3050 	ldr	r3, [fp, #-80]	; 0xffffffb0
   14058:	e5932060 	ldr	r2, [r3, #96]	; 0x60
   1405c:	e51b3008 	ldr	r3, [fp, #-8]
   14060:	e1520003 	cmp	r2, r3
   14064:	caffffed 	bgt	14020 <XAxiCdma_BdRingClone+0xa0>
   14068:	e3a03000 	mov	r3, #0
   1406c:	e1a00003 	mov	r0, r3
   14070:	e24bd004 	sub	sp, fp, #4
   14074:	e8bd8800 	pop	{fp, pc}

00014078 <XAxiCdma_BdRingAlloc>:
   14078:	e52db004 	push	{fp}		; (str fp, [sp, #-4]!)
   1407c:	e28db000 	add	fp, sp, #0
   14080:	e24dd01c 	sub	sp, sp, #28
   14084:	e50b0010 	str	r0, [fp, #-16]
   14088:	e50b1014 	str	r1, [fp, #-20]	; 0xffffffec
   1408c:	e50b2018 	str	r2, [fp, #-24]	; 0xffffffe8
   14090:	e51b3014 	ldr	r3, [fp, #-20]	; 0xffffffec
   14094:	e3530000 	cmp	r3, #0
   14098:	ca000001 	bgt	140a4 <XAxiCdma_BdRingAlloc+0x2c>
   1409c:	e3a0300f 	mov	r3, #15
   140a0:	ea00002e 	b	14160 <XAxiCdma_BdRingAlloc+0xe8>
   140a4:	e51b3010 	ldr	r3, [fp, #-16]
   140a8:	e5932050 	ldr	r2, [r3, #80]	; 0x50
   140ac:	e51b3014 	ldr	r3, [fp, #-20]	; 0xffffffec
   140b0:	e1520003 	cmp	r2, r3
   140b4:	aa000001 	bge	140c0 <XAxiCdma_BdRingAlloc+0x48>
   140b8:	e3a03001 	mov	r3, #1
   140bc:	ea000027 	b	14160 <XAxiCdma_BdRingAlloc+0xe8>
   140c0:	e51b3010 	ldr	r3, [fp, #-16]
   140c4:	e5932038 	ldr	r2, [r3, #56]	; 0x38
   140c8:	e51b3018 	ldr	r3, [fp, #-24]	; 0xffffffe8
   140cc:	e5832000 	str	r2, [r3]
   140d0:	e51b3010 	ldr	r3, [fp, #-16]
   140d4:	e5933038 	ldr	r3, [r3, #56]	; 0x38
   140d8:	e50b3008 	str	r3, [fp, #-8]
   140dc:	e51b3010 	ldr	r3, [fp, #-16]
   140e0:	e5933034 	ldr	r3, [r3, #52]	; 0x34
   140e4:	e51b2014 	ldr	r2, [fp, #-20]	; 0xffffffec
   140e8:	e0030392 	mul	r3, r2, r3
   140ec:	e51b2008 	ldr	r2, [fp, #-8]
   140f0:	e0823003 	add	r3, r2, r3
   140f4:	e50b3008 	str	r3, [fp, #-8]
   140f8:	e51b3010 	ldr	r3, [fp, #-16]
   140fc:	e593202c 	ldr	r2, [r3, #44]	; 0x2c
   14100:	e51b3008 	ldr	r3, [fp, #-8]
   14104:	e1520003 	cmp	r2, r3
   14108:	2a000004 	bcs	14120 <XAxiCdma_BdRingAlloc+0xa8>
   1410c:	e51b3010 	ldr	r3, [fp, #-16]
   14110:	e5933030 	ldr	r3, [r3, #48]	; 0x30
   14114:	e51b2008 	ldr	r2, [fp, #-8]
   14118:	e0633002 	rsb	r3, r3, r2
   1411c:	e50b3008 	str	r3, [fp, #-8]
   14120:	e51b2008 	ldr	r2, [fp, #-8]
   14124:	e51b3010 	ldr	r3, [fp, #-16]
   14128:	e5832038 	str	r2, [r3, #56]	; 0x38
   1412c:	e51b3010 	ldr	r3, [fp, #-16]
   14130:	e5932050 	ldr	r2, [r3, #80]	; 0x50
   14134:	e51b3014 	ldr	r3, [fp, #-20]	; 0xffffffec
   14138:	e0632002 	rsb	r2, r3, r2
   1413c:	e51b3010 	ldr	r3, [fp, #-16]
   14140:	e5832050 	str	r2, [r3, #80]	; 0x50
   14144:	e51b3010 	ldr	r3, [fp, #-16]
   14148:	e5932054 	ldr	r2, [r3, #84]	; 0x54
   1414c:	e51b3014 	ldr	r3, [fp, #-20]	; 0xffffffec
   14150:	e0822003 	add	r2, r2, r3
   14154:	e51b3010 	ldr	r3, [fp, #-16]
   14158:	e5832054 	str	r2, [r3, #84]	; 0x54
   1415c:	e3a03000 	mov	r3, #0
   14160:	e1a00003 	mov	r0, r3
   14164:	e24bd000 	sub	sp, fp, #0
   14168:	e49db004 	pop	{fp}		; (ldr fp, [sp], #4)
   1416c:	e12fff1e 	bx	lr

00014170 <XAxiCdma_BdRingUnAlloc>:
   14170:	e52db004 	push	{fp}		; (str fp, [sp, #-4]!)
   14174:	e28db000 	add	fp, sp, #0
   14178:	e24dd024 	sub	sp, sp, #36	; 0x24
   1417c:	e50b0018 	str	r0, [fp, #-24]	; 0xffffffe8
   14180:	e50b101c 	str	r1, [fp, #-28]	; 0xffffffe4
   14184:	e50b2020 	str	r2, [fp, #-32]	; 0xffffffe0
   14188:	e51b301c 	ldr	r3, [fp, #-28]	; 0xffffffe4
   1418c:	e3530000 	cmp	r3, #0
   14190:	ca000001 	bgt	1419c <XAxiCdma_BdRingUnAlloc+0x2c>
   14194:	e3a0300f 	mov	r3, #15
   14198:	ea000048 	b	142c0 <XAxiCdma_BdRingUnAlloc+0x150>
   1419c:	e51b3018 	ldr	r3, [fp, #-24]	; 0xffffffe8
   141a0:	e5932054 	ldr	r2, [r3, #84]	; 0x54
   141a4:	e51b301c 	ldr	r3, [fp, #-28]	; 0xffffffe4
   141a8:	e1520003 	cmp	r2, r3
   141ac:	aa000001 	bge	141b8 <XAxiCdma_BdRingUnAlloc+0x48>
   141b0:	e3a03001 	mov	r3, #1
   141b4:	ea000041 	b	142c0 <XAxiCdma_BdRingUnAlloc+0x150>
   141b8:	e51b3020 	ldr	r3, [fp, #-32]	; 0xffffffe0
   141bc:	e50b3010 	str	r3, [fp, #-16]
   141c0:	e51b3010 	ldr	r3, [fp, #-16]
   141c4:	e50b3008 	str	r3, [fp, #-8]
   141c8:	e51b3018 	ldr	r3, [fp, #-24]	; 0xffffffe8
   141cc:	e5933034 	ldr	r3, [r3, #52]	; 0x34
   141d0:	e51b201c 	ldr	r2, [fp, #-28]	; 0xffffffe4
   141d4:	e0030392 	mul	r3, r2, r3
   141d8:	e51b2008 	ldr	r2, [fp, #-8]
   141dc:	e0823003 	add	r3, r2, r3
   141e0:	e50b3008 	str	r3, [fp, #-8]
   141e4:	e51b3018 	ldr	r3, [fp, #-24]	; 0xffffffe8
   141e8:	e593202c 	ldr	r2, [r3, #44]	; 0x2c
   141ec:	e51b3008 	ldr	r3, [fp, #-8]
   141f0:	e1520003 	cmp	r2, r3
   141f4:	2a000004 	bcs	1420c <XAxiCdma_BdRingUnAlloc+0x9c>
   141f8:	e51b3018 	ldr	r3, [fp, #-24]	; 0xffffffe8
   141fc:	e5933030 	ldr	r3, [r3, #48]	; 0x30
   14200:	e51b2008 	ldr	r2, [fp, #-8]
   14204:	e0633002 	rsb	r3, r3, r2
   14208:	e50b3008 	str	r3, [fp, #-8]
   1420c:	e51b3008 	ldr	r3, [fp, #-8]
   14210:	e50b3010 	str	r3, [fp, #-16]
   14214:	e51b3018 	ldr	r3, [fp, #-24]	; 0xffffffe8
   14218:	e5932038 	ldr	r2, [r3, #56]	; 0x38
   1421c:	e51b3010 	ldr	r3, [fp, #-16]
   14220:	e1520003 	cmp	r2, r3
   14224:	0a000001 	beq	14230 <XAxiCdma_BdRingUnAlloc+0xc0>
   14228:	e3a03001 	mov	r3, #1
   1422c:	ea000023 	b	142c0 <XAxiCdma_BdRingUnAlloc+0x150>
   14230:	e51b3018 	ldr	r3, [fp, #-24]	; 0xffffffe8
   14234:	e5933038 	ldr	r3, [r3, #56]	; 0x38
   14238:	e50b300c 	str	r3, [fp, #-12]
   1423c:	e51b3018 	ldr	r3, [fp, #-24]	; 0xffffffe8
   14240:	e5933034 	ldr	r3, [r3, #52]	; 0x34
   14244:	e51b201c 	ldr	r2, [fp, #-28]	; 0xffffffe4
   14248:	e0030392 	mul	r3, r2, r3
   1424c:	e51b200c 	ldr	r2, [fp, #-12]
   14250:	e0633002 	rsb	r3, r3, r2
   14254:	e50b300c 	str	r3, [fp, #-12]
   14258:	e51b3018 	ldr	r3, [fp, #-24]	; 0xffffffe8
   1425c:	e5932028 	ldr	r2, [r3, #40]	; 0x28
   14260:	e51b300c 	ldr	r3, [fp, #-12]
   14264:	e1520003 	cmp	r2, r3
   14268:	9a000004 	bls	14280 <XAxiCdma_BdRingUnAlloc+0x110>
   1426c:	e51b3018 	ldr	r3, [fp, #-24]	; 0xffffffe8
   14270:	e5933030 	ldr	r3, [r3, #48]	; 0x30
   14274:	e51b200c 	ldr	r2, [fp, #-12]
   14278:	e0823003 	add	r3, r2, r3
   1427c:	e50b300c 	str	r3, [fp, #-12]
   14280:	e51b200c 	ldr	r2, [fp, #-12]
   14284:	e51b3018 	ldr	r3, [fp, #-24]	; 0xffffffe8
   14288:	e5832038 	str	r2, [r3, #56]	; 0x38
   1428c:	e51b3018 	ldr	r3, [fp, #-24]	; 0xffffffe8
   14290:	e5932050 	ldr	r2, [r3, #80]	; 0x50
   14294:	e51b301c 	ldr	r3, [fp, #-28]	; 0xffffffe4
   14298:	e0822003 	add	r2, r2, r3
   1429c:	e51b3018 	ldr	r3, [fp, #-24]	; 0xffffffe8
   142a0:	e5832050 	str	r2, [r3, #80]	; 0x50
   142a4:	e51b3018 	ldr	r3, [fp, #-24]	; 0xffffffe8
   142a8:	e5932054 	ldr	r2, [r3, #84]	; 0x54
   142ac:	e51b301c 	ldr	r3, [fp, #-28]	; 0xffffffe4
   142b0:	e0632002 	rsb	r2, r3, r2
   142b4:	e51b3018 	ldr	r3, [fp, #-24]	; 0xffffffe8
   142b8:	e5832054 	str	r2, [r3, #84]	; 0x54
   142bc:	e3a03000 	mov	r3, #0
   142c0:	e1a00003 	mov	r0, r3
   142c4:	e24bd000 	sub	sp, fp, #0
   142c8:	e49db004 	pop	{fp}		; (ldr fp, [sp], #4)
   142cc:	e12fff1e 	bx	lr

000142d0 <StubCallBackFn>:
   142d0:	e92d4800 	push	{fp, lr}
   142d4:	e28db004 	add	fp, sp, #4
   142d8:	e24dd028 	sub	sp, sp, #40	; 0x28
   142dc:	e50b0020 	str	r0, [fp, #-32]	; 0xffffffe0
   142e0:	e50b1024 	str	r1, [fp, #-36]	; 0xffffffdc
   142e4:	e50b2028 	str	r2, [fp, #-40]	; 0xffffffd8
   142e8:	e51b3020 	ldr	r3, [fp, #-32]	; 0xffffffe0
   142ec:	e50b3008 	str	r3, [fp, #-8]
   142f0:	e51b3028 	ldr	r3, [fp, #-40]	; 0xffffffd8
   142f4:	e5933000 	ldr	r3, [r3]
   142f8:	e50b300c 	str	r3, [fp, #-12]
   142fc:	e24b3018 	sub	r3, fp, #24
   14300:	e51b0008 	ldr	r0, [fp, #-8]
   14304:	e51b100c 	ldr	r1, [fp, #-12]
   14308:	e1a02003 	mov	r2, r3
   1430c:	eb0000fb 	bl	14700 <XAxiCdma_BdRingFromHw>
   14310:	e50b0010 	str	r0, [fp, #-16]
   14314:	e51b3010 	ldr	r3, [fp, #-16]
   14318:	e3530000 	cmp	r3, #0
   1431c:	da000005 	ble	14338 <StubCallBackFn+0x68>
   14320:	e51b3018 	ldr	r3, [fp, #-24]	; 0xffffffe8
   14324:	e51b0008 	ldr	r0, [fp, #-8]
   14328:	e51b1010 	ldr	r1, [fp, #-16]
   1432c:	e1a02003 	mov	r2, r3
   14330:	eb00015c 	bl	148a8 <XAxiCdma_BdRingFree>
   14334:	e50b0014 	str	r0, [fp, #-20]	; 0xffffffec
   14338:	e51b200c 	ldr	r2, [fp, #-12]
   1433c:	e51b3010 	ldr	r3, [fp, #-16]
   14340:	e0632002 	rsb	r2, r3, r2
   14344:	e51b3028 	ldr	r3, [fp, #-40]	; 0xffffffd8
   14348:	e5832000 	str	r2, [r3]
   1434c:	e1a00000 	nop			; (mov r0, r0)
   14350:	e24bd004 	sub	sp, fp, #4
   14354:	e8bd8800 	pop	{fp, pc}

00014358 <XAxiCdma_BdRingToHw>:
   14358:	e92d4810 	push	{r4, fp, lr}
   1435c:	e28db008 	add	fp, sp, #8
   14360:	e24dd024 	sub	sp, sp, #36	; 0x24
   14364:	e50b0020 	str	r0, [fp, #-32]	; 0xffffffe0
   14368:	e50b1024 	str	r1, [fp, #-36]	; 0xffffffdc
   1436c:	e50b2028 	str	r2, [fp, #-40]	; 0xffffffd8
   14370:	e50b302c 	str	r3, [fp, #-44]	; 0xffffffd4
   14374:	e51b3020 	ldr	r3, [fp, #-32]	; 0xffffffe0
   14378:	e5933004 	ldr	r3, [r3, #4]
   1437c:	e3530000 	cmp	r3, #0
   14380:	0a000003 	beq	14394 <XAxiCdma_BdRingToHw+0x3c>
   14384:	e51b3020 	ldr	r3, [fp, #-32]	; 0xffffffe0
   14388:	e5933008 	ldr	r3, [r3, #8]
   1438c:	e3530000 	cmp	r3, #0
   14390:	0a000001 	beq	1439c <XAxiCdma_BdRingToHw+0x44>
   14394:	e3a03001 	mov	r3, #1
   14398:	ea0000d5 	b	146f4 <XAxiCdma_BdRingToHw+0x39c>
   1439c:	e51b3024 	ldr	r3, [fp, #-36]	; 0xffffffdc
   143a0:	e3530000 	cmp	r3, #0
   143a4:	aa000001 	bge	143b0 <XAxiCdma_BdRingToHw+0x58>
   143a8:	e3a0300f 	mov	r3, #15
   143ac:	ea0000d0 	b	146f4 <XAxiCdma_BdRingToHw+0x39c>
   143b0:	e51b3024 	ldr	r3, [fp, #-36]	; 0xffffffdc
   143b4:	e3530000 	cmp	r3, #0
   143b8:	1a000001 	bne	143c4 <XAxiCdma_BdRingToHw+0x6c>
   143bc:	e3a03000 	mov	r3, #0
   143c0:	ea0000cb 	b	146f4 <XAxiCdma_BdRingToHw+0x39c>
   143c4:	e51b3020 	ldr	r3, [fp, #-32]	; 0xffffffe0
   143c8:	e5932054 	ldr	r2, [r3, #84]	; 0x54
   143cc:	e51b3024 	ldr	r3, [fp, #-36]	; 0xffffffdc
   143d0:	e1520003 	cmp	r2, r3
   143d4:	ba000004 	blt	143ec <XAxiCdma_BdRingToHw+0x94>
   143d8:	e51b3020 	ldr	r3, [fp, #-32]	; 0xffffffe0
   143dc:	e593203c 	ldr	r2, [r3, #60]	; 0x3c
   143e0:	e51b3028 	ldr	r3, [fp, #-40]	; 0xffffffd8
   143e4:	e1520003 	cmp	r2, r3
   143e8:	0a000001 	beq	143f4 <XAxiCdma_BdRingToHw+0x9c>
   143ec:	e300320e 	movw	r3, #526	; 0x20e
   143f0:	ea0000bf 	b	146f4 <XAxiCdma_BdRingToHw+0x39c>
   143f4:	e51b3020 	ldr	r3, [fp, #-32]	; 0xffffffe0
   143f8:	e5933070 	ldr	r3, [r3, #112]	; 0x70
   143fc:	e2833001 	add	r3, r3, #1
   14400:	e50b3014 	str	r3, [fp, #-20]	; 0xffffffec
   14404:	e51b3014 	ldr	r3, [fp, #-20]	; 0xffffffec
   14408:	e3530014 	cmp	r3, #20
   1440c:	1a000001 	bne	14418 <XAxiCdma_BdRingToHw+0xc0>
   14410:	e3a03000 	mov	r3, #0
   14414:	e50b3014 	str	r3, [fp, #-20]	; 0xffffffec
   14418:	e51b3020 	ldr	r3, [fp, #-32]	; 0xffffffe0
   1441c:	e593206c 	ldr	r2, [r3, #108]	; 0x6c
   14420:	e51b3014 	ldr	r3, [fp, #-20]	; 0xffffffec
   14424:	e1520003 	cmp	r2, r3
   14428:	1a000001 	bne	14434 <XAxiCdma_BdRingToHw+0xdc>
   1442c:	e3a0300b 	mov	r3, #11
   14430:	ea0000af 	b	146f4 <XAxiCdma_BdRingToHw+0x39c>
   14434:	e51b3028 	ldr	r3, [fp, #-40]	; 0xffffffd8
   14438:	e50b3010 	str	r3, [fp, #-16]
   1443c:	e3a03000 	mov	r3, #0
   14440:	e50b3014 	str	r3, [fp, #-20]	; 0xffffffec
   14444:	ea00000f 	b	14488 <XAxiCdma_BdRingToHw+0x130>
   14448:	e51b0010 	ldr	r0, [fp, #-16]
   1444c:	eb00058c 	bl	15a84 <XAxiCdma_BdGetLength>
   14450:	e1a03000 	mov	r3, r0
   14454:	e3530000 	cmp	r3, #0
   14458:	1a000001 	bne	14464 <XAxiCdma_BdRingToHw+0x10c>
   1445c:	e3a0300f 	mov	r3, #15
   14460:	ea0000a3 	b	146f4 <XAxiCdma_BdRingToHw+0x39c>
   14464:	e51b0010 	ldr	r0, [fp, #-16]
   14468:	eb00050a 	bl	15898 <XAxiCdma_BdClearSts>
   1446c:	e51b0020 	ldr	r0, [fp, #-32]	; 0xffffffe0
   14470:	e51b1010 	ldr	r1, [fp, #-16]
   14474:	ebfffd80 	bl	13a7c <XAxiCdma_BdRingNext>
   14478:	e50b0010 	str	r0, [fp, #-16]
   1447c:	e51b3014 	ldr	r3, [fp, #-20]	; 0xffffffec
   14480:	e2833001 	add	r3, r3, #1
   14484:	e50b3014 	str	r3, [fp, #-20]	; 0xffffffec
   14488:	e51b2014 	ldr	r2, [fp, #-20]	; 0xffffffec
   1448c:	e51b3024 	ldr	r3, [fp, #-36]	; 0xffffffdc
   14490:	e1520003 	cmp	r2, r3
   14494:	baffffeb 	blt	14448 <XAxiCdma_BdRingToHw+0xf0>
   14498:	e51b0020 	ldr	r0, [fp, #-32]	; 0xffffffe0
   1449c:	e51b1010 	ldr	r1, [fp, #-16]
   144a0:	ebfffda1 	bl	13b2c <XAxiCdma_BdRingPrev>
   144a4:	e50b0010 	str	r0, [fp, #-16]
   144a8:	e51b3020 	ldr	r3, [fp, #-32]	; 0xffffffe0
   144ac:	e593303c 	ldr	r3, [r3, #60]	; 0x3c
   144b0:	e50b3018 	str	r3, [fp, #-24]	; 0xffffffe8
   144b4:	e51b3020 	ldr	r3, [fp, #-32]	; 0xffffffe0
   144b8:	e5933034 	ldr	r3, [r3, #52]	; 0x34
   144bc:	e51b2024 	ldr	r2, [fp, #-36]	; 0xffffffdc
   144c0:	e0030392 	mul	r3, r2, r3
   144c4:	e51b2018 	ldr	r2, [fp, #-24]	; 0xffffffe8
   144c8:	e0823003 	add	r3, r2, r3
   144cc:	e50b3018 	str	r3, [fp, #-24]	; 0xffffffe8
   144d0:	e51b3020 	ldr	r3, [fp, #-32]	; 0xffffffe0
   144d4:	e593202c 	ldr	r2, [r3, #44]	; 0x2c
   144d8:	e51b3018 	ldr	r3, [fp, #-24]	; 0xffffffe8
   144dc:	e1520003 	cmp	r2, r3
   144e0:	2a000004 	bcs	144f8 <XAxiCdma_BdRingToHw+0x1a0>
   144e4:	e51b3020 	ldr	r3, [fp, #-32]	; 0xffffffe0
   144e8:	e5933030 	ldr	r3, [r3, #48]	; 0x30
   144ec:	e51b2018 	ldr	r2, [fp, #-24]	; 0xffffffe8
   144f0:	e0633002 	rsb	r3, r3, r2
   144f4:	e50b3018 	str	r3, [fp, #-24]	; 0xffffffe8
   144f8:	e51b2018 	ldr	r2, [fp, #-24]	; 0xffffffe8
   144fc:	e51b3020 	ldr	r3, [fp, #-32]	; 0xffffffe0
   14500:	e583203c 	str	r2, [r3, #60]	; 0x3c
   14504:	e51b3020 	ldr	r3, [fp, #-32]	; 0xffffffe0
   14508:	e5932054 	ldr	r2, [r3, #84]	; 0x54
   1450c:	e51b3024 	ldr	r3, [fp, #-36]	; 0xffffffdc
   14510:	e0632002 	rsb	r2, r3, r2
   14514:	e51b3020 	ldr	r3, [fp, #-32]	; 0xffffffe0
   14518:	e5832054 	str	r2, [r3, #84]	; 0x54
   1451c:	e51b3020 	ldr	r3, [fp, #-32]	; 0xffffffe0
   14520:	e51b2010 	ldr	r2, [fp, #-16]
   14524:	e5832044 	str	r2, [r3, #68]	; 0x44
   14528:	e51b3020 	ldr	r3, [fp, #-32]	; 0xffffffe0
   1452c:	e5932058 	ldr	r2, [r3, #88]	; 0x58
   14530:	e51b3024 	ldr	r3, [fp, #-36]	; 0xffffffdc
   14534:	e0822003 	add	r2, r2, r3
   14538:	e51b3020 	ldr	r3, [fp, #-32]	; 0xffffffe0
   1453c:	e5832058 	str	r2, [r3, #88]	; 0x58
   14540:	e51b3020 	ldr	r3, [fp, #-32]	; 0xffffffe0
   14544:	e5933070 	ldr	r3, [r3, #112]	; 0x70
   14548:	e50b3014 	str	r3, [fp, #-20]	; 0xffffffec
   1454c:	e51b302c 	ldr	r3, [fp, #-44]	; 0xffffffd4
   14550:	e3530000 	cmp	r3, #0
   14554:	0a000016 	beq	145b4 <XAxiCdma_BdRingToHw+0x25c>
   14558:	e51b1020 	ldr	r1, [fp, #-32]	; 0xffffffe0
   1455c:	e51b3014 	ldr	r3, [fp, #-20]	; 0xffffffec
   14560:	e1a02003 	mov	r2, r3
   14564:	e1a03102 	lsl	r3, r2, #2
   14568:	e1a02003 	mov	r2, r3
   1456c:	e1a03102 	lsl	r3, r2, #2
   14570:	e0623003 	rsb	r3, r2, r3
   14574:	e2833070 	add	r3, r3, #112	; 0x70
   14578:	e0813003 	add	r3, r1, r3
   1457c:	e51b202c 	ldr	r2, [fp, #-44]	; 0xffffffd4
   14580:	e5832004 	str	r2, [r3, #4]
   14584:	e51b1020 	ldr	r1, [fp, #-32]	; 0xffffffe0
   14588:	e51b3014 	ldr	r3, [fp, #-20]	; 0xffffffec
   1458c:	e1a02003 	mov	r2, r3
   14590:	e1a03102 	lsl	r3, r2, #2
   14594:	e1a02003 	mov	r2, r3
   14598:	e1a03102 	lsl	r3, r2, #2
   1459c:	e0623003 	rsb	r3, r2, r3
   145a0:	e2833070 	add	r3, r3, #112	; 0x70
   145a4:	e0813003 	add	r3, r1, r3
   145a8:	e59b2004 	ldr	r2, [fp, #4]
   145ac:	e5832008 	str	r2, [r3, #8]
   145b0:	ea000016 	b	14610 <XAxiCdma_BdRingToHw+0x2b8>
   145b4:	e51b1020 	ldr	r1, [fp, #-32]	; 0xffffffe0
   145b8:	e51b3014 	ldr	r3, [fp, #-20]	; 0xffffffec
   145bc:	e1a02003 	mov	r2, r3
   145c0:	e1a03102 	lsl	r3, r2, #2
   145c4:	e1a02003 	mov	r2, r3
   145c8:	e1a03102 	lsl	r3, r2, #2
   145cc:	e0623003 	rsb	r3, r2, r3
   145d0:	e2833070 	add	r3, r3, #112	; 0x70
   145d4:	e0812003 	add	r2, r1, r3
   145d8:	e30432d0 	movw	r3, #17104	; 0x42d0
   145dc:	e3403001 	movt	r3, #1
   145e0:	e5823004 	str	r3, [r2, #4]
   145e4:	e51b1020 	ldr	r1, [fp, #-32]	; 0xffffffe0
   145e8:	e51b3014 	ldr	r3, [fp, #-20]	; 0xffffffec
   145ec:	e1a02003 	mov	r2, r3
   145f0:	e1a03102 	lsl	r3, r2, #2
   145f4:	e1a02003 	mov	r2, r3
   145f8:	e1a03102 	lsl	r3, r2, #2
   145fc:	e0623003 	rsb	r3, r2, r3
   14600:	e2833070 	add	r3, r3, #112	; 0x70
   14604:	e0813003 	add	r3, r1, r3
   14608:	e51b2020 	ldr	r2, [fp, #-32]	; 0xffffffe0
   1460c:	e5832008 	str	r2, [r3, #8]
   14610:	e51b1020 	ldr	r1, [fp, #-32]	; 0xffffffe0
   14614:	e51b3014 	ldr	r3, [fp, #-20]	; 0xffffffec
   14618:	e1a02003 	mov	r2, r3
   1461c:	e1a03102 	lsl	r3, r2, #2
   14620:	e1a02003 	mov	r2, r3
   14624:	e1a03102 	lsl	r3, r2, #2
   14628:	e0623003 	rsb	r3, r2, r3
   1462c:	e2833078 	add	r3, r3, #120	; 0x78
   14630:	e0813003 	add	r3, r1, r3
   14634:	e51b2024 	ldr	r2, [fp, #-36]	; 0xffffffdc
   14638:	e5832004 	str	r2, [r3, #4]
   1463c:	e51b3014 	ldr	r3, [fp, #-20]	; 0xffffffec
   14640:	e2833001 	add	r3, r3, #1
   14644:	e50b3014 	str	r3, [fp, #-20]	; 0xffffffec
   14648:	e51b3014 	ldr	r3, [fp, #-20]	; 0xffffffec
   1464c:	e3530014 	cmp	r3, #20
   14650:	1a000001 	bne	1465c <XAxiCdma_BdRingToHw+0x304>
   14654:	e3a03000 	mov	r3, #0
   14658:	e50b3014 	str	r3, [fp, #-20]	; 0xffffffec
   1465c:	e51b3020 	ldr	r3, [fp, #-32]	; 0xffffffe0
   14660:	e51b2014 	ldr	r2, [fp, #-20]	; 0xffffffec
   14664:	e5832070 	str	r2, [r3, #112]	; 0x70
   14668:	e51b0020 	ldr	r0, [fp, #-32]	; 0xffffffe0
   1466c:	eb0001c2 	bl	14d7c <XAxiCdma_IsSimpleMode>
   14670:	e1a03000 	mov	r3, r0
   14674:	e3530000 	cmp	r3, #0
   14678:	0a00000e 	beq	146b8 <XAxiCdma_BdRingToHw+0x360>
   1467c:	e51b3020 	ldr	r3, [fp, #-32]	; 0xffffffe0
   14680:	e593301c 	ldr	r3, [r3, #28]
   14684:	e3530000 	cmp	r3, #0
   14688:	1a000005 	bne	146a4 <XAxiCdma_BdRingToHw+0x34c>
   1468c:	e51b0020 	ldr	r0, [fp, #-32]	; 0xffffffe0
   14690:	e3a01001 	mov	r1, #1
   14694:	eb0001f3 	bl	14e68 <XAxiCdma_SwitchMode>
   14698:	e1a03000 	mov	r3, r0
   1469c:	e3530000 	cmp	r3, #0
   146a0:	0a000004 	beq	146b8 <XAxiCdma_BdRingToHw+0x360>
   146a4:	e51b3020 	ldr	r3, [fp, #-32]	; 0xffffffe0
   146a8:	e3a02001 	mov	r2, #1
   146ac:	e5832020 	str	r2, [r3, #32]
   146b0:	e3a03000 	mov	r3, #0
   146b4:	ea00000e 	b	146f4 <XAxiCdma_BdRingToHw+0x39c>
   146b8:	e51b3020 	ldr	r3, [fp, #-32]	; 0xffffffe0
   146bc:	e3a02000 	mov	r2, #0
   146c0:	e5832020 	str	r2, [r3, #32]
   146c4:	e51b3020 	ldr	r3, [fp, #-32]	; 0xffffffe0
   146c8:	e5933000 	ldr	r3, [r3]
   146cc:	e2834010 	add	r4, r3, #16
   146d0:	e51b3020 	ldr	r3, [fp, #-32]	; 0xffffffe0
   146d4:	e5933044 	ldr	r3, [r3, #68]	; 0x44
   146d8:	e1a00003 	mov	r0, r3
   146dc:	eb000539 	bl	15bc8 <XAxiCdma_BdGetPhysAddr>
   146e0:	e1a03000 	mov	r3, r0
   146e4:	e1a00004 	mov	r0, r4
   146e8:	e1a01003 	mov	r1, r3
   146ec:	ebffedad 	bl	fda8 <Xil_Out32>
   146f0:	e3a03000 	mov	r3, #0
   146f4:	e1a00003 	mov	r0, r3
   146f8:	e24bd008 	sub	sp, fp, #8
   146fc:	e8bd8810 	pop	{r4, fp, pc}

00014700 <XAxiCdma_BdRingFromHw>:
   14700:	e92d4800 	push	{fp, lr}
   14704:	e28db004 	add	fp, sp, #4
   14708:	e24dd020 	sub	sp, sp, #32
   1470c:	e50b0018 	str	r0, [fp, #-24]	; 0xffffffe8
   14710:	e50b101c 	str	r1, [fp, #-28]	; 0xffffffe4
   14714:	e50b2020 	str	r2, [fp, #-32]	; 0xffffffe0
   14718:	e51b3018 	ldr	r3, [fp, #-24]	; 0xffffffe8
   1471c:	e5933040 	ldr	r3, [r3, #64]	; 0x40
   14720:	e50b3008 	str	r3, [fp, #-8]
   14724:	e3a03000 	mov	r3, #0
   14728:	e50b300c 	str	r3, [fp, #-12]
   1472c:	e3a03000 	mov	r3, #0
   14730:	e50b3014 	str	r3, [fp, #-20]	; 0xffffffec
   14734:	e51b3018 	ldr	r3, [fp, #-24]	; 0xffffffe8
   14738:	e5933058 	ldr	r3, [r3, #88]	; 0x58
   1473c:	e3530000 	cmp	r3, #0
   14740:	1a000004 	bne	14758 <XAxiCdma_BdRingFromHw+0x58>
   14744:	e51b3020 	ldr	r3, [fp, #-32]	; 0xffffffe0
   14748:	e3a02000 	mov	r2, #0
   1474c:	e5832000 	str	r2, [r3]
   14750:	e3a03000 	mov	r3, #0
   14754:	ea000050 	b	1489c <XAxiCdma_BdRingFromHw+0x19c>
   14758:	e51b3018 	ldr	r3, [fp, #-24]	; 0xffffffe8
   1475c:	e5932058 	ldr	r2, [r3, #88]	; 0x58
   14760:	e51b301c 	ldr	r3, [fp, #-28]	; 0xffffffe4
   14764:	e1520003 	cmp	r2, r3
   14768:	aa000002 	bge	14778 <XAxiCdma_BdRingFromHw+0x78>
   1476c:	e51b3018 	ldr	r3, [fp, #-24]	; 0xffffffe8
   14770:	e5933058 	ldr	r3, [r3, #88]	; 0x58
   14774:	e50b301c 	str	r3, [fp, #-28]	; 0xffffffe4
   14778:	ea000013 	b	147cc <XAxiCdma_BdRingFromHw+0xcc>
   1477c:	e51b0008 	ldr	r0, [fp, #-8]
   14780:	eb000438 	bl	15868 <XAxiCdma_BdGetSts>
   14784:	e50b0014 	str	r0, [fp, #-20]	; 0xffffffec
   14788:	e51b3014 	ldr	r3, [fp, #-20]	; 0xffffffec
   1478c:	e3530000 	cmp	r3, #0
   14790:	ba000000 	blt	14798 <XAxiCdma_BdRingFromHw+0x98>
   14794:	ea000010 	b	147dc <XAxiCdma_BdRingFromHw+0xdc>
   14798:	e51b300c 	ldr	r3, [fp, #-12]
   1479c:	e2833001 	add	r3, r3, #1
   147a0:	e50b300c 	str	r3, [fp, #-12]
   147a4:	e51b3018 	ldr	r3, [fp, #-24]	; 0xffffffe8
   147a8:	e5932044 	ldr	r2, [r3, #68]	; 0x44
   147ac:	e51b3008 	ldr	r3, [fp, #-8]
   147b0:	e1520003 	cmp	r2, r3
   147b4:	1a000000 	bne	147bc <XAxiCdma_BdRingFromHw+0xbc>
   147b8:	ea000007 	b	147dc <XAxiCdma_BdRingFromHw+0xdc>
   147bc:	e51b0018 	ldr	r0, [fp, #-24]	; 0xffffffe8
   147c0:	e51b1008 	ldr	r1, [fp, #-8]
   147c4:	ebfffcac 	bl	13a7c <XAxiCdma_BdRingNext>
   147c8:	e50b0008 	str	r0, [fp, #-8]
   147cc:	e51b200c 	ldr	r2, [fp, #-12]
   147d0:	e51b301c 	ldr	r3, [fp, #-28]	; 0xffffffe4
   147d4:	e1520003 	cmp	r2, r3
   147d8:	baffffe7 	blt	1477c <XAxiCdma_BdRingFromHw+0x7c>
   147dc:	e51b300c 	ldr	r3, [fp, #-12]
   147e0:	e3530000 	cmp	r3, #0
   147e4:	0a000028 	beq	1488c <XAxiCdma_BdRingFromHw+0x18c>
   147e8:	e51b3018 	ldr	r3, [fp, #-24]	; 0xffffffe8
   147ec:	e5932040 	ldr	r2, [r3, #64]	; 0x40
   147f0:	e51b3020 	ldr	r3, [fp, #-32]	; 0xffffffe0
   147f4:	e5832000 	str	r2, [r3]
   147f8:	e51b3018 	ldr	r3, [fp, #-24]	; 0xffffffe8
   147fc:	e5932058 	ldr	r2, [r3, #88]	; 0x58
   14800:	e51b300c 	ldr	r3, [fp, #-12]
   14804:	e0632002 	rsb	r2, r3, r2
   14808:	e51b3018 	ldr	r3, [fp, #-24]	; 0xffffffe8
   1480c:	e5832058 	str	r2, [r3, #88]	; 0x58
   14810:	e51b3018 	ldr	r3, [fp, #-24]	; 0xffffffe8
   14814:	e593205c 	ldr	r2, [r3, #92]	; 0x5c
   14818:	e51b300c 	ldr	r3, [fp, #-12]
   1481c:	e0822003 	add	r2, r2, r3
   14820:	e51b3018 	ldr	r3, [fp, #-24]	; 0xffffffe8
   14824:	e583205c 	str	r2, [r3, #92]	; 0x5c
   14828:	e51b3018 	ldr	r3, [fp, #-24]	; 0xffffffe8
   1482c:	e5933040 	ldr	r3, [r3, #64]	; 0x40
   14830:	e50b3010 	str	r3, [fp, #-16]
   14834:	e51b3018 	ldr	r3, [fp, #-24]	; 0xffffffe8
   14838:	e5933034 	ldr	r3, [r3, #52]	; 0x34
   1483c:	e51b200c 	ldr	r2, [fp, #-12]
   14840:	e0030392 	mul	r3, r2, r3
   14844:	e51b2010 	ldr	r2, [fp, #-16]
   14848:	e0823003 	add	r3, r2, r3
   1484c:	e50b3010 	str	r3, [fp, #-16]
   14850:	e51b3018 	ldr	r3, [fp, #-24]	; 0xffffffe8
   14854:	e593202c 	ldr	r2, [r3, #44]	; 0x2c
   14858:	e51b3010 	ldr	r3, [fp, #-16]
   1485c:	e1520003 	cmp	r2, r3
   14860:	2a000004 	bcs	14878 <XAxiCdma_BdRingFromHw+0x178>
   14864:	e51b3018 	ldr	r3, [fp, #-24]	; 0xffffffe8
   14868:	e5933030 	ldr	r3, [r3, #48]	; 0x30
   1486c:	e51b2010 	ldr	r2, [fp, #-16]
   14870:	e0633002 	rsb	r3, r3, r2
   14874:	e50b3010 	str	r3, [fp, #-16]
   14878:	e51b2010 	ldr	r2, [fp, #-16]
   1487c:	e51b3018 	ldr	r3, [fp, #-24]	; 0xffffffe8
   14880:	e5832040 	str	r2, [r3, #64]	; 0x40
   14884:	e51b300c 	ldr	r3, [fp, #-12]
   14888:	ea000003 	b	1489c <XAxiCdma_BdRingFromHw+0x19c>
   1488c:	e51b3020 	ldr	r3, [fp, #-32]	; 0xffffffe0
   14890:	e3a02000 	mov	r2, #0
   14894:	e5832000 	str	r2, [r3]
   14898:	e3a03000 	mov	r3, #0
   1489c:	e1a00003 	mov	r0, r3
   148a0:	e24bd004 	sub	sp, fp, #4
   148a4:	e8bd8800 	pop	{fp, pc}

000148a8 <XAxiCdma_BdRingFree>:
   148a8:	e52db004 	push	{fp}		; (str fp, [sp, #-4]!)
   148ac:	e28db000 	add	fp, sp, #0
   148b0:	e24dd01c 	sub	sp, sp, #28
   148b4:	e50b0010 	str	r0, [fp, #-16]
   148b8:	e50b1014 	str	r1, [fp, #-20]	; 0xffffffec
   148bc:	e50b2018 	str	r2, [fp, #-24]	; 0xffffffe8
   148c0:	e51b3014 	ldr	r3, [fp, #-20]	; 0xffffffec
   148c4:	e3530000 	cmp	r3, #0
   148c8:	aa000001 	bge	148d4 <XAxiCdma_BdRingFree+0x2c>
   148cc:	e3a0300f 	mov	r3, #15
   148d0:	ea000034 	b	149a8 <XAxiCdma_BdRingFree+0x100>
   148d4:	e51b3014 	ldr	r3, [fp, #-20]	; 0xffffffec
   148d8:	e3530000 	cmp	r3, #0
   148dc:	1a000001 	bne	148e8 <XAxiCdma_BdRingFree+0x40>
   148e0:	e3a03000 	mov	r3, #0
   148e4:	ea00002f 	b	149a8 <XAxiCdma_BdRingFree+0x100>
   148e8:	e51b3010 	ldr	r3, [fp, #-16]
   148ec:	e593205c 	ldr	r2, [r3, #92]	; 0x5c
   148f0:	e51b3014 	ldr	r3, [fp, #-20]	; 0xffffffec
   148f4:	e1520003 	cmp	r2, r3
   148f8:	ba000004 	blt	14910 <XAxiCdma_BdRingFree+0x68>
   148fc:	e51b3010 	ldr	r3, [fp, #-16]
   14900:	e5932048 	ldr	r2, [r3, #72]	; 0x48
   14904:	e51b3018 	ldr	r3, [fp, #-24]	; 0xffffffe8
   14908:	e1520003 	cmp	r2, r3
   1490c:	0a000001 	beq	14918 <XAxiCdma_BdRingFree+0x70>
   14910:	e300320e 	movw	r3, #526	; 0x20e
   14914:	ea000023 	b	149a8 <XAxiCdma_BdRingFree+0x100>
   14918:	e51b3010 	ldr	r3, [fp, #-16]
   1491c:	e5932050 	ldr	r2, [r3, #80]	; 0x50
   14920:	e51b3014 	ldr	r3, [fp, #-20]	; 0xffffffec
   14924:	e0822003 	add	r2, r2, r3
   14928:	e51b3010 	ldr	r3, [fp, #-16]
   1492c:	e5832050 	str	r2, [r3, #80]	; 0x50
   14930:	e51b3010 	ldr	r3, [fp, #-16]
   14934:	e593205c 	ldr	r2, [r3, #92]	; 0x5c
   14938:	e51b3014 	ldr	r3, [fp, #-20]	; 0xffffffec
   1493c:	e0632002 	rsb	r2, r3, r2
   14940:	e51b3010 	ldr	r3, [fp, #-16]
   14944:	e583205c 	str	r2, [r3, #92]	; 0x5c
   14948:	e51b3010 	ldr	r3, [fp, #-16]
   1494c:	e5933048 	ldr	r3, [r3, #72]	; 0x48
   14950:	e50b3008 	str	r3, [fp, #-8]
   14954:	e51b3010 	ldr	r3, [fp, #-16]
   14958:	e5933034 	ldr	r3, [r3, #52]	; 0x34
   1495c:	e51b2014 	ldr	r2, [fp, #-20]	; 0xffffffec
   14960:	e0030392 	mul	r3, r2, r3
   14964:	e51b2008 	ldr	r2, [fp, #-8]
   14968:	e0823003 	add	r3, r2, r3
   1496c:	e50b3008 	str	r3, [fp, #-8]
   14970:	e51b3010 	ldr	r3, [fp, #-16]
   14974:	e593202c 	ldr	r2, [r3, #44]	; 0x2c
   14978:	e51b3008 	ldr	r3, [fp, #-8]
   1497c:	e1520003 	cmp	r2, r3
   14980:	2a000004 	bcs	14998 <XAxiCdma_BdRingFree+0xf0>
   14984:	e51b3010 	ldr	r3, [fp, #-16]
   14988:	e5933030 	ldr	r3, [r3, #48]	; 0x30
   1498c:	e51b2008 	ldr	r2, [fp, #-8]
   14990:	e0633002 	rsb	r3, r3, r2
   14994:	e50b3008 	str	r3, [fp, #-8]
   14998:	e51b2008 	ldr	r2, [fp, #-8]
   1499c:	e51b3010 	ldr	r3, [fp, #-16]
   149a0:	e5832048 	str	r2, [r3, #72]	; 0x48
   149a4:	e3a03000 	mov	r3, #0
   149a8:	e1a00003 	mov	r0, r3
   149ac:	e24bd000 	sub	sp, fp, #0
   149b0:	e49db004 	pop	{fp}		; (ldr fp, [sp], #4)
   149b4:	e12fff1e 	bx	lr

000149b8 <XAxiCdma_BdRingStartTransfer>:
   149b8:	e92d4810 	push	{r4, fp, lr}
   149bc:	e28db008 	add	fp, sp, #8
   149c0:	e24dd00c 	sub	sp, sp, #12
   149c4:	e50b0010 	str	r0, [fp, #-16]
   149c8:	e51b3010 	ldr	r3, [fp, #-16]
   149cc:	e5933008 	ldr	r3, [r3, #8]
   149d0:	e3530000 	cmp	r3, #0
   149d4:	0a000001 	beq	149e0 <XAxiCdma_BdRingStartTransfer+0x28>
   149d8:	e3a03001 	mov	r3, #1
   149dc:	ea000025 	b	14a78 <XAxiCdma_BdRingStartTransfer+0xc0>
   149e0:	e51b3010 	ldr	r3, [fp, #-16]
   149e4:	e5933058 	ldr	r3, [r3, #88]	; 0x58
   149e8:	e3530000 	cmp	r3, #0
   149ec:	1a000001 	bne	149f8 <XAxiCdma_BdRingStartTransfer+0x40>
   149f0:	e3a03000 	mov	r3, #0
   149f4:	ea00001f 	b	14a78 <XAxiCdma_BdRingStartTransfer+0xc0>
   149f8:	e51b0010 	ldr	r0, [fp, #-16]
   149fc:	eb0000de 	bl	14d7c <XAxiCdma_IsSimpleMode>
   14a00:	e1a03000 	mov	r3, r0
   14a04:	e3530000 	cmp	r3, #0
   14a08:	0a00000b 	beq	14a3c <XAxiCdma_BdRingStartTransfer+0x84>
   14a0c:	e51b3010 	ldr	r3, [fp, #-16]
   14a10:	e593301c 	ldr	r3, [r3, #28]
   14a14:	e3530000 	cmp	r3, #0
   14a18:	1a000005 	bne	14a34 <XAxiCdma_BdRingStartTransfer+0x7c>
   14a1c:	e51b0010 	ldr	r0, [fp, #-16]
   14a20:	e3a01001 	mov	r1, #1
   14a24:	eb00010f 	bl	14e68 <XAxiCdma_SwitchMode>
   14a28:	e1a03000 	mov	r3, r0
   14a2c:	e3530000 	cmp	r3, #0
   14a30:	0a000001 	beq	14a3c <XAxiCdma_BdRingStartTransfer+0x84>
   14a34:	e3a03001 	mov	r3, #1
   14a38:	ea00000e 	b	14a78 <XAxiCdma_BdRingStartTransfer+0xc0>
   14a3c:	e51b3010 	ldr	r3, [fp, #-16]
   14a40:	e5933000 	ldr	r3, [r3]
   14a44:	e2834010 	add	r4, r3, #16
   14a48:	e51b3010 	ldr	r3, [fp, #-16]
   14a4c:	e5933044 	ldr	r3, [r3, #68]	; 0x44
   14a50:	e1a00003 	mov	r0, r3
   14a54:	eb00045b 	bl	15bc8 <XAxiCdma_BdGetPhysAddr>
   14a58:	e1a03000 	mov	r3, r0
   14a5c:	e1a00004 	mov	r0, r4
   14a60:	e1a01003 	mov	r1, r3
   14a64:	ebffeccf 	bl	fda8 <Xil_Out32>
   14a68:	e51b3010 	ldr	r3, [fp, #-16]
   14a6c:	e3a02000 	mov	r2, #0
   14a70:	e5832020 	str	r2, [r3, #32]
   14a74:	e3a03000 	mov	r3, #0
   14a78:	e1a00003 	mov	r0, r3
   14a7c:	e24bd008 	sub	sp, fp, #8
   14a80:	e8bd8810 	pop	{r4, fp, pc}

00014a84 <XAxiCdma_GetError>:
   14a84:	e92d4800 	push	{fp, lr}
   14a88:	e28db004 	add	fp, sp, #4
   14a8c:	e24dd008 	sub	sp, sp, #8
   14a90:	e50b0008 	str	r0, [fp, #-8]
   14a94:	e51b3008 	ldr	r3, [fp, #-8]
   14a98:	e5933000 	ldr	r3, [r3]
   14a9c:	e2833004 	add	r3, r3, #4
   14aa0:	e1a00003 	mov	r0, r3
   14aa4:	ebffec9d 	bl	fd20 <Xil_In32>
   14aa8:	e1a03000 	mov	r3, r0
   14aac:	e2033e77 	and	r3, r3, #1904	; 0x770
   14ab0:	e1a00003 	mov	r0, r3
   14ab4:	e24bd004 	sub	sp, fp, #4
   14ab8:	e8bd8800 	pop	{fp, pc}

00014abc <XAxiCdma_Reset>:
   14abc:	e92d4800 	push	{fp, lr}
   14ac0:	e28db004 	add	fp, sp, #4
   14ac4:	e24dd008 	sub	sp, sp, #8
   14ac8:	e50b0008 	str	r0, [fp, #-8]
   14acc:	e51b3008 	ldr	r3, [fp, #-8]
   14ad0:	e5933000 	ldr	r3, [r3]
   14ad4:	e1a00003 	mov	r0, r3
   14ad8:	e3a01004 	mov	r1, #4
   14adc:	ebffecb1 	bl	fda8 <Xil_Out32>
   14ae0:	e51b3008 	ldr	r3, [fp, #-8]
   14ae4:	e3a02000 	mov	r2, #0
   14ae8:	e583201c 	str	r2, [r3, #28]
   14aec:	e51b3008 	ldr	r3, [fp, #-8]
   14af0:	e3a02000 	mov	r2, #0
   14af4:	e5832020 	str	r2, [r3, #32]
   14af8:	e51b3008 	ldr	r3, [fp, #-8]
   14afc:	e3a02000 	mov	r2, #0
   14b00:	e583206c 	str	r2, [r3, #108]	; 0x6c
   14b04:	e51b3008 	ldr	r3, [fp, #-8]
   14b08:	e3a02000 	mov	r2, #0
   14b0c:	e5832070 	str	r2, [r3, #112]	; 0x70
   14b10:	e51b3008 	ldr	r3, [fp, #-8]
   14b14:	e3a02000 	mov	r2, #0
   14b18:	e5832064 	str	r2, [r3, #100]	; 0x64
   14b1c:	e51b3008 	ldr	r3, [fp, #-8]
   14b20:	e3a02000 	mov	r2, #0
   14b24:	e5832068 	str	r2, [r3, #104]	; 0x68
   14b28:	e1a00000 	nop			; (mov r0, r0)
   14b2c:	e24bd004 	sub	sp, fp, #4
   14b30:	e8bd8800 	pop	{fp, pc}

00014b34 <XAxiCdma_ResetIsDone>:
   14b34:	e92d4800 	push	{fp, lr}
   14b38:	e28db004 	add	fp, sp, #4
   14b3c:	e24dd008 	sub	sp, sp, #8
   14b40:	e50b0008 	str	r0, [fp, #-8]
   14b44:	e51b3008 	ldr	r3, [fp, #-8]
   14b48:	e5933000 	ldr	r3, [r3]
   14b4c:	e1a00003 	mov	r0, r3
   14b50:	ebffec72 	bl	fd20 <Xil_In32>
   14b54:	e1a03000 	mov	r3, r0
   14b58:	e2033004 	and	r3, r3, #4
   14b5c:	e3530000 	cmp	r3, #0
   14b60:	03a03001 	moveq	r3, #1
   14b64:	13a03000 	movne	r3, #0
   14b68:	e6ef3073 	uxtb	r3, r3
   14b6c:	e1a00003 	mov	r0, r3
   14b70:	e24bd004 	sub	sp, fp, #4
   14b74:	e8bd8800 	pop	{fp, pc}

00014b78 <XAxiCdma_CfgInitialize>:
   14b78:	e92d4800 	push	{fp, lr}
   14b7c:	e28db004 	add	fp, sp, #4
   14b80:	e24dd018 	sub	sp, sp, #24
   14b84:	e50b0010 	str	r0, [fp, #-16]
   14b88:	e50b1014 	str	r1, [fp, #-20]	; 0xffffffec
   14b8c:	e50b2018 	str	r2, [fp, #-24]	; 0xffffffe8
   14b90:	e51b3010 	ldr	r3, [fp, #-16]
   14b94:	e3a02000 	mov	r2, #0
   14b98:	e5832004 	str	r2, [r3, #4]
   14b9c:	e51b3010 	ldr	r3, [fp, #-16]
   14ba0:	e51b2018 	ldr	r2, [fp, #-24]	; 0xffffffe8
   14ba4:	e5832000 	str	r2, [r3]
   14ba8:	e51b3014 	ldr	r3, [fp, #-20]	; 0xffffffec
   14bac:	e5932008 	ldr	r2, [r3, #8]
   14bb0:	e51b3010 	ldr	r3, [fp, #-16]
   14bb4:	e583200c 	str	r2, [r3, #12]
   14bb8:	e51b3014 	ldr	r3, [fp, #-20]	; 0xffffffec
   14bbc:	e593200c 	ldr	r2, [r3, #12]
   14bc0:	e51b3010 	ldr	r3, [fp, #-16]
   14bc4:	e5832010 	str	r2, [r3, #16]
   14bc8:	e51b3014 	ldr	r3, [fp, #-20]	; 0xffffffec
   14bcc:	e5933010 	ldr	r3, [r3, #16]
   14bd0:	e1a031a3 	lsr	r3, r3, #3
   14bd4:	e1a02003 	mov	r2, r3
   14bd8:	e51b3010 	ldr	r3, [fp, #-16]
   14bdc:	e5832014 	str	r2, [r3, #20]
   14be0:	e51b3010 	ldr	r3, [fp, #-16]
   14be4:	e5933014 	ldr	r3, [r3, #20]
   14be8:	e3530003 	cmp	r3, #3
   14bec:	ca000001 	bgt	14bf8 <XAxiCdma_CfgInitialize+0x80>
   14bf0:	e3a0300f 	mov	r3, #15
   14bf4:	ea00004b 	b	14d28 <XAxiCdma_CfgInitialize+0x1b0>
   14bf8:	e51b3014 	ldr	r3, [fp, #-20]	; 0xffffffec
   14bfc:	e5933004 	ldr	r3, [r3, #4]
   14c00:	e2833004 	add	r3, r3, #4
   14c04:	e1a00003 	mov	r0, r3
   14c08:	ebffec44 	bl	fd20 <Xil_In32>
   14c0c:	e50b000c 	str	r0, [fp, #-12]
   14c10:	e51b300c 	ldr	r3, [fp, #-12]
   14c14:	e2033008 	and	r3, r3, #8
   14c18:	e3530000 	cmp	r3, #0
   14c1c:	03a03001 	moveq	r3, #1
   14c20:	13a03000 	movne	r3, #0
   14c24:	e6ef3073 	uxtb	r3, r3
   14c28:	e1a02003 	mov	r2, r3
   14c2c:	e51b3010 	ldr	r3, [fp, #-16]
   14c30:	e5832008 	str	r2, [r3, #8]
   14c34:	e51b3010 	ldr	r3, [fp, #-16]
   14c38:	e5933008 	ldr	r3, [r3, #8]
   14c3c:	e3530000 	cmp	r3, #0
   14c40:	0a00000b 	beq	14c74 <XAxiCdma_CfgInitialize+0xfc>
   14c44:	e51b3014 	ldr	r3, [fp, #-20]	; 0xffffffec
   14c48:	e593300c 	ldr	r3, [r3, #12]
   14c4c:	e3530000 	cmp	r3, #0
   14c50:	0a000007 	beq	14c74 <XAxiCdma_CfgInitialize+0xfc>
   14c54:	e51b3010 	ldr	r3, [fp, #-16]
   14c58:	e5933014 	ldr	r3, [r3, #20]
   14c5c:	e51b2014 	ldr	r2, [fp, #-20]	; 0xffffffec
   14c60:	e5922014 	ldr	r2, [r2, #20]
   14c64:	e0020392 	mul	r2, r2, r3
   14c68:	e51b3010 	ldr	r3, [fp, #-16]
   14c6c:	e5832018 	str	r2, [r3, #24]
   14c70:	ea000003 	b	14c84 <XAxiCdma_CfgInitialize+0x10c>
   14c74:	e51b2010 	ldr	r2, [fp, #-16]
   14c78:	e30f3fff 	movw	r3, #65535	; 0xffff
   14c7c:	e340307f 	movt	r3, #127	; 0x7f
   14c80:	e5823018 	str	r3, [r2, #24]
   14c84:	e3a03005 	mov	r3, #5
   14c88:	e50b3008 	str	r3, [fp, #-8]
   14c8c:	e51b0010 	ldr	r0, [fp, #-16]
   14c90:	ebffff89 	bl	14abc <XAxiCdma_Reset>
   14c94:	ea000008 	b	14cbc <XAxiCdma_CfgInitialize+0x144>
   14c98:	e51b0010 	ldr	r0, [fp, #-16]
   14c9c:	ebffffa4 	bl	14b34 <XAxiCdma_ResetIsDone>
   14ca0:	e1a03000 	mov	r3, r0
   14ca4:	e3530000 	cmp	r3, #0
   14ca8:	0a000000 	beq	14cb0 <XAxiCdma_CfgInitialize+0x138>
   14cac:	ea000005 	b	14cc8 <XAxiCdma_CfgInitialize+0x150>
   14cb0:	e51b3008 	ldr	r3, [fp, #-8]
   14cb4:	e2433001 	sub	r3, r3, #1
   14cb8:	e50b3008 	str	r3, [fp, #-8]
   14cbc:	e51b3008 	ldr	r3, [fp, #-8]
   14cc0:	e3530000 	cmp	r3, #0
   14cc4:	1afffff3 	bne	14c98 <XAxiCdma_CfgInitialize+0x120>
   14cc8:	e51b3008 	ldr	r3, [fp, #-8]
   14ccc:	e3530000 	cmp	r3, #0
   14cd0:	1a000001 	bne	14cdc <XAxiCdma_CfgInitialize+0x164>
   14cd4:	e3a03001 	mov	r3, #1
   14cd8:	ea000012 	b	14d28 <XAxiCdma_CfgInitialize+0x1b0>
   14cdc:	e51b3010 	ldr	r3, [fp, #-16]
   14ce0:	e3a02000 	mov	r2, #0
   14ce4:	e5832060 	str	r2, [r3, #96]	; 0x60
   14ce8:	e51b3010 	ldr	r3, [fp, #-16]
   14cec:	e3a02000 	mov	r2, #0
   14cf0:	e5832050 	str	r2, [r3, #80]	; 0x50
   14cf4:	e51b3010 	ldr	r3, [fp, #-16]
   14cf8:	e3a02000 	mov	r2, #0
   14cfc:	e5832058 	str	r2, [r3, #88]	; 0x58
   14d00:	e51b3010 	ldr	r3, [fp, #-16]
   14d04:	e3a02000 	mov	r2, #0
   14d08:	e5832054 	str	r2, [r3, #84]	; 0x54
   14d0c:	e51b3010 	ldr	r3, [fp, #-16]
   14d10:	e3a02000 	mov	r2, #0
   14d14:	e583205c 	str	r2, [r3, #92]	; 0x5c
   14d18:	e51b3010 	ldr	r3, [fp, #-16]
   14d1c:	e3a02001 	mov	r2, #1
   14d20:	e5832004 	str	r2, [r3, #4]
   14d24:	e3a03000 	mov	r3, #0
   14d28:	e1a00003 	mov	r0, r3
   14d2c:	e24bd004 	sub	sp, fp, #4
   14d30:	e8bd8800 	pop	{fp, pc}

00014d34 <XAxiCdma_IsBusy>:
   14d34:	e92d4800 	push	{fp, lr}
   14d38:	e28db004 	add	fp, sp, #4
   14d3c:	e24dd008 	sub	sp, sp, #8
   14d40:	e50b0008 	str	r0, [fp, #-8]
   14d44:	e51b3008 	ldr	r3, [fp, #-8]
   14d48:	e5933000 	ldr	r3, [r3]
   14d4c:	e2833004 	add	r3, r3, #4
   14d50:	e1a00003 	mov	r0, r3
   14d54:	ebffebf1 	bl	fd20 <Xil_In32>
   14d58:	e1a03000 	mov	r3, r0
   14d5c:	e2033002 	and	r3, r3, #2
   14d60:	e3530000 	cmp	r3, #0
   14d64:	03a03001 	moveq	r3, #1
   14d68:	13a03000 	movne	r3, #0
   14d6c:	e6ef3073 	uxtb	r3, r3
   14d70:	e1a00003 	mov	r0, r3
   14d74:	e24bd004 	sub	sp, fp, #4
   14d78:	e8bd8800 	pop	{fp, pc}

00014d7c <XAxiCdma_IsSimpleMode>:
   14d7c:	e92d4800 	push	{fp, lr}
   14d80:	e28db004 	add	fp, sp, #4
   14d84:	e24dd008 	sub	sp, sp, #8
   14d88:	e50b0008 	str	r0, [fp, #-8]
   14d8c:	e51b3008 	ldr	r3, [fp, #-8]
   14d90:	e5933000 	ldr	r3, [r3]
   14d94:	e1a00003 	mov	r0, r3
   14d98:	ebffebe0 	bl	fd20 <Xil_In32>
   14d9c:	e1a03000 	mov	r3, r0
   14da0:	e2033008 	and	r3, r3, #8
   14da4:	e3530000 	cmp	r3, #0
   14da8:	03a03001 	moveq	r3, #1
   14dac:	13a03000 	movne	r3, #0
   14db0:	e6ef3073 	uxtb	r3, r3
   14db4:	e1a00003 	mov	r0, r3
   14db8:	e24bd004 	sub	sp, fp, #4
   14dbc:	e8bd8800 	pop	{fp, pc}

00014dc0 <XAxiCdma_SelectKeyHole>:
   14dc0:	e92d4800 	push	{fp, lr}
   14dc4:	e28db004 	add	fp, sp, #4
   14dc8:	e24dd018 	sub	sp, sp, #24
   14dcc:	e50b0010 	str	r0, [fp, #-16]
   14dd0:	e50b1014 	str	r1, [fp, #-20]	; 0xffffffec
   14dd4:	e50b2018 	str	r2, [fp, #-24]	; 0xffffffe8
   14dd8:	e51b0010 	ldr	r0, [fp, #-16]
   14ddc:	ebffffd4 	bl	14d34 <XAxiCdma_IsBusy>
   14de0:	e1a03000 	mov	r3, r0
   14de4:	e3530000 	cmp	r3, #0
   14de8:	0a000001 	beq	14df4 <XAxiCdma_SelectKeyHole+0x34>
   14dec:	e3a03015 	mov	r3, #21
   14df0:	ea000019 	b	14e5c <XAxiCdma_SelectKeyHole+0x9c>
   14df4:	e51b3010 	ldr	r3, [fp, #-16]
   14df8:	e5933000 	ldr	r3, [r3]
   14dfc:	e1a00003 	mov	r0, r3
   14e00:	ebffebc6 	bl	fd20 <Xil_In32>
   14e04:	e50b0008 	str	r0, [fp, #-8]
   14e08:	e51b3018 	ldr	r3, [fp, #-24]	; 0xffffffe8
   14e0c:	e3530000 	cmp	r3, #0
   14e10:	0a000001 	beq	14e1c <XAxiCdma_SelectKeyHole+0x5c>
   14e14:	e3a03013 	mov	r3, #19
   14e18:	ea00000f 	b	14e5c <XAxiCdma_SelectKeyHole+0x9c>
   14e1c:	e51b3014 	ldr	r3, [fp, #-20]	; 0xffffffec
   14e20:	e3530001 	cmp	r3, #1
   14e24:	1a000003 	bne	14e38 <XAxiCdma_SelectKeyHole+0x78>
   14e28:	e51b3008 	ldr	r3, [fp, #-8]
   14e2c:	e3c33020 	bic	r3, r3, #32
   14e30:	e50b3008 	str	r3, [fp, #-8]
   14e34:	ea000002 	b	14e44 <XAxiCdma_SelectKeyHole+0x84>
   14e38:	e51b3008 	ldr	r3, [fp, #-8]
   14e3c:	e3c33010 	bic	r3, r3, #16
   14e40:	e50b3008 	str	r3, [fp, #-8]
   14e44:	e51b3010 	ldr	r3, [fp, #-16]
   14e48:	e5933000 	ldr	r3, [r3]
   14e4c:	e1a00003 	mov	r0, r3
   14e50:	e51b1008 	ldr	r1, [fp, #-8]
   14e54:	ebffebd3 	bl	fda8 <Xil_Out32>
   14e58:	e3a03000 	mov	r3, #0
   14e5c:	e1a00003 	mov	r0, r3
   14e60:	e24bd004 	sub	sp, fp, #4
   14e64:	e8bd8800 	pop	{fp, pc}

00014e68 <XAxiCdma_SwitchMode>:
   14e68:	e92d4810 	push	{r4, fp, lr}
   14e6c:	e28db008 	add	fp, sp, #8
   14e70:	e24dd00c 	sub	sp, sp, #12
   14e74:	e50b0010 	str	r0, [fp, #-16]
   14e78:	e50b1014 	str	r1, [fp, #-20]	; 0xffffffec
   14e7c:	e51b3014 	ldr	r3, [fp, #-20]	; 0xffffffec
   14e80:	e3530002 	cmp	r3, #2
   14e84:	1a00002a 	bne	14f34 <XAxiCdma_SwitchMode+0xcc>
   14e88:	e51b0010 	ldr	r0, [fp, #-16]
   14e8c:	ebffffba 	bl	14d7c <XAxiCdma_IsSimpleMode>
   14e90:	e1a03000 	mov	r3, r0
   14e94:	e3530000 	cmp	r3, #0
   14e98:	0a000001 	beq	14ea4 <XAxiCdma_SwitchMode+0x3c>
   14e9c:	e3a03000 	mov	r3, #0
   14ea0:	ea000057 	b	15004 <XAxiCdma_SwitchMode+0x19c>
   14ea4:	e51b0010 	ldr	r0, [fp, #-16]
   14ea8:	ebffffa1 	bl	14d34 <XAxiCdma_IsBusy>
   14eac:	e1a03000 	mov	r3, r0
   14eb0:	e3530000 	cmp	r3, #0
   14eb4:	0a000001 	beq	14ec0 <XAxiCdma_SwitchMode+0x58>
   14eb8:	e3a03015 	mov	r3, #21
   14ebc:	ea000050 	b	15004 <XAxiCdma_SwitchMode+0x19c>
   14ec0:	e51b0010 	ldr	r0, [fp, #-16]
   14ec4:	ebfffadf 	bl	13a48 <XAxiCdma_BdRingGetCurrBd>
   14ec8:	e1a03000 	mov	r3, r0
   14ecc:	e51b0010 	ldr	r0, [fp, #-16]
   14ed0:	e1a01003 	mov	r1, r3
   14ed4:	ebfffae8 	bl	13a7c <XAxiCdma_BdRingNext>
   14ed8:	e1a02000 	mov	r2, r0
   14edc:	e51b3010 	ldr	r3, [fp, #-16]
   14ee0:	e583204c 	str	r2, [r3, #76]	; 0x4c
   14ee4:	e51b3010 	ldr	r3, [fp, #-16]
   14ee8:	e5934000 	ldr	r4, [r3]
   14eec:	e51b3010 	ldr	r3, [fp, #-16]
   14ef0:	e5933000 	ldr	r3, [r3]
   14ef4:	e1a00003 	mov	r0, r3
   14ef8:	ebffeb88 	bl	fd20 <Xil_In32>
   14efc:	e1a03000 	mov	r3, r0
   14f00:	e3c33008 	bic	r3, r3, #8
   14f04:	e1a00004 	mov	r0, r4
   14f08:	e1a01003 	mov	r1, r3
   14f0c:	ebffeba5 	bl	fda8 <Xil_Out32>
   14f10:	e51b0010 	ldr	r0, [fp, #-16]
   14f14:	ebffff98 	bl	14d7c <XAxiCdma_IsSimpleMode>
   14f18:	e1a03000 	mov	r3, r0
   14f1c:	e3530000 	cmp	r3, #0
   14f20:	0a000001 	beq	14f2c <XAxiCdma_SwitchMode+0xc4>
   14f24:	e3a03000 	mov	r3, #0
   14f28:	ea000035 	b	15004 <XAxiCdma_SwitchMode+0x19c>
   14f2c:	e3a03001 	mov	r3, #1
   14f30:	ea000033 	b	15004 <XAxiCdma_SwitchMode+0x19c>
   14f34:	e51b3014 	ldr	r3, [fp, #-20]	; 0xffffffec
   14f38:	e3530001 	cmp	r3, #1
   14f3c:	1a00002f 	bne	15000 <XAxiCdma_SwitchMode+0x198>
   14f40:	e51b0010 	ldr	r0, [fp, #-16]
   14f44:	ebffff8c 	bl	14d7c <XAxiCdma_IsSimpleMode>
   14f48:	e1a03000 	mov	r3, r0
   14f4c:	e3530000 	cmp	r3, #0
   14f50:	1a000001 	bne	14f5c <XAxiCdma_SwitchMode+0xf4>
   14f54:	e3a03000 	mov	r3, #0
   14f58:	ea000029 	b	15004 <XAxiCdma_SwitchMode+0x19c>
   14f5c:	e51b3010 	ldr	r3, [fp, #-16]
   14f60:	e5933008 	ldr	r3, [r3, #8]
   14f64:	e3530000 	cmp	r3, #0
   14f68:	0a000001 	beq	14f74 <XAxiCdma_SwitchMode+0x10c>
   14f6c:	e3a03001 	mov	r3, #1
   14f70:	ea000023 	b	15004 <XAxiCdma_SwitchMode+0x19c>
   14f74:	e51b0010 	ldr	r0, [fp, #-16]
   14f78:	ebffff6d 	bl	14d34 <XAxiCdma_IsBusy>
   14f7c:	e1a03000 	mov	r3, r0
   14f80:	e3530000 	cmp	r3, #0
   14f84:	0a000001 	beq	14f90 <XAxiCdma_SwitchMode+0x128>
   14f88:	e3a03015 	mov	r3, #21
   14f8c:	ea00001c 	b	15004 <XAxiCdma_SwitchMode+0x19c>
   14f90:	e51b3010 	ldr	r3, [fp, #-16]
   14f94:	e5934000 	ldr	r4, [r3]
   14f98:	e51b3010 	ldr	r3, [fp, #-16]
   14f9c:	e5933000 	ldr	r3, [r3]
   14fa0:	e1a00003 	mov	r0, r3
   14fa4:	ebffeb5d 	bl	fd20 <Xil_In32>
   14fa8:	e1a03000 	mov	r3, r0
   14fac:	e3833008 	orr	r3, r3, #8
   14fb0:	e1a00004 	mov	r0, r4
   14fb4:	e1a01003 	mov	r1, r3
   14fb8:	ebffeb7a 	bl	fda8 <Xil_Out32>
   14fbc:	e51b0010 	ldr	r0, [fp, #-16]
   14fc0:	ebffff6d 	bl	14d7c <XAxiCdma_IsSimpleMode>
   14fc4:	e1a03000 	mov	r3, r0
   14fc8:	e3530000 	cmp	r3, #0
   14fcc:	1a000009 	bne	14ff8 <XAxiCdma_SwitchMode+0x190>
   14fd0:	e51b3010 	ldr	r3, [fp, #-16]
   14fd4:	e5933000 	ldr	r3, [r3]
   14fd8:	e2832008 	add	r2, r3, #8
   14fdc:	e51b3010 	ldr	r3, [fp, #-16]
   14fe0:	e593304c 	ldr	r3, [r3, #76]	; 0x4c
   14fe4:	e1a00002 	mov	r0, r2
   14fe8:	e1a01003 	mov	r1, r3
   14fec:	ebffeb6d 	bl	fda8 <Xil_Out32>
   14ff0:	e3a03000 	mov	r3, #0
   14ff4:	ea000002 	b	15004 <XAxiCdma_SwitchMode+0x19c>
   14ff8:	e3a03001 	mov	r3, #1
   14ffc:	ea000000 	b	15004 <XAxiCdma_SwitchMode+0x19c>
   15000:	e3a0300f 	mov	r3, #15
   15004:	e1a00003 	mov	r0, r3
   15008:	e24bd008 	sub	sp, fp, #8
   1500c:	e8bd8810 	pop	{r4, fp, pc}

00015010 <XAxiCdma_SimpleTransfer>:
   15010:	e92d4800 	push	{fp, lr}
   15014:	e28db004 	add	fp, sp, #4
   15018:	e24dd018 	sub	sp, sp, #24
   1501c:	e50b0010 	str	r0, [fp, #-16]
   15020:	e50b1014 	str	r1, [fp, #-20]	; 0xffffffec
   15024:	e50b2018 	str	r2, [fp, #-24]	; 0xffffffe8
   15028:	e50b301c 	str	r3, [fp, #-28]	; 0xffffffe4
   1502c:	e51b301c 	ldr	r3, [fp, #-28]	; 0xffffffe4
   15030:	e3530000 	cmp	r3, #0
   15034:	da000002 	ble	15044 <XAxiCdma_SimpleTransfer+0x34>
   15038:	e51b301c 	ldr	r3, [fp, #-28]	; 0xffffffe4
   1503c:	e3530502 	cmp	r3, #8388608	; 0x800000
   15040:	ba000001 	blt	1504c <XAxiCdma_SimpleTransfer+0x3c>
   15044:	e3a0300f 	mov	r3, #15
   15048:	ea000053 	b	1519c <XAxiCdma_SimpleTransfer+0x18c>
   1504c:	e51b3010 	ldr	r3, [fp, #-16]
   15050:	e5933014 	ldr	r3, [r3, #20]
   15054:	e2433001 	sub	r3, r3, #1
   15058:	e50b3008 	str	r3, [fp, #-8]
   1505c:	e51b2014 	ldr	r2, [fp, #-20]	; 0xffffffec
   15060:	e51b3008 	ldr	r3, [fp, #-8]
   15064:	e0033002 	and	r3, r3, r2
   15068:	e3530000 	cmp	r3, #0
   1506c:	1a000004 	bne	15084 <XAxiCdma_SimpleTransfer+0x74>
   15070:	e51b2018 	ldr	r2, [fp, #-24]	; 0xffffffe8
   15074:	e51b3008 	ldr	r3, [fp, #-8]
   15078:	e0033002 	and	r3, r3, r2
   1507c:	e3530000 	cmp	r3, #0
   15080:	0a000005 	beq	1509c <XAxiCdma_SimpleTransfer+0x8c>
   15084:	e51b3010 	ldr	r3, [fp, #-16]
   15088:	e593300c 	ldr	r3, [r3, #12]
   1508c:	e3530000 	cmp	r3, #0
   15090:	1a000001 	bne	1509c <XAxiCdma_SimpleTransfer+0x8c>
   15094:	e3a0300f 	mov	r3, #15
   15098:	ea00003f 	b	1519c <XAxiCdma_SimpleTransfer+0x18c>
   1509c:	e51b0010 	ldr	r0, [fp, #-16]
   150a0:	ebffff23 	bl	14d34 <XAxiCdma_IsBusy>
   150a4:	e1a03000 	mov	r3, r0
   150a8:	e3530000 	cmp	r3, #0
   150ac:	0a000001 	beq	150b8 <XAxiCdma_SimpleTransfer+0xa8>
   150b0:	e3a03001 	mov	r3, #1
   150b4:	ea000038 	b	1519c <XAxiCdma_SimpleTransfer+0x18c>
   150b8:	e51b3010 	ldr	r3, [fp, #-16]
   150bc:	e593301c 	ldr	r3, [r3, #28]
   150c0:	e3530000 	cmp	r3, #0
   150c4:	0a000001 	beq	150d0 <XAxiCdma_SimpleTransfer+0xc0>
   150c8:	e3a03001 	mov	r3, #1
   150cc:	ea000032 	b	1519c <XAxiCdma_SimpleTransfer+0x18c>
   150d0:	e51b0010 	ldr	r0, [fp, #-16]
   150d4:	ebffff28 	bl	14d7c <XAxiCdma_IsSimpleMode>
   150d8:	e1a03000 	mov	r3, r0
   150dc:	e3530000 	cmp	r3, #0
   150e0:	1a000007 	bne	15104 <XAxiCdma_SimpleTransfer+0xf4>
   150e4:	e51b0010 	ldr	r0, [fp, #-16]
   150e8:	e3a01002 	mov	r1, #2
   150ec:	ebffff5d 	bl	14e68 <XAxiCdma_SwitchMode>
   150f0:	e1a03000 	mov	r3, r0
   150f4:	e3530000 	cmp	r3, #0
   150f8:	0a000001 	beq	15104 <XAxiCdma_SimpleTransfer+0xf4>
   150fc:	e3a03001 	mov	r3, #1
   15100:	ea000025 	b	1519c <XAxiCdma_SimpleTransfer+0x18c>
   15104:	e59b3004 	ldr	r3, [fp, #4]
   15108:	e3530000 	cmp	r3, #0
   1510c:	1a000005 	bne	15128 <XAxiCdma_SimpleTransfer+0x118>
   15110:	e51b0010 	ldr	r0, [fp, #-16]
   15114:	eb0000e6 	bl	154b4 <XAxiCdma_IntrGetEnabled>
   15118:	e1a03000 	mov	r3, r0
   1511c:	e2033a05 	and	r3, r3, #20480	; 0x5000
   15120:	e3530000 	cmp	r3, #0
   15124:	0a000002 	beq	15134 <XAxiCdma_SimpleTransfer+0x124>
   15128:	e51b3010 	ldr	r3, [fp, #-16]
   1512c:	e3a02001 	mov	r2, #1
   15130:	e583201c 	str	r2, [r3, #28]
   15134:	e51b3010 	ldr	r3, [fp, #-16]
   15138:	e59b2004 	ldr	r2, [fp, #4]
   1513c:	e5832064 	str	r2, [r3, #100]	; 0x64
   15140:	e51b3010 	ldr	r3, [fp, #-16]
   15144:	e59b2008 	ldr	r2, [fp, #8]
   15148:	e5832068 	str	r2, [r3, #104]	; 0x68
   1514c:	e51b3010 	ldr	r3, [fp, #-16]
   15150:	e5933000 	ldr	r3, [r3]
   15154:	e2833018 	add	r3, r3, #24
   15158:	e1a00003 	mov	r0, r3
   1515c:	e51b1014 	ldr	r1, [fp, #-20]	; 0xffffffec
   15160:	ebffeb10 	bl	fda8 <Xil_Out32>
   15164:	e51b3010 	ldr	r3, [fp, #-16]
   15168:	e5933000 	ldr	r3, [r3]
   1516c:	e2833020 	add	r3, r3, #32
   15170:	e1a00003 	mov	r0, r3
   15174:	e51b1018 	ldr	r1, [fp, #-24]	; 0xffffffe8
   15178:	ebffeb0a 	bl	fda8 <Xil_Out32>
   1517c:	e51b3010 	ldr	r3, [fp, #-16]
   15180:	e5933000 	ldr	r3, [r3]
   15184:	e2832028 	add	r2, r3, #40	; 0x28
   15188:	e51b301c 	ldr	r3, [fp, #-28]	; 0xffffffe4
   1518c:	e1a00002 	mov	r0, r2
   15190:	e1a01003 	mov	r1, r3
   15194:	ebffeb03 	bl	fda8 <Xil_Out32>
   15198:	e3a03000 	mov	r3, #0
   1519c:	e1a00003 	mov	r0, r3
   151a0:	e24bd004 	sub	sp, fp, #4
   151a4:	e8bd8800 	pop	{fp, pc}

000151a8 <XAxiCdma_SetCoalesce>:
   151a8:	e92d4800 	push	{fp, lr}
   151ac:	e28db004 	add	fp, sp, #4
   151b0:	e24dd018 	sub	sp, sp, #24
   151b4:	e50b0010 	str	r0, [fp, #-16]
   151b8:	e50b1014 	str	r1, [fp, #-20]	; 0xffffffec
   151bc:	e50b2018 	str	r2, [fp, #-24]	; 0xffffffe8
   151c0:	e3a03001 	mov	r3, #1
   151c4:	e50b300c 	str	r3, [fp, #-12]
   151c8:	e51b3010 	ldr	r3, [fp, #-16]
   151cc:	e5933004 	ldr	r3, [r3, #4]
   151d0:	e3530000 	cmp	r3, #0
   151d4:	1a000001 	bne	151e0 <XAxiCdma_SetCoalesce+0x38>
   151d8:	e3a03001 	mov	r3, #1
   151dc:	ea000030 	b	152a4 <XAxiCdma_SetCoalesce+0xfc>
   151e0:	e51b3010 	ldr	r3, [fp, #-16]
   151e4:	e5933000 	ldr	r3, [r3]
   151e8:	e1a00003 	mov	r0, r3
   151ec:	ebffeacb 	bl	fd20 <Xil_In32>
   151f0:	e50b0008 	str	r0, [fp, #-8]
   151f4:	e51b3014 	ldr	r3, [fp, #-20]	; 0xffffffec
   151f8:	e3730001 	cmn	r3, #1
   151fc:	0a00000f 	beq	15240 <XAxiCdma_SetCoalesce+0x98>
   15200:	e3a03000 	mov	r3, #0
   15204:	e50b300c 	str	r3, [fp, #-12]
   15208:	e51b3014 	ldr	r3, [fp, #-20]	; 0xffffffec
   1520c:	e3530000 	cmp	r3, #0
   15210:	0a000002 	beq	15220 <XAxiCdma_SetCoalesce+0x78>
   15214:	e51b3014 	ldr	r3, [fp, #-20]	; 0xffffffec
   15218:	e35300ff 	cmp	r3, #255	; 0xff
   1521c:	9a000001 	bls	15228 <XAxiCdma_SetCoalesce+0x80>
   15220:	e3a0300f 	mov	r3, #15
   15224:	ea00001e 	b	152a4 <XAxiCdma_SetCoalesce+0xfc>
   15228:	e51b3008 	ldr	r3, [fp, #-8]
   1522c:	e3c328ff 	bic	r2, r3, #16711680	; 0xff0000
   15230:	e51b3014 	ldr	r3, [fp, #-20]	; 0xffffffec
   15234:	e1a03803 	lsl	r3, r3, #16
   15238:	e1823003 	orr	r3, r2, r3
   1523c:	e50b3008 	str	r3, [fp, #-8]
   15240:	e51b3018 	ldr	r3, [fp, #-24]	; 0xffffffe8
   15244:	e3730001 	cmn	r3, #1
   15248:	0a00000c 	beq	15280 <XAxiCdma_SetCoalesce+0xd8>
   1524c:	e3a03000 	mov	r3, #0
   15250:	e50b300c 	str	r3, [fp, #-12]
   15254:	e51b3018 	ldr	r3, [fp, #-24]	; 0xffffffe8
   15258:	e35300ff 	cmp	r3, #255	; 0xff
   1525c:	9a000001 	bls	15268 <XAxiCdma_SetCoalesce+0xc0>
   15260:	e3a0300f 	mov	r3, #15
   15264:	ea00000e 	b	152a4 <XAxiCdma_SetCoalesce+0xfc>
   15268:	e51b3008 	ldr	r3, [fp, #-8]
   1526c:	e3c324ff 	bic	r2, r3, #-16777216	; 0xff000000
   15270:	e51b3018 	ldr	r3, [fp, #-24]	; 0xffffffe8
   15274:	e1a03c03 	lsl	r3, r3, #24
   15278:	e1823003 	orr	r3, r2, r3
   1527c:	e50b3008 	str	r3, [fp, #-8]
   15280:	e51b300c 	ldr	r3, [fp, #-12]
   15284:	e3530000 	cmp	r3, #0
   15288:	1a000004 	bne	152a0 <XAxiCdma_SetCoalesce+0xf8>
   1528c:	e51b3010 	ldr	r3, [fp, #-16]
   15290:	e5933000 	ldr	r3, [r3]
   15294:	e1a00003 	mov	r0, r3
   15298:	e51b1008 	ldr	r1, [fp, #-8]
   1529c:	ebffeac1 	bl	fda8 <Xil_Out32>
   152a0:	e3a03000 	mov	r3, #0
   152a4:	e1a00003 	mov	r0, r3
   152a8:	e24bd004 	sub	sp, fp, #4
   152ac:	e8bd8800 	pop	{fp, pc}

000152b0 <XAxiCdma_GetCoalesce>:
   152b0:	e92d4800 	push	{fp, lr}
   152b4:	e28db004 	add	fp, sp, #4
   152b8:	e24dd018 	sub	sp, sp, #24
   152bc:	e50b0010 	str	r0, [fp, #-16]
   152c0:	e50b1014 	str	r1, [fp, #-20]	; 0xffffffec
   152c4:	e50b2018 	str	r2, [fp, #-24]	; 0xffffffe8
   152c8:	e51b3010 	ldr	r3, [fp, #-16]
   152cc:	e5933004 	ldr	r3, [r3, #4]
   152d0:	e3530000 	cmp	r3, #0
   152d4:	1a000006 	bne	152f4 <XAxiCdma_GetCoalesce+0x44>
   152d8:	e51b3014 	ldr	r3, [fp, #-20]	; 0xffffffec
   152dc:	e3a02000 	mov	r2, #0
   152e0:	e5832000 	str	r2, [r3]
   152e4:	e51b3018 	ldr	r3, [fp, #-24]	; 0xffffffe8
   152e8:	e3a02000 	mov	r2, #0
   152ec:	e5832000 	str	r2, [r3]
   152f0:	ea00000e 	b	15330 <XAxiCdma_GetCoalesce+0x80>
   152f4:	e51b3010 	ldr	r3, [fp, #-16]
   152f8:	e5933000 	ldr	r3, [r3]
   152fc:	e1a00003 	mov	r0, r3
   15300:	ebffea86 	bl	fd20 <Xil_In32>
   15304:	e50b0008 	str	r0, [fp, #-8]
   15308:	e51b3008 	ldr	r3, [fp, #-8]
   1530c:	e20338ff 	and	r3, r3, #16711680	; 0xff0000
   15310:	e1a02823 	lsr	r2, r3, #16
   15314:	e51b3014 	ldr	r3, [fp, #-20]	; 0xffffffec
   15318:	e5832000 	str	r2, [r3]
   1531c:	e51b3008 	ldr	r3, [fp, #-8]
   15320:	e1a02c23 	lsr	r2, r3, #24
   15324:	e51b3018 	ldr	r3, [fp, #-24]	; 0xffffffe8
   15328:	e5832000 	str	r2, [r3]
   1532c:	e1a00000 	nop			; (mov r0, r0)
   15330:	e24bd004 	sub	sp, fp, #4
   15334:	e8bd8800 	pop	{fp, pc}

00015338 <XAxiCdma_DumpRegisters>:
   15338:	e92d4800 	push	{fp, lr}
   1533c:	e28db004 	add	fp, sp, #4
   15340:	e24dd010 	sub	sp, sp, #16
   15344:	e50b0010 	str	r0, [fp, #-16]
   15348:	e51b3010 	ldr	r3, [fp, #-16]
   1534c:	e5933000 	ldr	r3, [r3]
   15350:	e50b3008 	str	r3, [fp, #-8]
   15354:	e30b0d38 	movw	r0, #48440	; 0xbd38
   15358:	e3400001 	movt	r0, #1
   1535c:	ebffcb8f 	bl	81a0 <uart_puts>
   15360:	e51b0008 	ldr	r0, [fp, #-8]
   15364:	ebffea6d 	bl	fd20 <Xil_In32>
   15368:	e1a03000 	mov	r3, r0
   1536c:	e30b0d4c 	movw	r0, #48460	; 0xbd4c
   15370:	e3400001 	movt	r0, #1
   15374:	e1a01003 	mov	r1, r3
   15378:	ebffc912 	bl	77c8 <printf>
   1537c:	e51b3008 	ldr	r3, [fp, #-8]
   15380:	e2833004 	add	r3, r3, #4
   15384:	e1a00003 	mov	r0, r3
   15388:	ebffea64 	bl	fd20 <Xil_In32>
   1538c:	e1a03000 	mov	r3, r0
   15390:	e30b0d64 	movw	r0, #48484	; 0xbd64
   15394:	e3400001 	movt	r0, #1
   15398:	e1a01003 	mov	r1, r3
   1539c:	ebffc909 	bl	77c8 <printf>
   153a0:	e51b3008 	ldr	r3, [fp, #-8]
   153a4:	e2833008 	add	r3, r3, #8
   153a8:	e1a00003 	mov	r0, r3
   153ac:	ebffea5b 	bl	fd20 <Xil_In32>
   153b0:	e1a03000 	mov	r3, r0
   153b4:	e30b0d7c 	movw	r0, #48508	; 0xbd7c
   153b8:	e3400001 	movt	r0, #1
   153bc:	e1a01003 	mov	r1, r3
   153c0:	ebffc900 	bl	77c8 <printf>
   153c4:	e51b3008 	ldr	r3, [fp, #-8]
   153c8:	e2833010 	add	r3, r3, #16
   153cc:	e1a00003 	mov	r0, r3
   153d0:	ebffea52 	bl	fd20 <Xil_In32>
   153d4:	e1a03000 	mov	r3, r0
   153d8:	e30b0d98 	movw	r0, #48536	; 0xbd98
   153dc:	e3400001 	movt	r0, #1
   153e0:	e1a01003 	mov	r1, r3
   153e4:	ebffc8f7 	bl	77c8 <printf>
   153e8:	e51b3008 	ldr	r3, [fp, #-8]
   153ec:	e2833018 	add	r3, r3, #24
   153f0:	e1a00003 	mov	r0, r3
   153f4:	ebffea49 	bl	fd20 <Xil_In32>
   153f8:	e1a03000 	mov	r3, r0
   153fc:	e30b0db0 	movw	r0, #48560	; 0xbdb0
   15400:	e3400001 	movt	r0, #1
   15404:	e1a01003 	mov	r1, r3
   15408:	ebffc8ee 	bl	77c8 <printf>
   1540c:	e51b3008 	ldr	r3, [fp, #-8]
   15410:	e2833020 	add	r3, r3, #32
   15414:	e1a00003 	mov	r0, r3
   15418:	ebffea40 	bl	fd20 <Xil_In32>
   1541c:	e1a03000 	mov	r3, r0
   15420:	e30b0dcc 	movw	r0, #48588	; 0xbdcc
   15424:	e3400001 	movt	r0, #1
   15428:	e1a01003 	mov	r1, r3
   1542c:	ebffc8e5 	bl	77c8 <printf>
   15430:	e51b3008 	ldr	r3, [fp, #-8]
   15434:	e2833028 	add	r3, r3, #40	; 0x28
   15438:	e1a00003 	mov	r0, r3
   1543c:	ebffea37 	bl	fd20 <Xil_In32>
   15440:	e1a03000 	mov	r3, r0
   15444:	e30b0dec 	movw	r0, #48620	; 0xbdec
   15448:	e3400001 	movt	r0, #1
   1544c:	e1a01003 	mov	r1, r3
   15450:	ebffc8dc 	bl	77c8 <printf>
   15454:	e1a00000 	nop			; (mov r0, r0)
   15458:	e24bd004 	sub	sp, fp, #4
   1545c:	e8bd8800 	pop	{fp, pc}

00015460 <XAxiCdma_IntrEnable>:
   15460:	e92d4800 	push	{fp, lr}
   15464:	e28db004 	add	fp, sp, #4
   15468:	e24dd010 	sub	sp, sp, #16
   1546c:	e50b0010 	str	r0, [fp, #-16]
   15470:	e50b1014 	str	r1, [fp, #-20]	; 0xffffffec
   15474:	e51b3010 	ldr	r3, [fp, #-16]
   15478:	e5933000 	ldr	r3, [r3]
   1547c:	e1a00003 	mov	r0, r3
   15480:	ebffea26 	bl	fd20 <Xil_In32>
   15484:	e50b0008 	str	r0, [fp, #-8]
   15488:	e51b3010 	ldr	r3, [fp, #-16]
   1548c:	e5931000 	ldr	r1, [r3]
   15490:	e51b3014 	ldr	r3, [fp, #-20]	; 0xffffffec
   15494:	e2032a07 	and	r2, r3, #28672	; 0x7000
   15498:	e51b3008 	ldr	r3, [fp, #-8]
   1549c:	e1823003 	orr	r3, r2, r3
   154a0:	e1a00001 	mov	r0, r1
   154a4:	e1a01003 	mov	r1, r3
   154a8:	ebffea3e 	bl	fda8 <Xil_Out32>
   154ac:	e24bd004 	sub	sp, fp, #4
   154b0:	e8bd8800 	pop	{fp, pc}

000154b4 <XAxiCdma_IntrGetEnabled>:
   154b4:	e92d4800 	push	{fp, lr}
   154b8:	e28db004 	add	fp, sp, #4
   154bc:	e24dd008 	sub	sp, sp, #8
   154c0:	e50b0008 	str	r0, [fp, #-8]
   154c4:	e51b3008 	ldr	r3, [fp, #-8]
   154c8:	e5933000 	ldr	r3, [r3]
   154cc:	e1a00003 	mov	r0, r3
   154d0:	ebffea12 	bl	fd20 <Xil_In32>
   154d4:	e1a03000 	mov	r3, r0
   154d8:	e2033a07 	and	r3, r3, #28672	; 0x7000
   154dc:	e1a00003 	mov	r0, r3
   154e0:	e24bd004 	sub	sp, fp, #4
   154e4:	e8bd8800 	pop	{fp, pc}

000154e8 <XAxiCdma_IntrDisable>:
   154e8:	e92d4800 	push	{fp, lr}
   154ec:	e28db004 	add	fp, sp, #4
   154f0:	e24dd010 	sub	sp, sp, #16
   154f4:	e50b0010 	str	r0, [fp, #-16]
   154f8:	e50b1014 	str	r1, [fp, #-20]	; 0xffffffec
   154fc:	e51b3010 	ldr	r3, [fp, #-16]
   15500:	e5933000 	ldr	r3, [r3]
   15504:	e1a00003 	mov	r0, r3
   15508:	ebffea04 	bl	fd20 <Xil_In32>
   1550c:	e50b0008 	str	r0, [fp, #-8]
   15510:	e51b3010 	ldr	r3, [fp, #-16]
   15514:	e5931000 	ldr	r1, [r3]
   15518:	e51b3014 	ldr	r3, [fp, #-20]	; 0xffffffec
   1551c:	e2033a07 	and	r3, r3, #28672	; 0x7000
   15520:	e1e02003 	mvn	r2, r3
   15524:	e51b3008 	ldr	r3, [fp, #-8]
   15528:	e0033002 	and	r3, r3, r2
   1552c:	e1a00001 	mov	r0, r1
   15530:	e1a01003 	mov	r1, r3
   15534:	ebffea1b 	bl	fda8 <Xil_Out32>
   15538:	e24bd004 	sub	sp, fp, #4
   1553c:	e8bd8800 	pop	{fp, pc}

00015540 <XAxiCdma_IntrHandler>:
   15540:	e92d4800 	push	{fp, lr}
   15544:	e28db004 	add	fp, sp, #4
   15548:	e24dd030 	sub	sp, sp, #48	; 0x30
   1554c:	e50b0030 	str	r0, [fp, #-48]	; 0xffffffd0
   15550:	e3a03000 	mov	r3, #0
   15554:	e50b300c 	str	r3, [fp, #-12]
   15558:	e51b3030 	ldr	r3, [fp, #-48]	; 0xffffffd0
   1555c:	e50b3010 	str	r3, [fp, #-16]
   15560:	e51b3010 	ldr	r3, [fp, #-16]
   15564:	e5933000 	ldr	r3, [r3]
   15568:	e2833004 	add	r3, r3, #4
   1556c:	e1a00003 	mov	r0, r3
   15570:	ebffe9ea 	bl	fd20 <Xil_In32>
   15574:	e50b0014 	str	r0, [fp, #-20]	; 0xffffffec
   15578:	e51b3014 	ldr	r3, [fp, #-20]	; 0xffffffec
   1557c:	e2033a07 	and	r3, r3, #28672	; 0x7000
   15580:	e50b3018 	str	r3, [fp, #-24]	; 0xffffffe8
   15584:	e51b3018 	ldr	r3, [fp, #-24]	; 0xffffffe8
   15588:	e3530000 	cmp	r3, #0
   1558c:	1a000000 	bne	15594 <XAxiCdma_IntrHandler+0x54>
   15590:	ea00007e 	b	15790 <XAxiCdma_IntrHandler+0x250>
   15594:	e51b3010 	ldr	r3, [fp, #-16]
   15598:	e5933000 	ldr	r3, [r3]
   1559c:	e2833004 	add	r3, r3, #4
   155a0:	e1a00003 	mov	r0, r3
   155a4:	e51b1018 	ldr	r1, [fp, #-24]	; 0xffffffe8
   155a8:	ebffe9fe 	bl	fda8 <Xil_Out32>
   155ac:	e51b3010 	ldr	r3, [fp, #-16]
   155b0:	e593301c 	ldr	r3, [r3, #28]
   155b4:	e3530000 	cmp	r3, #0
   155b8:	0a000018 	beq	15620 <XAxiCdma_IntrHandler+0xe0>
   155bc:	e51b3010 	ldr	r3, [fp, #-16]
   155c0:	e5933064 	ldr	r3, [r3, #100]	; 0x64
   155c4:	e3530000 	cmp	r3, #0
   155c8:	0a00000a 	beq	155f8 <XAxiCdma_IntrHandler+0xb8>
   155cc:	e51b3010 	ldr	r3, [fp, #-16]
   155d0:	e5933064 	ldr	r3, [r3, #100]	; 0x64
   155d4:	e51b2010 	ldr	r2, [fp, #-16]
   155d8:	e5922068 	ldr	r2, [r2, #104]	; 0x68
   155dc:	e1a00002 	mov	r0, r2
   155e0:	e51b1018 	ldr	r1, [fp, #-24]	; 0xffffffe8
   155e4:	e3a02000 	mov	r2, #0
   155e8:	e12fff33 	blx	r3
   155ec:	e51b3010 	ldr	r3, [fp, #-16]
   155f0:	e3a02000 	mov	r2, #0
   155f4:	e5832064 	str	r2, [r3, #100]	; 0x64
   155f8:	e51b3010 	ldr	r3, [fp, #-16]
   155fc:	e3a02000 	mov	r2, #0
   15600:	e583201c 	str	r2, [r3, #28]
   15604:	e51b3010 	ldr	r3, [fp, #-16]
   15608:	e5933020 	ldr	r3, [r3, #32]
   1560c:	e3530000 	cmp	r3, #0
   15610:	0a00003a 	beq	15700 <XAxiCdma_IntrHandler+0x1c0>
   15614:	e51b0010 	ldr	r0, [fp, #-16]
   15618:	ebfffce6 	bl	149b8 <XAxiCdma_BdRingStartTransfer>
   1561c:	ea000037 	b	15700 <XAxiCdma_IntrHandler+0x1c0>
   15620:	e51b3010 	ldr	r3, [fp, #-16]
   15624:	e593206c 	ldr	r2, [r3, #108]	; 0x6c
   15628:	e51b3010 	ldr	r3, [fp, #-16]
   1562c:	e5933070 	ldr	r3, [r3, #112]	; 0x70
   15630:	e1520003 	cmp	r2, r3
   15634:	0a000031 	beq	15700 <XAxiCdma_IntrHandler+0x1c0>
   15638:	e51b3010 	ldr	r3, [fp, #-16]
   1563c:	e593306c 	ldr	r3, [r3, #108]	; 0x6c
   15640:	e51b1010 	ldr	r1, [fp, #-16]
   15644:	e1a02003 	mov	r2, r3
   15648:	e1a03102 	lsl	r3, r2, #2
   1564c:	e1a02003 	mov	r2, r3
   15650:	e1a03102 	lsl	r3, r2, #2
   15654:	e0623003 	rsb	r3, r2, r3
   15658:	e2833070 	add	r3, r3, #112	; 0x70
   1565c:	e0812003 	add	r2, r1, r3
   15660:	e24b3028 	sub	r3, fp, #40	; 0x28
   15664:	e2822004 	add	r2, r2, #4
   15668:	e8920007 	ldm	r2, {r0, r1, r2}
   1566c:	e8830007 	stm	r3, {r0, r1, r2}
   15670:	e51b3020 	ldr	r3, [fp, #-32]	; 0xffffffe0
   15674:	e50b301c 	str	r3, [fp, #-28]	; 0xffffffe4
   15678:	e51b3028 	ldr	r3, [fp, #-40]	; 0xffffffd8
   1567c:	e51b1024 	ldr	r1, [fp, #-36]	; 0xffffffdc
   15680:	e24b201c 	sub	r2, fp, #28
   15684:	e1a00001 	mov	r0, r1
   15688:	e51b1018 	ldr	r1, [fp, #-24]	; 0xffffffe8
   1568c:	e12fff33 	blx	r3
   15690:	e51b3010 	ldr	r3, [fp, #-16]
   15694:	e593306c 	ldr	r3, [r3, #108]	; 0x6c
   15698:	e51b101c 	ldr	r1, [fp, #-28]	; 0xffffffe4
   1569c:	e51b0010 	ldr	r0, [fp, #-16]
   156a0:	e1a02003 	mov	r2, r3
   156a4:	e1a03102 	lsl	r3, r2, #2
   156a8:	e1a02003 	mov	r2, r3
   156ac:	e1a03102 	lsl	r3, r2, #2
   156b0:	e0623003 	rsb	r3, r2, r3
   156b4:	e2833078 	add	r3, r3, #120	; 0x78
   156b8:	e0803003 	add	r3, r0, r3
   156bc:	e5831004 	str	r1, [r3, #4]
   156c0:	e51b301c 	ldr	r3, [fp, #-28]	; 0xffffffe4
   156c4:	e3530000 	cmp	r3, #0
   156c8:	1a00000c 	bne	15700 <XAxiCdma_IntrHandler+0x1c0>
   156cc:	e51b3010 	ldr	r3, [fp, #-16]
   156d0:	e593306c 	ldr	r3, [r3, #108]	; 0x6c
   156d4:	e2833001 	add	r3, r3, #1
   156d8:	e50b301c 	str	r3, [fp, #-28]	; 0xffffffe4
   156dc:	e51b301c 	ldr	r3, [fp, #-28]	; 0xffffffe4
   156e0:	e3530014 	cmp	r3, #20
   156e4:	1a000001 	bne	156f0 <XAxiCdma_IntrHandler+0x1b0>
   156e8:	e3a03000 	mov	r3, #0
   156ec:	e50b301c 	str	r3, [fp, #-28]	; 0xffffffe4
   156f0:	e51b201c 	ldr	r2, [fp, #-28]	; 0xffffffe4
   156f4:	e51b3010 	ldr	r3, [fp, #-16]
   156f8:	e583206c 	str	r2, [r3, #108]	; 0x6c
   156fc:	eaffffff 	b	15700 <XAxiCdma_IntrHandler+0x1c0>
   15700:	e51b3014 	ldr	r3, [fp, #-20]	; 0xffffffec
   15704:	e2033e77 	and	r3, r3, #1904	; 0x770
   15708:	e50b300c 	str	r3, [fp, #-12]
   1570c:	e51b3018 	ldr	r3, [fp, #-24]	; 0xffffffe8
   15710:	e2033901 	and	r3, r3, #16384	; 0x4000
   15714:	e3530000 	cmp	r3, #0
   15718:	0a00001b 	beq	1578c <XAxiCdma_IntrHandler+0x24c>
   1571c:	e51b300c 	ldr	r3, [fp, #-12]
   15720:	e3530000 	cmp	r3, #0
   15724:	0a000018 	beq	1578c <XAxiCdma_IntrHandler+0x24c>
   15728:	e3a03005 	mov	r3, #5
   1572c:	e50b3008 	str	r3, [fp, #-8]
   15730:	e51b0010 	ldr	r0, [fp, #-16]
   15734:	ebfffce0 	bl	14abc <XAxiCdma_Reset>
   15738:	ea000008 	b	15760 <XAxiCdma_IntrHandler+0x220>
   1573c:	e51b0010 	ldr	r0, [fp, #-16]
   15740:	ebfffcfb 	bl	14b34 <XAxiCdma_ResetIsDone>
   15744:	e1a03000 	mov	r3, r0
   15748:	e3530000 	cmp	r3, #0
   1574c:	0a000000 	beq	15754 <XAxiCdma_IntrHandler+0x214>
   15750:	ea000005 	b	1576c <XAxiCdma_IntrHandler+0x22c>
   15754:	e51b3008 	ldr	r3, [fp, #-8]
   15758:	e2433001 	sub	r3, r3, #1
   1575c:	e50b3008 	str	r3, [fp, #-8]
   15760:	e51b3008 	ldr	r3, [fp, #-8]
   15764:	e3530000 	cmp	r3, #0
   15768:	1afffff3 	bne	1573c <XAxiCdma_IntrHandler+0x1fc>
   1576c:	e51b3008 	ldr	r3, [fp, #-8]
   15770:	e3530000 	cmp	r3, #0
   15774:	1a000003 	bne	15788 <XAxiCdma_IntrHandler+0x248>
   15778:	e51b3010 	ldr	r3, [fp, #-16]
   1577c:	e3a02000 	mov	r2, #0
   15780:	e5832004 	str	r2, [r3, #4]
   15784:	ea000001 	b	15790 <XAxiCdma_IntrHandler+0x250>
   15788:	ea000000 	b	15790 <XAxiCdma_IntrHandler+0x250>
   1578c:	e1a00000 	nop			; (mov r0, r0)
   15790:	e24bd004 	sub	sp, fp, #4
   15794:	e8bd8800 	pop	{fp, pc}

00015798 <XAxiCdma_BdClear>:
   15798:	e92d4800 	push	{fp, lr}
   1579c:	e28db004 	add	fp, sp, #4
   157a0:	e24dd008 	sub	sp, sp, #8
   157a4:	e50b0008 	str	r0, [fp, #-8]
   157a8:	e51b3008 	ldr	r3, [fp, #-8]
   157ac:	e2833008 	add	r3, r3, #8
   157b0:	e1a00003 	mov	r0, r3
   157b4:	e3a01000 	mov	r1, #0
   157b8:	e3a02018 	mov	r2, #24
   157bc:	ebffdc1f 	bl	c840 <memset>
   157c0:	e1a00000 	nop			; (mov r0, r0)
   157c4:	e24bd004 	sub	sp, fp, #4
   157c8:	e8bd8800 	pop	{fp, pc}

000157cc <XAxiCdma_BdClone>:
   157cc:	e92d4800 	push	{fp, lr}
   157d0:	e28db004 	add	fp, sp, #4
   157d4:	e24dd008 	sub	sp, sp, #8
   157d8:	e50b0008 	str	r0, [fp, #-8]
   157dc:	e50b100c 	str	r1, [fp, #-12]
   157e0:	e51b3008 	ldr	r3, [fp, #-8]
   157e4:	e2833008 	add	r3, r3, #8
   157e8:	e1a02003 	mov	r2, r3
   157ec:	e51b300c 	ldr	r3, [fp, #-12]
   157f0:	e2833008 	add	r3, r3, #8
   157f4:	e1a00002 	mov	r0, r2
   157f8:	e1a01003 	mov	r1, r3
   157fc:	e3a02018 	mov	r2, #24
   15800:	ebffcc44 	bl	8918 <memcpy_cus>
   15804:	e1a00000 	nop			; (mov r0, r0)
   15808:	e24bd004 	sub	sp, fp, #4
   1580c:	e8bd8800 	pop	{fp, pc}

00015810 <XAxiCdma_BdGetNextPtr>:
   15810:	e52db004 	push	{fp}		; (str fp, [sp, #-4]!)
   15814:	e28db000 	add	fp, sp, #0
   15818:	e24dd00c 	sub	sp, sp, #12
   1581c:	e50b0008 	str	r0, [fp, #-8]
   15820:	e51b3008 	ldr	r3, [fp, #-8]
   15824:	e5933000 	ldr	r3, [r3]
   15828:	e1a00003 	mov	r0, r3
   1582c:	e24bd000 	sub	sp, fp, #0
   15830:	e49db004 	pop	{fp}		; (ldr fp, [sp], #4)
   15834:	e12fff1e 	bx	lr

00015838 <XAxiCdma_BdSetNextPtr>:
   15838:	e52db004 	push	{fp}		; (str fp, [sp, #-4]!)
   1583c:	e28db000 	add	fp, sp, #0
   15840:	e24dd00c 	sub	sp, sp, #12
   15844:	e50b0008 	str	r0, [fp, #-8]
   15848:	e50b100c 	str	r1, [fp, #-12]
   1584c:	e51b3008 	ldr	r3, [fp, #-8]
   15850:	e51b200c 	ldr	r2, [fp, #-12]
   15854:	e5832000 	str	r2, [r3]
   15858:	e1a00000 	nop			; (mov r0, r0)
   1585c:	e24bd000 	sub	sp, fp, #0
   15860:	e49db004 	pop	{fp}		; (ldr fp, [sp], #4)
   15864:	e12fff1e 	bx	lr

00015868 <XAxiCdma_BdGetSts>:
   15868:	e52db004 	push	{fp}		; (str fp, [sp, #-4]!)
   1586c:	e28db000 	add	fp, sp, #0
   15870:	e24dd00c 	sub	sp, sp, #12
   15874:	e50b0008 	str	r0, [fp, #-8]
   15878:	e51b3008 	ldr	r3, [fp, #-8]
   1587c:	e283301c 	add	r3, r3, #28
   15880:	e5933000 	ldr	r3, [r3]
   15884:	e203320f 	and	r3, r3, #-268435456	; 0xf0000000
   15888:	e1a00003 	mov	r0, r3
   1588c:	e24bd000 	sub	sp, fp, #0
   15890:	e49db004 	pop	{fp}		; (ldr fp, [sp], #4)
   15894:	e12fff1e 	bx	lr

00015898 <XAxiCdma_BdClearSts>:
   15898:	e52db004 	push	{fp}		; (str fp, [sp, #-4]!)
   1589c:	e28db000 	add	fp, sp, #0
   158a0:	e24dd00c 	sub	sp, sp, #12
   158a4:	e50b0008 	str	r0, [fp, #-8]
   158a8:	e51b3008 	ldr	r3, [fp, #-8]
   158ac:	e283301c 	add	r3, r3, #28
   158b0:	e1a02003 	mov	r2, r3
   158b4:	e3a03000 	mov	r3, #0
   158b8:	e5823000 	str	r3, [r2]
   158bc:	e1a00000 	nop			; (mov r0, r0)
   158c0:	e24bd000 	sub	sp, fp, #0
   158c4:	e49db004 	pop	{fp}		; (ldr fp, [sp], #4)
   158c8:	e12fff1e 	bx	lr

000158cc <XAxiCdma_BdSetSrcBufAddr>:
   158cc:	e52db004 	push	{fp}		; (str fp, [sp, #-4]!)
   158d0:	e28db000 	add	fp, sp, #0
   158d4:	e24dd00c 	sub	sp, sp, #12
   158d8:	e50b0008 	str	r0, [fp, #-8]
   158dc:	e50b100c 	str	r1, [fp, #-12]
   158e0:	e51b3008 	ldr	r3, [fp, #-8]
   158e4:	e2833028 	add	r3, r3, #40	; 0x28
   158e8:	e5933000 	ldr	r3, [r3]
   158ec:	e3530000 	cmp	r3, #0
   158f0:	1a000009 	bne	1591c <XAxiCdma_BdSetSrcBufAddr+0x50>
   158f4:	e51b3008 	ldr	r3, [fp, #-8]
   158f8:	e283302c 	add	r3, r3, #44	; 0x2c
   158fc:	e5933000 	ldr	r3, [r3]
   15900:	e2432001 	sub	r2, r3, #1
   15904:	e51b300c 	ldr	r3, [fp, #-12]
   15908:	e0033002 	and	r3, r3, r2
   1590c:	e3530000 	cmp	r3, #0
   15910:	0a000001 	beq	1591c <XAxiCdma_BdSetSrcBufAddr+0x50>
   15914:	e3a0300f 	mov	r3, #15
   15918:	ea000005 	b	15934 <XAxiCdma_BdSetSrcBufAddr+0x68>
   1591c:	e51b3008 	ldr	r3, [fp, #-8]
   15920:	e2833008 	add	r3, r3, #8
   15924:	e1a02003 	mov	r2, r3
   15928:	e51b300c 	ldr	r3, [fp, #-12]
   1592c:	e5823000 	str	r3, [r2]
   15930:	e3a03000 	mov	r3, #0
   15934:	e1a00003 	mov	r0, r3
   15938:	e24bd000 	sub	sp, fp, #0
   1593c:	e49db004 	pop	{fp}		; (ldr fp, [sp], #4)
   15940:	e12fff1e 	bx	lr

00015944 <XAxiCdma_BdGetSrcBufAddr>:
   15944:	e52db004 	push	{fp}		; (str fp, [sp, #-4]!)
   15948:	e28db000 	add	fp, sp, #0
   1594c:	e24dd00c 	sub	sp, sp, #12
   15950:	e50b0008 	str	r0, [fp, #-8]
   15954:	e51b3008 	ldr	r3, [fp, #-8]
   15958:	e2833008 	add	r3, r3, #8
   1595c:	e5933000 	ldr	r3, [r3]
   15960:	e1a00003 	mov	r0, r3
   15964:	e24bd000 	sub	sp, fp, #0
   15968:	e49db004 	pop	{fp}		; (ldr fp, [sp], #4)
   1596c:	e12fff1e 	bx	lr

00015970 <XAxiCdma_BdSetDstBufAddr>:
   15970:	e52db004 	push	{fp}		; (str fp, [sp, #-4]!)
   15974:	e28db000 	add	fp, sp, #0
   15978:	e24dd00c 	sub	sp, sp, #12
   1597c:	e50b0008 	str	r0, [fp, #-8]
   15980:	e50b100c 	str	r1, [fp, #-12]
   15984:	e51b3008 	ldr	r3, [fp, #-8]
   15988:	e2833028 	add	r3, r3, #40	; 0x28
   1598c:	e5933000 	ldr	r3, [r3]
   15990:	e3530000 	cmp	r3, #0
   15994:	1a000009 	bne	159c0 <XAxiCdma_BdSetDstBufAddr+0x50>
   15998:	e51b3008 	ldr	r3, [fp, #-8]
   1599c:	e283302c 	add	r3, r3, #44	; 0x2c
   159a0:	e5933000 	ldr	r3, [r3]
   159a4:	e2432001 	sub	r2, r3, #1
   159a8:	e51b300c 	ldr	r3, [fp, #-12]
   159ac:	e0033002 	and	r3, r3, r2
   159b0:	e3530000 	cmp	r3, #0
   159b4:	0a000001 	beq	159c0 <XAxiCdma_BdSetDstBufAddr+0x50>
   159b8:	e3a0300f 	mov	r3, #15
   159bc:	ea000005 	b	159d8 <XAxiCdma_BdSetDstBufAddr+0x68>
   159c0:	e51b3008 	ldr	r3, [fp, #-8]
   159c4:	e2833010 	add	r3, r3, #16
   159c8:	e1a02003 	mov	r2, r3
   159cc:	e51b300c 	ldr	r3, [fp, #-12]
   159d0:	e5823000 	str	r3, [r2]
   159d4:	e3a03000 	mov	r3, #0
   159d8:	e1a00003 	mov	r0, r3
   159dc:	e24bd000 	sub	sp, fp, #0
   159e0:	e49db004 	pop	{fp}		; (ldr fp, [sp], #4)
   159e4:	e12fff1e 	bx	lr

000159e8 <XAxiCdma_BdGetDstBufAddr>:
   159e8:	e52db004 	push	{fp}		; (str fp, [sp, #-4]!)
   159ec:	e28db000 	add	fp, sp, #0
   159f0:	e24dd00c 	sub	sp, sp, #12
   159f4:	e50b0008 	str	r0, [fp, #-8]
   159f8:	e51b3008 	ldr	r3, [fp, #-8]
   159fc:	e2833010 	add	r3, r3, #16
   15a00:	e5933000 	ldr	r3, [r3]
   15a04:	e1a00003 	mov	r0, r3
   15a08:	e24bd000 	sub	sp, fp, #0
   15a0c:	e49db004 	pop	{fp}		; (ldr fp, [sp], #4)
   15a10:	e12fff1e 	bx	lr

00015a14 <XAxiCdma_BdSetLength>:
   15a14:	e52db004 	push	{fp}		; (str fp, [sp, #-4]!)
   15a18:	e28db000 	add	fp, sp, #0
   15a1c:	e24dd014 	sub	sp, sp, #20
   15a20:	e50b0010 	str	r0, [fp, #-16]
   15a24:	e50b1014 	str	r1, [fp, #-20]	; 0xffffffec
   15a28:	e51b3010 	ldr	r3, [fp, #-16]
   15a2c:	e2833030 	add	r3, r3, #48	; 0x30
   15a30:	e5933000 	ldr	r3, [r3]
   15a34:	e50b3008 	str	r3, [fp, #-8]
   15a38:	e51b3014 	ldr	r3, [fp, #-20]	; 0xffffffec
   15a3c:	e3530000 	cmp	r3, #0
   15a40:	da000003 	ble	15a54 <XAxiCdma_BdSetLength+0x40>
   15a44:	e51b2014 	ldr	r2, [fp, #-20]	; 0xffffffec
   15a48:	e51b3008 	ldr	r3, [fp, #-8]
   15a4c:	e1520003 	cmp	r2, r3
   15a50:	da000001 	ble	15a5c <XAxiCdma_BdSetLength+0x48>
   15a54:	e3a0300f 	mov	r3, #15
   15a58:	ea000005 	b	15a74 <XAxiCdma_BdSetLength+0x60>
   15a5c:	e51b3010 	ldr	r3, [fp, #-16]
   15a60:	e2833018 	add	r3, r3, #24
   15a64:	e1a02003 	mov	r2, r3
   15a68:	e51b3014 	ldr	r3, [fp, #-20]	; 0xffffffec
   15a6c:	e5823000 	str	r3, [r2]
   15a70:	e3a03000 	mov	r3, #0
   15a74:	e1a00003 	mov	r0, r3
   15a78:	e24bd000 	sub	sp, fp, #0
   15a7c:	e49db004 	pop	{fp}		; (ldr fp, [sp], #4)
   15a80:	e12fff1e 	bx	lr

00015a84 <XAxiCdma_BdGetLength>:
   15a84:	e52db004 	push	{fp}		; (str fp, [sp, #-4]!)
   15a88:	e28db000 	add	fp, sp, #0
   15a8c:	e24dd00c 	sub	sp, sp, #12
   15a90:	e50b0008 	str	r0, [fp, #-8]
   15a94:	e51b3008 	ldr	r3, [fp, #-8]
   15a98:	e2833018 	add	r3, r3, #24
   15a9c:	e5933000 	ldr	r3, [r3]
   15aa0:	e1a00003 	mov	r0, r3
   15aa4:	e24bd000 	sub	sp, fp, #0
   15aa8:	e49db004 	pop	{fp}		; (ldr fp, [sp], #4)
   15aac:	e12fff1e 	bx	lr

00015ab0 <XAxiCdma_BdSetPhysAddr>:
   15ab0:	e52db004 	push	{fp}		; (str fp, [sp, #-4]!)
   15ab4:	e28db000 	add	fp, sp, #0
   15ab8:	e24dd00c 	sub	sp, sp, #12
   15abc:	e50b0008 	str	r0, [fp, #-8]
   15ac0:	e50b100c 	str	r1, [fp, #-12]
   15ac4:	e51b3008 	ldr	r3, [fp, #-8]
   15ac8:	e2833020 	add	r3, r3, #32
   15acc:	e1a02003 	mov	r2, r3
   15ad0:	e51b300c 	ldr	r3, [fp, #-12]
   15ad4:	e5823000 	str	r3, [r2]
   15ad8:	e1a00000 	nop			; (mov r0, r0)
   15adc:	e24bd000 	sub	sp, fp, #0
   15ae0:	e49db004 	pop	{fp}		; (ldr fp, [sp], #4)
   15ae4:	e12fff1e 	bx	lr

00015ae8 <XAxiCdma_BdSetIsLite>:
   15ae8:	e52db004 	push	{fp}		; (str fp, [sp, #-4]!)
   15aec:	e28db000 	add	fp, sp, #0
   15af0:	e24dd00c 	sub	sp, sp, #12
   15af4:	e50b0008 	str	r0, [fp, #-8]
   15af8:	e50b100c 	str	r1, [fp, #-12]
   15afc:	e51b3008 	ldr	r3, [fp, #-8]
   15b00:	e2833024 	add	r3, r3, #36	; 0x24
   15b04:	e1a02003 	mov	r2, r3
   15b08:	e51b300c 	ldr	r3, [fp, #-12]
   15b0c:	e5823000 	str	r3, [r2]
   15b10:	e1a00000 	nop			; (mov r0, r0)
   15b14:	e24bd000 	sub	sp, fp, #0
   15b18:	e49db004 	pop	{fp}		; (ldr fp, [sp], #4)
   15b1c:	e12fff1e 	bx	lr

00015b20 <XAxiCdma_BdSetHasDRE>:
   15b20:	e52db004 	push	{fp}		; (str fp, [sp, #-4]!)
   15b24:	e28db000 	add	fp, sp, #0
   15b28:	e24dd00c 	sub	sp, sp, #12
   15b2c:	e50b0008 	str	r0, [fp, #-8]
   15b30:	e50b100c 	str	r1, [fp, #-12]
   15b34:	e51b3008 	ldr	r3, [fp, #-8]
   15b38:	e2833028 	add	r3, r3, #40	; 0x28
   15b3c:	e1a02003 	mov	r2, r3
   15b40:	e51b300c 	ldr	r3, [fp, #-12]
   15b44:	e5823000 	str	r3, [r2]
   15b48:	e1a00000 	nop			; (mov r0, r0)
   15b4c:	e24bd000 	sub	sp, fp, #0
   15b50:	e49db004 	pop	{fp}		; (ldr fp, [sp], #4)
   15b54:	e12fff1e 	bx	lr

00015b58 <XAxiCdma_BdSetWordLen>:
   15b58:	e52db004 	push	{fp}		; (str fp, [sp, #-4]!)
   15b5c:	e28db000 	add	fp, sp, #0
   15b60:	e24dd00c 	sub	sp, sp, #12
   15b64:	e50b0008 	str	r0, [fp, #-8]
   15b68:	e50b100c 	str	r1, [fp, #-12]
   15b6c:	e51b3008 	ldr	r3, [fp, #-8]
   15b70:	e283302c 	add	r3, r3, #44	; 0x2c
   15b74:	e1a02003 	mov	r2, r3
   15b78:	e51b300c 	ldr	r3, [fp, #-12]
   15b7c:	e5823000 	str	r3, [r2]
   15b80:	e1a00000 	nop			; (mov r0, r0)
   15b84:	e24bd000 	sub	sp, fp, #0
   15b88:	e49db004 	pop	{fp}		; (ldr fp, [sp], #4)
   15b8c:	e12fff1e 	bx	lr

00015b90 <XAxiCdma_BdSetMaxLen>:
   15b90:	e52db004 	push	{fp}		; (str fp, [sp, #-4]!)
   15b94:	e28db000 	add	fp, sp, #0
   15b98:	e24dd00c 	sub	sp, sp, #12
   15b9c:	e50b0008 	str	r0, [fp, #-8]
   15ba0:	e50b100c 	str	r1, [fp, #-12]
   15ba4:	e51b3008 	ldr	r3, [fp, #-8]
   15ba8:	e2833030 	add	r3, r3, #48	; 0x30
   15bac:	e1a02003 	mov	r2, r3
   15bb0:	e51b300c 	ldr	r3, [fp, #-12]
   15bb4:	e5823000 	str	r3, [r2]
   15bb8:	e1a00000 	nop			; (mov r0, r0)
   15bbc:	e24bd000 	sub	sp, fp, #0
   15bc0:	e49db004 	pop	{fp}		; (ldr fp, [sp], #4)
   15bc4:	e12fff1e 	bx	lr

00015bc8 <XAxiCdma_BdGetPhysAddr>:
   15bc8:	e52db004 	push	{fp}		; (str fp, [sp, #-4]!)
   15bcc:	e28db000 	add	fp, sp, #0
   15bd0:	e24dd00c 	sub	sp, sp, #12
   15bd4:	e50b0008 	str	r0, [fp, #-8]
   15bd8:	e51b3008 	ldr	r3, [fp, #-8]
   15bdc:	e2833020 	add	r3, r3, #32
   15be0:	e5933000 	ldr	r3, [r3]
   15be4:	e1a00003 	mov	r0, r3
   15be8:	e24bd000 	sub	sp, fp, #0
   15bec:	e49db004 	pop	{fp}		; (ldr fp, [sp], #4)
   15bf0:	e12fff1e 	bx	lr

00015bf4 <XAxiCdma_DumpBd>:
   15bf4:	e92d4800 	push	{fp, lr}
   15bf8:	e28db004 	add	fp, sp, #4
   15bfc:	e24dd008 	sub	sp, sp, #8
   15c00:	e50b0008 	str	r0, [fp, #-8]
   15c04:	e51b3008 	ldr	r3, [fp, #-8]
   15c08:	e30b0e00 	movw	r0, #48640	; 0xbe00
   15c0c:	e3400001 	movt	r0, #1
   15c10:	e1a01003 	mov	r1, r3
   15c14:	ebffc6eb 	bl	77c8 <printf>
   15c18:	e51b0008 	ldr	r0, [fp, #-8]
   15c1c:	ebfffefb 	bl	15810 <XAxiCdma_BdGetNextPtr>
   15c20:	e1a03000 	mov	r3, r0
   15c24:	e30b0e10 	movw	r0, #48656	; 0xbe10
   15c28:	e3400001 	movt	r0, #1
   15c2c:	e1a01003 	mov	r1, r3
   15c30:	ebffc6e4 	bl	77c8 <printf>
   15c34:	e51b0008 	ldr	r0, [fp, #-8]
   15c38:	ebffff41 	bl	15944 <XAxiCdma_BdGetSrcBufAddr>
   15c3c:	e1a03000 	mov	r3, r0
   15c40:	e30b0e24 	movw	r0, #48676	; 0xbe24
   15c44:	e3400001 	movt	r0, #1
   15c48:	e1a01003 	mov	r1, r3
   15c4c:	ebffc6dd 	bl	77c8 <printf>
   15c50:	e51b0008 	ldr	r0, [fp, #-8]
   15c54:	ebffff63 	bl	159e8 <XAxiCdma_BdGetDstBufAddr>
   15c58:	e1a03000 	mov	r3, r0
   15c5c:	e30b0e3c 	movw	r0, #48700	; 0xbe3c
   15c60:	e3400001 	movt	r0, #1
   15c64:	e1a01003 	mov	r1, r3
   15c68:	ebffc6d6 	bl	77c8 <printf>
   15c6c:	e51b0008 	ldr	r0, [fp, #-8]
   15c70:	ebffff83 	bl	15a84 <XAxiCdma_BdGetLength>
   15c74:	e1a03000 	mov	r3, r0
   15c78:	e30b0e54 	movw	r0, #48724	; 0xbe54
   15c7c:	e3400001 	movt	r0, #1
   15c80:	e1a01003 	mov	r1, r3
   15c84:	ebffc6cf 	bl	77c8 <printf>
   15c88:	e51b0008 	ldr	r0, [fp, #-8]
   15c8c:	ebfffef5 	bl	15868 <XAxiCdma_BdGetSts>
   15c90:	e1a03000 	mov	r3, r0
   15c94:	e30b0e68 	movw	r0, #48744	; 0xbe68
   15c98:	e3400001 	movt	r0, #1
   15c9c:	e1a01003 	mov	r1, r3
   15ca0:	ebffc6c8 	bl	77c8 <printf>
   15ca4:	e51b0008 	ldr	r0, [fp, #-8]
   15ca8:	ebffffc6 	bl	15bc8 <XAxiCdma_BdGetPhysAddr>
   15cac:	e1a03000 	mov	r3, r0
   15cb0:	e30b0e78 	movw	r0, #48760	; 0xbe78
   15cb4:	e3400001 	movt	r0, #1
   15cb8:	e1a01003 	mov	r1, r3
   15cbc:	ebffc6c1 	bl	77c8 <printf>
   15cc0:	e51b3008 	ldr	r3, [fp, #-8]
   15cc4:	e2833024 	add	r3, r3, #36	; 0x24
   15cc8:	e5933000 	ldr	r3, [r3]
   15ccc:	e30b0e8c 	movw	r0, #48780	; 0xbe8c
   15cd0:	e3400001 	movt	r0, #1
   15cd4:	e1a01003 	mov	r1, r3
   15cd8:	ebffc6ba 	bl	77c8 <printf>
   15cdc:	e51b3008 	ldr	r3, [fp, #-8]
   15ce0:	e2833028 	add	r3, r3, #40	; 0x28
   15ce4:	e5933000 	ldr	r3, [r3]
   15ce8:	e30b0ea0 	movw	r0, #48800	; 0xbea0
   15cec:	e3400001 	movt	r0, #1
   15cf0:	e1a01003 	mov	r1, r3
   15cf4:	ebffc6b3 	bl	77c8 <printf>
   15cf8:	e51b3008 	ldr	r3, [fp, #-8]
   15cfc:	e283302c 	add	r3, r3, #44	; 0x2c
   15d00:	e5933000 	ldr	r3, [r3]
   15d04:	e30b0eb4 	movw	r0, #48820	; 0xbeb4
   15d08:	e3400001 	movt	r0, #1
   15d0c:	e1a01003 	mov	r1, r3
   15d10:	ebffc6ac 	bl	77c8 <printf>
   15d14:	e51b3008 	ldr	r3, [fp, #-8]
   15d18:	e2833030 	add	r3, r3, #48	; 0x30
   15d1c:	e5933000 	ldr	r3, [r3]
   15d20:	e30b0ecc 	movw	r0, #48844	; 0xbecc
   15d24:	e3400001 	movt	r0, #1
   15d28:	e1a01003 	mov	r1, r3
   15d2c:	ebffc6a5 	bl	77c8 <printf>
   15d30:	e1a00000 	nop			; (mov r0, r0)
   15d34:	e24bd004 	sub	sp, fp, #4
   15d38:	e8bd8800 	pop	{fp, pc}

00015d3c <XAxiCdma_LookupConfig>:
   15d3c:	e52db004 	push	{fp}		; (str fp, [sp, #-4]!)
   15d40:	e28db000 	add	fp, sp, #0
   15d44:	e24dd014 	sub	sp, sp, #20
   15d48:	e50b0010 	str	r0, [fp, #-16]
   15d4c:	e3a03000 	mov	r3, #0
   15d50:	e50b3008 	str	r3, [fp, #-8]
   15d54:	e3a03000 	mov	r3, #0
   15d58:	e50b300c 	str	r3, [fp, #-12]
   15d5c:	ea00001a 	b	15dcc <XAxiCdma_LookupConfig+0x90>
   15d60:	e30c242c 	movw	r2, #50220	; 0xc42c
   15d64:	e3402001 	movt	r2, #1
   15d68:	e51b300c 	ldr	r3, [fp, #-12]
   15d6c:	e1a01003 	mov	r1, r3
   15d70:	e1a03181 	lsl	r3, r1, #3
   15d74:	e1a01003 	mov	r1, r3
   15d78:	e1a03101 	lsl	r3, r1, #2
   15d7c:	e0613003 	rsb	r3, r1, r3
   15d80:	e0823003 	add	r3, r2, r3
   15d84:	e5932000 	ldr	r2, [r3]
   15d88:	e51b3010 	ldr	r3, [fp, #-16]
   15d8c:	e1520003 	cmp	r2, r3
   15d90:	1a00000a 	bne	15dc0 <XAxiCdma_LookupConfig+0x84>
   15d94:	e51b300c 	ldr	r3, [fp, #-12]
   15d98:	e1a02003 	mov	r2, r3
   15d9c:	e1a03182 	lsl	r3, r2, #3
   15da0:	e1a02003 	mov	r2, r3
   15da4:	e1a03102 	lsl	r3, r2, #2
   15da8:	e0623003 	rsb	r3, r2, r3
   15dac:	e30c242c 	movw	r2, #50220	; 0xc42c
   15db0:	e3402001 	movt	r2, #1
   15db4:	e0833002 	add	r3, r3, r2
   15db8:	e50b3008 	str	r3, [fp, #-8]
   15dbc:	ea000005 	b	15dd8 <XAxiCdma_LookupConfig+0x9c>
   15dc0:	e51b300c 	ldr	r3, [fp, #-12]
   15dc4:	e2833001 	add	r3, r3, #1
   15dc8:	e50b300c 	str	r3, [fp, #-12]
   15dcc:	e51b300c 	ldr	r3, [fp, #-12]
   15dd0:	e3530000 	cmp	r3, #0
   15dd4:	daffffe1 	ble	15d60 <XAxiCdma_LookupConfig+0x24>
   15dd8:	e51b3008 	ldr	r3, [fp, #-8]
   15ddc:	e1a00003 	mov	r0, r3
   15de0:	e24bd000 	sub	sp, fp, #0
   15de4:	e49db004 	pop	{fp}		; (ldr fp, [sp], #4)
   15de8:	e12fff1e 	bx	lr

00015dec <XScuGic_InterruptHandler>:
   15dec:	e92d4800 	push	{fp, lr}
   15df0:	e28db004 	add	fp, sp, #4
   15df4:	e24dd010 	sub	sp, sp, #16
   15df8:	e50b0010 	str	r0, [fp, #-16]
   15dfc:	e51b3010 	ldr	r3, [fp, #-16]
   15e00:	e3530000 	cmp	r3, #0
   15e04:	0a000010 	beq	15e4c <XScuGic_InterruptHandler+0x60>
   15e08:	e30c3768 	movw	r3, #51048	; 0xc768
   15e0c:	e3403001 	movt	r3, #1
   15e10:	e3a02000 	mov	r2, #0
   15e14:	e5832000 	str	r2, [r3]
   15e18:	e51b3010 	ldr	r3, [fp, #-16]
   15e1c:	e5933000 	ldr	r3, [r3]
   15e20:	e5933004 	ldr	r3, [r3, #4]
   15e24:	e283300c 	add	r3, r3, #12
   15e28:	e1a00003 	mov	r0, r3
   15e2c:	ebffe7bb 	bl	fd20 <Xil_In32>
   15e30:	e1a03000 	mov	r3, r0
   15e34:	e7e93053 	ubfx	r3, r3, #0, #10
   15e38:	e50b3008 	str	r3, [fp, #-8]
   15e3c:	e51b3008 	ldr	r3, [fp, #-8]
   15e40:	e353005f 	cmp	r3, #95	; 0x5f
   15e44:	9a00000a 	bls	15e74 <XScuGic_InterruptHandler+0x88>
   15e48:	ea000008 	b	15e70 <XScuGic_InterruptHandler+0x84>
   15e4c:	e30b0eec 	movw	r0, #48876	; 0xbeec
   15e50:	e3400001 	movt	r0, #1
   15e54:	e3a0109d 	mov	r1, #157	; 0x9d
   15e58:	ebffe777 	bl	fc3c <Xil_Assert>
   15e5c:	e30c3768 	movw	r3, #51048	; 0xc768
   15e60:	e3403001 	movt	r3, #1
   15e64:	e3a02001 	mov	r2, #1
   15e68:	e5832000 	str	r2, [r3]
   15e6c:	ea000015 	b	15ec8 <XScuGic_InterruptHandler+0xdc>
   15e70:	ea00000d 	b	15eac <XScuGic_InterruptHandler+0xc0>
   15e74:	e51b3010 	ldr	r3, [fp, #-16]
   15e78:	e5932000 	ldr	r2, [r3]
   15e7c:	e51b3008 	ldr	r3, [fp, #-8]
   15e80:	e2833001 	add	r3, r3, #1
   15e84:	e1a03183 	lsl	r3, r3, #3
   15e88:	e0823003 	add	r3, r2, r3
   15e8c:	e2833004 	add	r3, r3, #4
   15e90:	e50b300c 	str	r3, [fp, #-12]
   15e94:	e51b300c 	ldr	r3, [fp, #-12]
   15e98:	e5933000 	ldr	r3, [r3]
   15e9c:	e51b200c 	ldr	r2, [fp, #-12]
   15ea0:	e5922004 	ldr	r2, [r2, #4]
   15ea4:	e1a00002 	mov	r0, r2
   15ea8:	e12fff33 	blx	r3
   15eac:	e51b3010 	ldr	r3, [fp, #-16]
   15eb0:	e5933000 	ldr	r3, [r3]
   15eb4:	e5933004 	ldr	r3, [r3, #4]
   15eb8:	e2833010 	add	r3, r3, #16
   15ebc:	e1a00003 	mov	r0, r3
   15ec0:	e51b1008 	ldr	r1, [fp, #-8]
   15ec4:	ebffe7b7 	bl	fda8 <Xil_Out32>
   15ec8:	e24bd004 	sub	sp, fp, #4
   15ecc:	e8bd8800 	pop	{fp, pc}

00015ed0 <Xil_L2WriteDebugCtrl>:
   15ed0:	e92d4800 	push	{fp, lr}
   15ed4:	e28db004 	add	fp, sp, #4
   15ed8:	e24dd008 	sub	sp, sp, #8
   15edc:	e50b0008 	str	r0, [fp, #-8]
   15ee0:	e3a00dbd 	mov	r0, #12096	; 0x2f40
   15ee4:	e34f08f0 	movt	r0, #63728	; 0xf8f0
   15ee8:	e51b1008 	ldr	r1, [fp, #-8]
   15eec:	ebffe7ad 	bl	fda8 <Xil_Out32>
   15ef0:	e1a00003 	mov	r0, r3
   15ef4:	e24bd004 	sub	sp, fp, #4
   15ef8:	e8bd8800 	pop	{fp, pc}

00015efc <Xil_L2CacheSync>:
   15efc:	e92d4800 	push	{fp, lr}
   15f00:	e28db004 	add	fp, sp, #4
   15f04:	e3a00d9d 	mov	r0, #10048	; 0x2740
   15f08:	e34f08f0 	movt	r0, #63728	; 0xf8f0
   15f0c:	e3a01000 	mov	r1, #0
   15f10:	ebffe7a4 	bl	fda8 <Xil_Out32>
   15f14:	e1a00003 	mov	r0, r3
   15f18:	e8bd8800 	pop	{fp, pc}

00015f1c <Xil_DCacheEnable>:
   15f1c:	e92d4800 	push	{fp, lr}
   15f20:	e28db004 	add	fp, sp, #4
   15f24:	eb000152 	bl	16474 <Xil_L1DCacheEnable>
   15f28:	eb0002ff 	bl	16b2c <Xil_L2CacheEnable>
   15f2c:	e8bd8800 	pop	{fp, pc}

00015f30 <Xil_DCacheDisable>:
   15f30:	e92d4800 	push	{fp, lr}
   15f34:	e28db004 	add	fp, sp, #4
   15f38:	eb00032d 	bl	16bf4 <Xil_L2CacheDisable>
   15f3c:	eb00015c 	bl	164b4 <Xil_L1DCacheDisable>
   15f40:	e8bd8800 	pop	{fp, pc}

00015f44 <Xil_DCacheInvalidate>:
   15f44:	e92d4800 	push	{fp, lr}
   15f48:	e28db004 	add	fp, sp, #4
   15f4c:	e24dd008 	sub	sp, sp, #8
   15f50:	e10f3000 	mrs	r3, CPSR
   15f54:	e50b3008 	str	r3, [fp, #-8]
   15f58:	e51b3008 	ldr	r3, [fp, #-8]
   15f5c:	e50b300c 	str	r3, [fp, #-12]
   15f60:	e51b300c 	ldr	r3, [fp, #-12]
   15f64:	e38330c0 	orr	r3, r3, #192	; 0xc0
   15f68:	e129f003 	msr	CPSR_fc, r3
   15f6c:	eb000335 	bl	16c48 <Xil_L2CacheInvalidate>
   15f70:	eb00015b 	bl	164e4 <Xil_L1DCacheInvalidate>
   15f74:	e51b300c 	ldr	r3, [fp, #-12]
   15f78:	e129f003 	msr	CPSR_fc, r3
   15f7c:	e24bd004 	sub	sp, fp, #4
   15f80:	e8bd8800 	pop	{fp, pc}

00015f84 <Xil_DCacheInvalidateLine>:
   15f84:	e92d4800 	push	{fp, lr}
   15f88:	e28db004 	add	fp, sp, #4
   15f8c:	e24dd010 	sub	sp, sp, #16
   15f90:	e50b0010 	str	r0, [fp, #-16]
   15f94:	e10f3000 	mrs	r3, CPSR
   15f98:	e50b3008 	str	r3, [fp, #-8]
   15f9c:	e51b3008 	ldr	r3, [fp, #-8]
   15fa0:	e50b300c 	str	r3, [fp, #-12]
   15fa4:	e51b300c 	ldr	r3, [fp, #-12]
   15fa8:	e38330c0 	orr	r3, r3, #192	; 0xc0
   15fac:	e129f003 	msr	CPSR_fc, r3
   15fb0:	e51b0010 	ldr	r0, [fp, #-16]
   15fb4:	eb000334 	bl	16c8c <Xil_L2CacheInvalidateLine>
   15fb8:	e51b0010 	ldr	r0, [fp, #-16]
   15fbc:	eb00019e 	bl	1663c <Xil_L1DCacheInvalidateLine>
   15fc0:	e51b300c 	ldr	r3, [fp, #-12]
   15fc4:	e129f003 	msr	CPSR_fc, r3
   15fc8:	e24bd004 	sub	sp, fp, #4
   15fcc:	e8bd8800 	pop	{fp, pc}

00015fd0 <Xil_DCacheInvalidateRange>:
   15fd0:	e92d4800 	push	{fp, lr}
   15fd4:	e28db004 	add	fp, sp, #4
   15fd8:	e24dd028 	sub	sp, sp, #40	; 0x28
   15fdc:	e50b0028 	str	r0, [fp, #-40]	; 0xffffffd8
   15fe0:	e50b102c 	str	r1, [fp, #-44]	; 0xffffffd4
   15fe4:	e3a03020 	mov	r3, #32
   15fe8:	e50b3010 	str	r3, [fp, #-16]
   15fec:	e51b3028 	ldr	r3, [fp, #-40]	; 0xffffffd8
   15ff0:	e50b3008 	str	r3, [fp, #-8]
   15ff4:	e3023770 	movw	r3, #10096	; 0x2770
   15ff8:	e34f38f0 	movt	r3, #63728	; 0xf8f0
   15ffc:	e50b3014 	str	r3, [fp, #-20]	; 0xffffffec
   16000:	e10f3000 	mrs	r3, CPSR
   16004:	e50b3018 	str	r3, [fp, #-24]	; 0xffffffe8
   16008:	e51b3018 	ldr	r3, [fp, #-24]	; 0xffffffe8
   1600c:	e50b301c 	str	r3, [fp, #-28]	; 0xffffffe4
   16010:	e51b301c 	ldr	r3, [fp, #-28]	; 0xffffffe4
   16014:	e38330c0 	orr	r3, r3, #192	; 0xc0
   16018:	e129f003 	msr	CPSR_fc, r3
   1601c:	e51b302c 	ldr	r3, [fp, #-44]	; 0xffffffd4
   16020:	e3530000 	cmp	r3, #0
   16024:	0a000040 	beq	1612c <Xil_DCacheInvalidateRange+0x15c>
   16028:	e51b2008 	ldr	r2, [fp, #-8]
   1602c:	e51b302c 	ldr	r3, [fp, #-44]	; 0xffffffd4
   16030:	e0823003 	add	r3, r2, r3
   16034:	e50b3020 	str	r3, [fp, #-32]	; 0xffffffe0
   16038:	e51b3020 	ldr	r3, [fp, #-32]	; 0xffffffe0
   1603c:	e50b300c 	str	r3, [fp, #-12]
   16040:	e3a03000 	mov	r3, #0
   16044:	ee403f10 	mcr	15, 2, r3, cr0, cr0, {0}
   16048:	e51b3010 	ldr	r3, [fp, #-16]
   1604c:	e2432001 	sub	r2, r3, #1
   16050:	e51b3008 	ldr	r3, [fp, #-8]
   16054:	e0033002 	and	r3, r3, r2
   16058:	e3530000 	cmp	r3, #0
   1605c:	0a000010 	beq	160a4 <Xil_DCacheInvalidateRange+0xd4>
   16060:	e51b3010 	ldr	r3, [fp, #-16]
   16064:	e2633000 	rsb	r3, r3, #0
   16068:	e51b2008 	ldr	r2, [fp, #-8]
   1606c:	e0033002 	and	r3, r3, r2
   16070:	e50b3008 	str	r3, [fp, #-8]
   16074:	e3a00003 	mov	r0, #3
   16078:	ebffff94 	bl	15ed0 <Xil_L2WriteDebugCtrl>
   1607c:	e51b0008 	ldr	r0, [fp, #-8]
   16080:	eb000353 	bl	16dd4 <Xil_L2CacheFlushLine>
   16084:	e3a00000 	mov	r0, #0
   16088:	ebffff90 	bl	15ed0 <Xil_L2WriteDebugCtrl>
   1608c:	e51b0008 	ldr	r0, [fp, #-8]
   16090:	eb0001f9 	bl	1687c <Xil_L1DCacheFlushLine>
   16094:	e51b2008 	ldr	r2, [fp, #-8]
   16098:	e51b3010 	ldr	r3, [fp, #-16]
   1609c:	e0823003 	add	r3, r2, r3
   160a0:	e50b3008 	str	r3, [fp, #-8]
   160a4:	e51b3010 	ldr	r3, [fp, #-16]
   160a8:	e2432001 	sub	r2, r3, #1
   160ac:	e51b300c 	ldr	r3, [fp, #-12]
   160b0:	e0033002 	and	r3, r3, r2
   160b4:	e3530000 	cmp	r3, #0
   160b8:	0a00000c 	beq	160f0 <Xil_DCacheInvalidateRange+0x120>
   160bc:	e51b3010 	ldr	r3, [fp, #-16]
   160c0:	e2633000 	rsb	r3, r3, #0
   160c4:	e51b200c 	ldr	r2, [fp, #-12]
   160c8:	e0033002 	and	r3, r3, r2
   160cc:	e50b300c 	str	r3, [fp, #-12]
   160d0:	e3a00003 	mov	r0, #3
   160d4:	ebffff7d 	bl	15ed0 <Xil_L2WriteDebugCtrl>
   160d8:	e51b000c 	ldr	r0, [fp, #-12]
   160dc:	eb00033c 	bl	16dd4 <Xil_L2CacheFlushLine>
   160e0:	e3a00000 	mov	r0, #0
   160e4:	ebffff79 	bl	15ed0 <Xil_L2WriteDebugCtrl>
   160e8:	e51b0008 	ldr	r0, [fp, #-8]
   160ec:	eb0001e2 	bl	1687c <Xil_L1DCacheFlushLine>
   160f0:	ea000009 	b	1611c <Xil_DCacheInvalidateRange+0x14c>
   160f4:	e51b3014 	ldr	r3, [fp, #-20]	; 0xffffffec
   160f8:	e51b2008 	ldr	r2, [fp, #-8]
   160fc:	e5832000 	str	r2, [r3]
   16100:	f57ff04f 	dsb	sy
   16104:	e51b3008 	ldr	r3, [fp, #-8]
   16108:	ee073f36 	mcr	15, 0, r3, cr7, cr6, {1}
   1610c:	e51b2008 	ldr	r2, [fp, #-8]
   16110:	e51b3010 	ldr	r3, [fp, #-16]
   16114:	e0823003 	add	r3, r2, r3
   16118:	e50b3008 	str	r3, [fp, #-8]
   1611c:	e51b2008 	ldr	r2, [fp, #-8]
   16120:	e51b300c 	ldr	r3, [fp, #-12]
   16124:	e1520003 	cmp	r2, r3
   16128:	3afffff1 	bcc	160f4 <Xil_DCacheInvalidateRange+0x124>
   1612c:	f57ff04f 	dsb	sy
   16130:	e51b301c 	ldr	r3, [fp, #-28]	; 0xffffffe4
   16134:	e129f003 	msr	CPSR_fc, r3
   16138:	e24bd004 	sub	sp, fp, #4
   1613c:	e8bd8800 	pop	{fp, pc}

00016140 <Xil_DCacheFlush>:
   16140:	e92d4800 	push	{fp, lr}
   16144:	e28db004 	add	fp, sp, #4
   16148:	e24dd008 	sub	sp, sp, #8
   1614c:	e10f3000 	mrs	r3, CPSR
   16150:	e50b3008 	str	r3, [fp, #-8]
   16154:	e51b3008 	ldr	r3, [fp, #-8]
   16158:	e50b300c 	str	r3, [fp, #-12]
   1615c:	e51b300c 	ldr	r3, [fp, #-12]
   16160:	e38330c0 	orr	r3, r3, #192	; 0xc0
   16164:	e129f003 	msr	CPSR_fc, r3
   16168:	eb00016d 	bl	16724 <Xil_L1DCacheFlush>
   1616c:	eb000303 	bl	16d80 <Xil_L2CacheFlush>
   16170:	e51b300c 	ldr	r3, [fp, #-12]
   16174:	e129f003 	msr	CPSR_fc, r3
   16178:	e24bd004 	sub	sp, fp, #4
   1617c:	e8bd8800 	pop	{fp, pc}

00016180 <Xil_DCacheFlushLine>:
   16180:	e92d4800 	push	{fp, lr}
   16184:	e28db004 	add	fp, sp, #4
   16188:	e24dd010 	sub	sp, sp, #16
   1618c:	e50b0010 	str	r0, [fp, #-16]
   16190:	e10f3000 	mrs	r3, CPSR
   16194:	e50b3008 	str	r3, [fp, #-8]
   16198:	e51b3008 	ldr	r3, [fp, #-8]
   1619c:	e50b300c 	str	r3, [fp, #-12]
   161a0:	e51b300c 	ldr	r3, [fp, #-12]
   161a4:	e38330c0 	orr	r3, r3, #192	; 0xc0
   161a8:	e129f003 	msr	CPSR_fc, r3
   161ac:	e51b0010 	ldr	r0, [fp, #-16]
   161b0:	eb0001b1 	bl	1687c <Xil_L1DCacheFlushLine>
   161b4:	e3a00003 	mov	r0, #3
   161b8:	ebffff44 	bl	15ed0 <Xil_L2WriteDebugCtrl>
   161bc:	e51b0010 	ldr	r0, [fp, #-16]
   161c0:	eb000303 	bl	16dd4 <Xil_L2CacheFlushLine>
   161c4:	e3a00000 	mov	r0, #0
   161c8:	ebffff40 	bl	15ed0 <Xil_L2WriteDebugCtrl>
   161cc:	e51b300c 	ldr	r3, [fp, #-12]
   161d0:	e129f003 	msr	CPSR_fc, r3
   161d4:	e24bd004 	sub	sp, fp, #4
   161d8:	e8bd8800 	pop	{fp, pc}

000161dc <Xil_DCacheFlushRange>:
   161dc:	e52db004 	push	{fp}		; (str fp, [sp, #-4]!)
   161e0:	e28db000 	add	fp, sp, #0
   161e4:	e24dd024 	sub	sp, sp, #36	; 0x24
   161e8:	e50b0020 	str	r0, [fp, #-32]	; 0xffffffe0
   161ec:	e50b1024 	str	r1, [fp, #-36]	; 0xffffffdc
   161f0:	e3a03020 	mov	r3, #32
   161f4:	e50b3008 	str	r3, [fp, #-8]
   161f8:	e30237f0 	movw	r3, #10224	; 0x27f0
   161fc:	e34f38f0 	movt	r3, #63728	; 0xf8f0
   16200:	e50b300c 	str	r3, [fp, #-12]
   16204:	e10f3000 	mrs	r3, CPSR
   16208:	e50b3010 	str	r3, [fp, #-16]
   1620c:	e51b3010 	ldr	r3, [fp, #-16]
   16210:	e50b3014 	str	r3, [fp, #-20]	; 0xffffffec
   16214:	e51b3014 	ldr	r3, [fp, #-20]	; 0xffffffec
   16218:	e38330c0 	orr	r3, r3, #192	; 0xc0
   1621c:	e129f003 	msr	CPSR_fc, r3
   16220:	e51b3024 	ldr	r3, [fp, #-36]	; 0xffffffdc
   16224:	e3530000 	cmp	r3, #0
   16228:	0a000017 	beq	1628c <Xil_DCacheFlushRange+0xb0>
   1622c:	e51b2020 	ldr	r2, [fp, #-32]	; 0xffffffe0
   16230:	e51b3024 	ldr	r3, [fp, #-36]	; 0xffffffdc
   16234:	e0823003 	add	r3, r2, r3
   16238:	e50b3018 	str	r3, [fp, #-24]	; 0xffffffe8
   1623c:	e51b3008 	ldr	r3, [fp, #-8]
   16240:	e2633000 	rsb	r3, r3, #0
   16244:	e51b2020 	ldr	r2, [fp, #-32]	; 0xffffffe0
   16248:	e0033002 	and	r3, r3, r2
   1624c:	e50b3020 	str	r3, [fp, #-32]	; 0xffffffe0
   16250:	ea000009 	b	1627c <Xil_DCacheFlushRange+0xa0>
   16254:	e51b3020 	ldr	r3, [fp, #-32]	; 0xffffffe0
   16258:	ee073f3e 	mcr	15, 0, r3, cr7, cr14, {1}
   1625c:	e51b300c 	ldr	r3, [fp, #-12]
   16260:	e51b2020 	ldr	r2, [fp, #-32]	; 0xffffffe0
   16264:	e5832000 	str	r2, [r3]
   16268:	f57ff04f 	dsb	sy
   1626c:	e51b2020 	ldr	r2, [fp, #-32]	; 0xffffffe0
   16270:	e51b3008 	ldr	r3, [fp, #-8]
   16274:	e0823003 	add	r3, r2, r3
   16278:	e50b3020 	str	r3, [fp, #-32]	; 0xffffffe0
   1627c:	e51b2020 	ldr	r2, [fp, #-32]	; 0xffffffe0
   16280:	e51b3018 	ldr	r3, [fp, #-24]	; 0xffffffe8
   16284:	e1520003 	cmp	r2, r3
   16288:	3afffff1 	bcc	16254 <Xil_DCacheFlushRange+0x78>
   1628c:	f57ff04f 	dsb	sy
   16290:	e51b3014 	ldr	r3, [fp, #-20]	; 0xffffffec
   16294:	e129f003 	msr	CPSR_fc, r3
   16298:	e24bd000 	sub	sp, fp, #0
   1629c:	e49db004 	pop	{fp}		; (ldr fp, [sp], #4)
   162a0:	e12fff1e 	bx	lr

000162a4 <Xil_DCacheStoreLine>:
   162a4:	e92d4800 	push	{fp, lr}
   162a8:	e28db004 	add	fp, sp, #4
   162ac:	e24dd010 	sub	sp, sp, #16
   162b0:	e50b0010 	str	r0, [fp, #-16]
   162b4:	e10f3000 	mrs	r3, CPSR
   162b8:	e50b3008 	str	r3, [fp, #-8]
   162bc:	e51b3008 	ldr	r3, [fp, #-8]
   162c0:	e50b300c 	str	r3, [fp, #-12]
   162c4:	e51b300c 	ldr	r3, [fp, #-12]
   162c8:	e38330c0 	orr	r3, r3, #192	; 0xc0
   162cc:	e129f003 	msr	CPSR_fc, r3
   162d0:	e51b0010 	ldr	r0, [fp, #-16]
   162d4:	eb0001a2 	bl	16964 <Xil_L1DCacheStoreLine>
   162d8:	e51b0010 	ldr	r0, [fp, #-16]
   162dc:	eb0002fe 	bl	16edc <Xil_L2CacheStoreLine>
   162e0:	e51b300c 	ldr	r3, [fp, #-12]
   162e4:	e129f003 	msr	CPSR_fc, r3
   162e8:	e24bd004 	sub	sp, fp, #4
   162ec:	e8bd8800 	pop	{fp, pc}

000162f0 <Xil_ICacheEnable>:
   162f0:	e92d4800 	push	{fp, lr}
   162f4:	e28db004 	add	fp, sp, #4
   162f8:	eb0001a6 	bl	16998 <Xil_L1ICacheEnable>
   162fc:	eb00020a 	bl	16b2c <Xil_L2CacheEnable>
   16300:	e8bd8800 	pop	{fp, pc}

00016304 <Xil_ICacheDisable>:
   16304:	e92d4800 	push	{fp, lr}
   16308:	e28db004 	add	fp, sp, #4
   1630c:	eb000238 	bl	16bf4 <Xil_L2CacheDisable>
   16310:	eb0001b2 	bl	169e0 <Xil_L1ICacheDisable>
   16314:	e8bd8800 	pop	{fp, pc}

00016318 <Xil_ICacheInvalidate>:
   16318:	e92d4800 	push	{fp, lr}
   1631c:	e28db004 	add	fp, sp, #4
   16320:	e24dd008 	sub	sp, sp, #8
   16324:	e10f3000 	mrs	r3, CPSR
   16328:	e50b3008 	str	r3, [fp, #-8]
   1632c:	e51b3008 	ldr	r3, [fp, #-8]
   16330:	e50b300c 	str	r3, [fp, #-12]
   16334:	e51b300c 	ldr	r3, [fp, #-12]
   16338:	e38330c0 	orr	r3, r3, #192	; 0xc0
   1633c:	e129f003 	msr	CPSR_fc, r3
   16340:	eb000240 	bl	16c48 <Xil_L2CacheInvalidate>
   16344:	eb0001b4 	bl	16a1c <Xil_L1ICacheInvalidate>
   16348:	e51b300c 	ldr	r3, [fp, #-12]
   1634c:	e129f003 	msr	CPSR_fc, r3
   16350:	e24bd004 	sub	sp, fp, #4
   16354:	e8bd8800 	pop	{fp, pc}

00016358 <Xil_ICacheInvalidateLine>:
   16358:	e92d4800 	push	{fp, lr}
   1635c:	e28db004 	add	fp, sp, #4
   16360:	e24dd010 	sub	sp, sp, #16
   16364:	e50b0010 	str	r0, [fp, #-16]
   16368:	e10f3000 	mrs	r3, CPSR
   1636c:	e50b3008 	str	r3, [fp, #-8]
   16370:	e51b3008 	ldr	r3, [fp, #-8]
   16374:	e50b300c 	str	r3, [fp, #-12]
   16378:	e51b300c 	ldr	r3, [fp, #-12]
   1637c:	e38330c0 	orr	r3, r3, #192	; 0xc0
   16380:	e129f003 	msr	CPSR_fc, r3
   16384:	e51b0010 	ldr	r0, [fp, #-16]
   16388:	eb00023f 	bl	16c8c <Xil_L2CacheInvalidateLine>
   1638c:	e51b0010 	ldr	r0, [fp, #-16]
   16390:	eb0001ab 	bl	16a44 <Xil_L1ICacheInvalidateLine>
   16394:	e51b300c 	ldr	r3, [fp, #-12]
   16398:	e129f003 	msr	CPSR_fc, r3
   1639c:	e24bd004 	sub	sp, fp, #4
   163a0:	e8bd8800 	pop	{fp, pc}

000163a4 <Xil_ICacheInvalidateRange>:
   163a4:	e52db004 	push	{fp}		; (str fp, [sp, #-4]!)
   163a8:	e28db000 	add	fp, sp, #0
   163ac:	e24dd024 	sub	sp, sp, #36	; 0x24
   163b0:	e50b0020 	str	r0, [fp, #-32]	; 0xffffffe0
   163b4:	e50b1024 	str	r1, [fp, #-36]	; 0xffffffdc
   163b8:	e3a03020 	mov	r3, #32
   163bc:	e50b3008 	str	r3, [fp, #-8]
   163c0:	e3023770 	movw	r3, #10096	; 0x2770
   163c4:	e34f38f0 	movt	r3, #63728	; 0xf8f0
   163c8:	e50b300c 	str	r3, [fp, #-12]
   163cc:	e10f3000 	mrs	r3, CPSR
   163d0:	e50b3010 	str	r3, [fp, #-16]
   163d4:	e51b3010 	ldr	r3, [fp, #-16]
   163d8:	e50b3014 	str	r3, [fp, #-20]	; 0xffffffec
   163dc:	e51b3014 	ldr	r3, [fp, #-20]	; 0xffffffec
   163e0:	e38330c0 	orr	r3, r3, #192	; 0xc0
   163e4:	e129f003 	msr	CPSR_fc, r3
   163e8:	e51b3024 	ldr	r3, [fp, #-36]	; 0xffffffdc
   163ec:	e3530000 	cmp	r3, #0
   163f0:	0a000019 	beq	1645c <Xil_ICacheInvalidateRange+0xb8>
   163f4:	e51b2020 	ldr	r2, [fp, #-32]	; 0xffffffe0
   163f8:	e51b3024 	ldr	r3, [fp, #-36]	; 0xffffffdc
   163fc:	e0823003 	add	r3, r2, r3
   16400:	e50b3018 	str	r3, [fp, #-24]	; 0xffffffe8
   16404:	e51b3008 	ldr	r3, [fp, #-8]
   16408:	e2633000 	rsb	r3, r3, #0
   1640c:	e51b2020 	ldr	r2, [fp, #-32]	; 0xffffffe0
   16410:	e0033002 	and	r3, r3, r2
   16414:	e50b3020 	str	r3, [fp, #-32]	; 0xffffffe0
   16418:	e3a03001 	mov	r3, #1
   1641c:	ee403f10 	mcr	15, 2, r3, cr0, cr0, {0}
   16420:	ea000009 	b	1644c <Xil_ICacheInvalidateRange+0xa8>
   16424:	e51b300c 	ldr	r3, [fp, #-12]
   16428:	e51b2020 	ldr	r2, [fp, #-32]	; 0xffffffe0
   1642c:	e5832000 	str	r2, [r3]
   16430:	f57ff04f 	dsb	sy
   16434:	e51b3020 	ldr	r3, [fp, #-32]	; 0xffffffe0
   16438:	ee073f35 	mcr	15, 0, r3, cr7, cr5, {1}
   1643c:	e51b2020 	ldr	r2, [fp, #-32]	; 0xffffffe0
   16440:	e51b3008 	ldr	r3, [fp, #-8]
   16444:	e0823003 	add	r3, r2, r3
   16448:	e50b3020 	str	r3, [fp, #-32]	; 0xffffffe0
   1644c:	e51b2020 	ldr	r2, [fp, #-32]	; 0xffffffe0
   16450:	e51b3018 	ldr	r3, [fp, #-24]	; 0xffffffe8
   16454:	e1520003 	cmp	r2, r3
   16458:	3afffff1 	bcc	16424 <Xil_ICacheInvalidateRange+0x80>
   1645c:	f57ff04f 	dsb	sy
   16460:	e51b3014 	ldr	r3, [fp, #-20]	; 0xffffffec
   16464:	e129f003 	msr	CPSR_fc, r3
   16468:	e24bd000 	sub	sp, fp, #0
   1646c:	e49db004 	pop	{fp}		; (ldr fp, [sp], #4)
   16470:	e12fff1e 	bx	lr

00016474 <Xil_L1DCacheEnable>:
   16474:	e92d4810 	push	{r4, fp, lr}
   16478:	e28db008 	add	fp, sp, #8
   1647c:	e24dd00c 	sub	sp, sp, #12
   16480:	ee113f10 	mrc	15, 0, r3, cr1, cr0, {0}
   16484:	e50b3010 	str	r3, [fp, #-16]
   16488:	e51b3010 	ldr	r3, [fp, #-16]
   1648c:	e1a04003 	mov	r4, r3
   16490:	e2043004 	and	r3, r4, #4
   16494:	e3530000 	cmp	r3, #0
   16498:	0a000000 	beq	164a0 <Xil_L1DCacheEnable+0x2c>
   1649c:	ea000002 	b	164ac <Xil_L1DCacheEnable+0x38>
   164a0:	eb00000f 	bl	164e4 <Xil_L1DCacheInvalidate>
   164a4:	e3844004 	orr	r4, r4, #4
   164a8:	ee014f10 	mcr	15, 0, r4, cr1, cr0, {0}
   164ac:	e24bd008 	sub	sp, fp, #8
   164b0:	e8bd8810 	pop	{r4, fp, pc}

000164b4 <Xil_L1DCacheDisable>:
   164b4:	e92d4810 	push	{r4, fp, lr}
   164b8:	e28db008 	add	fp, sp, #8
   164bc:	e24dd00c 	sub	sp, sp, #12
   164c0:	eb000097 	bl	16724 <Xil_L1DCacheFlush>
   164c4:	ee113f10 	mrc	15, 0, r3, cr1, cr0, {0}
   164c8:	e50b3010 	str	r3, [fp, #-16]
   164cc:	e51b3010 	ldr	r3, [fp, #-16]
   164d0:	e1a04003 	mov	r4, r3
   164d4:	e3c44004 	bic	r4, r4, #4
   164d8:	ee014f10 	mcr	15, 0, r4, cr1, cr0, {0}
   164dc:	e24bd008 	sub	sp, fp, #8
   164e0:	e8bd8810 	pop	{r4, fp, pc}

000164e4 <Xil_L1DCacheInvalidate>:
   164e4:	e92d4810 	push	{r4, fp, lr}
   164e8:	e28db008 	add	fp, sp, #8
   164ec:	e24dd034 	sub	sp, sp, #52	; 0x34
   164f0:	e10f3000 	mrs	r3, CPSR
   164f4:	e50b3020 	str	r3, [fp, #-32]	; 0xffffffe0
   164f8:	e51b3020 	ldr	r3, [fp, #-32]	; 0xffffffe0
   164fc:	e50b3024 	str	r3, [fp, #-36]	; 0xffffffdc
   16500:	e51b3024 	ldr	r3, [fp, #-36]	; 0xffffffdc
   16504:	e38330c0 	orr	r3, r3, #192	; 0xc0
   16508:	e129f003 	msr	CPSR_fc, r3
   1650c:	e3a03000 	mov	r3, #0
   16510:	ee403f10 	mcr	15, 2, r3, cr0, cr0, {0}
   16514:	ee303f10 	mrc	15, 1, r3, cr0, cr0, {0}
   16518:	e50b3028 	str	r3, [fp, #-40]	; 0xffffffd8
   1651c:	e51b3028 	ldr	r3, [fp, #-40]	; 0xffffffd8
   16520:	e1a04003 	mov	r4, r3
   16524:	e1a036a4 	lsr	r3, r4, #13
   16528:	e7e83053 	ubfx	r3, r3, #0, #9
   1652c:	e50b302c 	str	r3, [fp, #-44]	; 0xffffffd4
   16530:	e51b302c 	ldr	r3, [fp, #-44]	; 0xffffffd4
   16534:	e2833001 	add	r3, r3, #1
   16538:	e50b302c 	str	r3, [fp, #-44]	; 0xffffffd4
   1653c:	e51b302c 	ldr	r3, [fp, #-44]	; 0xffffffd4
   16540:	e1a03383 	lsl	r3, r3, #7
   16544:	e50b302c 	str	r3, [fp, #-44]	; 0xffffffd4
   16548:	e7e93054 	ubfx	r3, r4, #0, #10
   1654c:	e1a031a3 	lsr	r3, r3, #3
   16550:	e50b3030 	str	r3, [fp, #-48]	; 0xffffffd0
   16554:	e51b3030 	ldr	r3, [fp, #-48]	; 0xffffffd0
   16558:	e2833001 	add	r3, r3, #1
   1655c:	e50b3030 	str	r3, [fp, #-48]	; 0xffffffd0
   16560:	e2043007 	and	r3, r4, #7
   16564:	e2833004 	add	r3, r3, #4
   16568:	e50b3034 	str	r3, [fp, #-52]	; 0xffffffcc
   1656c:	e51b002c 	ldr	r0, [fp, #-44]	; 0xffffffd4
   16570:	e51b1030 	ldr	r1, [fp, #-48]	; 0xffffffd0
   16574:	eb001195 	bl	1abd0 <__aeabi_uidiv>
   16578:	e1a03000 	mov	r3, r0
   1657c:	e50b3038 	str	r3, [fp, #-56]	; 0xffffffc8
   16580:	e51b3034 	ldr	r3, [fp, #-52]	; 0xffffffcc
   16584:	e51b2038 	ldr	r2, [fp, #-56]	; 0xffffffc8
   16588:	e1a03332 	lsr	r3, r2, r3
   1658c:	e50b3038 	str	r3, [fp, #-56]	; 0xffffffc8
   16590:	e3a03000 	mov	r3, #0
   16594:	e50b3010 	str	r3, [fp, #-16]
   16598:	e3a03000 	mov	r3, #0
   1659c:	e50b3018 	str	r3, [fp, #-24]	; 0xffffffe8
   165a0:	e3a03000 	mov	r3, #0
   165a4:	e50b3014 	str	r3, [fp, #-20]	; 0xffffffec
   165a8:	ea00001a 	b	16618 <Xil_L1DCacheInvalidate+0x134>
   165ac:	e3a03000 	mov	r3, #0
   165b0:	e50b301c 	str	r3, [fp, #-28]	; 0xffffffe4
   165b4:	ea00000d 	b	165f0 <Xil_L1DCacheInvalidate+0x10c>
   165b8:	e51b2010 	ldr	r2, [fp, #-16]
   165bc:	e51b3018 	ldr	r3, [fp, #-24]	; 0xffffffe8
   165c0:	e1824003 	orr	r4, r2, r3
   165c4:	ee074f56 	mcr	15, 0, r4, cr7, cr6, {2}
   165c8:	e51b3034 	ldr	r3, [fp, #-52]	; 0xffffffcc
   165cc:	e3a02001 	mov	r2, #1
   165d0:	e1a03312 	lsl	r3, r2, r3
   165d4:	e1a02003 	mov	r2, r3
   165d8:	e51b3018 	ldr	r3, [fp, #-24]	; 0xffffffe8
   165dc:	e0833002 	add	r3, r3, r2
   165e0:	e50b3018 	str	r3, [fp, #-24]	; 0xffffffe8
   165e4:	e51b301c 	ldr	r3, [fp, #-28]	; 0xffffffe4
   165e8:	e2833001 	add	r3, r3, #1
   165ec:	e50b301c 	str	r3, [fp, #-28]	; 0xffffffe4
   165f0:	e51b201c 	ldr	r2, [fp, #-28]	; 0xffffffe4
   165f4:	e51b3038 	ldr	r3, [fp, #-56]	; 0xffffffc8
   165f8:	e1520003 	cmp	r2, r3
   165fc:	3affffed 	bcc	165b8 <Xil_L1DCacheInvalidate+0xd4>
   16600:	e51b3010 	ldr	r3, [fp, #-16]
   16604:	e2833101 	add	r3, r3, #1073741824	; 0x40000000
   16608:	e50b3010 	str	r3, [fp, #-16]
   1660c:	e51b3014 	ldr	r3, [fp, #-20]	; 0xffffffec
   16610:	e2833001 	add	r3, r3, #1
   16614:	e50b3014 	str	r3, [fp, #-20]	; 0xffffffec
   16618:	e51b2014 	ldr	r2, [fp, #-20]	; 0xffffffec
   1661c:	e51b3030 	ldr	r3, [fp, #-48]	; 0xffffffd0
   16620:	e1520003 	cmp	r2, r3
   16624:	3affffe0 	bcc	165ac <Xil_L1DCacheInvalidate+0xc8>
   16628:	f57ff04f 	dsb	sy
   1662c:	e51b3024 	ldr	r3, [fp, #-36]	; 0xffffffdc
   16630:	e129f003 	msr	CPSR_fc, r3
   16634:	e24bd008 	sub	sp, fp, #8
   16638:	e8bd8810 	pop	{r4, fp, pc}

0001663c <Xil_L1DCacheInvalidateLine>:
   1663c:	e52db004 	push	{fp}		; (str fp, [sp, #-4]!)
   16640:	e28db000 	add	fp, sp, #0
   16644:	e24dd00c 	sub	sp, sp, #12
   16648:	e50b0008 	str	r0, [fp, #-8]
   1664c:	e3a03000 	mov	r3, #0
   16650:	ee403f10 	mcr	15, 2, r3, cr0, cr0, {0}
   16654:	e51b3008 	ldr	r3, [fp, #-8]
   16658:	e3c3301f 	bic	r3, r3, #31
   1665c:	ee073f36 	mcr	15, 0, r3, cr7, cr6, {1}
   16660:	f57ff04f 	dsb	sy
   16664:	e24bd000 	sub	sp, fp, #0
   16668:	e49db004 	pop	{fp}		; (ldr fp, [sp], #4)
   1666c:	e12fff1e 	bx	lr

00016670 <Xil_L1DCacheInvalidateRange>:
   16670:	e52db004 	push	{fp}		; (str fp, [sp, #-4]!)
   16674:	e28db000 	add	fp, sp, #0
   16678:	e24dd01c 	sub	sp, sp, #28
   1667c:	e50b0018 	str	r0, [fp, #-24]	; 0xffffffe8
   16680:	e50b101c 	str	r1, [fp, #-28]	; 0xffffffe4
   16684:	e3a03020 	mov	r3, #32
   16688:	e50b3008 	str	r3, [fp, #-8]
   1668c:	e10f3000 	mrs	r3, CPSR
   16690:	e50b300c 	str	r3, [fp, #-12]
   16694:	e51b300c 	ldr	r3, [fp, #-12]
   16698:	e50b3010 	str	r3, [fp, #-16]
   1669c:	e51b3010 	ldr	r3, [fp, #-16]
   166a0:	e38330c0 	orr	r3, r3, #192	; 0xc0
   166a4:	e129f003 	msr	CPSR_fc, r3
   166a8:	e51b301c 	ldr	r3, [fp, #-28]	; 0xffffffe4
   166ac:	e3530000 	cmp	r3, #0
   166b0:	0a000015 	beq	1670c <Xil_L1DCacheInvalidateRange+0x9c>
   166b4:	e51b2018 	ldr	r2, [fp, #-24]	; 0xffffffe8
   166b8:	e51b301c 	ldr	r3, [fp, #-28]	; 0xffffffe4
   166bc:	e0823003 	add	r3, r2, r3
   166c0:	e50b3014 	str	r3, [fp, #-20]	; 0xffffffec
   166c4:	e51b3008 	ldr	r3, [fp, #-8]
   166c8:	e2633000 	rsb	r3, r3, #0
   166cc:	e51b2018 	ldr	r2, [fp, #-24]	; 0xffffffe8
   166d0:	e0033002 	and	r3, r3, r2
   166d4:	e50b3018 	str	r3, [fp, #-24]	; 0xffffffe8
   166d8:	e3a03000 	mov	r3, #0
   166dc:	ee403f10 	mcr	15, 2, r3, cr0, cr0, {0}
   166e0:	ea000005 	b	166fc <Xil_L1DCacheInvalidateRange+0x8c>
   166e4:	e51b3018 	ldr	r3, [fp, #-24]	; 0xffffffe8
   166e8:	ee073f36 	mcr	15, 0, r3, cr7, cr6, {1}
   166ec:	e51b2018 	ldr	r2, [fp, #-24]	; 0xffffffe8
   166f0:	e51b3008 	ldr	r3, [fp, #-8]
   166f4:	e0823003 	add	r3, r2, r3
   166f8:	e50b3018 	str	r3, [fp, #-24]	; 0xffffffe8
   166fc:	e51b2018 	ldr	r2, [fp, #-24]	; 0xffffffe8
   16700:	e51b3014 	ldr	r3, [fp, #-20]	; 0xffffffec
   16704:	e1520003 	cmp	r2, r3
   16708:	3afffff5 	bcc	166e4 <Xil_L1DCacheInvalidateRange+0x74>
   1670c:	f57ff04f 	dsb	sy
   16710:	e51b3010 	ldr	r3, [fp, #-16]
   16714:	e129f003 	msr	CPSR_fc, r3
   16718:	e24bd000 	sub	sp, fp, #0
   1671c:	e49db004 	pop	{fp}		; (ldr fp, [sp], #4)
   16720:	e12fff1e 	bx	lr

00016724 <Xil_L1DCacheFlush>:
   16724:	e92d4810 	push	{r4, fp, lr}
   16728:	e28db008 	add	fp, sp, #8
   1672c:	e24dd034 	sub	sp, sp, #52	; 0x34
   16730:	e10f3000 	mrs	r3, CPSR
   16734:	e50b3020 	str	r3, [fp, #-32]	; 0xffffffe0
   16738:	e51b3020 	ldr	r3, [fp, #-32]	; 0xffffffe0
   1673c:	e50b3024 	str	r3, [fp, #-36]	; 0xffffffdc
   16740:	e51b3024 	ldr	r3, [fp, #-36]	; 0xffffffdc
   16744:	e38330c0 	orr	r3, r3, #192	; 0xc0
   16748:	e129f003 	msr	CPSR_fc, r3
   1674c:	e3a03000 	mov	r3, #0
   16750:	ee403f10 	mcr	15, 2, r3, cr0, cr0, {0}
   16754:	ee303f10 	mrc	15, 1, r3, cr0, cr0, {0}
   16758:	e50b3028 	str	r3, [fp, #-40]	; 0xffffffd8
   1675c:	e51b3028 	ldr	r3, [fp, #-40]	; 0xffffffd8
   16760:	e1a04003 	mov	r4, r3
   16764:	e1a036a4 	lsr	r3, r4, #13
   16768:	e7e83053 	ubfx	r3, r3, #0, #9
   1676c:	e50b302c 	str	r3, [fp, #-44]	; 0xffffffd4
   16770:	e51b302c 	ldr	r3, [fp, #-44]	; 0xffffffd4
   16774:	e2833001 	add	r3, r3, #1
   16778:	e50b302c 	str	r3, [fp, #-44]	; 0xffffffd4
   1677c:	e51b302c 	ldr	r3, [fp, #-44]	; 0xffffffd4
   16780:	e1a03383 	lsl	r3, r3, #7
   16784:	e50b302c 	str	r3, [fp, #-44]	; 0xffffffd4
   16788:	e7e93054 	ubfx	r3, r4, #0, #10
   1678c:	e1a031a3 	lsr	r3, r3, #3
   16790:	e50b3030 	str	r3, [fp, #-48]	; 0xffffffd0
   16794:	e51b3030 	ldr	r3, [fp, #-48]	; 0xffffffd0
   16798:	e2833001 	add	r3, r3, #1
   1679c:	e50b3030 	str	r3, [fp, #-48]	; 0xffffffd0
   167a0:	e2043007 	and	r3, r4, #7
   167a4:	e2833004 	add	r3, r3, #4
   167a8:	e50b3034 	str	r3, [fp, #-52]	; 0xffffffcc
   167ac:	e51b002c 	ldr	r0, [fp, #-44]	; 0xffffffd4
   167b0:	e51b1030 	ldr	r1, [fp, #-48]	; 0xffffffd0
   167b4:	eb001105 	bl	1abd0 <__aeabi_uidiv>
   167b8:	e1a03000 	mov	r3, r0
   167bc:	e50b3038 	str	r3, [fp, #-56]	; 0xffffffc8
   167c0:	e51b3034 	ldr	r3, [fp, #-52]	; 0xffffffcc
   167c4:	e51b2038 	ldr	r2, [fp, #-56]	; 0xffffffc8
   167c8:	e1a03332 	lsr	r3, r2, r3
   167cc:	e50b3038 	str	r3, [fp, #-56]	; 0xffffffc8
   167d0:	e3a03000 	mov	r3, #0
   167d4:	e50b3010 	str	r3, [fp, #-16]
   167d8:	e3a03000 	mov	r3, #0
   167dc:	e50b3018 	str	r3, [fp, #-24]	; 0xffffffe8
   167e0:	e3a03000 	mov	r3, #0
   167e4:	e50b3014 	str	r3, [fp, #-20]	; 0xffffffec
   167e8:	ea00001a 	b	16858 <Xil_L1DCacheFlush+0x134>
   167ec:	e3a03000 	mov	r3, #0
   167f0:	e50b301c 	str	r3, [fp, #-28]	; 0xffffffe4
   167f4:	ea00000d 	b	16830 <Xil_L1DCacheFlush+0x10c>
   167f8:	e51b2010 	ldr	r2, [fp, #-16]
   167fc:	e51b3018 	ldr	r3, [fp, #-24]	; 0xffffffe8
   16800:	e1824003 	orr	r4, r2, r3
   16804:	ee074f5e 	mcr	15, 0, r4, cr7, cr14, {2}
   16808:	e51b3034 	ldr	r3, [fp, #-52]	; 0xffffffcc
   1680c:	e3a02001 	mov	r2, #1
   16810:	e1a03312 	lsl	r3, r2, r3
   16814:	e1a02003 	mov	r2, r3
   16818:	e51b3018 	ldr	r3, [fp, #-24]	; 0xffffffe8
   1681c:	e0833002 	add	r3, r3, r2
   16820:	e50b3018 	str	r3, [fp, #-24]	; 0xffffffe8
   16824:	e51b301c 	ldr	r3, [fp, #-28]	; 0xffffffe4
   16828:	e2833001 	add	r3, r3, #1
   1682c:	e50b301c 	str	r3, [fp, #-28]	; 0xffffffe4
   16830:	e51b201c 	ldr	r2, [fp, #-28]	; 0xffffffe4
   16834:	e51b3038 	ldr	r3, [fp, #-56]	; 0xffffffc8
   16838:	e1520003 	cmp	r2, r3
   1683c:	3affffed 	bcc	167f8 <Xil_L1DCacheFlush+0xd4>
   16840:	e51b3010 	ldr	r3, [fp, #-16]
   16844:	e2833101 	add	r3, r3, #1073741824	; 0x40000000
   16848:	e50b3010 	str	r3, [fp, #-16]
   1684c:	e51b3014 	ldr	r3, [fp, #-20]	; 0xffffffec
   16850:	e2833001 	add	r3, r3, #1
   16854:	e50b3014 	str	r3, [fp, #-20]	; 0xffffffec
   16858:	e51b2014 	ldr	r2, [fp, #-20]	; 0xffffffec
   1685c:	e51b3030 	ldr	r3, [fp, #-48]	; 0xffffffd0
   16860:	e1520003 	cmp	r2, r3
   16864:	3affffe0 	bcc	167ec <Xil_L1DCacheFlush+0xc8>
   16868:	f57ff04f 	dsb	sy
   1686c:	e51b3024 	ldr	r3, [fp, #-36]	; 0xffffffdc
   16870:	e129f003 	msr	CPSR_fc, r3
   16874:	e24bd008 	sub	sp, fp, #8
   16878:	e8bd8810 	pop	{r4, fp, pc}

0001687c <Xil_L1DCacheFlushLine>:
   1687c:	e52db004 	push	{fp}		; (str fp, [sp, #-4]!)
   16880:	e28db000 	add	fp, sp, #0
   16884:	e24dd00c 	sub	sp, sp, #12
   16888:	e50b0008 	str	r0, [fp, #-8]
   1688c:	e3a03000 	mov	r3, #0
   16890:	ee403f10 	mcr	15, 2, r3, cr0, cr0, {0}
   16894:	e51b3008 	ldr	r3, [fp, #-8]
   16898:	e3c3301f 	bic	r3, r3, #31
   1689c:	ee073f3e 	mcr	15, 0, r3, cr7, cr14, {1}
   168a0:	f57ff04f 	dsb	sy
   168a4:	e24bd000 	sub	sp, fp, #0
   168a8:	e49db004 	pop	{fp}		; (ldr fp, [sp], #4)
   168ac:	e12fff1e 	bx	lr

000168b0 <Xil_L1DCacheFlushRange>:
   168b0:	e52db004 	push	{fp}		; (str fp, [sp, #-4]!)
   168b4:	e28db000 	add	fp, sp, #0
   168b8:	e24dd01c 	sub	sp, sp, #28
   168bc:	e50b0018 	str	r0, [fp, #-24]	; 0xffffffe8
   168c0:	e50b101c 	str	r1, [fp, #-28]	; 0xffffffe4
   168c4:	e3a03020 	mov	r3, #32
   168c8:	e50b3008 	str	r3, [fp, #-8]
   168cc:	e10f3000 	mrs	r3, CPSR
   168d0:	e50b300c 	str	r3, [fp, #-12]
   168d4:	e51b300c 	ldr	r3, [fp, #-12]
   168d8:	e50b3010 	str	r3, [fp, #-16]
   168dc:	e51b3010 	ldr	r3, [fp, #-16]
   168e0:	e38330c0 	orr	r3, r3, #192	; 0xc0
   168e4:	e129f003 	msr	CPSR_fc, r3
   168e8:	e51b301c 	ldr	r3, [fp, #-28]	; 0xffffffe4
   168ec:	e3530000 	cmp	r3, #0
   168f0:	0a000015 	beq	1694c <Xil_L1DCacheFlushRange+0x9c>
   168f4:	e51b2018 	ldr	r2, [fp, #-24]	; 0xffffffe8
   168f8:	e51b301c 	ldr	r3, [fp, #-28]	; 0xffffffe4
   168fc:	e0823003 	add	r3, r2, r3
   16900:	e50b3014 	str	r3, [fp, #-20]	; 0xffffffec
   16904:	e51b3008 	ldr	r3, [fp, #-8]
   16908:	e2633000 	rsb	r3, r3, #0
   1690c:	e51b2018 	ldr	r2, [fp, #-24]	; 0xffffffe8
   16910:	e0033002 	and	r3, r3, r2
   16914:	e50b3018 	str	r3, [fp, #-24]	; 0xffffffe8
   16918:	e3a03000 	mov	r3, #0
   1691c:	ee403f10 	mcr	15, 2, r3, cr0, cr0, {0}
   16920:	ea000005 	b	1693c <Xil_L1DCacheFlushRange+0x8c>
   16924:	e51b3018 	ldr	r3, [fp, #-24]	; 0xffffffe8
   16928:	ee073f3e 	mcr	15, 0, r3, cr7, cr14, {1}
   1692c:	e51b2018 	ldr	r2, [fp, #-24]	; 0xffffffe8
   16930:	e51b3008 	ldr	r3, [fp, #-8]
   16934:	e0823003 	add	r3, r2, r3
   16938:	e50b3018 	str	r3, [fp, #-24]	; 0xffffffe8
   1693c:	e51b2018 	ldr	r2, [fp, #-24]	; 0xffffffe8
   16940:	e51b3014 	ldr	r3, [fp, #-20]	; 0xffffffec
   16944:	e1520003 	cmp	r2, r3
   16948:	3afffff5 	bcc	16924 <Xil_L1DCacheFlushRange+0x74>
   1694c:	f57ff04f 	dsb	sy
   16950:	e51b3010 	ldr	r3, [fp, #-16]
   16954:	e129f003 	msr	CPSR_fc, r3
   16958:	e24bd000 	sub	sp, fp, #0
   1695c:	e49db004 	pop	{fp}		; (ldr fp, [sp], #4)
   16960:	e12fff1e 	bx	lr

00016964 <Xil_L1DCacheStoreLine>:
   16964:	e52db004 	push	{fp}		; (str fp, [sp, #-4]!)
   16968:	e28db000 	add	fp, sp, #0
   1696c:	e24dd00c 	sub	sp, sp, #12
   16970:	e50b0008 	str	r0, [fp, #-8]
   16974:	e3a03000 	mov	r3, #0
   16978:	ee403f10 	mcr	15, 2, r3, cr0, cr0, {0}
   1697c:	e51b3008 	ldr	r3, [fp, #-8]
   16980:	e3c3301f 	bic	r3, r3, #31
   16984:	ee073f3a 	mcr	15, 0, r3, cr7, cr10, {1}
   16988:	f57ff04f 	dsb	sy
   1698c:	e24bd000 	sub	sp, fp, #0
   16990:	e49db004 	pop	{fp}		; (ldr fp, [sp], #4)
   16994:	e12fff1e 	bx	lr

00016998 <Xil_L1ICacheEnable>:
   16998:	e92d0810 	push	{r4, fp}
   1699c:	e28db004 	add	fp, sp, #4
   169a0:	e24dd008 	sub	sp, sp, #8
   169a4:	ee113f10 	mrc	15, 0, r3, cr1, cr0, {0}
   169a8:	e50b3008 	str	r3, [fp, #-8]
   169ac:	e51b3008 	ldr	r3, [fp, #-8]
   169b0:	e1a04003 	mov	r4, r3
   169b4:	e2043a01 	and	r3, r4, #4096	; 0x1000
   169b8:	e3530000 	cmp	r3, #0
   169bc:	0a000000 	beq	169c4 <Xil_L1ICacheEnable+0x2c>
   169c0:	ea000003 	b	169d4 <Xil_L1ICacheEnable+0x3c>
   169c4:	e3a03000 	mov	r3, #0
   169c8:	ee073f15 	mcr	15, 0, r3, cr7, cr5, {0}
   169cc:	e3844a01 	orr	r4, r4, #4096	; 0x1000
   169d0:	ee014f10 	mcr	15, 0, r4, cr1, cr0, {0}
   169d4:	e24bd004 	sub	sp, fp, #4
   169d8:	e8bd0810 	pop	{r4, fp}
   169dc:	e12fff1e 	bx	lr

000169e0 <Xil_L1ICacheDisable>:
   169e0:	e92d0810 	push	{r4, fp}
   169e4:	e28db004 	add	fp, sp, #4
   169e8:	e24dd008 	sub	sp, sp, #8
   169ec:	f57ff04f 	dsb	sy
   169f0:	e3a03000 	mov	r3, #0
   169f4:	ee073f15 	mcr	15, 0, r3, cr7, cr5, {0}
   169f8:	ee113f10 	mrc	15, 0, r3, cr1, cr0, {0}
   169fc:	e50b3008 	str	r3, [fp, #-8]
   16a00:	e51b3008 	ldr	r3, [fp, #-8]
   16a04:	e1a04003 	mov	r4, r3
   16a08:	e3c44a01 	bic	r4, r4, #4096	; 0x1000
   16a0c:	ee014f10 	mcr	15, 0, r4, cr1, cr0, {0}
   16a10:	e24bd004 	sub	sp, fp, #4
   16a14:	e8bd0810 	pop	{r4, fp}
   16a18:	e12fff1e 	bx	lr

00016a1c <Xil_L1ICacheInvalidate>:
   16a1c:	e52db004 	push	{fp}		; (str fp, [sp, #-4]!)
   16a20:	e28db000 	add	fp, sp, #0
   16a24:	e3a03001 	mov	r3, #1
   16a28:	ee403f10 	mcr	15, 2, r3, cr0, cr0, {0}
   16a2c:	e3a03000 	mov	r3, #0
   16a30:	ee073f15 	mcr	15, 0, r3, cr7, cr5, {0}
   16a34:	f57ff04f 	dsb	sy
   16a38:	e24bd000 	sub	sp, fp, #0
   16a3c:	e49db004 	pop	{fp}		; (ldr fp, [sp], #4)
   16a40:	e12fff1e 	bx	lr

00016a44 <Xil_L1ICacheInvalidateLine>:
   16a44:	e52db004 	push	{fp}		; (str fp, [sp, #-4]!)
   16a48:	e28db000 	add	fp, sp, #0
   16a4c:	e24dd00c 	sub	sp, sp, #12
   16a50:	e50b0008 	str	r0, [fp, #-8]
   16a54:	e3a03001 	mov	r3, #1
   16a58:	ee403f10 	mcr	15, 2, r3, cr0, cr0, {0}
   16a5c:	e51b3008 	ldr	r3, [fp, #-8]
   16a60:	e3c3301f 	bic	r3, r3, #31
   16a64:	ee073f35 	mcr	15, 0, r3, cr7, cr5, {1}
   16a68:	f57ff04f 	dsb	sy
   16a6c:	e24bd000 	sub	sp, fp, #0
   16a70:	e49db004 	pop	{fp}		; (ldr fp, [sp], #4)
   16a74:	e12fff1e 	bx	lr

00016a78 <Xil_L1ICacheInvalidateRange>:
   16a78:	e52db004 	push	{fp}		; (str fp, [sp, #-4]!)
   16a7c:	e28db000 	add	fp, sp, #0
   16a80:	e24dd01c 	sub	sp, sp, #28
   16a84:	e50b0018 	str	r0, [fp, #-24]	; 0xffffffe8
   16a88:	e50b101c 	str	r1, [fp, #-28]	; 0xffffffe4
   16a8c:	e3a03020 	mov	r3, #32
   16a90:	e50b3008 	str	r3, [fp, #-8]
   16a94:	e10f3000 	mrs	r3, CPSR
   16a98:	e50b300c 	str	r3, [fp, #-12]
   16a9c:	e51b300c 	ldr	r3, [fp, #-12]
   16aa0:	e50b3010 	str	r3, [fp, #-16]
   16aa4:	e51b3010 	ldr	r3, [fp, #-16]
   16aa8:	e38330c0 	orr	r3, r3, #192	; 0xc0
   16aac:	e129f003 	msr	CPSR_fc, r3
   16ab0:	e51b301c 	ldr	r3, [fp, #-28]	; 0xffffffe4
   16ab4:	e3530000 	cmp	r3, #0
   16ab8:	0a000015 	beq	16b14 <Xil_L1ICacheInvalidateRange+0x9c>
   16abc:	e51b2018 	ldr	r2, [fp, #-24]	; 0xffffffe8
   16ac0:	e51b301c 	ldr	r3, [fp, #-28]	; 0xffffffe4
   16ac4:	e0823003 	add	r3, r2, r3
   16ac8:	e50b3014 	str	r3, [fp, #-20]	; 0xffffffec
   16acc:	e51b3008 	ldr	r3, [fp, #-8]
   16ad0:	e2633000 	rsb	r3, r3, #0
   16ad4:	e51b2018 	ldr	r2, [fp, #-24]	; 0xffffffe8
   16ad8:	e0033002 	and	r3, r3, r2
   16adc:	e50b3018 	str	r3, [fp, #-24]	; 0xffffffe8
   16ae0:	e3a03001 	mov	r3, #1
   16ae4:	ee403f10 	mcr	15, 2, r3, cr0, cr0, {0}
   16ae8:	ea000005 	b	16b04 <Xil_L1ICacheInvalidateRange+0x8c>
   16aec:	e51b3018 	ldr	r3, [fp, #-24]	; 0xffffffe8
   16af0:	ee073f35 	mcr	15, 0, r3, cr7, cr5, {1}
   16af4:	e51b2018 	ldr	r2, [fp, #-24]	; 0xffffffe8
   16af8:	e51b3008 	ldr	r3, [fp, #-8]
   16afc:	e0823003 	add	r3, r2, r3
   16b00:	e50b3018 	str	r3, [fp, #-24]	; 0xffffffe8
   16b04:	e51b2018 	ldr	r2, [fp, #-24]	; 0xffffffe8
   16b08:	e51b3014 	ldr	r3, [fp, #-20]	; 0xffffffec
   16b0c:	e1520003 	cmp	r2, r3
   16b10:	3afffff5 	bcc	16aec <Xil_L1ICacheInvalidateRange+0x74>
   16b14:	f57ff04f 	dsb	sy
   16b18:	e51b3010 	ldr	r3, [fp, #-16]
   16b1c:	e129f003 	msr	CPSR_fc, r3
   16b20:	e24bd000 	sub	sp, fp, #0
   16b24:	e49db004 	pop	{fp}		; (ldr fp, [sp], #4)
   16b28:	e12fff1e 	bx	lr

00016b2c <Xil_L2CacheEnable>:
   16b2c:	e92d4818 	push	{r3, r4, fp, lr}
   16b30:	e28db00c 	add	fp, sp, #12
   16b34:	e3a00c21 	mov	r0, #8448	; 0x2100
   16b38:	e34f08f0 	movt	r0, #63728	; 0xf8f0
   16b3c:	ebffe477 	bl	fd20 <Xil_In32>
   16b40:	e1a04000 	mov	r4, r0
   16b44:	e2043001 	and	r3, r4, #1
   16b48:	e3530000 	cmp	r3, #0
   16b4c:	1a000027 	bne	16bf0 <Xil_L2CacheEnable+0xc4>
   16b50:	e3020104 	movw	r0, #8452	; 0x2104
   16b54:	e34f08f0 	movt	r0, #63728	; 0xf8f0
   16b58:	ebffe470 	bl	fd20 <Xil_In32>
   16b5c:	e1a04000 	mov	r4, r0
   16b60:	e3c4480e 	bic	r4, r4, #917504	; 0xe0000
   16b64:	e3843472 	orr	r3, r4, #1912602624	; 0x72000000
   16b68:	e3833836 	orr	r3, r3, #3538944	; 0x360000
   16b6c:	e1a04003 	mov	r4, r3
   16b70:	e3020104 	movw	r0, #8452	; 0x2104
   16b74:	e34f08f0 	movt	r0, #63728	; 0xf8f0
   16b78:	e1a01004 	mov	r1, r4
   16b7c:	ebffe489 	bl	fda8 <Xil_Out32>
   16b80:	e3020108 	movw	r0, #8456	; 0x2108
   16b84:	e34f08f0 	movt	r0, #63728	; 0xf8f0
   16b88:	e3001111 	movw	r1, #273	; 0x111
   16b8c:	ebffe485 	bl	fda8 <Xil_Out32>
   16b90:	e302010c 	movw	r0, #8460	; 0x210c
   16b94:	e34f08f0 	movt	r0, #63728	; 0xf8f0
   16b98:	e3001121 	movw	r1, #289	; 0x121
   16b9c:	ebffe481 	bl	fda8 <Xil_Out32>
   16ba0:	e302021c 	movw	r0, #8732	; 0x221c
   16ba4:	e34f08f0 	movt	r0, #63728	; 0xf8f0
   16ba8:	ebffe45c 	bl	fd20 <Xil_In32>
   16bac:	e1a04000 	mov	r4, r0
   16bb0:	e3020220 	movw	r0, #8736	; 0x2220
   16bb4:	e34f08f0 	movt	r0, #63728	; 0xf8f0
   16bb8:	e1a01004 	mov	r1, r4
   16bbc:	ebffe479 	bl	fda8 <Xil_Out32>
   16bc0:	eb000020 	bl	16c48 <Xil_L2CacheInvalidate>
   16bc4:	e3a00c21 	mov	r0, #8448	; 0x2100
   16bc8:	e34f08f0 	movt	r0, #63728	; 0xf8f0
   16bcc:	ebffe453 	bl	fd20 <Xil_In32>
   16bd0:	e1a04000 	mov	r4, r0
   16bd4:	e3843001 	orr	r3, r4, #1
   16bd8:	e3a00c21 	mov	r0, #8448	; 0x2100
   16bdc:	e34f08f0 	movt	r0, #63728	; 0xf8f0
   16be0:	e1a01003 	mov	r1, r3
   16be4:	ebffe46f 	bl	fda8 <Xil_Out32>
   16be8:	ebfffcc3 	bl	15efc <Xil_L2CacheSync>
   16bec:	f57ff04f 	dsb	sy
   16bf0:	e8bd8818 	pop	{r3, r4, fp, pc}

00016bf4 <Xil_L2CacheDisable>:
   16bf4:	e92d4818 	push	{r3, r4, fp, lr}
   16bf8:	e28db00c 	add	fp, sp, #12
   16bfc:	e3a00c21 	mov	r0, #8448	; 0x2100
   16c00:	e34f08f0 	movt	r0, #63728	; 0xf8f0
   16c04:	ebffe445 	bl	fd20 <Xil_In32>
   16c08:	e1a04000 	mov	r4, r0
   16c0c:	e2043001 	and	r3, r4, #1
   16c10:	e3530000 	cmp	r3, #0
   16c14:	0a00000a 	beq	16c44 <Xil_L2CacheDisable+0x50>
   16c18:	eb000058 	bl	16d80 <Xil_L2CacheFlush>
   16c1c:	e3a00c21 	mov	r0, #8448	; 0x2100
   16c20:	e34f08f0 	movt	r0, #63728	; 0xf8f0
   16c24:	ebffe43d 	bl	fd20 <Xil_In32>
   16c28:	e1a04000 	mov	r4, r0
   16c2c:	e3c43001 	bic	r3, r4, #1
   16c30:	e3a00c21 	mov	r0, #8448	; 0x2100
   16c34:	e34f08f0 	movt	r0, #63728	; 0xf8f0
   16c38:	e1a01003 	mov	r1, r3
   16c3c:	ebffe459 	bl	fda8 <Xil_Out32>
   16c40:	f57ff04f 	dsb	sy
   16c44:	e8bd8818 	pop	{r3, r4, fp, pc}

00016c48 <Xil_L2CacheInvalidate>:
   16c48:	e92d4800 	push	{fp, lr}
   16c4c:	e28db004 	add	fp, sp, #4
   16c50:	e302077c 	movw	r0, #10108	; 0x277c
   16c54:	e34f08f0 	movt	r0, #63728	; 0xf8f0
   16c58:	e30f1fff 	movw	r1, #65535	; 0xffff
   16c5c:	ebffe451 	bl	fda8 <Xil_Out32>
   16c60:	e1a00000 	nop			; (mov r0, r0)
   16c64:	e302077c 	movw	r0, #10108	; 0x277c
   16c68:	e34f08f0 	movt	r0, #63728	; 0xf8f0
   16c6c:	ebffe42b 	bl	fd20 <Xil_In32>
   16c70:	e1a03000 	mov	r3, r0
   16c74:	e6ff3073 	uxth	r3, r3
   16c78:	e3530000 	cmp	r3, #0
   16c7c:	1afffff8 	bne	16c64 <Xil_L2CacheInvalidate+0x1c>
   16c80:	ebfffc9d 	bl	15efc <Xil_L2CacheSync>
   16c84:	f57ff04f 	dsb	sy
   16c88:	e8bd8800 	pop	{fp, pc}

00016c8c <Xil_L2CacheInvalidateLine>:
   16c8c:	e92d4800 	push	{fp, lr}
   16c90:	e28db004 	add	fp, sp, #4
   16c94:	e24dd008 	sub	sp, sp, #8
   16c98:	e50b0008 	str	r0, [fp, #-8]
   16c9c:	e3020770 	movw	r0, #10096	; 0x2770
   16ca0:	e34f08f0 	movt	r0, #63728	; 0xf8f0
   16ca4:	e51b1008 	ldr	r1, [fp, #-8]
   16ca8:	ebffe43e 	bl	fda8 <Xil_Out32>
   16cac:	f57ff04f 	dsb	sy
   16cb0:	e24bd004 	sub	sp, fp, #4
   16cb4:	e8bd8800 	pop	{fp, pc}

00016cb8 <Xil_L2CacheInvalidateRange>:
   16cb8:	e92d4800 	push	{fp, lr}
   16cbc:	e28db004 	add	fp, sp, #4
   16cc0:	e24dd020 	sub	sp, sp, #32
   16cc4:	e50b0020 	str	r0, [fp, #-32]	; 0xffffffe0
   16cc8:	e50b1024 	str	r1, [fp, #-36]	; 0xffffffdc
   16ccc:	e3a03020 	mov	r3, #32
   16cd0:	e50b3008 	str	r3, [fp, #-8]
   16cd4:	e3023770 	movw	r3, #10096	; 0x2770
   16cd8:	e34f38f0 	movt	r3, #63728	; 0xf8f0
   16cdc:	e50b300c 	str	r3, [fp, #-12]
   16ce0:	e10f3000 	mrs	r3, CPSR
   16ce4:	e50b3010 	str	r3, [fp, #-16]
   16ce8:	e51b3010 	ldr	r3, [fp, #-16]
   16cec:	e50b3014 	str	r3, [fp, #-20]	; 0xffffffec
   16cf0:	e51b3014 	ldr	r3, [fp, #-20]	; 0xffffffec
   16cf4:	e38330c0 	orr	r3, r3, #192	; 0xc0
   16cf8:	e129f003 	msr	CPSR_fc, r3
   16cfc:	e51b3024 	ldr	r3, [fp, #-36]	; 0xffffffdc
   16d00:	e3530000 	cmp	r3, #0
   16d04:	0a000018 	beq	16d6c <Xil_L2CacheInvalidateRange+0xb4>
   16d08:	e51b2020 	ldr	r2, [fp, #-32]	; 0xffffffe0
   16d0c:	e51b3024 	ldr	r3, [fp, #-36]	; 0xffffffdc
   16d10:	e0823003 	add	r3, r2, r3
   16d14:	e50b3018 	str	r3, [fp, #-24]	; 0xffffffe8
   16d18:	e51b3008 	ldr	r3, [fp, #-8]
   16d1c:	e2633000 	rsb	r3, r3, #0
   16d20:	e51b2020 	ldr	r2, [fp, #-32]	; 0xffffffe0
   16d24:	e0033002 	and	r3, r3, r2
   16d28:	e50b3020 	str	r3, [fp, #-32]	; 0xffffffe0
   16d2c:	e3a00003 	mov	r0, #3
   16d30:	ebfffc66 	bl	15ed0 <Xil_L2WriteDebugCtrl>
   16d34:	ea000006 	b	16d54 <Xil_L2CacheInvalidateRange+0x9c>
   16d38:	e51b300c 	ldr	r3, [fp, #-12]
   16d3c:	e51b2020 	ldr	r2, [fp, #-32]	; 0xffffffe0
   16d40:	e5832000 	str	r2, [r3]
   16d44:	e51b2020 	ldr	r2, [fp, #-32]	; 0xffffffe0
   16d48:	e51b3008 	ldr	r3, [fp, #-8]
   16d4c:	e0823003 	add	r3, r2, r3
   16d50:	e50b3020 	str	r3, [fp, #-32]	; 0xffffffe0
   16d54:	e51b2020 	ldr	r2, [fp, #-32]	; 0xffffffe0
   16d58:	e51b3018 	ldr	r3, [fp, #-24]	; 0xffffffe8
   16d5c:	e1520003 	cmp	r2, r3
   16d60:	3afffff4 	bcc	16d38 <Xil_L2CacheInvalidateRange+0x80>
   16d64:	e3a00000 	mov	r0, #0
   16d68:	ebfffc58 	bl	15ed0 <Xil_L2WriteDebugCtrl>
   16d6c:	f57ff04f 	dsb	sy
   16d70:	e51b3014 	ldr	r3, [fp, #-20]	; 0xffffffec
   16d74:	e129f003 	msr	CPSR_fc, r3
   16d78:	e24bd004 	sub	sp, fp, #4
   16d7c:	e8bd8800 	pop	{fp, pc}

00016d80 <Xil_L2CacheFlush>:
   16d80:	e92d4800 	push	{fp, lr}
   16d84:	e28db004 	add	fp, sp, #4
   16d88:	e3a00003 	mov	r0, #3
   16d8c:	ebfffc4f 	bl	15ed0 <Xil_L2WriteDebugCtrl>
   16d90:	e30207fc 	movw	r0, #10236	; 0x27fc
   16d94:	e34f08f0 	movt	r0, #63728	; 0xf8f0
   16d98:	e30f1fff 	movw	r1, #65535	; 0xffff
   16d9c:	ebffe401 	bl	fda8 <Xil_Out32>
   16da0:	e1a00000 	nop			; (mov r0, r0)
   16da4:	e30207fc 	movw	r0, #10236	; 0x27fc
   16da8:	e34f08f0 	movt	r0, #63728	; 0xf8f0
   16dac:	ebffe3db 	bl	fd20 <Xil_In32>
   16db0:	e1a03000 	mov	r3, r0
   16db4:	e6ff3073 	uxth	r3, r3
   16db8:	e3530000 	cmp	r3, #0
   16dbc:	1afffff8 	bne	16da4 <Xil_L2CacheFlush+0x24>
   16dc0:	ebfffc4d 	bl	15efc <Xil_L2CacheSync>
   16dc4:	e3a00000 	mov	r0, #0
   16dc8:	ebfffc40 	bl	15ed0 <Xil_L2WriteDebugCtrl>
   16dcc:	f57ff04f 	dsb	sy
   16dd0:	e8bd8800 	pop	{fp, pc}

00016dd4 <Xil_L2CacheFlushLine>:
   16dd4:	e92d4800 	push	{fp, lr}
   16dd8:	e28db004 	add	fp, sp, #4
   16ddc:	e24dd008 	sub	sp, sp, #8
   16de0:	e50b0008 	str	r0, [fp, #-8]
   16de4:	e30207b0 	movw	r0, #10160	; 0x27b0
   16de8:	e34f08f0 	movt	r0, #63728	; 0xf8f0
   16dec:	e51b1008 	ldr	r1, [fp, #-8]
   16df0:	ebffe3ec 	bl	fda8 <Xil_Out32>
   16df4:	e3020770 	movw	r0, #10096	; 0x2770
   16df8:	e34f08f0 	movt	r0, #63728	; 0xf8f0
   16dfc:	e51b1008 	ldr	r1, [fp, #-8]
   16e00:	ebffe3e8 	bl	fda8 <Xil_Out32>
   16e04:	f57ff04f 	dsb	sy
   16e08:	e24bd004 	sub	sp, fp, #4
   16e0c:	e8bd8800 	pop	{fp, pc}

00016e10 <Xil_L2CacheFlushRange>:
   16e10:	e92d4800 	push	{fp, lr}
   16e14:	e28db004 	add	fp, sp, #4
   16e18:	e24dd020 	sub	sp, sp, #32
   16e1c:	e50b0020 	str	r0, [fp, #-32]	; 0xffffffe0
   16e20:	e50b1024 	str	r1, [fp, #-36]	; 0xffffffdc
   16e24:	e3a03020 	mov	r3, #32
   16e28:	e50b3008 	str	r3, [fp, #-8]
   16e2c:	e30237f0 	movw	r3, #10224	; 0x27f0
   16e30:	e34f38f0 	movt	r3, #63728	; 0xf8f0
   16e34:	e50b300c 	str	r3, [fp, #-12]
   16e38:	e10f3000 	mrs	r3, CPSR
   16e3c:	e50b3010 	str	r3, [fp, #-16]
   16e40:	e51b3010 	ldr	r3, [fp, #-16]
   16e44:	e50b3014 	str	r3, [fp, #-20]	; 0xffffffec
   16e48:	e51b3014 	ldr	r3, [fp, #-20]	; 0xffffffec
   16e4c:	e38330c0 	orr	r3, r3, #192	; 0xc0
   16e50:	e129f003 	msr	CPSR_fc, r3
   16e54:	e51b3024 	ldr	r3, [fp, #-36]	; 0xffffffdc
   16e58:	e3530000 	cmp	r3, #0
   16e5c:	0a000019 	beq	16ec8 <Xil_L2CacheFlushRange+0xb8>
   16e60:	e51b2020 	ldr	r2, [fp, #-32]	; 0xffffffe0
   16e64:	e51b3024 	ldr	r3, [fp, #-36]	; 0xffffffdc
   16e68:	e0823003 	add	r3, r2, r3
   16e6c:	e50b3018 	str	r3, [fp, #-24]	; 0xffffffe8
   16e70:	e51b3008 	ldr	r3, [fp, #-8]
   16e74:	e2633000 	rsb	r3, r3, #0
   16e78:	e51b2020 	ldr	r2, [fp, #-32]	; 0xffffffe0
   16e7c:	e0033002 	and	r3, r3, r2
   16e80:	e50b3020 	str	r3, [fp, #-32]	; 0xffffffe0
   16e84:	e3a00003 	mov	r0, #3
   16e88:	ebfffc10 	bl	15ed0 <Xil_L2WriteDebugCtrl>
   16e8c:	ea000007 	b	16eb0 <Xil_L2CacheFlushRange+0xa0>
   16e90:	e51b300c 	ldr	r3, [fp, #-12]
   16e94:	e51b2020 	ldr	r2, [fp, #-32]	; 0xffffffe0
   16e98:	e5832000 	str	r2, [r3]
   16e9c:	ebfffc16 	bl	15efc <Xil_L2CacheSync>
   16ea0:	e51b2020 	ldr	r2, [fp, #-32]	; 0xffffffe0
   16ea4:	e51b3008 	ldr	r3, [fp, #-8]
   16ea8:	e0823003 	add	r3, r2, r3
   16eac:	e50b3020 	str	r3, [fp, #-32]	; 0xffffffe0
   16eb0:	e51b2020 	ldr	r2, [fp, #-32]	; 0xffffffe0
   16eb4:	e51b3018 	ldr	r3, [fp, #-24]	; 0xffffffe8
   16eb8:	e1520003 	cmp	r2, r3
   16ebc:	3afffff3 	bcc	16e90 <Xil_L2CacheFlushRange+0x80>
   16ec0:	e3a00000 	mov	r0, #0
   16ec4:	ebfffc01 	bl	15ed0 <Xil_L2WriteDebugCtrl>
   16ec8:	f57ff04f 	dsb	sy
   16ecc:	e51b3014 	ldr	r3, [fp, #-20]	; 0xffffffec
   16ed0:	e129f003 	msr	CPSR_fc, r3
   16ed4:	e24bd004 	sub	sp, fp, #4
   16ed8:	e8bd8800 	pop	{fp, pc}

00016edc <Xil_L2CacheStoreLine>:
   16edc:	e92d4800 	push	{fp, lr}
   16ee0:	e28db004 	add	fp, sp, #4
   16ee4:	e24dd008 	sub	sp, sp, #8
   16ee8:	e50b0008 	str	r0, [fp, #-8]
   16eec:	e30207b0 	movw	r0, #10160	; 0x27b0
   16ef0:	e34f08f0 	movt	r0, #63728	; 0xf8f0
   16ef4:	e51b1008 	ldr	r1, [fp, #-8]
   16ef8:	ebffe3aa 	bl	fda8 <Xil_Out32>
   16efc:	f57ff04f 	dsb	sy
   16f00:	e24bd004 	sub	sp, fp, #4
   16f04:	e8bd8800 	pop	{fp, pc}

00016f08 <DistInit>:
   16f08:	e92d4800 	push	{fp, lr}
   16f0c:	e28db004 	add	fp, sp, #4
   16f10:	e24dd010 	sub	sp, sp, #16
   16f14:	e50b0010 	str	r0, [fp, #-16]
   16f18:	e50b1014 	str	r1, [fp, #-20]	; 0xffffffec
   16f1c:	e51b3010 	ldr	r3, [fp, #-16]
   16f20:	e5933000 	ldr	r3, [r3]
   16f24:	e5933008 	ldr	r3, [r3, #8]
   16f28:	e1a00003 	mov	r0, r3
   16f2c:	e3a01000 	mov	r1, #0
   16f30:	ebffe39c 	bl	fda8 <Xil_Out32>
   16f34:	e3a03020 	mov	r3, #32
   16f38:	e50b3008 	str	r3, [fp, #-8]
   16f3c:	ea00000d 	b	16f78 <DistInit+0x70>
   16f40:	e51b3010 	ldr	r3, [fp, #-16]
   16f44:	e5933000 	ldr	r3, [r3]
   16f48:	e5932008 	ldr	r2, [r3, #8]
   16f4c:	e51b3008 	ldr	r3, [fp, #-8]
   16f50:	e1a03223 	lsr	r3, r3, #4
   16f54:	e2833c03 	add	r3, r3, #768	; 0x300
   16f58:	e1a03103 	lsl	r3, r3, #2
   16f5c:	e0823003 	add	r3, r2, r3
   16f60:	e1a00003 	mov	r0, r3
   16f64:	e3a01000 	mov	r1, #0
   16f68:	ebffe38e 	bl	fda8 <Xil_Out32>
   16f6c:	e51b3008 	ldr	r3, [fp, #-8]
   16f70:	e2833010 	add	r3, r3, #16
   16f74:	e50b3008 	str	r3, [fp, #-8]
   16f78:	e51b3008 	ldr	r3, [fp, #-8]
   16f7c:	e353005e 	cmp	r3, #94	; 0x5e
   16f80:	9affffee 	bls	16f40 <DistInit+0x38>
   16f84:	e3a03000 	mov	r3, #0
   16f88:	e50b3008 	str	r3, [fp, #-8]
   16f8c:	ea00000e 	b	16fcc <DistInit+0xc4>
   16f90:	e51b3010 	ldr	r3, [fp, #-16]
   16f94:	e5933000 	ldr	r3, [r3]
   16f98:	e5932008 	ldr	r2, [r3, #8]
   16f9c:	e51b3008 	ldr	r3, [fp, #-8]
   16fa0:	e1a03123 	lsr	r3, r3, #2
   16fa4:	e2833c01 	add	r3, r3, #256	; 0x100
   16fa8:	e1a03103 	lsl	r3, r3, #2
   16fac:	e0823003 	add	r3, r2, r3
   16fb0:	e1a00003 	mov	r0, r3
   16fb4:	e30a10a0 	movw	r1, #41120	; 0xa0a0
   16fb8:	e34a10a0 	movt	r1, #41120	; 0xa0a0
   16fbc:	ebffe379 	bl	fda8 <Xil_Out32>
   16fc0:	e51b3008 	ldr	r3, [fp, #-8]
   16fc4:	e2833004 	add	r3, r3, #4
   16fc8:	e50b3008 	str	r3, [fp, #-8]
   16fcc:	e51b3008 	ldr	r3, [fp, #-8]
   16fd0:	e353005e 	cmp	r3, #94	; 0x5e
   16fd4:	9affffed 	bls	16f90 <DistInit+0x88>
   16fd8:	e3a03020 	mov	r3, #32
   16fdc:	e50b3008 	str	r3, [fp, #-8]
   16fe0:	ea000017 	b	17044 <DistInit+0x13c>
   16fe4:	e51b3014 	ldr	r3, [fp, #-20]	; 0xffffffec
   16fe8:	e1a03403 	lsl	r3, r3, #8
   16fec:	e51b2014 	ldr	r2, [fp, #-20]	; 0xffffffec
   16ff0:	e1823003 	orr	r3, r2, r3
   16ff4:	e50b3014 	str	r3, [fp, #-20]	; 0xffffffec
   16ff8:	e51b3014 	ldr	r3, [fp, #-20]	; 0xffffffec
   16ffc:	e1a03803 	lsl	r3, r3, #16
   17000:	e51b2014 	ldr	r2, [fp, #-20]	; 0xffffffec
   17004:	e1823003 	orr	r3, r2, r3
   17008:	e50b3014 	str	r3, [fp, #-20]	; 0xffffffec
   1700c:	e51b3010 	ldr	r3, [fp, #-16]
   17010:	e5933000 	ldr	r3, [r3]
   17014:	e5932008 	ldr	r2, [r3, #8]
   17018:	e51b3008 	ldr	r3, [fp, #-8]
   1701c:	e1a03123 	lsr	r3, r3, #2
   17020:	e2833c02 	add	r3, r3, #512	; 0x200
   17024:	e1a03103 	lsl	r3, r3, #2
   17028:	e0823003 	add	r3, r2, r3
   1702c:	e1a00003 	mov	r0, r3
   17030:	e51b1014 	ldr	r1, [fp, #-20]	; 0xffffffec
   17034:	ebffe35b 	bl	fda8 <Xil_Out32>
   17038:	e51b3008 	ldr	r3, [fp, #-8]
   1703c:	e2833004 	add	r3, r3, #4
   17040:	e50b3008 	str	r3, [fp, #-8]
   17044:	e51b3008 	ldr	r3, [fp, #-8]
   17048:	e353005e 	cmp	r3, #94	; 0x5e
   1704c:	9affffe4 	bls	16fe4 <DistInit+0xdc>
   17050:	e3a03000 	mov	r3, #0
   17054:	e50b3008 	str	r3, [fp, #-8]
   17058:	ea00000d 	b	17094 <DistInit+0x18c>
   1705c:	e51b3010 	ldr	r3, [fp, #-16]
   17060:	e5933000 	ldr	r3, [r3]
   17064:	e5932008 	ldr	r2, [r3, #8]
   17068:	e51b3008 	ldr	r3, [fp, #-8]
   1706c:	e1a032a3 	lsr	r3, r3, #5
   17070:	e2833060 	add	r3, r3, #96	; 0x60
   17074:	e1a03103 	lsl	r3, r3, #2
   17078:	e0823003 	add	r3, r2, r3
   1707c:	e1a00003 	mov	r0, r3
   17080:	e3e01000 	mvn	r1, #0
   17084:	ebffe347 	bl	fda8 <Xil_Out32>
   17088:	e51b3008 	ldr	r3, [fp, #-8]
   1708c:	e2833020 	add	r3, r3, #32
   17090:	e50b3008 	str	r3, [fp, #-8]
   17094:	e51b3008 	ldr	r3, [fp, #-8]
   17098:	e353005e 	cmp	r3, #94	; 0x5e
   1709c:	9affffee 	bls	1705c <DistInit+0x154>
   170a0:	e51b3010 	ldr	r3, [fp, #-16]
   170a4:	e5933000 	ldr	r3, [r3]
   170a8:	e5933008 	ldr	r3, [r3, #8]
   170ac:	e1a00003 	mov	r0, r3
   170b0:	e3a01001 	mov	r1, #1
   170b4:	ebffe33b 	bl	fda8 <Xil_Out32>
   170b8:	e24bd004 	sub	sp, fp, #4
   170bc:	e8bd8800 	pop	{fp, pc}

000170c0 <CPUInit>:
   170c0:	e92d4800 	push	{fp, lr}
   170c4:	e28db004 	add	fp, sp, #4
   170c8:	e24dd008 	sub	sp, sp, #8
   170cc:	e50b0008 	str	r0, [fp, #-8]
   170d0:	e51b3008 	ldr	r3, [fp, #-8]
   170d4:	e5933000 	ldr	r3, [r3]
   170d8:	e5933004 	ldr	r3, [r3, #4]
   170dc:	e2833004 	add	r3, r3, #4
   170e0:	e1a00003 	mov	r0, r3
   170e4:	e3a010f0 	mov	r1, #240	; 0xf0
   170e8:	ebffe32e 	bl	fda8 <Xil_Out32>
   170ec:	e51b3008 	ldr	r3, [fp, #-8]
   170f0:	e5933000 	ldr	r3, [r3]
   170f4:	e5933004 	ldr	r3, [r3, #4]
   170f8:	e1a00003 	mov	r0, r3
   170fc:	e3a01007 	mov	r1, #7
   17100:	ebffe328 	bl	fda8 <Xil_Out32>
   17104:	e24bd004 	sub	sp, fp, #4
   17108:	e8bd8800 	pop	{fp, pc}

0001710c <XScuGic_CfgInitialize>:
   1710c:	e92d4800 	push	{fp, lr}
   17110:	e28db004 	add	fp, sp, #4
   17114:	e24dd018 	sub	sp, sp, #24
   17118:	e50b0010 	str	r0, [fp, #-16]
   1711c:	e50b1014 	str	r1, [fp, #-20]	; 0xffffffec
   17120:	e50b2018 	str	r2, [fp, #-24]	; 0xffffffe8
   17124:	e3a03001 	mov	r3, #1
   17128:	e54b3009 	strb	r3, [fp, #-9]
   1712c:	e51b3010 	ldr	r3, [fp, #-16]
   17130:	e3530000 	cmp	r3, #0
   17134:	0a000007 	beq	17158 <XScuGic_CfgInitialize+0x4c>
   17138:	e30c3768 	movw	r3, #51048	; 0xc768
   1713c:	e3403001 	movt	r3, #1
   17140:	e3a02000 	mov	r2, #0
   17144:	e5832000 	str	r2, [r3]
   17148:	e51b3014 	ldr	r3, [fp, #-20]	; 0xffffffec
   1714c:	e3530000 	cmp	r3, #0
   17150:	0a00001b 	beq	171c4 <XScuGic_CfgInitialize+0xb8>
   17154:	ea000009 	b	17180 <XScuGic_CfgInitialize+0x74>
   17158:	e30b0efc 	movw	r0, #48892	; 0xbefc
   1715c:	e3400001 	movt	r0, #1
   17160:	e300113b 	movw	r1, #315	; 0x13b
   17164:	ebffe2b4 	bl	fc3c <Xil_Assert>
   17168:	e30c3768 	movw	r3, #51048	; 0xc768
   1716c:	e3403001 	movt	r3, #1
   17170:	e3a02001 	mov	r2, #1
   17174:	e5832000 	str	r2, [r3]
   17178:	e3a03000 	mov	r3, #0
   1717c:	ea000045 	b	17298 <XScuGic_CfgInitialize+0x18c>
   17180:	e30c3768 	movw	r3, #51048	; 0xc768
   17184:	e3403001 	movt	r3, #1
   17188:	e3a02000 	mov	r2, #0
   1718c:	e5832000 	str	r2, [r3]
   17190:	e51b3010 	ldr	r3, [fp, #-16]
   17194:	e5933000 	ldr	r3, [r3]
   17198:	e51b2018 	ldr	r2, [fp, #-24]	; 0xffffffe8
   1719c:	e5832004 	str	r2, [r3, #4]
   171a0:	e51b3010 	ldr	r3, [fp, #-16]
   171a4:	e3a02000 	mov	r2, #0
   171a8:	e5832004 	str	r2, [r3, #4]
   171ac:	e51b3010 	ldr	r3, [fp, #-16]
   171b0:	e51b2014 	ldr	r2, [fp, #-20]	; 0xffffffec
   171b4:	e5832000 	str	r2, [r3]
   171b8:	e3a03000 	mov	r3, #0
   171bc:	e50b3008 	str	r3, [fp, #-8]
   171c0:	ea000026 	b	17260 <XScuGic_CfgInitialize+0x154>
   171c4:	e30b0efc 	movw	r0, #48892	; 0xbefc
   171c8:	e3400001 	movt	r0, #1
   171cc:	e3a01f4f 	mov	r1, #316	; 0x13c
   171d0:	ebffe299 	bl	fc3c <Xil_Assert>
   171d4:	e30c3768 	movw	r3, #51048	; 0xc768
   171d8:	e3403001 	movt	r3, #1
   171dc:	e3a02001 	mov	r2, #1
   171e0:	e5832000 	str	r2, [r3]
   171e4:	e3a03000 	mov	r3, #0
   171e8:	ea00002a 	b	17298 <XScuGic_CfgInitialize+0x18c>
   171ec:	e51b3010 	ldr	r3, [fp, #-16]
   171f0:	e5932000 	ldr	r2, [r3]
   171f4:	e51b3008 	ldr	r3, [fp, #-8]
   171f8:	e2833001 	add	r3, r3, #1
   171fc:	e1a03183 	lsl	r3, r3, #3
   17200:	e0823003 	add	r3, r2, r3
   17204:	e5933004 	ldr	r3, [r3, #4]
   17208:	e3530000 	cmp	r3, #0
   1720c:	1a000008 	bne	17234 <XScuGic_CfgInitialize+0x128>
   17210:	e51b3010 	ldr	r3, [fp, #-16]
   17214:	e5932000 	ldr	r2, [r3]
   17218:	e51b3008 	ldr	r3, [fp, #-8]
   1721c:	e2833001 	add	r3, r3, #1
   17220:	e1a03183 	lsl	r3, r3, #3
   17224:	e0823003 	add	r3, r2, r3
   17228:	e30729a4 	movw	r2, #31140	; 0x79a4
   1722c:	e3402001 	movt	r2, #1
   17230:	e5832004 	str	r2, [r3, #4]
   17234:	e51b3010 	ldr	r3, [fp, #-16]
   17238:	e5932000 	ldr	r2, [r3]
   1723c:	e51b3008 	ldr	r3, [fp, #-8]
   17240:	e2833001 	add	r3, r3, #1
   17244:	e1a03183 	lsl	r3, r3, #3
   17248:	e0823003 	add	r3, r2, r3
   1724c:	e51b2010 	ldr	r2, [fp, #-16]
   17250:	e5832008 	str	r2, [r3, #8]
   17254:	e51b3008 	ldr	r3, [fp, #-8]
   17258:	e2833001 	add	r3, r3, #1
   1725c:	e50b3008 	str	r3, [fp, #-8]
   17260:	e51b3008 	ldr	r3, [fp, #-8]
   17264:	e353005e 	cmp	r3, #94	; 0x5e
   17268:	9affffdf 	bls	171ec <XScuGic_CfgInitialize+0xe0>
   1726c:	e55b3009 	ldrb	r3, [fp, #-9]
   17270:	e51b0010 	ldr	r0, [fp, #-16]
   17274:	e1a01003 	mov	r1, r3
   17278:	ebffff22 	bl	16f08 <DistInit>
   1727c:	e51b0010 	ldr	r0, [fp, #-16]
   17280:	ebffff8e 	bl	170c0 <CPUInit>
   17284:	e51b2010 	ldr	r2, [fp, #-16]
   17288:	e3013111 	movw	r3, #4369	; 0x1111
   1728c:	e3413111 	movt	r3, #4369	; 0x1111
   17290:	e5823004 	str	r3, [r2, #4]
   17294:	e3a03000 	mov	r3, #0
   17298:	e1a00003 	mov	r0, r3
   1729c:	e24bd004 	sub	sp, fp, #4
   172a0:	e8bd8800 	pop	{fp, pc}

000172a4 <XScuGic_Connect>:
   172a4:	e92d4800 	push	{fp, lr}
   172a8:	e28db004 	add	fp, sp, #4
   172ac:	e24dd010 	sub	sp, sp, #16
   172b0:	e50b0008 	str	r0, [fp, #-8]
   172b4:	e50b100c 	str	r1, [fp, #-12]
   172b8:	e50b2010 	str	r2, [fp, #-16]
   172bc:	e50b3014 	str	r3, [fp, #-20]	; 0xffffffec
   172c0:	e51b3008 	ldr	r3, [fp, #-8]
   172c4:	e3530000 	cmp	r3, #0
   172c8:	0a000007 	beq	172ec <XScuGic_Connect+0x48>
   172cc:	e30c3768 	movw	r3, #51048	; 0xc768
   172d0:	e3403001 	movt	r3, #1
   172d4:	e3a02000 	mov	r2, #0
   172d8:	e5832000 	str	r2, [r3]
   172dc:	e51b300c 	ldr	r3, [fp, #-12]
   172e0:	e353005e 	cmp	r3, #94	; 0x5e
   172e4:	8a000012 	bhi	17334 <XScuGic_Connect+0x90>
   172e8:	ea000009 	b	17314 <XScuGic_Connect+0x70>
   172ec:	e30b0efc 	movw	r0, #48892	; 0xbefc
   172f0:	e3400001 	movt	r0, #1
   172f4:	e300117e 	movw	r1, #382	; 0x17e
   172f8:	ebffe24f 	bl	fc3c <Xil_Assert>
   172fc:	e30c3768 	movw	r3, #51048	; 0xc768
   17300:	e3403001 	movt	r3, #1
   17304:	e3a02001 	mov	r2, #1
   17308:	e5832000 	str	r2, [r3]
   1730c:	e3a03000 	mov	r3, #0
   17310:	ea000045 	b	1742c <XScuGic_Connect+0x188>
   17314:	e30c3768 	movw	r3, #51048	; 0xc768
   17318:	e3403001 	movt	r3, #1
   1731c:	e3a02000 	mov	r2, #0
   17320:	e5832000 	str	r2, [r3]
   17324:	e51b3010 	ldr	r3, [fp, #-16]
   17328:	e3530000 	cmp	r3, #0
   1732c:	0a000015 	beq	17388 <XScuGic_Connect+0xe4>
   17330:	ea000009 	b	1735c <XScuGic_Connect+0xb8>
   17334:	e30b0efc 	movw	r0, #48892	; 0xbefc
   17338:	e3400001 	movt	r0, #1
   1733c:	e300117f 	movw	r1, #383	; 0x17f
   17340:	ebffe23d 	bl	fc3c <Xil_Assert>
   17344:	e30c3768 	movw	r3, #51048	; 0xc768
   17348:	e3403001 	movt	r3, #1
   1734c:	e3a02001 	mov	r2, #1
   17350:	e5832000 	str	r2, [r3]
   17354:	e3a03000 	mov	r3, #0
   17358:	ea000033 	b	1742c <XScuGic_Connect+0x188>
   1735c:	e30c3768 	movw	r3, #51048	; 0xc768
   17360:	e3403001 	movt	r3, #1
   17364:	e3a02000 	mov	r2, #0
   17368:	e5832000 	str	r2, [r3]
   1736c:	e51b3008 	ldr	r3, [fp, #-8]
   17370:	e5932004 	ldr	r2, [r3, #4]
   17374:	e3013111 	movw	r3, #4369	; 0x1111
   17378:	e3413111 	movt	r3, #4369	; 0x1111
   1737c:	e1520003 	cmp	r2, r3
   17380:	1a000020 	bne	17408 <XScuGic_Connect+0x164>
   17384:	ea000009 	b	173b0 <XScuGic_Connect+0x10c>
   17388:	e30b0efc 	movw	r0, #48892	; 0xbefc
   1738c:	e3400001 	movt	r0, #1
   17390:	e3a01d06 	mov	r1, #384	; 0x180
   17394:	ebffe228 	bl	fc3c <Xil_Assert>
   17398:	e30c3768 	movw	r3, #51048	; 0xc768
   1739c:	e3403001 	movt	r3, #1
   173a0:	e3a02001 	mov	r2, #1
   173a4:	e5832000 	str	r2, [r3]
   173a8:	e3a03000 	mov	r3, #0
   173ac:	ea00001e 	b	1742c <XScuGic_Connect+0x188>
   173b0:	e30c3768 	movw	r3, #51048	; 0xc768
   173b4:	e3403001 	movt	r3, #1
   173b8:	e3a02000 	mov	r2, #0
   173bc:	e5832000 	str	r2, [r3]
   173c0:	e51b3008 	ldr	r3, [fp, #-8]
   173c4:	e5932000 	ldr	r2, [r3]
   173c8:	e51b300c 	ldr	r3, [fp, #-12]
   173cc:	e2833001 	add	r3, r3, #1
   173d0:	e1a03183 	lsl	r3, r3, #3
   173d4:	e0823003 	add	r3, r2, r3
   173d8:	e51b2010 	ldr	r2, [fp, #-16]
   173dc:	e5832004 	str	r2, [r3, #4]
   173e0:	e51b3008 	ldr	r3, [fp, #-8]
   173e4:	e5932000 	ldr	r2, [r3]
   173e8:	e51b300c 	ldr	r3, [fp, #-12]
   173ec:	e2833001 	add	r3, r3, #1
   173f0:	e1a03183 	lsl	r3, r3, #3
   173f4:	e0823003 	add	r3, r2, r3
   173f8:	e51b2014 	ldr	r2, [fp, #-20]	; 0xffffffec
   173fc:	e5832008 	str	r2, [r3, #8]
   17400:	e3a03000 	mov	r3, #0
   17404:	ea000008 	b	1742c <XScuGic_Connect+0x188>
   17408:	e30b0efc 	movw	r0, #48892	; 0xbefc
   1740c:	e3400001 	movt	r0, #1
   17410:	e3001181 	movw	r1, #385	; 0x181
   17414:	ebffe208 	bl	fc3c <Xil_Assert>
   17418:	e30c3768 	movw	r3, #51048	; 0xc768
   1741c:	e3403001 	movt	r3, #1
   17420:	e3a02001 	mov	r2, #1
   17424:	e5832000 	str	r2, [r3]
   17428:	e3a03000 	mov	r3, #0
   1742c:	e1a00003 	mov	r0, r3
   17430:	e24bd004 	sub	sp, fp, #4
   17434:	e8bd8800 	pop	{fp, pc}

00017438 <XScuGic_Disconnect>:
   17438:	e92d4800 	push	{fp, lr}
   1743c:	e28db004 	add	fp, sp, #4
   17440:	e24dd010 	sub	sp, sp, #16
   17444:	e50b0010 	str	r0, [fp, #-16]
   17448:	e50b1014 	str	r1, [fp, #-20]	; 0xffffffec
   1744c:	e51b3010 	ldr	r3, [fp, #-16]
   17450:	e3530000 	cmp	r3, #0
   17454:	0a000007 	beq	17478 <XScuGic_Disconnect+0x40>
   17458:	e30c3768 	movw	r3, #51048	; 0xc768
   1745c:	e3403001 	movt	r3, #1
   17460:	e3a02000 	mov	r2, #0
   17464:	e5832000 	str	r2, [r3]
   17468:	e51b3014 	ldr	r3, [fp, #-20]	; 0xffffffec
   1746c:	e353005e 	cmp	r3, #94	; 0x5e
   17470:	8a000014 	bhi	174c8 <XScuGic_Disconnect+0x90>
   17474:	ea000008 	b	1749c <XScuGic_Disconnect+0x64>
   17478:	e30b0efc 	movw	r0, #48892	; 0xbefc
   1747c:	e3400001 	movt	r0, #1
   17480:	e3a01f69 	mov	r1, #420	; 0x1a4
   17484:	ebffe1ec 	bl	fc3c <Xil_Assert>
   17488:	e30c3768 	movw	r3, #51048	; 0xc768
   1748c:	e3403001 	movt	r3, #1
   17490:	e3a02001 	mov	r2, #1
   17494:	e5832000 	str	r2, [r3]
   17498:	ea000042 	b	175a8 <XScuGic_Disconnect+0x170>
   1749c:	e30c3768 	movw	r3, #51048	; 0xc768
   174a0:	e3403001 	movt	r3, #1
   174a4:	e3a02000 	mov	r2, #0
   174a8:	e5832000 	str	r2, [r3]
   174ac:	e51b3010 	ldr	r3, [fp, #-16]
   174b0:	e5932004 	ldr	r2, [r3, #4]
   174b4:	e3013111 	movw	r3, #4369	; 0x1111
   174b8:	e3413111 	movt	r3, #4369	; 0x1111
   174bc:	e1520003 	cmp	r2, r3
   174c0:	1a00002f 	bne	17584 <XScuGic_Disconnect+0x14c>
   174c4:	ea000008 	b	174ec <XScuGic_Disconnect+0xb4>
   174c8:	e30b0efc 	movw	r0, #48892	; 0xbefc
   174cc:	e3400001 	movt	r0, #1
   174d0:	e30011a5 	movw	r1, #421	; 0x1a5
   174d4:	ebffe1d8 	bl	fc3c <Xil_Assert>
   174d8:	e30c3768 	movw	r3, #51048	; 0xc768
   174dc:	e3403001 	movt	r3, #1
   174e0:	e3a02001 	mov	r2, #1
   174e4:	e5832000 	str	r2, [r3]
   174e8:	ea00002e 	b	175a8 <XScuGic_Disconnect+0x170>
   174ec:	e30c3768 	movw	r3, #51048	; 0xc768
   174f0:	e3403001 	movt	r3, #1
   174f4:	e3a02000 	mov	r2, #0
   174f8:	e5832000 	str	r2, [r3]
   174fc:	e51b3014 	ldr	r3, [fp, #-20]	; 0xffffffec
   17500:	e203301f 	and	r3, r3, #31
   17504:	e3a02001 	mov	r2, #1
   17508:	e1a03312 	lsl	r3, r2, r3
   1750c:	e50b3008 	str	r3, [fp, #-8]
   17510:	e51b3010 	ldr	r3, [fp, #-16]
   17514:	e5933000 	ldr	r3, [r3]
   17518:	e5932008 	ldr	r2, [r3, #8]
   1751c:	e51b3014 	ldr	r3, [fp, #-20]	; 0xffffffec
   17520:	e1a032a3 	lsr	r3, r3, #5
   17524:	e2833060 	add	r3, r3, #96	; 0x60
   17528:	e1a03103 	lsl	r3, r3, #2
   1752c:	e0823003 	add	r3, r2, r3
   17530:	e1a00003 	mov	r0, r3
   17534:	e51b1008 	ldr	r1, [fp, #-8]
   17538:	ebffe21a 	bl	fda8 <Xil_Out32>
   1753c:	e51b3010 	ldr	r3, [fp, #-16]
   17540:	e5932000 	ldr	r2, [r3]
   17544:	e51b3014 	ldr	r3, [fp, #-20]	; 0xffffffec
   17548:	e2833001 	add	r3, r3, #1
   1754c:	e1a03183 	lsl	r3, r3, #3
   17550:	e0823003 	add	r3, r2, r3
   17554:	e30729a4 	movw	r2, #31140	; 0x79a4
   17558:	e3402001 	movt	r2, #1
   1755c:	e5832004 	str	r2, [r3, #4]
   17560:	e51b3010 	ldr	r3, [fp, #-16]
   17564:	e5932000 	ldr	r2, [r3]
   17568:	e51b3014 	ldr	r3, [fp, #-20]	; 0xffffffec
   1756c:	e2833001 	add	r3, r3, #1
   17570:	e1a03183 	lsl	r3, r3, #3
   17574:	e0823003 	add	r3, r2, r3
   17578:	e51b2010 	ldr	r2, [fp, #-16]
   1757c:	e5832008 	str	r2, [r3, #8]
   17580:	ea000008 	b	175a8 <XScuGic_Disconnect+0x170>
   17584:	e30b0efc 	movw	r0, #48892	; 0xbefc
   17588:	e3400001 	movt	r0, #1
   1758c:	e30011a6 	movw	r1, #422	; 0x1a6
   17590:	ebffe1a9 	bl	fc3c <Xil_Assert>
   17594:	e30c3768 	movw	r3, #51048	; 0xc768
   17598:	e3403001 	movt	r3, #1
   1759c:	e3a02001 	mov	r2, #1
   175a0:	e5832000 	str	r2, [r3]
   175a4:	e1a00000 	nop			; (mov r0, r0)
   175a8:	e24bd004 	sub	sp, fp, #4
   175ac:	e8bd8800 	pop	{fp, pc}

000175b0 <XScuGic_Enable>:
   175b0:	e92d4800 	push	{fp, lr}
   175b4:	e28db004 	add	fp, sp, #4
   175b8:	e24dd010 	sub	sp, sp, #16
   175bc:	e50b0010 	str	r0, [fp, #-16]
   175c0:	e50b1014 	str	r1, [fp, #-20]	; 0xffffffec
   175c4:	e51b3010 	ldr	r3, [fp, #-16]
   175c8:	e3530000 	cmp	r3, #0
   175cc:	0a000007 	beq	175f0 <XScuGic_Enable+0x40>
   175d0:	e30c3768 	movw	r3, #51048	; 0xc768
   175d4:	e3403001 	movt	r3, #1
   175d8:	e3a02000 	mov	r2, #0
   175dc:	e5832000 	str	r2, [r3]
   175e0:	e51b3014 	ldr	r3, [fp, #-20]	; 0xffffffec
   175e4:	e353005e 	cmp	r3, #94	; 0x5e
   175e8:	8a000014 	bhi	17640 <XScuGic_Enable+0x90>
   175ec:	ea000008 	b	17614 <XScuGic_Enable+0x64>
   175f0:	e30b0efc 	movw	r0, #48892	; 0xbefc
   175f4:	e3400001 	movt	r0, #1
   175f8:	e30011d6 	movw	r1, #470	; 0x1d6
   175fc:	ebffe18e 	bl	fc3c <Xil_Assert>
   17600:	e30c3768 	movw	r3, #51048	; 0xc768
   17604:	e3403001 	movt	r3, #1
   17608:	e3a02001 	mov	r2, #1
   1760c:	e5832000 	str	r2, [r3]
   17610:	ea000031 	b	176dc <XScuGic_Enable+0x12c>
   17614:	e30c3768 	movw	r3, #51048	; 0xc768
   17618:	e3403001 	movt	r3, #1
   1761c:	e3a02000 	mov	r2, #0
   17620:	e5832000 	str	r2, [r3]
   17624:	e51b3010 	ldr	r3, [fp, #-16]
   17628:	e5932004 	ldr	r2, [r3, #4]
   1762c:	e3013111 	movw	r3, #4369	; 0x1111
   17630:	e3413111 	movt	r3, #4369	; 0x1111
   17634:	e1520003 	cmp	r2, r3
   17638:	1a00001e 	bne	176b8 <XScuGic_Enable+0x108>
   1763c:	ea000008 	b	17664 <XScuGic_Enable+0xb4>
   17640:	e30b0efc 	movw	r0, #48892	; 0xbefc
   17644:	e3400001 	movt	r0, #1
   17648:	e30011d7 	movw	r1, #471	; 0x1d7
   1764c:	ebffe17a 	bl	fc3c <Xil_Assert>
   17650:	e30c3768 	movw	r3, #51048	; 0xc768
   17654:	e3403001 	movt	r3, #1
   17658:	e3a02001 	mov	r2, #1
   1765c:	e5832000 	str	r2, [r3]
   17660:	ea00001d 	b	176dc <XScuGic_Enable+0x12c>
   17664:	e30c3768 	movw	r3, #51048	; 0xc768
   17668:	e3403001 	movt	r3, #1
   1766c:	e3a02000 	mov	r2, #0
   17670:	e5832000 	str	r2, [r3]
   17674:	e51b3014 	ldr	r3, [fp, #-20]	; 0xffffffec
   17678:	e203301f 	and	r3, r3, #31
   1767c:	e3a02001 	mov	r2, #1
   17680:	e1a03312 	lsl	r3, r2, r3
   17684:	e50b3008 	str	r3, [fp, #-8]
   17688:	e51b3010 	ldr	r3, [fp, #-16]
   1768c:	e5933000 	ldr	r3, [r3]
   17690:	e5932008 	ldr	r2, [r3, #8]
   17694:	e51b3014 	ldr	r3, [fp, #-20]	; 0xffffffec
   17698:	e1a032a3 	lsr	r3, r3, #5
   1769c:	e2833040 	add	r3, r3, #64	; 0x40
   176a0:	e1a03103 	lsl	r3, r3, #2
   176a4:	e0823003 	add	r3, r2, r3
   176a8:	e1a00003 	mov	r0, r3
   176ac:	e51b1008 	ldr	r1, [fp, #-8]
   176b0:	ebffe1bc 	bl	fda8 <Xil_Out32>
   176b4:	ea000008 	b	176dc <XScuGic_Enable+0x12c>
   176b8:	e30b0efc 	movw	r0, #48892	; 0xbefc
   176bc:	e3400001 	movt	r0, #1
   176c0:	e3a01f76 	mov	r1, #472	; 0x1d8
   176c4:	ebffe15c 	bl	fc3c <Xil_Assert>
   176c8:	e30c3768 	movw	r3, #51048	; 0xc768
   176cc:	e3403001 	movt	r3, #1
   176d0:	e3a02001 	mov	r2, #1
   176d4:	e5832000 	str	r2, [r3]
   176d8:	e1a00000 	nop			; (mov r0, r0)
   176dc:	e24bd004 	sub	sp, fp, #4
   176e0:	e8bd8800 	pop	{fp, pc}

000176e4 <XScuGic_Disable>:
   176e4:	e92d4800 	push	{fp, lr}
   176e8:	e28db004 	add	fp, sp, #4
   176ec:	e24dd010 	sub	sp, sp, #16
   176f0:	e50b0010 	str	r0, [fp, #-16]
   176f4:	e50b1014 	str	r1, [fp, #-20]	; 0xffffffec
   176f8:	e51b3010 	ldr	r3, [fp, #-16]
   176fc:	e3530000 	cmp	r3, #0
   17700:	0a000007 	beq	17724 <XScuGic_Disable+0x40>
   17704:	e30c3768 	movw	r3, #51048	; 0xc768
   17708:	e3403001 	movt	r3, #1
   1770c:	e3a02000 	mov	r2, #0
   17710:	e5832000 	str	r2, [r3]
   17714:	e51b3014 	ldr	r3, [fp, #-20]	; 0xffffffec
   17718:	e353005e 	cmp	r3, #94	; 0x5e
   1771c:	8a000014 	bhi	17774 <XScuGic_Disable+0x90>
   17720:	ea000008 	b	17748 <XScuGic_Disable+0x64>
   17724:	e30b0efc 	movw	r0, #48892	; 0xbefc
   17728:	e3400001 	movt	r0, #1
   1772c:	e3a01c02 	mov	r1, #512	; 0x200
   17730:	ebffe141 	bl	fc3c <Xil_Assert>
   17734:	e30c3768 	movw	r3, #51048	; 0xc768
   17738:	e3403001 	movt	r3, #1
   1773c:	e3a02001 	mov	r2, #1
   17740:	e5832000 	str	r2, [r3]
   17744:	ea000031 	b	17810 <XScuGic_Disable+0x12c>
   17748:	e30c3768 	movw	r3, #51048	; 0xc768
   1774c:	e3403001 	movt	r3, #1
   17750:	e3a02000 	mov	r2, #0
   17754:	e5832000 	str	r2, [r3]
   17758:	e51b3010 	ldr	r3, [fp, #-16]
   1775c:	e5932004 	ldr	r2, [r3, #4]
   17760:	e3013111 	movw	r3, #4369	; 0x1111
   17764:	e3413111 	movt	r3, #4369	; 0x1111
   17768:	e1520003 	cmp	r2, r3
   1776c:	1a00001e 	bne	177ec <XScuGic_Disable+0x108>
   17770:	ea000008 	b	17798 <XScuGic_Disable+0xb4>
   17774:	e30b0efc 	movw	r0, #48892	; 0xbefc
   17778:	e3400001 	movt	r0, #1
   1777c:	e3001201 	movw	r1, #513	; 0x201
   17780:	ebffe12d 	bl	fc3c <Xil_Assert>
   17784:	e30c3768 	movw	r3, #51048	; 0xc768
   17788:	e3403001 	movt	r3, #1
   1778c:	e3a02001 	mov	r2, #1
   17790:	e5832000 	str	r2, [r3]
   17794:	ea00001d 	b	17810 <XScuGic_Disable+0x12c>
   17798:	e30c3768 	movw	r3, #51048	; 0xc768
   1779c:	e3403001 	movt	r3, #1
   177a0:	e3a02000 	mov	r2, #0
   177a4:	e5832000 	str	r2, [r3]
   177a8:	e51b3014 	ldr	r3, [fp, #-20]	; 0xffffffec
   177ac:	e203301f 	and	r3, r3, #31
   177b0:	e3a02001 	mov	r2, #1
   177b4:	e1a03312 	lsl	r3, r2, r3
   177b8:	e50b3008 	str	r3, [fp, #-8]
   177bc:	e51b3010 	ldr	r3, [fp, #-16]
   177c0:	e5933000 	ldr	r3, [r3]
   177c4:	e5932008 	ldr	r2, [r3, #8]
   177c8:	e51b3014 	ldr	r3, [fp, #-20]	; 0xffffffec
   177cc:	e1a032a3 	lsr	r3, r3, #5
   177d0:	e2833060 	add	r3, r3, #96	; 0x60
   177d4:	e1a03103 	lsl	r3, r3, #2
   177d8:	e0823003 	add	r3, r2, r3
   177dc:	e1a00003 	mov	r0, r3
   177e0:	e51b1008 	ldr	r1, [fp, #-8]
   177e4:	ebffe16f 	bl	fda8 <Xil_Out32>
   177e8:	ea000008 	b	17810 <XScuGic_Disable+0x12c>
   177ec:	e30b0efc 	movw	r0, #48892	; 0xbefc
   177f0:	e3400001 	movt	r0, #1
   177f4:	e3001202 	movw	r1, #514	; 0x202
   177f8:	ebffe10f 	bl	fc3c <Xil_Assert>
   177fc:	e30c3768 	movw	r3, #51048	; 0xc768
   17800:	e3403001 	movt	r3, #1
   17804:	e3a02001 	mov	r2, #1
   17808:	e5832000 	str	r2, [r3]
   1780c:	e1a00000 	nop			; (mov r0, r0)
   17810:	e24bd004 	sub	sp, fp, #4
   17814:	e8bd8800 	pop	{fp, pc}

00017818 <XScuGic_SoftwareIntr>:
   17818:	e92d4800 	push	{fp, lr}
   1781c:	e28db004 	add	fp, sp, #4
   17820:	e24dd018 	sub	sp, sp, #24
   17824:	e50b0010 	str	r0, [fp, #-16]
   17828:	e50b1014 	str	r1, [fp, #-20]	; 0xffffffec
   1782c:	e50b2018 	str	r2, [fp, #-24]	; 0xffffffe8
   17830:	e51b3010 	ldr	r3, [fp, #-16]
   17834:	e3530000 	cmp	r3, #0
   17838:	0a00000a 	beq	17868 <XScuGic_SoftwareIntr+0x50>
   1783c:	e30c3768 	movw	r3, #51048	; 0xc768
   17840:	e3403001 	movt	r3, #1
   17844:	e3a02000 	mov	r2, #0
   17848:	e5832000 	str	r2, [r3]
   1784c:	e51b3010 	ldr	r3, [fp, #-16]
   17850:	e5932004 	ldr	r2, [r3, #4]
   17854:	e3013111 	movw	r3, #4369	; 0x1111
   17858:	e3413111 	movt	r3, #4369	; 0x1111
   1785c:	e1520003 	cmp	r2, r3
   17860:	1a000012 	bne	178b0 <XScuGic_SoftwareIntr+0x98>
   17864:	ea000009 	b	17890 <XScuGic_SoftwareIntr+0x78>
   17868:	e30b0efc 	movw	r0, #48892	; 0xbefc
   1786c:	e3400001 	movt	r0, #1
   17870:	e300122e 	movw	r1, #558	; 0x22e
   17874:	ebffe0f0 	bl	fc3c <Xil_Assert>
   17878:	e30c3768 	movw	r3, #51048	; 0xc768
   1787c:	e3403001 	movt	r3, #1
   17880:	e3a02001 	mov	r2, #1
   17884:	e5832000 	str	r2, [r3]
   17888:	e3a03000 	mov	r3, #0
   1788c:	ea000041 	b	17998 <XScuGic_SoftwareIntr+0x180>
   17890:	e30c3768 	movw	r3, #51048	; 0xc768
   17894:	e3403001 	movt	r3, #1
   17898:	e3a02000 	mov	r2, #0
   1789c:	e5832000 	str	r2, [r3]
   178a0:	e51b3014 	ldr	r3, [fp, #-20]	; 0xffffffec
   178a4:	e353000f 	cmp	r3, #15
   178a8:	8a000012 	bhi	178f8 <XScuGic_SoftwareIntr+0xe0>
   178ac:	ea000009 	b	178d8 <XScuGic_SoftwareIntr+0xc0>
   178b0:	e30b0efc 	movw	r0, #48892	; 0xbefc
   178b4:	e3400001 	movt	r0, #1
   178b8:	e300122f 	movw	r1, #559	; 0x22f
   178bc:	ebffe0de 	bl	fc3c <Xil_Assert>
   178c0:	e30c3768 	movw	r3, #51048	; 0xc768
   178c4:	e3403001 	movt	r3, #1
   178c8:	e3a02001 	mov	r2, #1
   178cc:	e5832000 	str	r2, [r3]
   178d0:	e3a03000 	mov	r3, #0
   178d4:	ea00002f 	b	17998 <XScuGic_SoftwareIntr+0x180>
   178d8:	e30c3768 	movw	r3, #51048	; 0xc768
   178dc:	e3403001 	movt	r3, #1
   178e0:	e3a02000 	mov	r2, #0
   178e4:	e5832000 	str	r2, [r3]
   178e8:	e51b3018 	ldr	r3, [fp, #-24]	; 0xffffffe8
   178ec:	e35300ff 	cmp	r3, #255	; 0xff
   178f0:	8a00001f 	bhi	17974 <XScuGic_SoftwareIntr+0x15c>
   178f4:	ea000009 	b	17920 <XScuGic_SoftwareIntr+0x108>
   178f8:	e30b0efc 	movw	r0, #48892	; 0xbefc
   178fc:	e3400001 	movt	r0, #1
   17900:	e3a01e23 	mov	r1, #560	; 0x230
   17904:	ebffe0cc 	bl	fc3c <Xil_Assert>
   17908:	e30c3768 	movw	r3, #51048	; 0xc768
   1790c:	e3403001 	movt	r3, #1
   17910:	e3a02001 	mov	r2, #1
   17914:	e5832000 	str	r2, [r3]
   17918:	e3a03000 	mov	r3, #0
   1791c:	ea00001d 	b	17998 <XScuGic_SoftwareIntr+0x180>
   17920:	e30c3768 	movw	r3, #51048	; 0xc768
   17924:	e3403001 	movt	r3, #1
   17928:	e3a02000 	mov	r2, #0
   1792c:	e5832000 	str	r2, [r3]
   17930:	e51b3018 	ldr	r3, [fp, #-24]	; 0xffffffe8
   17934:	e1a02803 	lsl	r2, r3, #16
   17938:	e51b3014 	ldr	r3, [fp, #-20]	; 0xffffffec
   1793c:	e1822003 	orr	r2, r2, r3
   17940:	e3a0300f 	mov	r3, #15
   17944:	e34030ff 	movt	r3, #255	; 0xff
   17948:	e0033002 	and	r3, r3, r2
   1794c:	e50b3008 	str	r3, [fp, #-8]
   17950:	e51b3010 	ldr	r3, [fp, #-16]
   17954:	e5933000 	ldr	r3, [r3]
   17958:	e5933008 	ldr	r3, [r3, #8]
   1795c:	e2833c0f 	add	r3, r3, #3840	; 0xf00
   17960:	e1a00003 	mov	r0, r3
   17964:	e51b1008 	ldr	r1, [fp, #-8]
   17968:	ebffe10e 	bl	fda8 <Xil_Out32>
   1796c:	e3a03000 	mov	r3, #0
   17970:	ea000008 	b	17998 <XScuGic_SoftwareIntr+0x180>
   17974:	e30b0efc 	movw	r0, #48892	; 0xbefc
   17978:	e3400001 	movt	r0, #1
   1797c:	e3001231 	movw	r1, #561	; 0x231
   17980:	ebffe0ad 	bl	fc3c <Xil_Assert>
   17984:	e30c3768 	movw	r3, #51048	; 0xc768
   17988:	e3403001 	movt	r3, #1
   1798c:	e3a02001 	mov	r2, #1
   17990:	e5832000 	str	r2, [r3]
   17994:	e3a03000 	mov	r3, #0
   17998:	e1a00003 	mov	r0, r3
   1799c:	e24bd004 	sub	sp, fp, #4
   179a0:	e8bd8800 	pop	{fp, pc}

000179a4 <StubHandler>:
   179a4:	e92d4800 	push	{fp, lr}
   179a8:	e28db004 	add	fp, sp, #4
   179ac:	e24dd008 	sub	sp, sp, #8
   179b0:	e50b0008 	str	r0, [fp, #-8]
   179b4:	e51b3008 	ldr	r3, [fp, #-8]
   179b8:	e3530000 	cmp	r3, #0
   179bc:	0a000009 	beq	179e8 <StubHandler+0x44>
   179c0:	e30c3768 	movw	r3, #51048	; 0xc768
   179c4:	e3403001 	movt	r3, #1
   179c8:	e3a02000 	mov	r2, #0
   179cc:	e5832000 	str	r2, [r3]
   179d0:	e51b3008 	ldr	r3, [fp, #-8]
   179d4:	e5933008 	ldr	r3, [r3, #8]
   179d8:	e2832001 	add	r2, r3, #1
   179dc:	e51b3008 	ldr	r3, [fp, #-8]
   179e0:	e5832008 	str	r2, [r3, #8]
   179e4:	ea000008 	b	17a0c <StubHandler+0x68>
   179e8:	e30b0efc 	movw	r0, #48892	; 0xbefc
   179ec:	e3400001 	movt	r0, #1
   179f0:	e3a01f96 	mov	r1, #600	; 0x258
   179f4:	ebffe090 	bl	fc3c <Xil_Assert>
   179f8:	e30c3768 	movw	r3, #51048	; 0xc768
   179fc:	e3403001 	movt	r3, #1
   17a00:	e3a02001 	mov	r2, #1
   17a04:	e5832000 	str	r2, [r3]
   17a08:	e1a00000 	nop			; (mov r0, r0)
   17a0c:	e24bd004 	sub	sp, fp, #4
   17a10:	e8bd8800 	pop	{fp, pc}

00017a14 <XScuGic_SetPriorityTriggerType>:
   17a14:	e92d4800 	push	{fp, lr}
   17a18:	e28db004 	add	fp, sp, #4
   17a1c:	e24dd018 	sub	sp, sp, #24
   17a20:	e50b0010 	str	r0, [fp, #-16]
   17a24:	e50b1014 	str	r1, [fp, #-20]	; 0xffffffec
   17a28:	e1a01002 	mov	r1, r2
   17a2c:	e1a02003 	mov	r2, r3
   17a30:	e1a03001 	mov	r3, r1
   17a34:	e54b3015 	strb	r3, [fp, #-21]	; 0xffffffeb
   17a38:	e1a03002 	mov	r3, r2
   17a3c:	e54b3016 	strb	r3, [fp, #-22]	; 0xffffffea
   17a40:	e51b3010 	ldr	r3, [fp, #-16]
   17a44:	e3530000 	cmp	r3, #0
   17a48:	0a00000a 	beq	17a78 <XScuGic_SetPriorityTriggerType+0x64>
   17a4c:	e30c3768 	movw	r3, #51048	; 0xc768
   17a50:	e3403001 	movt	r3, #1
   17a54:	e3a02000 	mov	r2, #0
   17a58:	e5832000 	str	r2, [r3]
   17a5c:	e51b3010 	ldr	r3, [fp, #-16]
   17a60:	e5932004 	ldr	r2, [r3, #4]
   17a64:	e3013111 	movw	r3, #4369	; 0x1111
   17a68:	e3413111 	movt	r3, #4369	; 0x1111
   17a6c:	e1520003 	cmp	r2, r3
   17a70:	1a000011 	bne	17abc <XScuGic_SetPriorityTriggerType+0xa8>
   17a74:	ea000008 	b	17a9c <XScuGic_SetPriorityTriggerType+0x88>
   17a78:	e30b0efc 	movw	r0, #48892	; 0xbefc
   17a7c:	e3400001 	movt	r0, #1
   17a80:	e300127e 	movw	r1, #638	; 0x27e
   17a84:	ebffe06c 	bl	fc3c <Xil_Assert>
   17a88:	e30c3768 	movw	r3, #51048	; 0xc768
   17a8c:	e3403001 	movt	r3, #1
   17a90:	e3a02001 	mov	r2, #1
   17a94:	e5832000 	str	r2, [r3]
   17a98:	ea000097 	b	17cfc <XScuGic_SetPriorityTriggerType+0x2e8>
   17a9c:	e30c3768 	movw	r3, #51048	; 0xc768
   17aa0:	e3403001 	movt	r3, #1
   17aa4:	e3a02000 	mov	r2, #0
   17aa8:	e5832000 	str	r2, [r3]
   17aac:	e51b3014 	ldr	r3, [fp, #-20]	; 0xffffffec
   17ab0:	e353005e 	cmp	r3, #94	; 0x5e
   17ab4:	8a000011 	bhi	17b00 <XScuGic_SetPriorityTriggerType+0xec>
   17ab8:	ea000008 	b	17ae0 <XScuGic_SetPriorityTriggerType+0xcc>
   17abc:	e30b0efc 	movw	r0, #48892	; 0xbefc
   17ac0:	e3400001 	movt	r0, #1
   17ac4:	e300127f 	movw	r1, #639	; 0x27f
   17ac8:	ebffe05b 	bl	fc3c <Xil_Assert>
   17acc:	e30c3768 	movw	r3, #51048	; 0xc768
   17ad0:	e3403001 	movt	r3, #1
   17ad4:	e3a02001 	mov	r2, #1
   17ad8:	e5832000 	str	r2, [r3]
   17adc:	ea000086 	b	17cfc <XScuGic_SetPriorityTriggerType+0x2e8>
   17ae0:	e30c3768 	movw	r3, #51048	; 0xc768
   17ae4:	e3403001 	movt	r3, #1
   17ae8:	e3a02000 	mov	r2, #0
   17aec:	e5832000 	str	r2, [r3]
   17af0:	e55b3016 	ldrb	r3, [fp, #-22]	; 0xffffffea
   17af4:	e3530003 	cmp	r3, #3
   17af8:	8a000011 	bhi	17b44 <XScuGic_SetPriorityTriggerType+0x130>
   17afc:	ea000008 	b	17b24 <XScuGic_SetPriorityTriggerType+0x110>
   17b00:	e30b0efc 	movw	r0, #48892	; 0xbefc
   17b04:	e3400001 	movt	r0, #1
   17b08:	e3a01d0a 	mov	r1, #640	; 0x280
   17b0c:	ebffe04a 	bl	fc3c <Xil_Assert>
   17b10:	e30c3768 	movw	r3, #51048	; 0xc768
   17b14:	e3403001 	movt	r3, #1
   17b18:	e3a02001 	mov	r2, #1
   17b1c:	e5832000 	str	r2, [r3]
   17b20:	ea000075 	b	17cfc <XScuGic_SetPriorityTriggerType+0x2e8>
   17b24:	e30c3768 	movw	r3, #51048	; 0xc768
   17b28:	e3403001 	movt	r3, #1
   17b2c:	e3a02000 	mov	r2, #0
   17b30:	e5832000 	str	r2, [r3]
   17b34:	e55b3015 	ldrb	r3, [fp, #-21]	; 0xffffffeb
   17b38:	e35300f8 	cmp	r3, #248	; 0xf8
   17b3c:	8a000065 	bhi	17cd8 <XScuGic_SetPriorityTriggerType+0x2c4>
   17b40:	ea000008 	b	17b68 <XScuGic_SetPriorityTriggerType+0x154>
   17b44:	e30b0efc 	movw	r0, #48892	; 0xbefc
   17b48:	e3400001 	movt	r0, #1
   17b4c:	e3001281 	movw	r1, #641	; 0x281
   17b50:	ebffe039 	bl	fc3c <Xil_Assert>
   17b54:	e30c3768 	movw	r3, #51048	; 0xc768
   17b58:	e3403001 	movt	r3, #1
   17b5c:	e3a02001 	mov	r2, #1
   17b60:	e5832000 	str	r2, [r3]
   17b64:	ea000064 	b	17cfc <XScuGic_SetPriorityTriggerType+0x2e8>
   17b68:	e30c3768 	movw	r3, #51048	; 0xc768
   17b6c:	e3403001 	movt	r3, #1
   17b70:	e3a02000 	mov	r2, #0
   17b74:	e5832000 	str	r2, [r3]
   17b78:	e51b3010 	ldr	r3, [fp, #-16]
   17b7c:	e5933000 	ldr	r3, [r3]
   17b80:	e5932008 	ldr	r2, [r3, #8]
   17b84:	e51b3014 	ldr	r3, [fp, #-20]	; 0xffffffec
   17b88:	e1a03123 	lsr	r3, r3, #2
   17b8c:	e2833c01 	add	r3, r3, #256	; 0x100
   17b90:	e1a03103 	lsl	r3, r3, #2
   17b94:	e0823003 	add	r3, r2, r3
   17b98:	e1a00003 	mov	r0, r3
   17b9c:	ebffe05f 	bl	fd20 <Xil_In32>
   17ba0:	e50b0008 	str	r0, [fp, #-8]
   17ba4:	e55b3015 	ldrb	r3, [fp, #-21]	; 0xffffffeb
   17ba8:	e3c33007 	bic	r3, r3, #7
   17bac:	e54b3015 	strb	r3, [fp, #-21]	; 0xffffffeb
   17bb0:	e51b3014 	ldr	r3, [fp, #-20]	; 0xffffffec
   17bb4:	e2033003 	and	r3, r3, #3
   17bb8:	e1a03183 	lsl	r3, r3, #3
   17bbc:	e1a02003 	mov	r2, r3
   17bc0:	e3a030ff 	mov	r3, #255	; 0xff
   17bc4:	e1a03213 	lsl	r3, r3, r2
   17bc8:	e1e03003 	mvn	r3, r3
   17bcc:	e1a02003 	mov	r2, r3
   17bd0:	e51b3008 	ldr	r3, [fp, #-8]
   17bd4:	e0033002 	and	r3, r3, r2
   17bd8:	e50b3008 	str	r3, [fp, #-8]
   17bdc:	e55b3015 	ldrb	r3, [fp, #-21]	; 0xffffffeb
   17be0:	e51b2014 	ldr	r2, [fp, #-20]	; 0xffffffec
   17be4:	e2022003 	and	r2, r2, #3
   17be8:	e1a02182 	lsl	r2, r2, #3
   17bec:	e1a03213 	lsl	r3, r3, r2
   17bf0:	e1a02003 	mov	r2, r3
   17bf4:	e51b3008 	ldr	r3, [fp, #-8]
   17bf8:	e1833002 	orr	r3, r3, r2
   17bfc:	e50b3008 	str	r3, [fp, #-8]
   17c00:	e51b3010 	ldr	r3, [fp, #-16]
   17c04:	e5933000 	ldr	r3, [r3]
   17c08:	e5932008 	ldr	r2, [r3, #8]
   17c0c:	e51b3014 	ldr	r3, [fp, #-20]	; 0xffffffec
   17c10:	e1a03123 	lsr	r3, r3, #2
   17c14:	e2833c01 	add	r3, r3, #256	; 0x100
   17c18:	e1a03103 	lsl	r3, r3, #2
   17c1c:	e0823003 	add	r3, r2, r3
   17c20:	e1a00003 	mov	r0, r3
   17c24:	e51b1008 	ldr	r1, [fp, #-8]
   17c28:	ebffe05e 	bl	fda8 <Xil_Out32>
   17c2c:	e51b3010 	ldr	r3, [fp, #-16]
   17c30:	e5933000 	ldr	r3, [r3]
   17c34:	e5932008 	ldr	r2, [r3, #8]
   17c38:	e51b3014 	ldr	r3, [fp, #-20]	; 0xffffffec
   17c3c:	e1a03223 	lsr	r3, r3, #4
   17c40:	e2833c03 	add	r3, r3, #768	; 0x300
   17c44:	e1a03103 	lsl	r3, r3, #2
   17c48:	e0823003 	add	r3, r2, r3
   17c4c:	e1a00003 	mov	r0, r3
   17c50:	ebffe032 	bl	fd20 <Xil_In32>
   17c54:	e50b0008 	str	r0, [fp, #-8]
   17c58:	e51b3014 	ldr	r3, [fp, #-20]	; 0xffffffec
   17c5c:	e203300f 	and	r3, r3, #15
   17c60:	e1a03083 	lsl	r3, r3, #1
   17c64:	e1a02003 	mov	r2, r3
   17c68:	e3a03003 	mov	r3, #3
   17c6c:	e1a03213 	lsl	r3, r3, r2
   17c70:	e1e03003 	mvn	r3, r3
   17c74:	e1a02003 	mov	r2, r3
   17c78:	e51b3008 	ldr	r3, [fp, #-8]
   17c7c:	e0033002 	and	r3, r3, r2
   17c80:	e50b3008 	str	r3, [fp, #-8]
   17c84:	e55b3016 	ldrb	r3, [fp, #-22]	; 0xffffffea
   17c88:	e51b2014 	ldr	r2, [fp, #-20]	; 0xffffffec
   17c8c:	e202200f 	and	r2, r2, #15
   17c90:	e1a02082 	lsl	r2, r2, #1
   17c94:	e1a03213 	lsl	r3, r3, r2
   17c98:	e1a02003 	mov	r2, r3
   17c9c:	e51b3008 	ldr	r3, [fp, #-8]
   17ca0:	e1833002 	orr	r3, r3, r2
   17ca4:	e50b3008 	str	r3, [fp, #-8]
   17ca8:	e51b3010 	ldr	r3, [fp, #-16]
   17cac:	e5933000 	ldr	r3, [r3]
   17cb0:	e5932008 	ldr	r2, [r3, #8]
   17cb4:	e51b3014 	ldr	r3, [fp, #-20]	; 0xffffffec
   17cb8:	e1a03223 	lsr	r3, r3, #4
   17cbc:	e2833c03 	add	r3, r3, #768	; 0x300
   17cc0:	e1a03103 	lsl	r3, r3, #2
   17cc4:	e0823003 	add	r3, r2, r3
   17cc8:	e1a00003 	mov	r0, r3
   17ccc:	e51b1008 	ldr	r1, [fp, #-8]
   17cd0:	ebffe034 	bl	fda8 <Xil_Out32>
   17cd4:	ea000008 	b	17cfc <XScuGic_SetPriorityTriggerType+0x2e8>
   17cd8:	e30b0efc 	movw	r0, #48892	; 0xbefc
   17cdc:	e3400001 	movt	r0, #1
   17ce0:	e3001282 	movw	r1, #642	; 0x282
   17ce4:	ebffdfd4 	bl	fc3c <Xil_Assert>
   17ce8:	e30c3768 	movw	r3, #51048	; 0xc768
   17cec:	e3403001 	movt	r3, #1
   17cf0:	e3a02001 	mov	r2, #1
   17cf4:	e5832000 	str	r2, [r3]
   17cf8:	e1a00000 	nop			; (mov r0, r0)
   17cfc:	e24bd004 	sub	sp, fp, #4
   17d00:	e8bd8800 	pop	{fp, pc}

00017d04 <XScuGic_GetPriorityTriggerType>:
   17d04:	e92d4800 	push	{fp, lr}
   17d08:	e28db004 	add	fp, sp, #4
   17d0c:	e24dd018 	sub	sp, sp, #24
   17d10:	e50b0010 	str	r0, [fp, #-16]
   17d14:	e50b1014 	str	r1, [fp, #-20]	; 0xffffffec
   17d18:	e50b2018 	str	r2, [fp, #-24]	; 0xffffffe8
   17d1c:	e50b301c 	str	r3, [fp, #-28]	; 0xffffffe4
   17d20:	e51b3010 	ldr	r3, [fp, #-16]
   17d24:	e3530000 	cmp	r3, #0
   17d28:	0a00000a 	beq	17d58 <XScuGic_GetPriorityTriggerType+0x54>
   17d2c:	e30c3768 	movw	r3, #51048	; 0xc768
   17d30:	e3403001 	movt	r3, #1
   17d34:	e3a02000 	mov	r2, #0
   17d38:	e5832000 	str	r2, [r3]
   17d3c:	e51b3010 	ldr	r3, [fp, #-16]
   17d40:	e5932004 	ldr	r2, [r3, #4]
   17d44:	e3013111 	movw	r3, #4369	; 0x1111
   17d48:	e3413111 	movt	r3, #4369	; 0x1111
   17d4c:	e1520003 	cmp	r2, r3
   17d50:	1a000011 	bne	17d9c <XScuGic_GetPriorityTriggerType+0x98>
   17d54:	ea000008 	b	17d7c <XScuGic_GetPriorityTriggerType+0x78>
   17d58:	e30b0efc 	movw	r0, #48892	; 0xbefc
   17d5c:	e3400001 	movt	r0, #1
   17d60:	e3a01fb2 	mov	r1, #712	; 0x2c8
   17d64:	ebffdfb4 	bl	fc3c <Xil_Assert>
   17d68:	e30c3768 	movw	r3, #51048	; 0xc768
   17d6c:	e3403001 	movt	r3, #1
   17d70:	e3a02001 	mov	r2, #1
   17d74:	e5832000 	str	r2, [r3]
   17d78:	ea00006e 	b	17f38 <XScuGic_GetPriorityTriggerType+0x234>
   17d7c:	e30c3768 	movw	r3, #51048	; 0xc768
   17d80:	e3403001 	movt	r3, #1
   17d84:	e3a02000 	mov	r2, #0
   17d88:	e5832000 	str	r2, [r3]
   17d8c:	e51b3014 	ldr	r3, [fp, #-20]	; 0xffffffec
   17d90:	e353005e 	cmp	r3, #94	; 0x5e
   17d94:	8a000011 	bhi	17de0 <XScuGic_GetPriorityTriggerType+0xdc>
   17d98:	ea000008 	b	17dc0 <XScuGic_GetPriorityTriggerType+0xbc>
   17d9c:	e30b0efc 	movw	r0, #48892	; 0xbefc
   17da0:	e3400001 	movt	r0, #1
   17da4:	e30012c9 	movw	r1, #713	; 0x2c9
   17da8:	ebffdfa3 	bl	fc3c <Xil_Assert>
   17dac:	e30c3768 	movw	r3, #51048	; 0xc768
   17db0:	e3403001 	movt	r3, #1
   17db4:	e3a02001 	mov	r2, #1
   17db8:	e5832000 	str	r2, [r3]
   17dbc:	ea00005d 	b	17f38 <XScuGic_GetPriorityTriggerType+0x234>
   17dc0:	e30c3768 	movw	r3, #51048	; 0xc768
   17dc4:	e3403001 	movt	r3, #1
   17dc8:	e3a02000 	mov	r2, #0
   17dcc:	e5832000 	str	r2, [r3]
   17dd0:	e51b3018 	ldr	r3, [fp, #-24]	; 0xffffffe8
   17dd4:	e3530000 	cmp	r3, #0
   17dd8:	0a000011 	beq	17e24 <XScuGic_GetPriorityTriggerType+0x120>
   17ddc:	ea000008 	b	17e04 <XScuGic_GetPriorityTriggerType+0x100>
   17de0:	e30b0efc 	movw	r0, #48892	; 0xbefc
   17de4:	e3400001 	movt	r0, #1
   17de8:	e30012ca 	movw	r1, #714	; 0x2ca
   17dec:	ebffdf92 	bl	fc3c <Xil_Assert>
   17df0:	e30c3768 	movw	r3, #51048	; 0xc768
   17df4:	e3403001 	movt	r3, #1
   17df8:	e3a02001 	mov	r2, #1
   17dfc:	e5832000 	str	r2, [r3]
   17e00:	ea00004c 	b	17f38 <XScuGic_GetPriorityTriggerType+0x234>
   17e04:	e30c3768 	movw	r3, #51048	; 0xc768
   17e08:	e3403001 	movt	r3, #1
   17e0c:	e3a02000 	mov	r2, #0
   17e10:	e5832000 	str	r2, [r3]
   17e14:	e51b301c 	ldr	r3, [fp, #-28]	; 0xffffffe4
   17e18:	e3530000 	cmp	r3, #0
   17e1c:	0a00003c 	beq	17f14 <XScuGic_GetPriorityTriggerType+0x210>
   17e20:	ea000008 	b	17e48 <XScuGic_GetPriorityTriggerType+0x144>
   17e24:	e30b0efc 	movw	r0, #48892	; 0xbefc
   17e28:	e3400001 	movt	r0, #1
   17e2c:	e30012cb 	movw	r1, #715	; 0x2cb
   17e30:	ebffdf81 	bl	fc3c <Xil_Assert>
   17e34:	e30c3768 	movw	r3, #51048	; 0xc768
   17e38:	e3403001 	movt	r3, #1
   17e3c:	e3a02001 	mov	r2, #1
   17e40:	e5832000 	str	r2, [r3]
   17e44:	ea00003b 	b	17f38 <XScuGic_GetPriorityTriggerType+0x234>
   17e48:	e30c3768 	movw	r3, #51048	; 0xc768
   17e4c:	e3403001 	movt	r3, #1
   17e50:	e3a02000 	mov	r2, #0
   17e54:	e5832000 	str	r2, [r3]
   17e58:	e51b3010 	ldr	r3, [fp, #-16]
   17e5c:	e5933000 	ldr	r3, [r3]
   17e60:	e5932008 	ldr	r2, [r3, #8]
   17e64:	e51b3014 	ldr	r3, [fp, #-20]	; 0xffffffec
   17e68:	e1a03123 	lsr	r3, r3, #2
   17e6c:	e2833c01 	add	r3, r3, #256	; 0x100
   17e70:	e1a03103 	lsl	r3, r3, #2
   17e74:	e0823003 	add	r3, r2, r3
   17e78:	e1a00003 	mov	r0, r3
   17e7c:	ebffdfa7 	bl	fd20 <Xil_In32>
   17e80:	e50b0008 	str	r0, [fp, #-8]
   17e84:	e51b3014 	ldr	r3, [fp, #-20]	; 0xffffffec
   17e88:	e2033003 	and	r3, r3, #3
   17e8c:	e1a03183 	lsl	r3, r3, #3
   17e90:	e1a02003 	mov	r2, r3
   17e94:	e51b3008 	ldr	r3, [fp, #-8]
   17e98:	e1a03233 	lsr	r3, r3, r2
   17e9c:	e50b3008 	str	r3, [fp, #-8]
   17ea0:	e51b3008 	ldr	r3, [fp, #-8]
   17ea4:	e6ef2073 	uxtb	r2, r3
   17ea8:	e51b3018 	ldr	r3, [fp, #-24]	; 0xffffffe8
   17eac:	e5c32000 	strb	r2, [r3]
   17eb0:	e51b3010 	ldr	r3, [fp, #-16]
   17eb4:	e5933000 	ldr	r3, [r3]
   17eb8:	e5932008 	ldr	r2, [r3, #8]
   17ebc:	e51b3014 	ldr	r3, [fp, #-20]	; 0xffffffec
   17ec0:	e1a03223 	lsr	r3, r3, #4
   17ec4:	e2833c03 	add	r3, r3, #768	; 0x300
   17ec8:	e1a03103 	lsl	r3, r3, #2
   17ecc:	e0823003 	add	r3, r2, r3
   17ed0:	e1a00003 	mov	r0, r3
   17ed4:	ebffdf91 	bl	fd20 <Xil_In32>
   17ed8:	e50b0008 	str	r0, [fp, #-8]
   17edc:	e51b3014 	ldr	r3, [fp, #-20]	; 0xffffffec
   17ee0:	e203300f 	and	r3, r3, #15
   17ee4:	e1a03083 	lsl	r3, r3, #1
   17ee8:	e1a02003 	mov	r2, r3
   17eec:	e51b3008 	ldr	r3, [fp, #-8]
   17ef0:	e1a03233 	lsr	r3, r3, r2
   17ef4:	e50b3008 	str	r3, [fp, #-8]
   17ef8:	e51b3008 	ldr	r3, [fp, #-8]
   17efc:	e6ef3073 	uxtb	r3, r3
   17f00:	e2033003 	and	r3, r3, #3
   17f04:	e6ef2073 	uxtb	r2, r3
   17f08:	e51b301c 	ldr	r3, [fp, #-28]	; 0xffffffe4
   17f0c:	e5c32000 	strb	r2, [r3]
   17f10:	ea000008 	b	17f38 <XScuGic_GetPriorityTriggerType+0x234>
   17f14:	e30b0efc 	movw	r0, #48892	; 0xbefc
   17f18:	e3400001 	movt	r0, #1
   17f1c:	e3a01fb3 	mov	r1, #716	; 0x2cc
   17f20:	ebffdf45 	bl	fc3c <Xil_Assert>
   17f24:	e30c3768 	movw	r3, #51048	; 0xc768
   17f28:	e3403001 	movt	r3, #1
   17f2c:	e3a02001 	mov	r2, #1
   17f30:	e5832000 	str	r2, [r3]
   17f34:	e1a00000 	nop			; (mov r0, r0)
   17f38:	e24bd004 	sub	sp, fp, #4
   17f3c:	e8bd8800 	pop	{fp, pc}

00017f40 <Xil_ExceptionNullHandler>:
   17f40:	e52db004 	push	{fp}		; (str fp, [sp, #-4]!)
   17f44:	e28db000 	add	fp, sp, #0
   17f48:	e24dd00c 	sub	sp, sp, #12
   17f4c:	e50b0008 	str	r0, [fp, #-8]
   17f50:	eafffffe 	b	17f50 <Xil_ExceptionNullHandler+0x10>

00017f54 <Xil_ExceptionInit>:
   17f54:	e92d4800 	push	{fp, lr}
   17f58:	e28db004 	add	fp, sp, #4
   17f5c:	e24dd008 	sub	sp, sp, #8
   17f60:	e3a03000 	mov	r3, #0
   17f64:	e50b3008 	str	r3, [fp, #-8]
   17f68:	ea00000d 	b	17fa4 <Xil_ExceptionInit+0x50>
   17f6c:	e30c376c 	movw	r3, #51052	; 0xc76c
   17f70:	e3403001 	movt	r3, #1
   17f74:	e51b2008 	ldr	r2, [fp, #-8]
   17f78:	e7933182 	ldr	r3, [r3, r2, lsl #3]
   17f7c:	e3530000 	cmp	r3, #0
   17f80:	1a000004 	bne	17f98 <Xil_ExceptionInit+0x44>
   17f84:	e51b0008 	ldr	r0, [fp, #-8]
   17f88:	e3071f40 	movw	r1, #32576	; 0x7f40
   17f8c:	e3401001 	movt	r1, #1
   17f90:	e3a02000 	mov	r2, #0
   17f94:	eb000007 	bl	17fb8 <Xil_ExceptionRegisterHandler>
   17f98:	e51b3008 	ldr	r3, [fp, #-8]
   17f9c:	e2833001 	add	r3, r3, #1
   17fa0:	e50b3008 	str	r3, [fp, #-8]
   17fa4:	e51b3008 	ldr	r3, [fp, #-8]
   17fa8:	e3530006 	cmp	r3, #6
   17fac:	9affffee 	bls	17f6c <Xil_ExceptionInit+0x18>
   17fb0:	e24bd004 	sub	sp, fp, #4
   17fb4:	e8bd8800 	pop	{fp, pc}

00017fb8 <Xil_ExceptionRegisterHandler>:
   17fb8:	e52db004 	push	{fp}		; (str fp, [sp, #-4]!)
   17fbc:	e28db000 	add	fp, sp, #0
   17fc0:	e24dd014 	sub	sp, sp, #20
   17fc4:	e50b0008 	str	r0, [fp, #-8]
   17fc8:	e50b100c 	str	r1, [fp, #-12]
   17fcc:	e50b2010 	str	r2, [fp, #-16]
   17fd0:	e30c376c 	movw	r3, #51052	; 0xc76c
   17fd4:	e3403001 	movt	r3, #1
   17fd8:	e51b2008 	ldr	r2, [fp, #-8]
   17fdc:	e51b100c 	ldr	r1, [fp, #-12]
   17fe0:	e7831182 	str	r1, [r3, r2, lsl #3]
   17fe4:	e30c276c 	movw	r2, #51052	; 0xc76c
   17fe8:	e3402001 	movt	r2, #1
   17fec:	e51b3008 	ldr	r3, [fp, #-8]
   17ff0:	e1a03183 	lsl	r3, r3, #3
   17ff4:	e0823003 	add	r3, r2, r3
   17ff8:	e51b2010 	ldr	r2, [fp, #-16]
   17ffc:	e5832004 	str	r2, [r3, #4]
   18000:	e24bd000 	sub	sp, fp, #0
   18004:	e49db004 	pop	{fp}		; (ldr fp, [sp], #4)
   18008:	e12fff1e 	bx	lr

0001800c <Xil_ExceptionRemoveHandler>:
   1800c:	e92d4800 	push	{fp, lr}
   18010:	e28db004 	add	fp, sp, #4
   18014:	e24dd008 	sub	sp, sp, #8
   18018:	e50b0008 	str	r0, [fp, #-8]
   1801c:	e51b0008 	ldr	r0, [fp, #-8]
   18020:	e3071f40 	movw	r1, #32576	; 0x7f40
   18024:	e3401001 	movt	r1, #1
   18028:	e3a02000 	mov	r2, #0
   1802c:	ebffffe1 	bl	17fb8 <Xil_ExceptionRegisterHandler>
   18030:	e24bd004 	sub	sp, fp, #4
   18034:	e8bd8800 	pop	{fp, pc}

00018038 <XScuGic_LookupConfig>:
   18038:	e52db004 	push	{fp}		; (str fp, [sp, #-4]!)
   1803c:	e28db000 	add	fp, sp, #0
   18040:	e24dd014 	sub	sp, sp, #20
   18044:	e1a03000 	mov	r3, r0
   18048:	e14b30be 	strh	r3, [fp, #-14]
   1804c:	e3a03000 	mov	r3, #0
   18050:	e50b3008 	str	r3, [fp, #-8]
   18054:	e3a03000 	mov	r3, #0
   18058:	e50b300c 	str	r3, [fp, #-12]
   1805c:	ea00001e 	b	180dc <XScuGic_LookupConfig+0xa4>
   18060:	e30c2444 	movw	r2, #50244	; 0xc444
   18064:	e3402001 	movt	r2, #1
   18068:	e51b000c 	ldr	r0, [fp, #-12]
   1806c:	e1a01000 	mov	r1, r0
   18070:	e1a03301 	lsl	r3, r1, #6
   18074:	e1a01003 	mov	r1, r3
   18078:	e1a03101 	lsl	r3, r1, #2
   1807c:	e0613003 	rsb	r3, r1, r3
   18080:	e0833000 	add	r3, r3, r0
   18084:	e1a03103 	lsl	r3, r3, #2
   18088:	e0823003 	add	r3, r2, r3
   1808c:	e1d330b0 	ldrh	r3, [r3]
   18090:	e15b20be 	ldrh	r2, [fp, #-14]
   18094:	e1520003 	cmp	r2, r3
   18098:	1a00000c 	bne	180d0 <XScuGic_LookupConfig+0x98>
   1809c:	e51b100c 	ldr	r1, [fp, #-12]
   180a0:	e1a02001 	mov	r2, r1
   180a4:	e1a03302 	lsl	r3, r2, #6
   180a8:	e1a02003 	mov	r2, r3
   180ac:	e1a03102 	lsl	r3, r2, #2
   180b0:	e0623003 	rsb	r3, r2, r3
   180b4:	e0833001 	add	r3, r3, r1
   180b8:	e1a03103 	lsl	r3, r3, #2
   180bc:	e30c2444 	movw	r2, #50244	; 0xc444
   180c0:	e3402001 	movt	r2, #1
   180c4:	e0833002 	add	r3, r3, r2
   180c8:	e50b3008 	str	r3, [fp, #-8]
   180cc:	ea000005 	b	180e8 <XScuGic_LookupConfig+0xb0>
   180d0:	e51b300c 	ldr	r3, [fp, #-12]
   180d4:	e2833001 	add	r3, r3, #1
   180d8:	e50b300c 	str	r3, [fp, #-12]
   180dc:	e51b300c 	ldr	r3, [fp, #-12]
   180e0:	e3530000 	cmp	r3, #0
   180e4:	daffffdd 	ble	18060 <XScuGic_LookupConfig+0x28>
   180e8:	e51b3008 	ldr	r3, [fp, #-8]
   180ec:	e1a00003 	mov	r0, r3
   180f0:	e24bd000 	sub	sp, fp, #0
   180f4:	e49db004 	pop	{fp}		; (ldr fp, [sp], #4)
   180f8:	e12fff1e 	bx	lr

000180fc <XHls_macc_CfgInitialize>:
   180fc:	e92d4800 	push	{fp, lr}
   18100:	e28db004 	add	fp, sp, #4
   18104:	e24dd008 	sub	sp, sp, #8
   18108:	e50b0008 	str	r0, [fp, #-8]
   1810c:	e50b100c 	str	r1, [fp, #-12]
   18110:	e51b3008 	ldr	r3, [fp, #-8]
   18114:	e3530000 	cmp	r3, #0
   18118:	0a000007 	beq	1813c <XHls_macc_CfgInitialize+0x40>
   1811c:	e30c3768 	movw	r3, #51048	; 0xc768
   18120:	e3403001 	movt	r3, #1
   18124:	e3a02000 	mov	r2, #0
   18128:	e5832000 	str	r2, [r3]
   1812c:	e51b300c 	ldr	r3, [fp, #-12]
   18130:	e3530000 	cmp	r3, #0
   18134:	0a000018 	beq	1819c <XHls_macc_CfgInitialize+0xa0>
   18138:	ea000009 	b	18164 <XHls_macc_CfgInitialize+0x68>
   1813c:	e30b0f08 	movw	r0, #48904	; 0xbf08
   18140:	e3400001 	movt	r0, #1
   18144:	e3a01013 	mov	r1, #19
   18148:	ebffdebb 	bl	fc3c <Xil_Assert>
   1814c:	e30c3768 	movw	r3, #51048	; 0xc768
   18150:	e3403001 	movt	r3, #1
   18154:	e3a02001 	mov	r2, #1
   18158:	e5832000 	str	r2, [r3]
   1815c:	e3a03000 	mov	r3, #0
   18160:	ea000016 	b	181c0 <XHls_macc_CfgInitialize+0xc4>
   18164:	e30c3768 	movw	r3, #51048	; 0xc768
   18168:	e3403001 	movt	r3, #1
   1816c:	e3a02000 	mov	r2, #0
   18170:	e5832000 	str	r2, [r3]
   18174:	e51b300c 	ldr	r3, [fp, #-12]
   18178:	e5932004 	ldr	r2, [r3, #4]
   1817c:	e51b3008 	ldr	r3, [fp, #-8]
   18180:	e5832000 	str	r2, [r3]
   18184:	e51b2008 	ldr	r2, [fp, #-8]
   18188:	e3013111 	movw	r3, #4369	; 0x1111
   1818c:	e3413111 	movt	r3, #4369	; 0x1111
   18190:	e5823004 	str	r3, [r2, #4]
   18194:	e3a03000 	mov	r3, #0
   18198:	ea000008 	b	181c0 <XHls_macc_CfgInitialize+0xc4>
   1819c:	e30b0f08 	movw	r0, #48904	; 0xbf08
   181a0:	e3400001 	movt	r0, #1
   181a4:	e3a01014 	mov	r1, #20
   181a8:	ebffdea3 	bl	fc3c <Xil_Assert>
   181ac:	e30c3768 	movw	r3, #51048	; 0xc768
   181b0:	e3403001 	movt	r3, #1
   181b4:	e3a02001 	mov	r2, #1
   181b8:	e5832000 	str	r2, [r3]
   181bc:	e3a03000 	mov	r3, #0
   181c0:	e1a00003 	mov	r0, r3
   181c4:	e24bd004 	sub	sp, fp, #4
   181c8:	e8bd8800 	pop	{fp, pc}

000181cc <XHls_macc_Start>:
   181cc:	e92d4800 	push	{fp, lr}
   181d0:	e28db004 	add	fp, sp, #4
   181d4:	e24dd010 	sub	sp, sp, #16
   181d8:	e50b0010 	str	r0, [fp, #-16]
   181dc:	e51b3010 	ldr	r3, [fp, #-16]
   181e0:	e3530000 	cmp	r3, #0
   181e4:	0a00000a 	beq	18214 <XHls_macc_Start+0x48>
   181e8:	e30c3768 	movw	r3, #51048	; 0xc768
   181ec:	e3403001 	movt	r3, #1
   181f0:	e3a02000 	mov	r2, #0
   181f4:	e5832000 	str	r2, [r3]
   181f8:	e51b3010 	ldr	r3, [fp, #-16]
   181fc:	e5932004 	ldr	r2, [r3, #4]
   18200:	e3013111 	movw	r3, #4369	; 0x1111
   18204:	e3413111 	movt	r3, #4369	; 0x1111
   18208:	e1520003 	cmp	r2, r3
   1820c:	1a00001c 	bne	18284 <XHls_macc_Start+0xb8>
   18210:	ea000008 	b	18238 <XHls_macc_Start+0x6c>
   18214:	e30b0f08 	movw	r0, #48904	; 0xbf08
   18218:	e3400001 	movt	r0, #1
   1821c:	e3a01020 	mov	r1, #32
   18220:	ebffde85 	bl	fc3c <Xil_Assert>
   18224:	e30c3768 	movw	r3, #51048	; 0xc768
   18228:	e3403001 	movt	r3, #1
   1822c:	e3a02001 	mov	r2, #1
   18230:	e5832000 	str	r2, [r3]
   18234:	ea00001b 	b	182a8 <XHls_macc_Start+0xdc>
   18238:	e30c3768 	movw	r3, #51048	; 0xc768
   1823c:	e3403001 	movt	r3, #1
   18240:	e3a02000 	mov	r2, #0
   18244:	e5832000 	str	r2, [r3]
   18248:	e51b3010 	ldr	r3, [fp, #-16]
   1824c:	e5933000 	ldr	r3, [r3]
   18250:	e1a00003 	mov	r0, r3
   18254:	ebffdeb1 	bl	fd20 <Xil_In32>
   18258:	e1a03000 	mov	r3, r0
   1825c:	e2033080 	and	r3, r3, #128	; 0x80
   18260:	e50b3008 	str	r3, [fp, #-8]
   18264:	e51b3010 	ldr	r3, [fp, #-16]
   18268:	e5932000 	ldr	r2, [r3]
   1826c:	e51b3008 	ldr	r3, [fp, #-8]
   18270:	e3833001 	orr	r3, r3, #1
   18274:	e1a00002 	mov	r0, r2
   18278:	e1a01003 	mov	r1, r3
   1827c:	ebffdec9 	bl	fda8 <Xil_Out32>
   18280:	ea000008 	b	182a8 <XHls_macc_Start+0xdc>
   18284:	e30b0f08 	movw	r0, #48904	; 0xbf08
   18288:	e3400001 	movt	r0, #1
   1828c:	e3a01021 	mov	r1, #33	; 0x21
   18290:	ebffde69 	bl	fc3c <Xil_Assert>
   18294:	e30c3768 	movw	r3, #51048	; 0xc768
   18298:	e3403001 	movt	r3, #1
   1829c:	e3a02001 	mov	r2, #1
   182a0:	e5832000 	str	r2, [r3]
   182a4:	e1a00000 	nop			; (mov r0, r0)
   182a8:	e24bd004 	sub	sp, fp, #4
   182ac:	e8bd8800 	pop	{fp, pc}

000182b0 <XHls_macc_IsDone>:
   182b0:	e92d4800 	push	{fp, lr}
   182b4:	e28db004 	add	fp, sp, #4
   182b8:	e24dd010 	sub	sp, sp, #16
   182bc:	e50b0010 	str	r0, [fp, #-16]
   182c0:	e51b3010 	ldr	r3, [fp, #-16]
   182c4:	e3530000 	cmp	r3, #0
   182c8:	0a00000a 	beq	182f8 <XHls_macc_IsDone+0x48>
   182cc:	e30c3768 	movw	r3, #51048	; 0xc768
   182d0:	e3403001 	movt	r3, #1
   182d4:	e3a02000 	mov	r2, #0
   182d8:	e5832000 	str	r2, [r3]
   182dc:	e51b3010 	ldr	r3, [fp, #-16]
   182e0:	e5932004 	ldr	r2, [r3, #4]
   182e4:	e3013111 	movw	r3, #4369	; 0x1111
   182e8:	e3413111 	movt	r3, #4369	; 0x1111
   182ec:	e1520003 	cmp	r2, r3
   182f0:	1a000017 	bne	18354 <XHls_macc_IsDone+0xa4>
   182f4:	ea000009 	b	18320 <XHls_macc_IsDone+0x70>
   182f8:	e30b0f08 	movw	r0, #48904	; 0xbf08
   182fc:	e3400001 	movt	r0, #1
   18300:	e3a0102a 	mov	r1, #42	; 0x2a
   18304:	ebffde4c 	bl	fc3c <Xil_Assert>
   18308:	e30c3768 	movw	r3, #51048	; 0xc768
   1830c:	e3403001 	movt	r3, #1
   18310:	e3a02001 	mov	r2, #1
   18314:	e5832000 	str	r2, [r3]
   18318:	e3a03000 	mov	r3, #0
   1831c:	ea000015 	b	18378 <XHls_macc_IsDone+0xc8>
   18320:	e30c3768 	movw	r3, #51048	; 0xc768
   18324:	e3403001 	movt	r3, #1
   18328:	e3a02000 	mov	r2, #0
   1832c:	e5832000 	str	r2, [r3]
   18330:	e51b3010 	ldr	r3, [fp, #-16]
   18334:	e5933000 	ldr	r3, [r3]
   18338:	e1a00003 	mov	r0, r3
   1833c:	ebffde77 	bl	fd20 <Xil_In32>
   18340:	e50b0008 	str	r0, [fp, #-8]
   18344:	e51b3008 	ldr	r3, [fp, #-8]
   18348:	e1a030a3 	lsr	r3, r3, #1
   1834c:	e2033001 	and	r3, r3, #1
   18350:	ea000008 	b	18378 <XHls_macc_IsDone+0xc8>
   18354:	e30b0f08 	movw	r0, #48904	; 0xbf08
   18358:	e3400001 	movt	r0, #1
   1835c:	e3a0102b 	mov	r1, #43	; 0x2b
   18360:	ebffde35 	bl	fc3c <Xil_Assert>
   18364:	e30c3768 	movw	r3, #51048	; 0xc768
   18368:	e3403001 	movt	r3, #1
   1836c:	e3a02001 	mov	r2, #1
   18370:	e5832000 	str	r2, [r3]
   18374:	e3a03000 	mov	r3, #0
   18378:	e1a00003 	mov	r0, r3
   1837c:	e24bd004 	sub	sp, fp, #4
   18380:	e8bd8800 	pop	{fp, pc}

00018384 <XHls_macc_IsIdle>:
   18384:	e92d4800 	push	{fp, lr}
   18388:	e28db004 	add	fp, sp, #4
   1838c:	e24dd010 	sub	sp, sp, #16
   18390:	e50b0010 	str	r0, [fp, #-16]
   18394:	e51b3010 	ldr	r3, [fp, #-16]
   18398:	e3530000 	cmp	r3, #0
   1839c:	0a00000a 	beq	183cc <XHls_macc_IsIdle+0x48>
   183a0:	e30c3768 	movw	r3, #51048	; 0xc768
   183a4:	e3403001 	movt	r3, #1
   183a8:	e3a02000 	mov	r2, #0
   183ac:	e5832000 	str	r2, [r3]
   183b0:	e51b3010 	ldr	r3, [fp, #-16]
   183b4:	e5932004 	ldr	r2, [r3, #4]
   183b8:	e3013111 	movw	r3, #4369	; 0x1111
   183bc:	e3413111 	movt	r3, #4369	; 0x1111
   183c0:	e1520003 	cmp	r2, r3
   183c4:	1a000017 	bne	18428 <XHls_macc_IsIdle+0xa4>
   183c8:	ea000009 	b	183f4 <XHls_macc_IsIdle+0x70>
   183cc:	e30b0f08 	movw	r0, #48904	; 0xbf08
   183d0:	e3400001 	movt	r0, #1
   183d4:	e3a01034 	mov	r1, #52	; 0x34
   183d8:	ebffde17 	bl	fc3c <Xil_Assert>
   183dc:	e30c3768 	movw	r3, #51048	; 0xc768
   183e0:	e3403001 	movt	r3, #1
   183e4:	e3a02001 	mov	r2, #1
   183e8:	e5832000 	str	r2, [r3]
   183ec:	e3a03000 	mov	r3, #0
   183f0:	ea000015 	b	1844c <XHls_macc_IsIdle+0xc8>
   183f4:	e30c3768 	movw	r3, #51048	; 0xc768
   183f8:	e3403001 	movt	r3, #1
   183fc:	e3a02000 	mov	r2, #0
   18400:	e5832000 	str	r2, [r3]
   18404:	e51b3010 	ldr	r3, [fp, #-16]
   18408:	e5933000 	ldr	r3, [r3]
   1840c:	e1a00003 	mov	r0, r3
   18410:	ebffde42 	bl	fd20 <Xil_In32>
   18414:	e50b0008 	str	r0, [fp, #-8]
   18418:	e51b3008 	ldr	r3, [fp, #-8]
   1841c:	e1a03123 	lsr	r3, r3, #2
   18420:	e2033001 	and	r3, r3, #1
   18424:	ea000008 	b	1844c <XHls_macc_IsIdle+0xc8>
   18428:	e30b0f08 	movw	r0, #48904	; 0xbf08
   1842c:	e3400001 	movt	r0, #1
   18430:	e3a01035 	mov	r1, #53	; 0x35
   18434:	ebffde00 	bl	fc3c <Xil_Assert>
   18438:	e30c3768 	movw	r3, #51048	; 0xc768
   1843c:	e3403001 	movt	r3, #1
   18440:	e3a02001 	mov	r2, #1
   18444:	e5832000 	str	r2, [r3]
   18448:	e3a03000 	mov	r3, #0
   1844c:	e1a00003 	mov	r0, r3
   18450:	e24bd004 	sub	sp, fp, #4
   18454:	e8bd8800 	pop	{fp, pc}

00018458 <XHls_macc_IsReady>:
   18458:	e92d4800 	push	{fp, lr}
   1845c:	e28db004 	add	fp, sp, #4
   18460:	e24dd010 	sub	sp, sp, #16
   18464:	e50b0010 	str	r0, [fp, #-16]
   18468:	e51b3010 	ldr	r3, [fp, #-16]
   1846c:	e3530000 	cmp	r3, #0
   18470:	0a00000a 	beq	184a0 <XHls_macc_IsReady+0x48>
   18474:	e30c3768 	movw	r3, #51048	; 0xc768
   18478:	e3403001 	movt	r3, #1
   1847c:	e3a02000 	mov	r2, #0
   18480:	e5832000 	str	r2, [r3]
   18484:	e51b3010 	ldr	r3, [fp, #-16]
   18488:	e5932004 	ldr	r2, [r3, #4]
   1848c:	e3013111 	movw	r3, #4369	; 0x1111
   18490:	e3413111 	movt	r3, #4369	; 0x1111
   18494:	e1520003 	cmp	r2, r3
   18498:	1a00001a 	bne	18508 <XHls_macc_IsReady+0xb0>
   1849c:	ea000009 	b	184c8 <XHls_macc_IsReady+0x70>
   184a0:	e30b0f08 	movw	r0, #48904	; 0xbf08
   184a4:	e3400001 	movt	r0, #1
   184a8:	e3a0103e 	mov	r1, #62	; 0x3e
   184ac:	ebffdde2 	bl	fc3c <Xil_Assert>
   184b0:	e30c3768 	movw	r3, #51048	; 0xc768
   184b4:	e3403001 	movt	r3, #1
   184b8:	e3a02001 	mov	r2, #1
   184bc:	e5832000 	str	r2, [r3]
   184c0:	e3a03000 	mov	r3, #0
   184c4:	ea000018 	b	1852c <XHls_macc_IsReady+0xd4>
   184c8:	e30c3768 	movw	r3, #51048	; 0xc768
   184cc:	e3403001 	movt	r3, #1
   184d0:	e3a02000 	mov	r2, #0
   184d4:	e5832000 	str	r2, [r3]
   184d8:	e51b3010 	ldr	r3, [fp, #-16]
   184dc:	e5933000 	ldr	r3, [r3]
   184e0:	e1a00003 	mov	r0, r3
   184e4:	ebffde0d 	bl	fd20 <Xil_In32>
   184e8:	e50b0008 	str	r0, [fp, #-8]
   184ec:	e51b3008 	ldr	r3, [fp, #-8]
   184f0:	e2033001 	and	r3, r3, #1
   184f4:	e3530000 	cmp	r3, #0
   184f8:	03a03001 	moveq	r3, #1
   184fc:	13a03000 	movne	r3, #0
   18500:	e6ef3073 	uxtb	r3, r3
   18504:	ea000008 	b	1852c <XHls_macc_IsReady+0xd4>
   18508:	e30b0f08 	movw	r0, #48904	; 0xbf08
   1850c:	e3400001 	movt	r0, #1
   18510:	e3a0103f 	mov	r1, #63	; 0x3f
   18514:	ebffddc8 	bl	fc3c <Xil_Assert>
   18518:	e30c3768 	movw	r3, #51048	; 0xc768
   1851c:	e3403001 	movt	r3, #1
   18520:	e3a02001 	mov	r2, #1
   18524:	e5832000 	str	r2, [r3]
   18528:	e3a03000 	mov	r3, #0
   1852c:	e1a00003 	mov	r0, r3
   18530:	e24bd004 	sub	sp, fp, #4
   18534:	e8bd8800 	pop	{fp, pc}

00018538 <XHls_macc_EnableAutoRestart>:
   18538:	e92d4800 	push	{fp, lr}
   1853c:	e28db004 	add	fp, sp, #4
   18540:	e24dd008 	sub	sp, sp, #8
   18544:	e50b0008 	str	r0, [fp, #-8]
   18548:	e51b3008 	ldr	r3, [fp, #-8]
   1854c:	e3530000 	cmp	r3, #0
   18550:	0a00000a 	beq	18580 <XHls_macc_EnableAutoRestart+0x48>
   18554:	e30c3768 	movw	r3, #51048	; 0xc768
   18558:	e3403001 	movt	r3, #1
   1855c:	e3a02000 	mov	r2, #0
   18560:	e5832000 	str	r2, [r3]
   18564:	e51b3008 	ldr	r3, [fp, #-8]
   18568:	e5932004 	ldr	r2, [r3, #4]
   1856c:	e3013111 	movw	r3, #4369	; 0x1111
   18570:	e3413111 	movt	r3, #4369	; 0x1111
   18574:	e1520003 	cmp	r2, r3
   18578:	1a000013 	bne	185cc <XHls_macc_EnableAutoRestart+0x94>
   1857c:	ea000008 	b	185a4 <XHls_macc_EnableAutoRestart+0x6c>
   18580:	e30b0f08 	movw	r0, #48904	; 0xbf08
   18584:	e3400001 	movt	r0, #1
   18588:	e3a01047 	mov	r1, #71	; 0x47
   1858c:	ebffddaa 	bl	fc3c <Xil_Assert>
   18590:	e30c3768 	movw	r3, #51048	; 0xc768
   18594:	e3403001 	movt	r3, #1
   18598:	e3a02001 	mov	r2, #1
   1859c:	e5832000 	str	r2, [r3]
   185a0:	ea000012 	b	185f0 <XHls_macc_EnableAutoRestart+0xb8>
   185a4:	e30c3768 	movw	r3, #51048	; 0xc768
   185a8:	e3403001 	movt	r3, #1
   185ac:	e3a02000 	mov	r2, #0
   185b0:	e5832000 	str	r2, [r3]
   185b4:	e51b3008 	ldr	r3, [fp, #-8]
   185b8:	e5933000 	ldr	r3, [r3]
   185bc:	e1a00003 	mov	r0, r3
   185c0:	e3a01080 	mov	r1, #128	; 0x80
   185c4:	ebffddf7 	bl	fda8 <Xil_Out32>
   185c8:	ea000008 	b	185f0 <XHls_macc_EnableAutoRestart+0xb8>
   185cc:	e30b0f08 	movw	r0, #48904	; 0xbf08
   185d0:	e3400001 	movt	r0, #1
   185d4:	e3a01048 	mov	r1, #72	; 0x48
   185d8:	ebffdd97 	bl	fc3c <Xil_Assert>
   185dc:	e30c3768 	movw	r3, #51048	; 0xc768
   185e0:	e3403001 	movt	r3, #1
   185e4:	e3a02001 	mov	r2, #1
   185e8:	e5832000 	str	r2, [r3]
   185ec:	e1a00000 	nop			; (mov r0, r0)
   185f0:	e24bd004 	sub	sp, fp, #4
   185f4:	e8bd8800 	pop	{fp, pc}

000185f8 <XHls_macc_DisableAutoRestart>:
   185f8:	e92d4800 	push	{fp, lr}
   185fc:	e28db004 	add	fp, sp, #4
   18600:	e24dd008 	sub	sp, sp, #8
   18604:	e50b0008 	str	r0, [fp, #-8]
   18608:	e51b3008 	ldr	r3, [fp, #-8]
   1860c:	e3530000 	cmp	r3, #0
   18610:	0a00000a 	beq	18640 <XHls_macc_DisableAutoRestart+0x48>
   18614:	e30c3768 	movw	r3, #51048	; 0xc768
   18618:	e3403001 	movt	r3, #1
   1861c:	e3a02000 	mov	r2, #0
   18620:	e5832000 	str	r2, [r3]
   18624:	e51b3008 	ldr	r3, [fp, #-8]
   18628:	e5932004 	ldr	r2, [r3, #4]
   1862c:	e3013111 	movw	r3, #4369	; 0x1111
   18630:	e3413111 	movt	r3, #4369	; 0x1111
   18634:	e1520003 	cmp	r2, r3
   18638:	1a000013 	bne	1868c <XHls_macc_DisableAutoRestart+0x94>
   1863c:	ea000008 	b	18664 <XHls_macc_DisableAutoRestart+0x6c>
   18640:	e30b0f08 	movw	r0, #48904	; 0xbf08
   18644:	e3400001 	movt	r0, #1
   18648:	e3a0104e 	mov	r1, #78	; 0x4e
   1864c:	ebffdd7a 	bl	fc3c <Xil_Assert>
   18650:	e30c3768 	movw	r3, #51048	; 0xc768
   18654:	e3403001 	movt	r3, #1
   18658:	e3a02001 	mov	r2, #1
   1865c:	e5832000 	str	r2, [r3]
   18660:	ea000012 	b	186b0 <XHls_macc_DisableAutoRestart+0xb8>
   18664:	e30c3768 	movw	r3, #51048	; 0xc768
   18668:	e3403001 	movt	r3, #1
   1866c:	e3a02000 	mov	r2, #0
   18670:	e5832000 	str	r2, [r3]
   18674:	e51b3008 	ldr	r3, [fp, #-8]
   18678:	e5933000 	ldr	r3, [r3]
   1867c:	e1a00003 	mov	r0, r3
   18680:	e3a01000 	mov	r1, #0
   18684:	ebffddc7 	bl	fda8 <Xil_Out32>
   18688:	ea000008 	b	186b0 <XHls_macc_DisableAutoRestart+0xb8>
   1868c:	e30b0f08 	movw	r0, #48904	; 0xbf08
   18690:	e3400001 	movt	r0, #1
   18694:	e3a0104f 	mov	r1, #79	; 0x4f
   18698:	ebffdd67 	bl	fc3c <Xil_Assert>
   1869c:	e30c3768 	movw	r3, #51048	; 0xc768
   186a0:	e3403001 	movt	r3, #1
   186a4:	e3a02001 	mov	r2, #1
   186a8:	e5832000 	str	r2, [r3]
   186ac:	e1a00000 	nop			; (mov r0, r0)
   186b0:	e24bd004 	sub	sp, fp, #4
   186b4:	e8bd8800 	pop	{fp, pc}

000186b8 <XHls_macc_SetA>:
   186b8:	e92d4800 	push	{fp, lr}
   186bc:	e28db004 	add	fp, sp, #4
   186c0:	e24dd008 	sub	sp, sp, #8
   186c4:	e50b0008 	str	r0, [fp, #-8]
   186c8:	e50b100c 	str	r1, [fp, #-12]
   186cc:	e51b3008 	ldr	r3, [fp, #-8]
   186d0:	e3530000 	cmp	r3, #0
   186d4:	0a00000a 	beq	18704 <XHls_macc_SetA+0x4c>
   186d8:	e30c3768 	movw	r3, #51048	; 0xc768
   186dc:	e3403001 	movt	r3, #1
   186e0:	e3a02000 	mov	r2, #0
   186e4:	e5832000 	str	r2, [r3]
   186e8:	e51b3008 	ldr	r3, [fp, #-8]
   186ec:	e5932004 	ldr	r2, [r3, #4]
   186f0:	e3013111 	movw	r3, #4369	; 0x1111
   186f4:	e3413111 	movt	r3, #4369	; 0x1111
   186f8:	e1520003 	cmp	r2, r3
   186fc:	1a000014 	bne	18754 <XHls_macc_SetA+0x9c>
   18700:	ea000008 	b	18728 <XHls_macc_SetA+0x70>
   18704:	e30b0f08 	movw	r0, #48904	; 0xbf08
   18708:	e3400001 	movt	r0, #1
   1870c:	e3a01055 	mov	r1, #85	; 0x55
   18710:	ebffdd49 	bl	fc3c <Xil_Assert>
   18714:	e30c3768 	movw	r3, #51048	; 0xc768
   18718:	e3403001 	movt	r3, #1
   1871c:	e3a02001 	mov	r2, #1
   18720:	e5832000 	str	r2, [r3]
   18724:	ea000013 	b	18778 <XHls_macc_SetA+0xc0>
   18728:	e30c3768 	movw	r3, #51048	; 0xc768
   1872c:	e3403001 	movt	r3, #1
   18730:	e3a02000 	mov	r2, #0
   18734:	e5832000 	str	r2, [r3]
   18738:	e51b3008 	ldr	r3, [fp, #-8]
   1873c:	e5933000 	ldr	r3, [r3]
   18740:	e2833014 	add	r3, r3, #20
   18744:	e1a00003 	mov	r0, r3
   18748:	e51b100c 	ldr	r1, [fp, #-12]
   1874c:	ebffdd95 	bl	fda8 <Xil_Out32>
   18750:	ea000008 	b	18778 <XHls_macc_SetA+0xc0>
   18754:	e30b0f08 	movw	r0, #48904	; 0xbf08
   18758:	e3400001 	movt	r0, #1
   1875c:	e3a01056 	mov	r1, #86	; 0x56
   18760:	ebffdd35 	bl	fc3c <Xil_Assert>
   18764:	e30c3768 	movw	r3, #51048	; 0xc768
   18768:	e3403001 	movt	r3, #1
   1876c:	e3a02001 	mov	r2, #1
   18770:	e5832000 	str	r2, [r3]
   18774:	e1a00000 	nop			; (mov r0, r0)
   18778:	e24bd004 	sub	sp, fp, #4
   1877c:	e8bd8800 	pop	{fp, pc}

00018780 <XHls_macc_GetA>:
   18780:	e92d4800 	push	{fp, lr}
   18784:	e28db004 	add	fp, sp, #4
   18788:	e24dd010 	sub	sp, sp, #16
   1878c:	e50b0010 	str	r0, [fp, #-16]
   18790:	e51b3010 	ldr	r3, [fp, #-16]
   18794:	e3530000 	cmp	r3, #0
   18798:	0a00000a 	beq	187c8 <XHls_macc_GetA+0x48>
   1879c:	e30c3768 	movw	r3, #51048	; 0xc768
   187a0:	e3403001 	movt	r3, #1
   187a4:	e3a02000 	mov	r2, #0
   187a8:	e5832000 	str	r2, [r3]
   187ac:	e51b3010 	ldr	r3, [fp, #-16]
   187b0:	e5932004 	ldr	r2, [r3, #4]
   187b4:	e3013111 	movw	r3, #4369	; 0x1111
   187b8:	e3413111 	movt	r3, #4369	; 0x1111
   187bc:	e1520003 	cmp	r2, r3
   187c0:	1a000016 	bne	18820 <XHls_macc_GetA+0xa0>
   187c4:	ea000009 	b	187f0 <XHls_macc_GetA+0x70>
   187c8:	e30b0f08 	movw	r0, #48904	; 0xbf08
   187cc:	e3400001 	movt	r0, #1
   187d0:	e3a0105e 	mov	r1, #94	; 0x5e
   187d4:	ebffdd18 	bl	fc3c <Xil_Assert>
   187d8:	e30c3768 	movw	r3, #51048	; 0xc768
   187dc:	e3403001 	movt	r3, #1
   187e0:	e3a02001 	mov	r2, #1
   187e4:	e5832000 	str	r2, [r3]
   187e8:	e3a03000 	mov	r3, #0
   187ec:	ea000014 	b	18844 <XHls_macc_GetA+0xc4>
   187f0:	e30c3768 	movw	r3, #51048	; 0xc768
   187f4:	e3403001 	movt	r3, #1
   187f8:	e3a02000 	mov	r2, #0
   187fc:	e5832000 	str	r2, [r3]
   18800:	e51b3010 	ldr	r3, [fp, #-16]
   18804:	e5933000 	ldr	r3, [r3]
   18808:	e2833014 	add	r3, r3, #20
   1880c:	e1a00003 	mov	r0, r3
   18810:	ebffdd42 	bl	fd20 <Xil_In32>
   18814:	e50b0008 	str	r0, [fp, #-8]
   18818:	e51b3008 	ldr	r3, [fp, #-8]
   1881c:	ea000008 	b	18844 <XHls_macc_GetA+0xc4>
   18820:	e30b0f08 	movw	r0, #48904	; 0xbf08
   18824:	e3400001 	movt	r0, #1
   18828:	e3a0105f 	mov	r1, #95	; 0x5f
   1882c:	ebffdd02 	bl	fc3c <Xil_Assert>
   18830:	e30c3768 	movw	r3, #51048	; 0xc768
   18834:	e3403001 	movt	r3, #1
   18838:	e3a02001 	mov	r2, #1
   1883c:	e5832000 	str	r2, [r3]
   18840:	e3a03000 	mov	r3, #0
   18844:	e1a00003 	mov	r0, r3
   18848:	e24bd004 	sub	sp, fp, #4
   1884c:	e8bd8800 	pop	{fp, pc}

00018850 <XHls_macc_SetB>:
   18850:	e92d4800 	push	{fp, lr}
   18854:	e28db004 	add	fp, sp, #4
   18858:	e24dd008 	sub	sp, sp, #8
   1885c:	e50b0008 	str	r0, [fp, #-8]
   18860:	e50b100c 	str	r1, [fp, #-12]
   18864:	e51b3008 	ldr	r3, [fp, #-8]
   18868:	e3530000 	cmp	r3, #0
   1886c:	0a00000a 	beq	1889c <XHls_macc_SetB+0x4c>
   18870:	e30c3768 	movw	r3, #51048	; 0xc768
   18874:	e3403001 	movt	r3, #1
   18878:	e3a02000 	mov	r2, #0
   1887c:	e5832000 	str	r2, [r3]
   18880:	e51b3008 	ldr	r3, [fp, #-8]
   18884:	e5932004 	ldr	r2, [r3, #4]
   18888:	e3013111 	movw	r3, #4369	; 0x1111
   1888c:	e3413111 	movt	r3, #4369	; 0x1111
   18890:	e1520003 	cmp	r2, r3
   18894:	1a000014 	bne	188ec <XHls_macc_SetB+0x9c>
   18898:	ea000008 	b	188c0 <XHls_macc_SetB+0x70>
   1889c:	e30b0f08 	movw	r0, #48904	; 0xbf08
   188a0:	e3400001 	movt	r0, #1
   188a4:	e3a01066 	mov	r1, #102	; 0x66
   188a8:	ebffdce3 	bl	fc3c <Xil_Assert>
   188ac:	e30c3768 	movw	r3, #51048	; 0xc768
   188b0:	e3403001 	movt	r3, #1
   188b4:	e3a02001 	mov	r2, #1
   188b8:	e5832000 	str	r2, [r3]
   188bc:	ea000013 	b	18910 <XHls_macc_SetB+0xc0>
   188c0:	e30c3768 	movw	r3, #51048	; 0xc768
   188c4:	e3403001 	movt	r3, #1
   188c8:	e3a02000 	mov	r2, #0
   188cc:	e5832000 	str	r2, [r3]
   188d0:	e51b3008 	ldr	r3, [fp, #-8]
   188d4:	e5933000 	ldr	r3, [r3]
   188d8:	e283301c 	add	r3, r3, #28
   188dc:	e1a00003 	mov	r0, r3
   188e0:	e51b100c 	ldr	r1, [fp, #-12]
   188e4:	ebffdd2f 	bl	fda8 <Xil_Out32>
   188e8:	ea000008 	b	18910 <XHls_macc_SetB+0xc0>
   188ec:	e30b0f08 	movw	r0, #48904	; 0xbf08
   188f0:	e3400001 	movt	r0, #1
   188f4:	e3a01067 	mov	r1, #103	; 0x67
   188f8:	ebffdccf 	bl	fc3c <Xil_Assert>
   188fc:	e30c3768 	movw	r3, #51048	; 0xc768
   18900:	e3403001 	movt	r3, #1
   18904:	e3a02001 	mov	r2, #1
   18908:	e5832000 	str	r2, [r3]
   1890c:	e1a00000 	nop			; (mov r0, r0)
   18910:	e24bd004 	sub	sp, fp, #4
   18914:	e8bd8800 	pop	{fp, pc}

00018918 <XHls_macc_GetB>:
   18918:	e92d4800 	push	{fp, lr}
   1891c:	e28db004 	add	fp, sp, #4
   18920:	e24dd010 	sub	sp, sp, #16
   18924:	e50b0010 	str	r0, [fp, #-16]
   18928:	e51b3010 	ldr	r3, [fp, #-16]
   1892c:	e3530000 	cmp	r3, #0
   18930:	0a00000a 	beq	18960 <XHls_macc_GetB+0x48>
   18934:	e30c3768 	movw	r3, #51048	; 0xc768
   18938:	e3403001 	movt	r3, #1
   1893c:	e3a02000 	mov	r2, #0
   18940:	e5832000 	str	r2, [r3]
   18944:	e51b3010 	ldr	r3, [fp, #-16]
   18948:	e5932004 	ldr	r2, [r3, #4]
   1894c:	e3013111 	movw	r3, #4369	; 0x1111
   18950:	e3413111 	movt	r3, #4369	; 0x1111
   18954:	e1520003 	cmp	r2, r3
   18958:	1a000016 	bne	189b8 <XHls_macc_GetB+0xa0>
   1895c:	ea000009 	b	18988 <XHls_macc_GetB+0x70>
   18960:	e30b0f08 	movw	r0, #48904	; 0xbf08
   18964:	e3400001 	movt	r0, #1
   18968:	e3a0106f 	mov	r1, #111	; 0x6f
   1896c:	ebffdcb2 	bl	fc3c <Xil_Assert>
   18970:	e30c3768 	movw	r3, #51048	; 0xc768
   18974:	e3403001 	movt	r3, #1
   18978:	e3a02001 	mov	r2, #1
   1897c:	e5832000 	str	r2, [r3]
   18980:	e3a03000 	mov	r3, #0
   18984:	ea000014 	b	189dc <XHls_macc_GetB+0xc4>
   18988:	e30c3768 	movw	r3, #51048	; 0xc768
   1898c:	e3403001 	movt	r3, #1
   18990:	e3a02000 	mov	r2, #0
   18994:	e5832000 	str	r2, [r3]
   18998:	e51b3010 	ldr	r3, [fp, #-16]
   1899c:	e5933000 	ldr	r3, [r3]
   189a0:	e283301c 	add	r3, r3, #28
   189a4:	e1a00003 	mov	r0, r3
   189a8:	ebffdcdc 	bl	fd20 <Xil_In32>
   189ac:	e50b0008 	str	r0, [fp, #-8]
   189b0:	e51b3008 	ldr	r3, [fp, #-8]
   189b4:	ea000008 	b	189dc <XHls_macc_GetB+0xc4>
   189b8:	e30b0f08 	movw	r0, #48904	; 0xbf08
   189bc:	e3400001 	movt	r0, #1
   189c0:	e3a01070 	mov	r1, #112	; 0x70
   189c4:	ebffdc9c 	bl	fc3c <Xil_Assert>
   189c8:	e30c3768 	movw	r3, #51048	; 0xc768
   189cc:	e3403001 	movt	r3, #1
   189d0:	e3a02001 	mov	r2, #1
   189d4:	e5832000 	str	r2, [r3]
   189d8:	e3a03000 	mov	r3, #0
   189dc:	e1a00003 	mov	r0, r3
   189e0:	e24bd004 	sub	sp, fp, #4
   189e4:	e8bd8800 	pop	{fp, pc}

000189e8 <XHls_macc_GetAccum>:
   189e8:	e92d4800 	push	{fp, lr}
   189ec:	e28db004 	add	fp, sp, #4
   189f0:	e24dd010 	sub	sp, sp, #16
   189f4:	e50b0010 	str	r0, [fp, #-16]
   189f8:	e51b3010 	ldr	r3, [fp, #-16]
   189fc:	e3530000 	cmp	r3, #0
   18a00:	0a00000a 	beq	18a30 <XHls_macc_GetAccum+0x48>
   18a04:	e30c3768 	movw	r3, #51048	; 0xc768
   18a08:	e3403001 	movt	r3, #1
   18a0c:	e3a02000 	mov	r2, #0
   18a10:	e5832000 	str	r2, [r3]
   18a14:	e51b3010 	ldr	r3, [fp, #-16]
   18a18:	e5932004 	ldr	r2, [r3, #4]
   18a1c:	e3013111 	movw	r3, #4369	; 0x1111
   18a20:	e3413111 	movt	r3, #4369	; 0x1111
   18a24:	e1520003 	cmp	r2, r3
   18a28:	1a000016 	bne	18a88 <XHls_macc_GetAccum+0xa0>
   18a2c:	ea000009 	b	18a58 <XHls_macc_GetAccum+0x70>
   18a30:	e30b0f08 	movw	r0, #48904	; 0xbf08
   18a34:	e3400001 	movt	r0, #1
   18a38:	e3a01079 	mov	r1, #121	; 0x79
   18a3c:	ebffdc7e 	bl	fc3c <Xil_Assert>
   18a40:	e30c3768 	movw	r3, #51048	; 0xc768
   18a44:	e3403001 	movt	r3, #1
   18a48:	e3a02001 	mov	r2, #1
   18a4c:	e5832000 	str	r2, [r3]
   18a50:	e3a03000 	mov	r3, #0
   18a54:	ea000014 	b	18aac <XHls_macc_GetAccum+0xc4>
   18a58:	e30c3768 	movw	r3, #51048	; 0xc768
   18a5c:	e3403001 	movt	r3, #1
   18a60:	e3a02000 	mov	r2, #0
   18a64:	e5832000 	str	r2, [r3]
   18a68:	e51b3010 	ldr	r3, [fp, #-16]
   18a6c:	e5933000 	ldr	r3, [r3]
   18a70:	e2833024 	add	r3, r3, #36	; 0x24
   18a74:	e1a00003 	mov	r0, r3
   18a78:	ebffdca8 	bl	fd20 <Xil_In32>
   18a7c:	e50b0008 	str	r0, [fp, #-8]
   18a80:	e51b3008 	ldr	r3, [fp, #-8]
   18a84:	ea000008 	b	18aac <XHls_macc_GetAccum+0xc4>
   18a88:	e30b0f08 	movw	r0, #48904	; 0xbf08
   18a8c:	e3400001 	movt	r0, #1
   18a90:	e3a0107a 	mov	r1, #122	; 0x7a
   18a94:	ebffdc68 	bl	fc3c <Xil_Assert>
   18a98:	e30c3768 	movw	r3, #51048	; 0xc768
   18a9c:	e3403001 	movt	r3, #1
   18aa0:	e3a02001 	mov	r2, #1
   18aa4:	e5832000 	str	r2, [r3]
   18aa8:	e3a03000 	mov	r3, #0
   18aac:	e1a00003 	mov	r0, r3
   18ab0:	e24bd004 	sub	sp, fp, #4
   18ab4:	e8bd8800 	pop	{fp, pc}

00018ab8 <XHls_macc_GetFlag>:
   18ab8:	e92d4800 	push	{fp, lr}
   18abc:	e28db004 	add	fp, sp, #4
   18ac0:	e24dd010 	sub	sp, sp, #16
   18ac4:	e50b0010 	str	r0, [fp, #-16]
   18ac8:	e51b3010 	ldr	r3, [fp, #-16]
   18acc:	e3530000 	cmp	r3, #0
   18ad0:	0a00000a 	beq	18b00 <XHls_macc_GetFlag+0x48>
   18ad4:	e30c3768 	movw	r3, #51048	; 0xc768
   18ad8:	e3403001 	movt	r3, #1
   18adc:	e3a02000 	mov	r2, #0
   18ae0:	e5832000 	str	r2, [r3]
   18ae4:	e51b3010 	ldr	r3, [fp, #-16]
   18ae8:	e5932004 	ldr	r2, [r3, #4]
   18aec:	e3013111 	movw	r3, #4369	; 0x1111
   18af0:	e3413111 	movt	r3, #4369	; 0x1111
   18af4:	e1520003 	cmp	r2, r3
   18af8:	1a000016 	bne	18b58 <XHls_macc_GetFlag+0xa0>
   18afc:	ea000009 	b	18b28 <XHls_macc_GetFlag+0x70>
   18b00:	e30b0f08 	movw	r0, #48904	; 0xbf08
   18b04:	e3400001 	movt	r0, #1
   18b08:	e3a01083 	mov	r1, #131	; 0x83
   18b0c:	ebffdc4a 	bl	fc3c <Xil_Assert>
   18b10:	e30c3768 	movw	r3, #51048	; 0xc768
   18b14:	e3403001 	movt	r3, #1
   18b18:	e3a02001 	mov	r2, #1
   18b1c:	e5832000 	str	r2, [r3]
   18b20:	e3a03000 	mov	r3, #0
   18b24:	ea000014 	b	18b7c <XHls_macc_GetFlag+0xc4>
   18b28:	e30c3768 	movw	r3, #51048	; 0xc768
   18b2c:	e3403001 	movt	r3, #1
   18b30:	e3a02000 	mov	r2, #0
   18b34:	e5832000 	str	r2, [r3]
   18b38:	e51b3010 	ldr	r3, [fp, #-16]
   18b3c:	e5933000 	ldr	r3, [r3]
   18b40:	e283302c 	add	r3, r3, #44	; 0x2c
   18b44:	e1a00003 	mov	r0, r3
   18b48:	ebffdc74 	bl	fd20 <Xil_In32>
   18b4c:	e50b0008 	str	r0, [fp, #-8]
   18b50:	e51b3008 	ldr	r3, [fp, #-8]
   18b54:	ea000008 	b	18b7c <XHls_macc_GetFlag+0xc4>
   18b58:	e30b0f08 	movw	r0, #48904	; 0xbf08
   18b5c:	e3400001 	movt	r0, #1
   18b60:	e3a01084 	mov	r1, #132	; 0x84
   18b64:	ebffdc34 	bl	fc3c <Xil_Assert>
   18b68:	e30c3768 	movw	r3, #51048	; 0xc768
   18b6c:	e3403001 	movt	r3, #1
   18b70:	e3a02001 	mov	r2, #1
   18b74:	e5832000 	str	r2, [r3]
   18b78:	e3a03000 	mov	r3, #0
   18b7c:	e1a00003 	mov	r0, r3
   18b80:	e24bd004 	sub	sp, fp, #4
   18b84:	e8bd8800 	pop	{fp, pc}

00018b88 <XHls_macc_SetAccum_clr>:
   18b88:	e92d4800 	push	{fp, lr}
   18b8c:	e28db004 	add	fp, sp, #4
   18b90:	e24dd008 	sub	sp, sp, #8
   18b94:	e50b0008 	str	r0, [fp, #-8]
   18b98:	e50b100c 	str	r1, [fp, #-12]
   18b9c:	e51b3008 	ldr	r3, [fp, #-8]
   18ba0:	e3530000 	cmp	r3, #0
   18ba4:	0a00000a 	beq	18bd4 <XHls_macc_SetAccum_clr+0x4c>
   18ba8:	e30c3768 	movw	r3, #51048	; 0xc768
   18bac:	e3403001 	movt	r3, #1
   18bb0:	e3a02000 	mov	r2, #0
   18bb4:	e5832000 	str	r2, [r3]
   18bb8:	e51b3008 	ldr	r3, [fp, #-8]
   18bbc:	e5932004 	ldr	r2, [r3, #4]
   18bc0:	e3013111 	movw	r3, #4369	; 0x1111
   18bc4:	e3413111 	movt	r3, #4369	; 0x1111
   18bc8:	e1520003 	cmp	r2, r3
   18bcc:	1a000014 	bne	18c24 <XHls_macc_SetAccum_clr+0x9c>
   18bd0:	ea000008 	b	18bf8 <XHls_macc_SetAccum_clr+0x70>
   18bd4:	e30b0f08 	movw	r0, #48904	; 0xbf08
   18bd8:	e3400001 	movt	r0, #1
   18bdc:	e3a0108b 	mov	r1, #139	; 0x8b
   18be0:	ebffdc15 	bl	fc3c <Xil_Assert>
   18be4:	e30c3768 	movw	r3, #51048	; 0xc768
   18be8:	e3403001 	movt	r3, #1
   18bec:	e3a02001 	mov	r2, #1
   18bf0:	e5832000 	str	r2, [r3]
   18bf4:	ea000013 	b	18c48 <XHls_macc_SetAccum_clr+0xc0>
   18bf8:	e30c3768 	movw	r3, #51048	; 0xc768
   18bfc:	e3403001 	movt	r3, #1
   18c00:	e3a02000 	mov	r2, #0
   18c04:	e5832000 	str	r2, [r3]
   18c08:	e51b3008 	ldr	r3, [fp, #-8]
   18c0c:	e5933000 	ldr	r3, [r3]
   18c10:	e2833034 	add	r3, r3, #52	; 0x34
   18c14:	e1a00003 	mov	r0, r3
   18c18:	e51b100c 	ldr	r1, [fp, #-12]
   18c1c:	ebffdc61 	bl	fda8 <Xil_Out32>
   18c20:	ea000008 	b	18c48 <XHls_macc_SetAccum_clr+0xc0>
   18c24:	e30b0f08 	movw	r0, #48904	; 0xbf08
   18c28:	e3400001 	movt	r0, #1
   18c2c:	e3a0108c 	mov	r1, #140	; 0x8c
   18c30:	ebffdc01 	bl	fc3c <Xil_Assert>
   18c34:	e30c3768 	movw	r3, #51048	; 0xc768
   18c38:	e3403001 	movt	r3, #1
   18c3c:	e3a02001 	mov	r2, #1
   18c40:	e5832000 	str	r2, [r3]
   18c44:	e1a00000 	nop			; (mov r0, r0)
   18c48:	e24bd004 	sub	sp, fp, #4
   18c4c:	e8bd8800 	pop	{fp, pc}

00018c50 <XHls_macc_GetAccum_clr>:
   18c50:	e92d4800 	push	{fp, lr}
   18c54:	e28db004 	add	fp, sp, #4
   18c58:	e24dd010 	sub	sp, sp, #16
   18c5c:	e50b0010 	str	r0, [fp, #-16]
   18c60:	e51b3010 	ldr	r3, [fp, #-16]
   18c64:	e3530000 	cmp	r3, #0
   18c68:	0a00000a 	beq	18c98 <XHls_macc_GetAccum_clr+0x48>
   18c6c:	e30c3768 	movw	r3, #51048	; 0xc768
   18c70:	e3403001 	movt	r3, #1
   18c74:	e3a02000 	mov	r2, #0
   18c78:	e5832000 	str	r2, [r3]
   18c7c:	e51b3010 	ldr	r3, [fp, #-16]
   18c80:	e5932004 	ldr	r2, [r3, #4]
   18c84:	e3013111 	movw	r3, #4369	; 0x1111
   18c88:	e3413111 	movt	r3, #4369	; 0x1111
   18c8c:	e1520003 	cmp	r2, r3
   18c90:	1a000016 	bne	18cf0 <XHls_macc_GetAccum_clr+0xa0>
   18c94:	ea000009 	b	18cc0 <XHls_macc_GetAccum_clr+0x70>
   18c98:	e30b0f08 	movw	r0, #48904	; 0xbf08
   18c9c:	e3400001 	movt	r0, #1
   18ca0:	e3a01094 	mov	r1, #148	; 0x94
   18ca4:	ebffdbe4 	bl	fc3c <Xil_Assert>
   18ca8:	e30c3768 	movw	r3, #51048	; 0xc768
   18cac:	e3403001 	movt	r3, #1
   18cb0:	e3a02001 	mov	r2, #1
   18cb4:	e5832000 	str	r2, [r3]
   18cb8:	e3a03000 	mov	r3, #0
   18cbc:	ea000014 	b	18d14 <XHls_macc_GetAccum_clr+0xc4>
   18cc0:	e30c3768 	movw	r3, #51048	; 0xc768
   18cc4:	e3403001 	movt	r3, #1
   18cc8:	e3a02000 	mov	r2, #0
   18ccc:	e5832000 	str	r2, [r3]
   18cd0:	e51b3010 	ldr	r3, [fp, #-16]
   18cd4:	e5933000 	ldr	r3, [r3]
   18cd8:	e2833034 	add	r3, r3, #52	; 0x34
   18cdc:	e1a00003 	mov	r0, r3
   18ce0:	ebffdc0e 	bl	fd20 <Xil_In32>
   18ce4:	e50b0008 	str	r0, [fp, #-8]
   18ce8:	e51b3008 	ldr	r3, [fp, #-8]
   18cec:	ea000008 	b	18d14 <XHls_macc_GetAccum_clr+0xc4>
   18cf0:	e30b0f08 	movw	r0, #48904	; 0xbf08
   18cf4:	e3400001 	movt	r0, #1
   18cf8:	e3a01095 	mov	r1, #149	; 0x95
   18cfc:	ebffdbce 	bl	fc3c <Xil_Assert>
   18d00:	e30c3768 	movw	r3, #51048	; 0xc768
   18d04:	e3403001 	movt	r3, #1
   18d08:	e3a02001 	mov	r2, #1
   18d0c:	e5832000 	str	r2, [r3]
   18d10:	e3a03000 	mov	r3, #0
   18d14:	e1a00003 	mov	r0, r3
   18d18:	e24bd004 	sub	sp, fp, #4
   18d1c:	e8bd8800 	pop	{fp, pc}

00018d20 <XHls_macc_SetByte_wroffset>:
   18d20:	e92d4800 	push	{fp, lr}
   18d24:	e28db004 	add	fp, sp, #4
   18d28:	e24dd008 	sub	sp, sp, #8
   18d2c:	e50b0008 	str	r0, [fp, #-8]
   18d30:	e50b100c 	str	r1, [fp, #-12]
   18d34:	e51b3008 	ldr	r3, [fp, #-8]
   18d38:	e3530000 	cmp	r3, #0
   18d3c:	0a00000a 	beq	18d6c <XHls_macc_SetByte_wroffset+0x4c>
   18d40:	e30c3768 	movw	r3, #51048	; 0xc768
   18d44:	e3403001 	movt	r3, #1
   18d48:	e3a02000 	mov	r2, #0
   18d4c:	e5832000 	str	r2, [r3]
   18d50:	e51b3008 	ldr	r3, [fp, #-8]
   18d54:	e5932004 	ldr	r2, [r3, #4]
   18d58:	e3013111 	movw	r3, #4369	; 0x1111
   18d5c:	e3413111 	movt	r3, #4369	; 0x1111
   18d60:	e1520003 	cmp	r2, r3
   18d64:	1a000014 	bne	18dbc <XHls_macc_SetByte_wroffset+0x9c>
   18d68:	ea000008 	b	18d90 <XHls_macc_SetByte_wroffset+0x70>
   18d6c:	e30b0f08 	movw	r0, #48904	; 0xbf08
   18d70:	e3400001 	movt	r0, #1
   18d74:	e3a0109c 	mov	r1, #156	; 0x9c
   18d78:	ebffdbaf 	bl	fc3c <Xil_Assert>
   18d7c:	e30c3768 	movw	r3, #51048	; 0xc768
   18d80:	e3403001 	movt	r3, #1
   18d84:	e3a02001 	mov	r2, #1
   18d88:	e5832000 	str	r2, [r3]
   18d8c:	ea000013 	b	18de0 <XHls_macc_SetByte_wroffset+0xc0>
   18d90:	e30c3768 	movw	r3, #51048	; 0xc768
   18d94:	e3403001 	movt	r3, #1
   18d98:	e3a02000 	mov	r2, #0
   18d9c:	e5832000 	str	r2, [r3]
   18da0:	e51b3008 	ldr	r3, [fp, #-8]
   18da4:	e5933000 	ldr	r3, [r3]
   18da8:	e283303c 	add	r3, r3, #60	; 0x3c
   18dac:	e1a00003 	mov	r0, r3
   18db0:	e51b100c 	ldr	r1, [fp, #-12]
   18db4:	ebffdbfb 	bl	fda8 <Xil_Out32>
   18db8:	ea000008 	b	18de0 <XHls_macc_SetByte_wroffset+0xc0>
   18dbc:	e30b0f08 	movw	r0, #48904	; 0xbf08
   18dc0:	e3400001 	movt	r0, #1
   18dc4:	e3a0109d 	mov	r1, #157	; 0x9d
   18dc8:	ebffdb9b 	bl	fc3c <Xil_Assert>
   18dcc:	e30c3768 	movw	r3, #51048	; 0xc768
   18dd0:	e3403001 	movt	r3, #1
   18dd4:	e3a02001 	mov	r2, #1
   18dd8:	e5832000 	str	r2, [r3]
   18ddc:	e1a00000 	nop			; (mov r0, r0)
   18de0:	e24bd004 	sub	sp, fp, #4
   18de4:	e8bd8800 	pop	{fp, pc}

00018de8 <XHls_macc_GetByte_wroffset>:
   18de8:	e92d4800 	push	{fp, lr}
   18dec:	e28db004 	add	fp, sp, #4
   18df0:	e24dd010 	sub	sp, sp, #16
   18df4:	e50b0010 	str	r0, [fp, #-16]
   18df8:	e51b3010 	ldr	r3, [fp, #-16]
   18dfc:	e3530000 	cmp	r3, #0
   18e00:	0a00000a 	beq	18e30 <XHls_macc_GetByte_wroffset+0x48>
   18e04:	e30c3768 	movw	r3, #51048	; 0xc768
   18e08:	e3403001 	movt	r3, #1
   18e0c:	e3a02000 	mov	r2, #0
   18e10:	e5832000 	str	r2, [r3]
   18e14:	e51b3010 	ldr	r3, [fp, #-16]
   18e18:	e5932004 	ldr	r2, [r3, #4]
   18e1c:	e3013111 	movw	r3, #4369	; 0x1111
   18e20:	e3413111 	movt	r3, #4369	; 0x1111
   18e24:	e1520003 	cmp	r2, r3
   18e28:	1a000016 	bne	18e88 <XHls_macc_GetByte_wroffset+0xa0>
   18e2c:	ea000009 	b	18e58 <XHls_macc_GetByte_wroffset+0x70>
   18e30:	e30b0f08 	movw	r0, #48904	; 0xbf08
   18e34:	e3400001 	movt	r0, #1
   18e38:	e3a010a5 	mov	r1, #165	; 0xa5
   18e3c:	ebffdb7e 	bl	fc3c <Xil_Assert>
   18e40:	e30c3768 	movw	r3, #51048	; 0xc768
   18e44:	e3403001 	movt	r3, #1
   18e48:	e3a02001 	mov	r2, #1
   18e4c:	e5832000 	str	r2, [r3]
   18e50:	e3a03000 	mov	r3, #0
   18e54:	ea000014 	b	18eac <XHls_macc_GetByte_wroffset+0xc4>
   18e58:	e30c3768 	movw	r3, #51048	; 0xc768
   18e5c:	e3403001 	movt	r3, #1
   18e60:	e3a02000 	mov	r2, #0
   18e64:	e5832000 	str	r2, [r3]
   18e68:	e51b3010 	ldr	r3, [fp, #-16]
   18e6c:	e5933000 	ldr	r3, [r3]
   18e70:	e283303c 	add	r3, r3, #60	; 0x3c
   18e74:	e1a00003 	mov	r0, r3
   18e78:	ebffdba8 	bl	fd20 <Xil_In32>
   18e7c:	e50b0008 	str	r0, [fp, #-8]
   18e80:	e51b3008 	ldr	r3, [fp, #-8]
   18e84:	ea000008 	b	18eac <XHls_macc_GetByte_wroffset+0xc4>
   18e88:	e30b0f08 	movw	r0, #48904	; 0xbf08
   18e8c:	e3400001 	movt	r0, #1
   18e90:	e3a010a6 	mov	r1, #166	; 0xa6
   18e94:	ebffdb68 	bl	fc3c <Xil_Assert>
   18e98:	e30c3768 	movw	r3, #51048	; 0xc768
   18e9c:	e3403001 	movt	r3, #1
   18ea0:	e3a02001 	mov	r2, #1
   18ea4:	e5832000 	str	r2, [r3]
   18ea8:	e3a03000 	mov	r3, #0
   18eac:	e1a00003 	mov	r0, r3
   18eb0:	e24bd004 	sub	sp, fp, #4
   18eb4:	e8bd8800 	pop	{fp, pc}

00018eb8 <XHls_macc_SetFrame_len>:
   18eb8:	e92d4800 	push	{fp, lr}
   18ebc:	e28db004 	add	fp, sp, #4
   18ec0:	e24dd008 	sub	sp, sp, #8
   18ec4:	e50b0008 	str	r0, [fp, #-8]
   18ec8:	e50b100c 	str	r1, [fp, #-12]
   18ecc:	e51b3008 	ldr	r3, [fp, #-8]
   18ed0:	e3530000 	cmp	r3, #0
   18ed4:	0a00000a 	beq	18f04 <XHls_macc_SetFrame_len+0x4c>
   18ed8:	e30c3768 	movw	r3, #51048	; 0xc768
   18edc:	e3403001 	movt	r3, #1
   18ee0:	e3a02000 	mov	r2, #0
   18ee4:	e5832000 	str	r2, [r3]
   18ee8:	e51b3008 	ldr	r3, [fp, #-8]
   18eec:	e5932004 	ldr	r2, [r3, #4]
   18ef0:	e3013111 	movw	r3, #4369	; 0x1111
   18ef4:	e3413111 	movt	r3, #4369	; 0x1111
   18ef8:	e1520003 	cmp	r2, r3
   18efc:	1a000014 	bne	18f54 <XHls_macc_SetFrame_len+0x9c>
   18f00:	ea000008 	b	18f28 <XHls_macc_SetFrame_len+0x70>
   18f04:	e30b0f08 	movw	r0, #48904	; 0xbf08
   18f08:	e3400001 	movt	r0, #1
   18f0c:	e3a010ad 	mov	r1, #173	; 0xad
   18f10:	ebffdb49 	bl	fc3c <Xil_Assert>
   18f14:	e30c3768 	movw	r3, #51048	; 0xc768
   18f18:	e3403001 	movt	r3, #1
   18f1c:	e3a02001 	mov	r2, #1
   18f20:	e5832000 	str	r2, [r3]
   18f24:	ea000013 	b	18f78 <XHls_macc_SetFrame_len+0xc0>
   18f28:	e30c3768 	movw	r3, #51048	; 0xc768
   18f2c:	e3403001 	movt	r3, #1
   18f30:	e3a02000 	mov	r2, #0
   18f34:	e5832000 	str	r2, [r3]
   18f38:	e51b3008 	ldr	r3, [fp, #-8]
   18f3c:	e5933000 	ldr	r3, [r3]
   18f40:	e2833044 	add	r3, r3, #68	; 0x44
   18f44:	e1a00003 	mov	r0, r3
   18f48:	e51b100c 	ldr	r1, [fp, #-12]
   18f4c:	ebffdb95 	bl	fda8 <Xil_Out32>
   18f50:	ea000008 	b	18f78 <XHls_macc_SetFrame_len+0xc0>
   18f54:	e30b0f08 	movw	r0, #48904	; 0xbf08
   18f58:	e3400001 	movt	r0, #1
   18f5c:	e3a010ae 	mov	r1, #174	; 0xae
   18f60:	ebffdb35 	bl	fc3c <Xil_Assert>
   18f64:	e30c3768 	movw	r3, #51048	; 0xc768
   18f68:	e3403001 	movt	r3, #1
   18f6c:	e3a02001 	mov	r2, #1
   18f70:	e5832000 	str	r2, [r3]
   18f74:	e1a00000 	nop			; (mov r0, r0)
   18f78:	e24bd004 	sub	sp, fp, #4
   18f7c:	e8bd8800 	pop	{fp, pc}

00018f80 <XHls_macc_GetFrame_len>:
   18f80:	e92d4800 	push	{fp, lr}
   18f84:	e28db004 	add	fp, sp, #4
   18f88:	e24dd010 	sub	sp, sp, #16
   18f8c:	e50b0010 	str	r0, [fp, #-16]
   18f90:	e51b3010 	ldr	r3, [fp, #-16]
   18f94:	e3530000 	cmp	r3, #0
   18f98:	0a00000a 	beq	18fc8 <XHls_macc_GetFrame_len+0x48>
   18f9c:	e30c3768 	movw	r3, #51048	; 0xc768
   18fa0:	e3403001 	movt	r3, #1
   18fa4:	e3a02000 	mov	r2, #0
   18fa8:	e5832000 	str	r2, [r3]
   18fac:	e51b3010 	ldr	r3, [fp, #-16]
   18fb0:	e5932004 	ldr	r2, [r3, #4]
   18fb4:	e3013111 	movw	r3, #4369	; 0x1111
   18fb8:	e3413111 	movt	r3, #4369	; 0x1111
   18fbc:	e1520003 	cmp	r2, r3
   18fc0:	1a000016 	bne	19020 <XHls_macc_GetFrame_len+0xa0>
   18fc4:	ea000009 	b	18ff0 <XHls_macc_GetFrame_len+0x70>
   18fc8:	e30b0f08 	movw	r0, #48904	; 0xbf08
   18fcc:	e3400001 	movt	r0, #1
   18fd0:	e3a010b6 	mov	r1, #182	; 0xb6
   18fd4:	ebffdb18 	bl	fc3c <Xil_Assert>
   18fd8:	e30c3768 	movw	r3, #51048	; 0xc768
   18fdc:	e3403001 	movt	r3, #1
   18fe0:	e3a02001 	mov	r2, #1
   18fe4:	e5832000 	str	r2, [r3]
   18fe8:	e3a03000 	mov	r3, #0
   18fec:	ea000014 	b	19044 <XHls_macc_GetFrame_len+0xc4>
   18ff0:	e30c3768 	movw	r3, #51048	; 0xc768
   18ff4:	e3403001 	movt	r3, #1
   18ff8:	e3a02000 	mov	r2, #0
   18ffc:	e5832000 	str	r2, [r3]
   19000:	e51b3010 	ldr	r3, [fp, #-16]
   19004:	e5933000 	ldr	r3, [r3]
   19008:	e2833044 	add	r3, r3, #68	; 0x44
   1900c:	e1a00003 	mov	r0, r3
   19010:	ebffdb42 	bl	fd20 <Xil_In32>
   19014:	e50b0008 	str	r0, [fp, #-8]
   19018:	e51b3008 	ldr	r3, [fp, #-8]
   1901c:	ea000008 	b	19044 <XHls_macc_GetFrame_len+0xc4>
   19020:	e30b0f08 	movw	r0, #48904	; 0xbf08
   19024:	e3400001 	movt	r0, #1
   19028:	e3a010b7 	mov	r1, #183	; 0xb7
   1902c:	ebffdb02 	bl	fc3c <Xil_Assert>
   19030:	e30c3768 	movw	r3, #51048	; 0xc768
   19034:	e3403001 	movt	r3, #1
   19038:	e3a02001 	mov	r2, #1
   1903c:	e5832000 	str	r2, [r3]
   19040:	e3a03000 	mov	r3, #0
   19044:	e1a00003 	mov	r0, r3
   19048:	e24bd004 	sub	sp, fp, #4
   1904c:	e8bd8800 	pop	{fp, pc}

00019050 <XHls_macc_InterruptGlobalEnable>:
   19050:	e92d4800 	push	{fp, lr}
   19054:	e28db004 	add	fp, sp, #4
   19058:	e24dd008 	sub	sp, sp, #8
   1905c:	e50b0008 	str	r0, [fp, #-8]
   19060:	e51b3008 	ldr	r3, [fp, #-8]
   19064:	e3530000 	cmp	r3, #0
   19068:	0a00000a 	beq	19098 <XHls_macc_InterruptGlobalEnable+0x48>
   1906c:	e30c3768 	movw	r3, #51048	; 0xc768
   19070:	e3403001 	movt	r3, #1
   19074:	e3a02000 	mov	r2, #0
   19078:	e5832000 	str	r2, [r3]
   1907c:	e51b3008 	ldr	r3, [fp, #-8]
   19080:	e5932004 	ldr	r2, [r3, #4]
   19084:	e3013111 	movw	r3, #4369	; 0x1111
   19088:	e3413111 	movt	r3, #4369	; 0x1111
   1908c:	e1520003 	cmp	r2, r3
   19090:	1a000014 	bne	190e8 <XHls_macc_InterruptGlobalEnable+0x98>
   19094:	ea000008 	b	190bc <XHls_macc_InterruptGlobalEnable+0x6c>
   19098:	e30b0f08 	movw	r0, #48904	; 0xbf08
   1909c:	e3400001 	movt	r0, #1
   190a0:	e3a010be 	mov	r1, #190	; 0xbe
   190a4:	ebffdae4 	bl	fc3c <Xil_Assert>
   190a8:	e30c3768 	movw	r3, #51048	; 0xc768
   190ac:	e3403001 	movt	r3, #1
   190b0:	e3a02001 	mov	r2, #1
   190b4:	e5832000 	str	r2, [r3]
   190b8:	ea000013 	b	1910c <XHls_macc_InterruptGlobalEnable+0xbc>
   190bc:	e30c3768 	movw	r3, #51048	; 0xc768
   190c0:	e3403001 	movt	r3, #1
   190c4:	e3a02000 	mov	r2, #0
   190c8:	e5832000 	str	r2, [r3]
   190cc:	e51b3008 	ldr	r3, [fp, #-8]
   190d0:	e5933000 	ldr	r3, [r3]
   190d4:	e2833004 	add	r3, r3, #4
   190d8:	e1a00003 	mov	r0, r3
   190dc:	e3a01001 	mov	r1, #1
   190e0:	ebffdb30 	bl	fda8 <Xil_Out32>
   190e4:	ea000008 	b	1910c <XHls_macc_InterruptGlobalEnable+0xbc>
   190e8:	e30b0f08 	movw	r0, #48904	; 0xbf08
   190ec:	e3400001 	movt	r0, #1
   190f0:	e3a010bf 	mov	r1, #191	; 0xbf
   190f4:	ebffdad0 	bl	fc3c <Xil_Assert>
   190f8:	e30c3768 	movw	r3, #51048	; 0xc768
   190fc:	e3403001 	movt	r3, #1
   19100:	e3a02001 	mov	r2, #1
   19104:	e5832000 	str	r2, [r3]
   19108:	e1a00000 	nop			; (mov r0, r0)
   1910c:	e24bd004 	sub	sp, fp, #4
   19110:	e8bd8800 	pop	{fp, pc}

00019114 <XHls_macc_InterruptGlobalDisable>:
   19114:	e92d4800 	push	{fp, lr}
   19118:	e28db004 	add	fp, sp, #4
   1911c:	e24dd008 	sub	sp, sp, #8
   19120:	e50b0008 	str	r0, [fp, #-8]
   19124:	e51b3008 	ldr	r3, [fp, #-8]
   19128:	e3530000 	cmp	r3, #0
   1912c:	0a00000a 	beq	1915c <XHls_macc_InterruptGlobalDisable+0x48>
   19130:	e30c3768 	movw	r3, #51048	; 0xc768
   19134:	e3403001 	movt	r3, #1
   19138:	e3a02000 	mov	r2, #0
   1913c:	e5832000 	str	r2, [r3]
   19140:	e51b3008 	ldr	r3, [fp, #-8]
   19144:	e5932004 	ldr	r2, [r3, #4]
   19148:	e3013111 	movw	r3, #4369	; 0x1111
   1914c:	e3413111 	movt	r3, #4369	; 0x1111
   19150:	e1520003 	cmp	r2, r3
   19154:	1a000014 	bne	191ac <XHls_macc_InterruptGlobalDisable+0x98>
   19158:	ea000008 	b	19180 <XHls_macc_InterruptGlobalDisable+0x6c>
   1915c:	e30b0f08 	movw	r0, #48904	; 0xbf08
   19160:	e3400001 	movt	r0, #1
   19164:	e3a010c5 	mov	r1, #197	; 0xc5
   19168:	ebffdab3 	bl	fc3c <Xil_Assert>
   1916c:	e30c3768 	movw	r3, #51048	; 0xc768
   19170:	e3403001 	movt	r3, #1
   19174:	e3a02001 	mov	r2, #1
   19178:	e5832000 	str	r2, [r3]
   1917c:	ea000013 	b	191d0 <XHls_macc_InterruptGlobalDisable+0xbc>
   19180:	e30c3768 	movw	r3, #51048	; 0xc768
   19184:	e3403001 	movt	r3, #1
   19188:	e3a02000 	mov	r2, #0
   1918c:	e5832000 	str	r2, [r3]
   19190:	e51b3008 	ldr	r3, [fp, #-8]
   19194:	e5933000 	ldr	r3, [r3]
   19198:	e2833004 	add	r3, r3, #4
   1919c:	e1a00003 	mov	r0, r3
   191a0:	e3a01000 	mov	r1, #0
   191a4:	ebffdaff 	bl	fda8 <Xil_Out32>
   191a8:	ea000008 	b	191d0 <XHls_macc_InterruptGlobalDisable+0xbc>
   191ac:	e30b0f08 	movw	r0, #48904	; 0xbf08
   191b0:	e3400001 	movt	r0, #1
   191b4:	e3a010c6 	mov	r1, #198	; 0xc6
   191b8:	ebffda9f 	bl	fc3c <Xil_Assert>
   191bc:	e30c3768 	movw	r3, #51048	; 0xc768
   191c0:	e3403001 	movt	r3, #1
   191c4:	e3a02001 	mov	r2, #1
   191c8:	e5832000 	str	r2, [r3]
   191cc:	e1a00000 	nop			; (mov r0, r0)
   191d0:	e24bd004 	sub	sp, fp, #4
   191d4:	e8bd8800 	pop	{fp, pc}

000191d8 <XHls_macc_InterruptEnable>:
   191d8:	e92d4800 	push	{fp, lr}
   191dc:	e28db004 	add	fp, sp, #4
   191e0:	e24dd010 	sub	sp, sp, #16
   191e4:	e50b0010 	str	r0, [fp, #-16]
   191e8:	e50b1014 	str	r1, [fp, #-20]	; 0xffffffec
   191ec:	e51b3010 	ldr	r3, [fp, #-16]
   191f0:	e3530000 	cmp	r3, #0
   191f4:	0a00000a 	beq	19224 <XHls_macc_InterruptEnable+0x4c>
   191f8:	e30c3768 	movw	r3, #51048	; 0xc768
   191fc:	e3403001 	movt	r3, #1
   19200:	e3a02000 	mov	r2, #0
   19204:	e5832000 	str	r2, [r3]
   19208:	e51b3010 	ldr	r3, [fp, #-16]
   1920c:	e5932004 	ldr	r2, [r3, #4]
   19210:	e3013111 	movw	r3, #4369	; 0x1111
   19214:	e3413111 	movt	r3, #4369	; 0x1111
   19218:	e1520003 	cmp	r2, r3
   1921c:	1a00001d 	bne	19298 <XHls_macc_InterruptEnable+0xc0>
   19220:	ea000008 	b	19248 <XHls_macc_InterruptEnable+0x70>
   19224:	e30b0f08 	movw	r0, #48904	; 0xbf08
   19228:	e3400001 	movt	r0, #1
   1922c:	e3a010ce 	mov	r1, #206	; 0xce
   19230:	ebffda81 	bl	fc3c <Xil_Assert>
   19234:	e30c3768 	movw	r3, #51048	; 0xc768
   19238:	e3403001 	movt	r3, #1
   1923c:	e3a02001 	mov	r2, #1
   19240:	e5832000 	str	r2, [r3]
   19244:	ea00001c 	b	192bc <XHls_macc_InterruptEnable+0xe4>
   19248:	e30c3768 	movw	r3, #51048	; 0xc768
   1924c:	e3403001 	movt	r3, #1
   19250:	e3a02000 	mov	r2, #0
   19254:	e5832000 	str	r2, [r3]
   19258:	e51b3010 	ldr	r3, [fp, #-16]
   1925c:	e5933000 	ldr	r3, [r3]
   19260:	e2833008 	add	r3, r3, #8
   19264:	e1a00003 	mov	r0, r3
   19268:	ebffdaac 	bl	fd20 <Xil_In32>
   1926c:	e50b0008 	str	r0, [fp, #-8]
   19270:	e51b3010 	ldr	r3, [fp, #-16]
   19274:	e5933000 	ldr	r3, [r3]
   19278:	e2831008 	add	r1, r3, #8
   1927c:	e51b2008 	ldr	r2, [fp, #-8]
   19280:	e51b3014 	ldr	r3, [fp, #-20]	; 0xffffffec
   19284:	e1823003 	orr	r3, r2, r3
   19288:	e1a00001 	mov	r0, r1
   1928c:	e1a01003 	mov	r1, r3
   19290:	ebffdac4 	bl	fda8 <Xil_Out32>
   19294:	ea000008 	b	192bc <XHls_macc_InterruptEnable+0xe4>
   19298:	e30b0f08 	movw	r0, #48904	; 0xbf08
   1929c:	e3400001 	movt	r0, #1
   192a0:	e3a010cf 	mov	r1, #207	; 0xcf
   192a4:	ebffda64 	bl	fc3c <Xil_Assert>
   192a8:	e30c3768 	movw	r3, #51048	; 0xc768
   192ac:	e3403001 	movt	r3, #1
   192b0:	e3a02001 	mov	r2, #1
   192b4:	e5832000 	str	r2, [r3]
   192b8:	e1a00000 	nop			; (mov r0, r0)
   192bc:	e24bd004 	sub	sp, fp, #4
   192c0:	e8bd8800 	pop	{fp, pc}

000192c4 <XHls_macc_InterruptDisable>:
   192c4:	e92d4800 	push	{fp, lr}
   192c8:	e28db004 	add	fp, sp, #4
   192cc:	e24dd010 	sub	sp, sp, #16
   192d0:	e50b0010 	str	r0, [fp, #-16]
   192d4:	e50b1014 	str	r1, [fp, #-20]	; 0xffffffec
   192d8:	e51b3010 	ldr	r3, [fp, #-16]
   192dc:	e3530000 	cmp	r3, #0
   192e0:	0a00000a 	beq	19310 <XHls_macc_InterruptDisable+0x4c>
   192e4:	e30c3768 	movw	r3, #51048	; 0xc768
   192e8:	e3403001 	movt	r3, #1
   192ec:	e3a02000 	mov	r2, #0
   192f0:	e5832000 	str	r2, [r3]
   192f4:	e51b3010 	ldr	r3, [fp, #-16]
   192f8:	e5932004 	ldr	r2, [r3, #4]
   192fc:	e3013111 	movw	r3, #4369	; 0x1111
   19300:	e3413111 	movt	r3, #4369	; 0x1111
   19304:	e1520003 	cmp	r2, r3
   19308:	1a00001e 	bne	19388 <XHls_macc_InterruptDisable+0xc4>
   1930c:	ea000008 	b	19334 <XHls_macc_InterruptDisable+0x70>
   19310:	e30b0f08 	movw	r0, #48904	; 0xbf08
   19314:	e3400001 	movt	r0, #1
   19318:	e3a010d8 	mov	r1, #216	; 0xd8
   1931c:	ebffda46 	bl	fc3c <Xil_Assert>
   19320:	e30c3768 	movw	r3, #51048	; 0xc768
   19324:	e3403001 	movt	r3, #1
   19328:	e3a02001 	mov	r2, #1
   1932c:	e5832000 	str	r2, [r3]
   19330:	ea00001d 	b	193ac <XHls_macc_InterruptDisable+0xe8>
   19334:	e30c3768 	movw	r3, #51048	; 0xc768
   19338:	e3403001 	movt	r3, #1
   1933c:	e3a02000 	mov	r2, #0
   19340:	e5832000 	str	r2, [r3]
   19344:	e51b3010 	ldr	r3, [fp, #-16]
   19348:	e5933000 	ldr	r3, [r3]
   1934c:	e2833008 	add	r3, r3, #8
   19350:	e1a00003 	mov	r0, r3
   19354:	ebffda71 	bl	fd20 <Xil_In32>
   19358:	e50b0008 	str	r0, [fp, #-8]
   1935c:	e51b3010 	ldr	r3, [fp, #-16]
   19360:	e5933000 	ldr	r3, [r3]
   19364:	e2831008 	add	r1, r3, #8
   19368:	e51b3014 	ldr	r3, [fp, #-20]	; 0xffffffec
   1936c:	e1e02003 	mvn	r2, r3
   19370:	e51b3008 	ldr	r3, [fp, #-8]
   19374:	e0033002 	and	r3, r3, r2
   19378:	e1a00001 	mov	r0, r1
   1937c:	e1a01003 	mov	r1, r3
   19380:	ebffda88 	bl	fda8 <Xil_Out32>
   19384:	ea000008 	b	193ac <XHls_macc_InterruptDisable+0xe8>
   19388:	e30b0f08 	movw	r0, #48904	; 0xbf08
   1938c:	e3400001 	movt	r0, #1
   19390:	e3a010d9 	mov	r1, #217	; 0xd9
   19394:	ebffda28 	bl	fc3c <Xil_Assert>
   19398:	e30c3768 	movw	r3, #51048	; 0xc768
   1939c:	e3403001 	movt	r3, #1
   193a0:	e3a02001 	mov	r2, #1
   193a4:	e5832000 	str	r2, [r3]
   193a8:	e1a00000 	nop			; (mov r0, r0)
   193ac:	e24bd004 	sub	sp, fp, #4
   193b0:	e8bd8800 	pop	{fp, pc}

000193b4 <XHls_macc_InterruptClear>:
   193b4:	e92d4800 	push	{fp, lr}
   193b8:	e28db004 	add	fp, sp, #4
   193bc:	e24dd008 	sub	sp, sp, #8
   193c0:	e50b0008 	str	r0, [fp, #-8]
   193c4:	e50b100c 	str	r1, [fp, #-12]
   193c8:	e51b3008 	ldr	r3, [fp, #-8]
   193cc:	e3530000 	cmp	r3, #0
   193d0:	0a00000a 	beq	19400 <XHls_macc_InterruptClear+0x4c>
   193d4:	e30c3768 	movw	r3, #51048	; 0xc768
   193d8:	e3403001 	movt	r3, #1
   193dc:	e3a02000 	mov	r2, #0
   193e0:	e5832000 	str	r2, [r3]
   193e4:	e51b3008 	ldr	r3, [fp, #-8]
   193e8:	e5932004 	ldr	r2, [r3, #4]
   193ec:	e3013111 	movw	r3, #4369	; 0x1111
   193f0:	e3413111 	movt	r3, #4369	; 0x1111
   193f4:	e1520003 	cmp	r2, r3
   193f8:	1a000014 	bne	19450 <XHls_macc_InterruptClear+0x9c>
   193fc:	ea000008 	b	19424 <XHls_macc_InterruptClear+0x70>
   19400:	e30b0f08 	movw	r0, #48904	; 0xbf08
   19404:	e3400001 	movt	r0, #1
   19408:	e3a010e0 	mov	r1, #224	; 0xe0
   1940c:	ebffda0a 	bl	fc3c <Xil_Assert>
   19410:	e30c3768 	movw	r3, #51048	; 0xc768
   19414:	e3403001 	movt	r3, #1
   19418:	e3a02001 	mov	r2, #1
   1941c:	e5832000 	str	r2, [r3]
   19420:	ea000013 	b	19474 <XHls_macc_InterruptClear+0xc0>
   19424:	e30c3768 	movw	r3, #51048	; 0xc768
   19428:	e3403001 	movt	r3, #1
   1942c:	e3a02000 	mov	r2, #0
   19430:	e5832000 	str	r2, [r3]
   19434:	e51b3008 	ldr	r3, [fp, #-8]
   19438:	e5933000 	ldr	r3, [r3]
   1943c:	e283300c 	add	r3, r3, #12
   19440:	e1a00003 	mov	r0, r3
   19444:	e51b100c 	ldr	r1, [fp, #-12]
   19448:	ebffda56 	bl	fda8 <Xil_Out32>
   1944c:	ea000008 	b	19474 <XHls_macc_InterruptClear+0xc0>
   19450:	e30b0f08 	movw	r0, #48904	; 0xbf08
   19454:	e3400001 	movt	r0, #1
   19458:	e3a010e1 	mov	r1, #225	; 0xe1
   1945c:	ebffd9f6 	bl	fc3c <Xil_Assert>
   19460:	e30c3768 	movw	r3, #51048	; 0xc768
   19464:	e3403001 	movt	r3, #1
   19468:	e3a02001 	mov	r2, #1
   1946c:	e5832000 	str	r2, [r3]
   19470:	e1a00000 	nop			; (mov r0, r0)
   19474:	e24bd004 	sub	sp, fp, #4
   19478:	e8bd8800 	pop	{fp, pc}

0001947c <XHls_macc_InterruptGetEnabled>:
   1947c:	e92d4800 	push	{fp, lr}
   19480:	e28db004 	add	fp, sp, #4
   19484:	e24dd008 	sub	sp, sp, #8
   19488:	e50b0008 	str	r0, [fp, #-8]
   1948c:	e51b3008 	ldr	r3, [fp, #-8]
   19490:	e3530000 	cmp	r3, #0
   19494:	0a00000a 	beq	194c4 <XHls_macc_InterruptGetEnabled+0x48>
   19498:	e30c3768 	movw	r3, #51048	; 0xc768
   1949c:	e3403001 	movt	r3, #1
   194a0:	e3a02000 	mov	r2, #0
   194a4:	e5832000 	str	r2, [r3]
   194a8:	e51b3008 	ldr	r3, [fp, #-8]
   194ac:	e5932004 	ldr	r2, [r3, #4]
   194b0:	e3013111 	movw	r3, #4369	; 0x1111
   194b4:	e3413111 	movt	r3, #4369	; 0x1111
   194b8:	e1520003 	cmp	r2, r3
   194bc:	1a000015 	bne	19518 <XHls_macc_InterruptGetEnabled+0x9c>
   194c0:	ea000009 	b	194ec <XHls_macc_InterruptGetEnabled+0x70>
   194c4:	e30b0f08 	movw	r0, #48904	; 0xbf08
   194c8:	e3400001 	movt	r0, #1
   194cc:	e3a010e7 	mov	r1, #231	; 0xe7
   194d0:	ebffd9d9 	bl	fc3c <Xil_Assert>
   194d4:	e30c3768 	movw	r3, #51048	; 0xc768
   194d8:	e3403001 	movt	r3, #1
   194dc:	e3a02001 	mov	r2, #1
   194e0:	e5832000 	str	r2, [r3]
   194e4:	e3a03000 	mov	r3, #0
   194e8:	ea000013 	b	1953c <XHls_macc_InterruptGetEnabled+0xc0>
   194ec:	e30c3768 	movw	r3, #51048	; 0xc768
   194f0:	e3403001 	movt	r3, #1
   194f4:	e3a02000 	mov	r2, #0
   194f8:	e5832000 	str	r2, [r3]
   194fc:	e51b3008 	ldr	r3, [fp, #-8]
   19500:	e5933000 	ldr	r3, [r3]
   19504:	e2833008 	add	r3, r3, #8
   19508:	e1a00003 	mov	r0, r3
   1950c:	ebffda03 	bl	fd20 <Xil_In32>
   19510:	e1a03000 	mov	r3, r0
   19514:	ea000008 	b	1953c <XHls_macc_InterruptGetEnabled+0xc0>
   19518:	e30b0f08 	movw	r0, #48904	; 0xbf08
   1951c:	e3400001 	movt	r0, #1
   19520:	e3a010e8 	mov	r1, #232	; 0xe8
   19524:	ebffd9c4 	bl	fc3c <Xil_Assert>
   19528:	e30c3768 	movw	r3, #51048	; 0xc768
   1952c:	e3403001 	movt	r3, #1
   19530:	e3a02001 	mov	r2, #1
   19534:	e5832000 	str	r2, [r3]
   19538:	e3a03000 	mov	r3, #0
   1953c:	e1a00003 	mov	r0, r3
   19540:	e24bd004 	sub	sp, fp, #4
   19544:	e8bd8800 	pop	{fp, pc}

00019548 <XHls_macc_InterruptGetStatus>:
   19548:	e92d4800 	push	{fp, lr}
   1954c:	e28db004 	add	fp, sp, #4
   19550:	e24dd008 	sub	sp, sp, #8
   19554:	e50b0008 	str	r0, [fp, #-8]
   19558:	e51b3008 	ldr	r3, [fp, #-8]
   1955c:	e3530000 	cmp	r3, #0
   19560:	0a00000a 	beq	19590 <XHls_macc_InterruptGetStatus+0x48>
   19564:	e30c3768 	movw	r3, #51048	; 0xc768
   19568:	e3403001 	movt	r3, #1
   1956c:	e3a02000 	mov	r2, #0
   19570:	e5832000 	str	r2, [r3]
   19574:	e51b3008 	ldr	r3, [fp, #-8]
   19578:	e5932004 	ldr	r2, [r3, #4]
   1957c:	e3013111 	movw	r3, #4369	; 0x1111
   19580:	e3413111 	movt	r3, #4369	; 0x1111
   19584:	e1520003 	cmp	r2, r3
   19588:	1a000015 	bne	195e4 <XHls_macc_InterruptGetStatus+0x9c>
   1958c:	ea000009 	b	195b8 <XHls_macc_InterruptGetStatus+0x70>
   19590:	e30b0f08 	movw	r0, #48904	; 0xbf08
   19594:	e3400001 	movt	r0, #1
   19598:	e3a010ee 	mov	r1, #238	; 0xee
   1959c:	ebffd9a6 	bl	fc3c <Xil_Assert>
   195a0:	e30c3768 	movw	r3, #51048	; 0xc768
   195a4:	e3403001 	movt	r3, #1
   195a8:	e3a02001 	mov	r2, #1
   195ac:	e5832000 	str	r2, [r3]
   195b0:	e3a03000 	mov	r3, #0
   195b4:	ea000013 	b	19608 <XHls_macc_InterruptGetStatus+0xc0>
   195b8:	e30c3768 	movw	r3, #51048	; 0xc768
   195bc:	e3403001 	movt	r3, #1
   195c0:	e3a02000 	mov	r2, #0
   195c4:	e5832000 	str	r2, [r3]
   195c8:	e51b3008 	ldr	r3, [fp, #-8]
   195cc:	e5933000 	ldr	r3, [r3]
   195d0:	e283300c 	add	r3, r3, #12
   195d4:	e1a00003 	mov	r0, r3
   195d8:	ebffd9d0 	bl	fd20 <Xil_In32>
   195dc:	e1a03000 	mov	r3, r0
   195e0:	ea000008 	b	19608 <XHls_macc_InterruptGetStatus+0xc0>
   195e4:	e30b0f08 	movw	r0, #48904	; 0xbf08
   195e8:	e3400001 	movt	r0, #1
   195ec:	e3a010ef 	mov	r1, #239	; 0xef
   195f0:	ebffd991 	bl	fc3c <Xil_Assert>
   195f4:	e30c3768 	movw	r3, #51048	; 0xc768
   195f8:	e3403001 	movt	r3, #1
   195fc:	e3a02001 	mov	r2, #1
   19600:	e5832000 	str	r2, [r3]
   19604:	e3a03000 	mov	r3, #0
   19608:	e1a00003 	mov	r0, r3
   1960c:	e24bd004 	sub	sp, fp, #4
   19610:	e8bd8800 	pop	{fp, pc}

00019614 <DistInit>:
   19614:	e92d4800 	push	{fp, lr}
   19618:	e28db004 	add	fp, sp, #4
   1961c:	e24dd010 	sub	sp, sp, #16
   19620:	e50b0010 	str	r0, [fp, #-16]
   19624:	e50b1014 	str	r1, [fp, #-20]	; 0xffffffec
   19628:	e51b3010 	ldr	r3, [fp, #-16]
   1962c:	e5933008 	ldr	r3, [r3, #8]
   19630:	e1a00003 	mov	r0, r3
   19634:	e3a01000 	mov	r1, #0
   19638:	ebffd9da 	bl	fda8 <Xil_Out32>
   1963c:	e3a03020 	mov	r3, #32
   19640:	e50b3008 	str	r3, [fp, #-8]
   19644:	ea00000c 	b	1967c <DistInit+0x68>
   19648:	e51b3010 	ldr	r3, [fp, #-16]
   1964c:	e5932008 	ldr	r2, [r3, #8]
   19650:	e51b3008 	ldr	r3, [fp, #-8]
   19654:	e1a03223 	lsr	r3, r3, #4
   19658:	e2833c03 	add	r3, r3, #768	; 0x300
   1965c:	e1a03103 	lsl	r3, r3, #2
   19660:	e0823003 	add	r3, r2, r3
   19664:	e1a00003 	mov	r0, r3
   19668:	e3a01000 	mov	r1, #0
   1966c:	ebffd9cd 	bl	fda8 <Xil_Out32>
   19670:	e51b3008 	ldr	r3, [fp, #-8]
   19674:	e2833010 	add	r3, r3, #16
   19678:	e50b3008 	str	r3, [fp, #-8]
   1967c:	e51b3008 	ldr	r3, [fp, #-8]
   19680:	e353005e 	cmp	r3, #94	; 0x5e
   19684:	9affffef 	bls	19648 <DistInit+0x34>
   19688:	e3a03000 	mov	r3, #0
   1968c:	e50b3008 	str	r3, [fp, #-8]
   19690:	ea00000d 	b	196cc <DistInit+0xb8>
   19694:	e51b3010 	ldr	r3, [fp, #-16]
   19698:	e5932008 	ldr	r2, [r3, #8]
   1969c:	e51b3008 	ldr	r3, [fp, #-8]
   196a0:	e1a03123 	lsr	r3, r3, #2
   196a4:	e2833c01 	add	r3, r3, #256	; 0x100
   196a8:	e1a03103 	lsl	r3, r3, #2
   196ac:	e0823003 	add	r3, r2, r3
   196b0:	e1a00003 	mov	r0, r3
   196b4:	e30a10a0 	movw	r1, #41120	; 0xa0a0
   196b8:	e34a10a0 	movt	r1, #41120	; 0xa0a0
   196bc:	ebffd9b9 	bl	fda8 <Xil_Out32>
   196c0:	e51b3008 	ldr	r3, [fp, #-8]
   196c4:	e2833004 	add	r3, r3, #4
   196c8:	e50b3008 	str	r3, [fp, #-8]
   196cc:	e51b3008 	ldr	r3, [fp, #-8]
   196d0:	e353005e 	cmp	r3, #94	; 0x5e
   196d4:	9affffee 	bls	19694 <DistInit+0x80>
   196d8:	e3a03020 	mov	r3, #32
   196dc:	e50b3008 	str	r3, [fp, #-8]
   196e0:	ea000016 	b	19740 <DistInit+0x12c>
   196e4:	e51b3014 	ldr	r3, [fp, #-20]	; 0xffffffec
   196e8:	e1a03403 	lsl	r3, r3, #8
   196ec:	e51b2014 	ldr	r2, [fp, #-20]	; 0xffffffec
   196f0:	e1823003 	orr	r3, r2, r3
   196f4:	e50b3014 	str	r3, [fp, #-20]	; 0xffffffec
   196f8:	e51b3014 	ldr	r3, [fp, #-20]	; 0xffffffec
   196fc:	e1a03803 	lsl	r3, r3, #16
   19700:	e51b2014 	ldr	r2, [fp, #-20]	; 0xffffffec
   19704:	e1823003 	orr	r3, r2, r3
   19708:	e50b3014 	str	r3, [fp, #-20]	; 0xffffffec
   1970c:	e51b3010 	ldr	r3, [fp, #-16]
   19710:	e5932008 	ldr	r2, [r3, #8]
   19714:	e51b3008 	ldr	r3, [fp, #-8]
   19718:	e1a03123 	lsr	r3, r3, #2
   1971c:	e2833c02 	add	r3, r3, #512	; 0x200
   19720:	e1a03103 	lsl	r3, r3, #2
   19724:	e0823003 	add	r3, r2, r3
   19728:	e1a00003 	mov	r0, r3
   1972c:	e51b1014 	ldr	r1, [fp, #-20]	; 0xffffffec
   19730:	ebffd99c 	bl	fda8 <Xil_Out32>
   19734:	e51b3008 	ldr	r3, [fp, #-8]
   19738:	e2833004 	add	r3, r3, #4
   1973c:	e50b3008 	str	r3, [fp, #-8]
   19740:	e51b3008 	ldr	r3, [fp, #-8]
   19744:	e353005e 	cmp	r3, #94	; 0x5e
   19748:	9affffe5 	bls	196e4 <DistInit+0xd0>
   1974c:	e3a03000 	mov	r3, #0
   19750:	e50b3008 	str	r3, [fp, #-8]
   19754:	ea00000c 	b	1978c <DistInit+0x178>
   19758:	e51b3010 	ldr	r3, [fp, #-16]
   1975c:	e5932008 	ldr	r2, [r3, #8]
   19760:	e51b3008 	ldr	r3, [fp, #-8]
   19764:	e1a032a3 	lsr	r3, r3, #5
   19768:	e2833060 	add	r3, r3, #96	; 0x60
   1976c:	e1a03103 	lsl	r3, r3, #2
   19770:	e0823003 	add	r3, r2, r3
   19774:	e1a00003 	mov	r0, r3
   19778:	e3e01000 	mvn	r1, #0
   1977c:	ebffd989 	bl	fda8 <Xil_Out32>
   19780:	e51b3008 	ldr	r3, [fp, #-8]
   19784:	e2833020 	add	r3, r3, #32
   19788:	e50b3008 	str	r3, [fp, #-8]
   1978c:	e51b3008 	ldr	r3, [fp, #-8]
   19790:	e353005e 	cmp	r3, #94	; 0x5e
   19794:	9affffef 	bls	19758 <DistInit+0x144>
   19798:	e51b3010 	ldr	r3, [fp, #-16]
   1979c:	e5933008 	ldr	r3, [r3, #8]
   197a0:	e1a00003 	mov	r0, r3
   197a4:	e3a01001 	mov	r1, #1
   197a8:	ebffd97e 	bl	fda8 <Xil_Out32>
   197ac:	e24bd004 	sub	sp, fp, #4
   197b0:	e8bd8800 	pop	{fp, pc}

000197b4 <CPUInit>:
   197b4:	e92d4800 	push	{fp, lr}
   197b8:	e28db004 	add	fp, sp, #4
   197bc:	e24dd008 	sub	sp, sp, #8
   197c0:	e50b0008 	str	r0, [fp, #-8]
   197c4:	e51b3008 	ldr	r3, [fp, #-8]
   197c8:	e5933004 	ldr	r3, [r3, #4]
   197cc:	e2833004 	add	r3, r3, #4
   197d0:	e1a00003 	mov	r0, r3
   197d4:	e3a010f0 	mov	r1, #240	; 0xf0
   197d8:	ebffd972 	bl	fda8 <Xil_Out32>
   197dc:	e51b3008 	ldr	r3, [fp, #-8]
   197e0:	e5933004 	ldr	r3, [r3, #4]
   197e4:	e1a00003 	mov	r0, r3
   197e8:	e3a01007 	mov	r1, #7
   197ec:	ebffd96d 	bl	fda8 <Xil_Out32>
   197f0:	e24bd004 	sub	sp, fp, #4
   197f4:	e8bd8800 	pop	{fp, pc}

000197f8 <XScuGic_DeviceInitialize>:
   197f8:	e92d4800 	push	{fp, lr}
   197fc:	e28db004 	add	fp, sp, #4
   19800:	e24dd010 	sub	sp, sp, #16
   19804:	e50b0010 	str	r0, [fp, #-16]
   19808:	e3a03001 	mov	r3, #1
   1980c:	e54b3005 	strb	r3, [fp, #-5]
   19810:	e51b1010 	ldr	r1, [fp, #-16]
   19814:	e1a02001 	mov	r2, r1
   19818:	e1a03302 	lsl	r3, r2, #6
   1981c:	e1a02003 	mov	r2, r3
   19820:	e1a03102 	lsl	r3, r2, #2
   19824:	e0623003 	rsb	r3, r2, r3
   19828:	e0833001 	add	r3, r3, r1
   1982c:	e1a03103 	lsl	r3, r3, #2
   19830:	e30c2444 	movw	r2, #50244	; 0xc444
   19834:	e3402001 	movt	r2, #1
   19838:	e0833002 	add	r3, r3, r2
   1983c:	e50b300c 	str	r3, [fp, #-12]
   19840:	e55b3005 	ldrb	r3, [fp, #-5]
   19844:	e51b000c 	ldr	r0, [fp, #-12]
   19848:	e1a01003 	mov	r1, r3
   1984c:	ebffff70 	bl	19614 <DistInit>
   19850:	e51b000c 	ldr	r0, [fp, #-12]
   19854:	ebffffd6 	bl	197b4 <CPUInit>
   19858:	e3a03000 	mov	r3, #0
   1985c:	e1a00003 	mov	r0, r3
   19860:	e24bd004 	sub	sp, fp, #4
   19864:	e8bd8800 	pop	{fp, pc}

00019868 <XScuGic_DeviceInterruptHandler>:
   19868:	e92d4800 	push	{fp, lr}
   1986c:	e28db004 	add	fp, sp, #4
   19870:	e24dd018 	sub	sp, sp, #24
   19874:	e50b0018 	str	r0, [fp, #-24]	; 0xffffffe8
   19878:	e51b1018 	ldr	r1, [fp, #-24]	; 0xffffffe8
   1987c:	e1a02001 	mov	r2, r1
   19880:	e1a03302 	lsl	r3, r2, #6
   19884:	e1a02003 	mov	r2, r3
   19888:	e1a03102 	lsl	r3, r2, #2
   1988c:	e0623003 	rsb	r3, r2, r3
   19890:	e0833001 	add	r3, r3, r1
   19894:	e1a03103 	lsl	r3, r3, #2
   19898:	e30c2444 	movw	r2, #50244	; 0xc444
   1989c:	e3402001 	movt	r2, #1
   198a0:	e0833002 	add	r3, r3, r2
   198a4:	e50b3008 	str	r3, [fp, #-8]
   198a8:	e51b3008 	ldr	r3, [fp, #-8]
   198ac:	e5933004 	ldr	r3, [r3, #4]
   198b0:	e283300c 	add	r3, r3, #12
   198b4:	e1a00003 	mov	r0, r3
   198b8:	ebffd918 	bl	fd20 <Xil_In32>
   198bc:	e1a03000 	mov	r3, r0
   198c0:	e7e93053 	ubfx	r3, r3, #0, #10
   198c4:	e50b300c 	str	r3, [fp, #-12]
   198c8:	e51b300c 	ldr	r3, [fp, #-12]
   198cc:	e353005f 	cmp	r3, #95	; 0x5f
   198d0:	9a000000 	bls	198d8 <XScuGic_DeviceInterruptHandler+0x70>
   198d4:	ea00000c 	b	1990c <XScuGic_DeviceInterruptHandler+0xa4>
   198d8:	e51b300c 	ldr	r3, [fp, #-12]
   198dc:	e2833001 	add	r3, r3, #1
   198e0:	e1a03183 	lsl	r3, r3, #3
   198e4:	e51b2008 	ldr	r2, [fp, #-8]
   198e8:	e0823003 	add	r3, r2, r3
   198ec:	e2833004 	add	r3, r3, #4
   198f0:	e50b3010 	str	r3, [fp, #-16]
   198f4:	e51b3010 	ldr	r3, [fp, #-16]
   198f8:	e5933000 	ldr	r3, [r3]
   198fc:	e51b2010 	ldr	r2, [fp, #-16]
   19900:	e5922004 	ldr	r2, [r2, #4]
   19904:	e1a00002 	mov	r0, r2
   19908:	e12fff33 	blx	r3
   1990c:	e51b3008 	ldr	r3, [fp, #-8]
   19910:	e5933004 	ldr	r3, [r3, #4]
   19914:	e2833010 	add	r3, r3, #16
   19918:	e1a00003 	mov	r0, r3
   1991c:	e51b100c 	ldr	r1, [fp, #-12]
   19920:	ebffd920 	bl	fda8 <Xil_Out32>
   19924:	e24bd004 	sub	sp, fp, #4
   19928:	e8bd8800 	pop	{fp, pc}

0001992c <XScuGic_RegisterHandler>:
   1992c:	e92d4800 	push	{fp, lr}
   19930:	e28db004 	add	fp, sp, #4
   19934:	e24dd018 	sub	sp, sp, #24
   19938:	e50b0010 	str	r0, [fp, #-16]
   1993c:	e50b1014 	str	r1, [fp, #-20]	; 0xffffffec
   19940:	e50b2018 	str	r2, [fp, #-24]	; 0xffffffe8
   19944:	e50b301c 	str	r3, [fp, #-28]	; 0xffffffe4
   19948:	e51b0010 	ldr	r0, [fp, #-16]
   1994c:	eb000013 	bl	199a0 <LookupConfigByBaseAddress>
   19950:	e50b0008 	str	r0, [fp, #-8]
   19954:	e51b3008 	ldr	r3, [fp, #-8]
   19958:	e3530000 	cmp	r3, #0
   1995c:	0a00000d 	beq	19998 <XScuGic_RegisterHandler+0x6c>
   19960:	e51b2008 	ldr	r2, [fp, #-8]
   19964:	e51b3014 	ldr	r3, [fp, #-20]	; 0xffffffec
   19968:	e2833001 	add	r3, r3, #1
   1996c:	e1a03183 	lsl	r3, r3, #3
   19970:	e0823003 	add	r3, r2, r3
   19974:	e51b2018 	ldr	r2, [fp, #-24]	; 0xffffffe8
   19978:	e5832004 	str	r2, [r3, #4]
   1997c:	e51b2008 	ldr	r2, [fp, #-8]
   19980:	e51b3014 	ldr	r3, [fp, #-20]	; 0xffffffec
   19984:	e2833001 	add	r3, r3, #1
   19988:	e1a03183 	lsl	r3, r3, #3
   1998c:	e0823003 	add	r3, r2, r3
   19990:	e51b201c 	ldr	r2, [fp, #-28]	; 0xffffffe4
   19994:	e5832008 	str	r2, [r3, #8]
   19998:	e24bd004 	sub	sp, fp, #4
   1999c:	e8bd8800 	pop	{fp, pc}

000199a0 <LookupConfigByBaseAddress>:
   199a0:	e52db004 	push	{fp}		; (str fp, [sp, #-4]!)
   199a4:	e28db000 	add	fp, sp, #0
   199a8:	e24dd014 	sub	sp, sp, #20
   199ac:	e50b0010 	str	r0, [fp, #-16]
   199b0:	e3a03000 	mov	r3, #0
   199b4:	e50b3008 	str	r3, [fp, #-8]
   199b8:	e3a03000 	mov	r3, #0
   199bc:	e50b300c 	str	r3, [fp, #-12]
   199c0:	ea00001e 	b	19a40 <LookupConfigByBaseAddress+0xa0>
   199c4:	e30c2444 	movw	r2, #50244	; 0xc444
   199c8:	e3402001 	movt	r2, #1
   199cc:	e51b000c 	ldr	r0, [fp, #-12]
   199d0:	e1a01000 	mov	r1, r0
   199d4:	e1a03301 	lsl	r3, r1, #6
   199d8:	e1a01003 	mov	r1, r3
   199dc:	e1a03101 	lsl	r3, r1, #2
   199e0:	e0613003 	rsb	r3, r1, r3
   199e4:	e0833000 	add	r3, r3, r0
   199e8:	e1a03103 	lsl	r3, r3, #2
   199ec:	e0823003 	add	r3, r2, r3
   199f0:	e5932004 	ldr	r2, [r3, #4]
   199f4:	e51b3010 	ldr	r3, [fp, #-16]
   199f8:	e1520003 	cmp	r2, r3
   199fc:	1a00000c 	bne	19a34 <LookupConfigByBaseAddress+0x94>
   19a00:	e51b100c 	ldr	r1, [fp, #-12]
   19a04:	e1a02001 	mov	r2, r1
   19a08:	e1a03302 	lsl	r3, r2, #6
   19a0c:	e1a02003 	mov	r2, r3
   19a10:	e1a03102 	lsl	r3, r2, #2
   19a14:	e0623003 	rsb	r3, r2, r3
   19a18:	e0833001 	add	r3, r3, r1
   19a1c:	e1a03103 	lsl	r3, r3, #2
   19a20:	e30c2444 	movw	r2, #50244	; 0xc444
   19a24:	e3402001 	movt	r2, #1
   19a28:	e0833002 	add	r3, r3, r2
   19a2c:	e50b3008 	str	r3, [fp, #-8]
   19a30:	ea000005 	b	19a4c <LookupConfigByBaseAddress+0xac>
   19a34:	e51b300c 	ldr	r3, [fp, #-12]
   19a38:	e2833001 	add	r3, r3, #1
   19a3c:	e50b300c 	str	r3, [fp, #-12]
   19a40:	e51b300c 	ldr	r3, [fp, #-12]
   19a44:	e3530000 	cmp	r3, #0
   19a48:	daffffdd 	ble	199c4 <LookupConfigByBaseAddress+0x24>
   19a4c:	e51b3008 	ldr	r3, [fp, #-8]
   19a50:	e1a00003 	mov	r0, r3
   19a54:	e24bd000 	sub	sp, fp, #0
   19a58:	e49db004 	pop	{fp}		; (ldr fp, [sp], #4)
   19a5c:	e12fff1e 	bx	lr

00019a60 <XScuGic_SetPriTrigTypeByDistAddr>:
   19a60:	e92d4800 	push	{fp, lr}
   19a64:	e28db004 	add	fp, sp, #4
   19a68:	e24dd018 	sub	sp, sp, #24
   19a6c:	e50b0010 	str	r0, [fp, #-16]
   19a70:	e50b1014 	str	r1, [fp, #-20]	; 0xffffffec
   19a74:	e1a01002 	mov	r1, r2
   19a78:	e1a02003 	mov	r2, r3
   19a7c:	e1a03001 	mov	r3, r1
   19a80:	e54b3015 	strb	r3, [fp, #-21]	; 0xffffffeb
   19a84:	e1a03002 	mov	r3, r2
   19a88:	e54b3016 	strb	r3, [fp, #-22]	; 0xffffffea
   19a8c:	e51b3014 	ldr	r3, [fp, #-20]	; 0xffffffec
   19a90:	e353005e 	cmp	r3, #94	; 0x5e
   19a94:	8a000007 	bhi	19ab8 <XScuGic_SetPriTrigTypeByDistAddr+0x58>
   19a98:	e30c3768 	movw	r3, #51048	; 0xc768
   19a9c:	e3403001 	movt	r3, #1
   19aa0:	e3a02000 	mov	r2, #0
   19aa4:	e5832000 	str	r2, [r3]
   19aa8:	e55b3016 	ldrb	r3, [fp, #-22]	; 0xffffffea
   19aac:	e3530003 	cmp	r3, #3
   19ab0:	8a000011 	bhi	19afc <XScuGic_SetPriTrigTypeByDistAddr+0x9c>
   19ab4:	ea000008 	b	19adc <XScuGic_SetPriTrigTypeByDistAddr+0x7c>
   19ab8:	e30b0f14 	movw	r0, #48916	; 0xbf14
   19abc:	e3400001 	movt	r0, #1
   19ac0:	e30011d1 	movw	r1, #465	; 0x1d1
   19ac4:	ebffd85c 	bl	fc3c <Xil_Assert>
   19ac8:	e30c3768 	movw	r3, #51048	; 0xc768
   19acc:	e3403001 	movt	r3, #1
   19ad0:	e3a02001 	mov	r2, #1
   19ad4:	e5832000 	str	r2, [r3]
   19ad8:	ea00006d 	b	19c94 <XScuGic_SetPriTrigTypeByDistAddr+0x234>
   19adc:	e30c3768 	movw	r3, #51048	; 0xc768
   19ae0:	e3403001 	movt	r3, #1
   19ae4:	e3a02000 	mov	r2, #0
   19ae8:	e5832000 	str	r2, [r3]
   19aec:	e55b3015 	ldrb	r3, [fp, #-21]	; 0xffffffeb
   19af0:	e35300f8 	cmp	r3, #248	; 0xf8
   19af4:	8a00005d 	bhi	19c70 <XScuGic_SetPriTrigTypeByDistAddr+0x210>
   19af8:	ea000008 	b	19b20 <XScuGic_SetPriTrigTypeByDistAddr+0xc0>
   19afc:	e30b0f14 	movw	r0, #48916	; 0xbf14
   19b00:	e3400001 	movt	r0, #1
   19b04:	e30011d2 	movw	r1, #466	; 0x1d2
   19b08:	ebffd84b 	bl	fc3c <Xil_Assert>
   19b0c:	e30c3768 	movw	r3, #51048	; 0xc768
   19b10:	e3403001 	movt	r3, #1
   19b14:	e3a02001 	mov	r2, #1
   19b18:	e5832000 	str	r2, [r3]
   19b1c:	ea00005c 	b	19c94 <XScuGic_SetPriTrigTypeByDistAddr+0x234>
   19b20:	e30c3768 	movw	r3, #51048	; 0xc768
   19b24:	e3403001 	movt	r3, #1
   19b28:	e3a02000 	mov	r2, #0
   19b2c:	e5832000 	str	r2, [r3]
   19b30:	e51b3014 	ldr	r3, [fp, #-20]	; 0xffffffec
   19b34:	e1a03123 	lsr	r3, r3, #2
   19b38:	e2833c01 	add	r3, r3, #256	; 0x100
   19b3c:	e1a02103 	lsl	r2, r3, #2
   19b40:	e51b3010 	ldr	r3, [fp, #-16]
   19b44:	e0823003 	add	r3, r2, r3
   19b48:	e1a00003 	mov	r0, r3
   19b4c:	ebffd873 	bl	fd20 <Xil_In32>
   19b50:	e50b0008 	str	r0, [fp, #-8]
   19b54:	e55b3015 	ldrb	r3, [fp, #-21]	; 0xffffffeb
   19b58:	e3c33007 	bic	r3, r3, #7
   19b5c:	e54b3015 	strb	r3, [fp, #-21]	; 0xffffffeb
   19b60:	e51b3014 	ldr	r3, [fp, #-20]	; 0xffffffec
   19b64:	e2033003 	and	r3, r3, #3
   19b68:	e1a03183 	lsl	r3, r3, #3
   19b6c:	e1a02003 	mov	r2, r3
   19b70:	e3a030ff 	mov	r3, #255	; 0xff
   19b74:	e1a03213 	lsl	r3, r3, r2
   19b78:	e1e03003 	mvn	r3, r3
   19b7c:	e1a02003 	mov	r2, r3
   19b80:	e51b3008 	ldr	r3, [fp, #-8]
   19b84:	e0033002 	and	r3, r3, r2
   19b88:	e50b3008 	str	r3, [fp, #-8]
   19b8c:	e55b3015 	ldrb	r3, [fp, #-21]	; 0xffffffeb
   19b90:	e51b2014 	ldr	r2, [fp, #-20]	; 0xffffffec
   19b94:	e2022003 	and	r2, r2, #3
   19b98:	e1a02182 	lsl	r2, r2, #3
   19b9c:	e1a03213 	lsl	r3, r3, r2
   19ba0:	e1a02003 	mov	r2, r3
   19ba4:	e51b3008 	ldr	r3, [fp, #-8]
   19ba8:	e1833002 	orr	r3, r3, r2
   19bac:	e50b3008 	str	r3, [fp, #-8]
   19bb0:	e51b3014 	ldr	r3, [fp, #-20]	; 0xffffffec
   19bb4:	e1a03123 	lsr	r3, r3, #2
   19bb8:	e2833c01 	add	r3, r3, #256	; 0x100
   19bbc:	e1a02103 	lsl	r2, r3, #2
   19bc0:	e51b3010 	ldr	r3, [fp, #-16]
   19bc4:	e0823003 	add	r3, r2, r3
   19bc8:	e1a00003 	mov	r0, r3
   19bcc:	e51b1008 	ldr	r1, [fp, #-8]
   19bd0:	ebffd874 	bl	fda8 <Xil_Out32>
   19bd4:	e51b3014 	ldr	r3, [fp, #-20]	; 0xffffffec
   19bd8:	e1a03223 	lsr	r3, r3, #4
   19bdc:	e2833c03 	add	r3, r3, #768	; 0x300
   19be0:	e1a02103 	lsl	r2, r3, #2
   19be4:	e51b3010 	ldr	r3, [fp, #-16]
   19be8:	e0823003 	add	r3, r2, r3
   19bec:	e1a00003 	mov	r0, r3
   19bf0:	ebffd84a 	bl	fd20 <Xil_In32>
   19bf4:	e50b0008 	str	r0, [fp, #-8]
   19bf8:	e51b3014 	ldr	r3, [fp, #-20]	; 0xffffffec
   19bfc:	e203300f 	and	r3, r3, #15
   19c00:	e1a03083 	lsl	r3, r3, #1
   19c04:	e1a02003 	mov	r2, r3
   19c08:	e3a03003 	mov	r3, #3
   19c0c:	e1a03213 	lsl	r3, r3, r2
   19c10:	e1e03003 	mvn	r3, r3
   19c14:	e1a02003 	mov	r2, r3
   19c18:	e51b3008 	ldr	r3, [fp, #-8]
   19c1c:	e0033002 	and	r3, r3, r2
   19c20:	e50b3008 	str	r3, [fp, #-8]
   19c24:	e55b3016 	ldrb	r3, [fp, #-22]	; 0xffffffea
   19c28:	e51b2014 	ldr	r2, [fp, #-20]	; 0xffffffec
   19c2c:	e202200f 	and	r2, r2, #15
   19c30:	e1a02082 	lsl	r2, r2, #1
   19c34:	e1a03213 	lsl	r3, r3, r2
   19c38:	e1a02003 	mov	r2, r3
   19c3c:	e51b3008 	ldr	r3, [fp, #-8]
   19c40:	e1833002 	orr	r3, r3, r2
   19c44:	e50b3008 	str	r3, [fp, #-8]
   19c48:	e51b3014 	ldr	r3, [fp, #-20]	; 0xffffffec
   19c4c:	e1a03223 	lsr	r3, r3, #4
   19c50:	e2833c03 	add	r3, r3, #768	; 0x300
   19c54:	e1a02103 	lsl	r2, r3, #2
   19c58:	e51b3010 	ldr	r3, [fp, #-16]
   19c5c:	e0823003 	add	r3, r2, r3
   19c60:	e1a00003 	mov	r0, r3
   19c64:	e51b1008 	ldr	r1, [fp, #-8]
   19c68:	ebffd84e 	bl	fda8 <Xil_Out32>
   19c6c:	ea000008 	b	19c94 <XScuGic_SetPriTrigTypeByDistAddr+0x234>
   19c70:	e30b0f14 	movw	r0, #48916	; 0xbf14
   19c74:	e3400001 	movt	r0, #1
   19c78:	e30011d3 	movw	r1, #467	; 0x1d3
   19c7c:	ebffd7ee 	bl	fc3c <Xil_Assert>
   19c80:	e30c3768 	movw	r3, #51048	; 0xc768
   19c84:	e3403001 	movt	r3, #1
   19c88:	e3a02001 	mov	r2, #1
   19c8c:	e5832000 	str	r2, [r3]
   19c90:	e1a00000 	nop			; (mov r0, r0)
   19c94:	e24bd004 	sub	sp, fp, #4
   19c98:	e8bd8800 	pop	{fp, pc}

00019c9c <XScuGic_GetPriTrigTypeByDistAddr>:
   19c9c:	e92d4800 	push	{fp, lr}
   19ca0:	e28db004 	add	fp, sp, #4
   19ca4:	e24dd018 	sub	sp, sp, #24
   19ca8:	e50b0010 	str	r0, [fp, #-16]
   19cac:	e50b1014 	str	r1, [fp, #-20]	; 0xffffffec
   19cb0:	e50b2018 	str	r2, [fp, #-24]	; 0xffffffe8
   19cb4:	e50b301c 	str	r3, [fp, #-28]	; 0xffffffe4
   19cb8:	e51b3014 	ldr	r3, [fp, #-20]	; 0xffffffec
   19cbc:	e353005e 	cmp	r3, #94	; 0x5e
   19cc0:	8a000007 	bhi	19ce4 <XScuGic_GetPriTrigTypeByDistAddr+0x48>
   19cc4:	e30c3768 	movw	r3, #51048	; 0xc768
   19cc8:	e3403001 	movt	r3, #1
   19ccc:	e3a02000 	mov	r2, #0
   19cd0:	e5832000 	str	r2, [r3]
   19cd4:	e51b3018 	ldr	r3, [fp, #-24]	; 0xffffffe8
   19cd8:	e3530000 	cmp	r3, #0
   19cdc:	0a000011 	beq	19d28 <XScuGic_GetPriTrigTypeByDistAddr+0x8c>
   19ce0:	ea000008 	b	19d08 <XScuGic_GetPriTrigTypeByDistAddr+0x6c>
   19ce4:	e30b0f14 	movw	r0, #48916	; 0xbf14
   19ce8:	e3400001 	movt	r0, #1
   19cec:	e3a01f86 	mov	r1, #536	; 0x218
   19cf0:	ebffd7d1 	bl	fc3c <Xil_Assert>
   19cf4:	e30c3768 	movw	r3, #51048	; 0xc768
   19cf8:	e3403001 	movt	r3, #1
   19cfc:	e3a02001 	mov	r2, #1
   19d00:	e5832000 	str	r2, [r3]
   19d04:	ea000048 	b	19e2c <XScuGic_GetPriTrigTypeByDistAddr+0x190>
   19d08:	e30c3768 	movw	r3, #51048	; 0xc768
   19d0c:	e3403001 	movt	r3, #1
   19d10:	e3a02000 	mov	r2, #0
   19d14:	e5832000 	str	r2, [r3]
   19d18:	e51b301c 	ldr	r3, [fp, #-28]	; 0xffffffe4
   19d1c:	e3530000 	cmp	r3, #0
   19d20:	0a000038 	beq	19e08 <XScuGic_GetPriTrigTypeByDistAddr+0x16c>
   19d24:	ea000008 	b	19d4c <XScuGic_GetPriTrigTypeByDistAddr+0xb0>
   19d28:	e30b0f14 	movw	r0, #48916	; 0xbf14
   19d2c:	e3400001 	movt	r0, #1
   19d30:	e3001219 	movw	r1, #537	; 0x219
   19d34:	ebffd7c0 	bl	fc3c <Xil_Assert>
   19d38:	e30c3768 	movw	r3, #51048	; 0xc768
   19d3c:	e3403001 	movt	r3, #1
   19d40:	e3a02001 	mov	r2, #1
   19d44:	e5832000 	str	r2, [r3]
   19d48:	ea000037 	b	19e2c <XScuGic_GetPriTrigTypeByDistAddr+0x190>
   19d4c:	e30c3768 	movw	r3, #51048	; 0xc768
   19d50:	e3403001 	movt	r3, #1
   19d54:	e3a02000 	mov	r2, #0
   19d58:	e5832000 	str	r2, [r3]
   19d5c:	e51b3014 	ldr	r3, [fp, #-20]	; 0xffffffec
   19d60:	e1a03123 	lsr	r3, r3, #2
   19d64:	e2833c01 	add	r3, r3, #256	; 0x100
   19d68:	e1a02103 	lsl	r2, r3, #2
   19d6c:	e51b3010 	ldr	r3, [fp, #-16]
   19d70:	e0823003 	add	r3, r2, r3
   19d74:	e1a00003 	mov	r0, r3
   19d78:	ebffd7e8 	bl	fd20 <Xil_In32>
   19d7c:	e50b0008 	str	r0, [fp, #-8]
   19d80:	e51b3014 	ldr	r3, [fp, #-20]	; 0xffffffec
   19d84:	e2033003 	and	r3, r3, #3
   19d88:	e1a03183 	lsl	r3, r3, #3
   19d8c:	e1a02003 	mov	r2, r3
   19d90:	e51b3008 	ldr	r3, [fp, #-8]
   19d94:	e1a03233 	lsr	r3, r3, r2
   19d98:	e50b3008 	str	r3, [fp, #-8]
   19d9c:	e51b3008 	ldr	r3, [fp, #-8]
   19da0:	e6ef2073 	uxtb	r2, r3
   19da4:	e51b3018 	ldr	r3, [fp, #-24]	; 0xffffffe8
   19da8:	e5c32000 	strb	r2, [r3]
   19dac:	e51b3014 	ldr	r3, [fp, #-20]	; 0xffffffec
   19db0:	e1a03223 	lsr	r3, r3, #4
   19db4:	e2833c03 	add	r3, r3, #768	; 0x300
   19db8:	e1a02103 	lsl	r2, r3, #2
   19dbc:	e51b3010 	ldr	r3, [fp, #-16]
   19dc0:	e0823003 	add	r3, r2, r3
   19dc4:	e1a00003 	mov	r0, r3
   19dc8:	ebffd7d4 	bl	fd20 <Xil_In32>
   19dcc:	e50b0008 	str	r0, [fp, #-8]
   19dd0:	e51b3014 	ldr	r3, [fp, #-20]	; 0xffffffec
   19dd4:	e203300f 	and	r3, r3, #15
   19dd8:	e1a03083 	lsl	r3, r3, #1
   19ddc:	e1a02003 	mov	r2, r3
   19de0:	e51b3008 	ldr	r3, [fp, #-8]
   19de4:	e1a03233 	lsr	r3, r3, r2
   19de8:	e50b3008 	str	r3, [fp, #-8]
   19dec:	e51b3008 	ldr	r3, [fp, #-8]
   19df0:	e6ef3073 	uxtb	r3, r3
   19df4:	e2033003 	and	r3, r3, #3
   19df8:	e6ef2073 	uxtb	r2, r3
   19dfc:	e51b301c 	ldr	r3, [fp, #-28]	; 0xffffffe4
   19e00:	e5c32000 	strb	r2, [r3]
   19e04:	ea000008 	b	19e2c <XScuGic_GetPriTrigTypeByDistAddr+0x190>
   19e08:	e30b0f14 	movw	r0, #48916	; 0xbf14
   19e0c:	e3400001 	movt	r0, #1
   19e10:	e300121a 	movw	r1, #538	; 0x21a
   19e14:	ebffd788 	bl	fc3c <Xil_Assert>
   19e18:	e30c3768 	movw	r3, #51048	; 0xc768
   19e1c:	e3403001 	movt	r3, #1
   19e20:	e3a02001 	mov	r2, #1
   19e24:	e5832000 	str	r2, [r3]
   19e28:	e1a00000 	nop			; (mov r0, r0)
   19e2c:	e24bd004 	sub	sp, fp, #4
   19e30:	e8bd8800 	pop	{fp, pc}

00019e34 <XIic_Recv>:
   19e34:	e92d4810 	push	{r4, fp, lr}
   19e38:	e28db008 	add	fp, sp, #8
   19e3c:	e24dd024 	sub	sp, sp, #36	; 0x24
   19e40:	e50b0020 	str	r0, [fp, #-32]	; 0xffffffe0
   19e44:	e50b2028 	str	r2, [fp, #-40]	; 0xffffffd8
   19e48:	e50b302c 	str	r3, [fp, #-44]	; 0xffffffd4
   19e4c:	e1a03001 	mov	r3, r1
   19e50:	e54b3021 	strb	r3, [fp, #-33]	; 0xffffffdf
   19e54:	e51b3020 	ldr	r3, [fp, #-32]	; 0xffffffe0
   19e58:	e2834020 	add	r4, r3, #32
   19e5c:	e51b3020 	ldr	r3, [fp, #-32]	; 0xffffffe0
   19e60:	e2833020 	add	r3, r3, #32
   19e64:	e1a00003 	mov	r0, r3
   19e68:	ebffd7ac 	bl	fd20 <Xil_In32>
   19e6c:	e1a03000 	mov	r3, r0
   19e70:	e203300b 	and	r3, r3, #11
   19e74:	e1a00004 	mov	r0, r4
   19e78:	e1a01003 	mov	r1, r3
   19e7c:	ebffd7c9 	bl	fda8 <Xil_Out32>
   19e80:	e51b3020 	ldr	r3, [fp, #-32]	; 0xffffffe0
   19e84:	e2833e12 	add	r3, r3, #288	; 0x120
   19e88:	e1a00003 	mov	r0, r3
   19e8c:	e3a01000 	mov	r1, #0
   19e90:	ebffd7c4 	bl	fda8 <Xil_Out32>
   19e94:	e51b3020 	ldr	r3, [fp, #-32]	; 0xffffffe0
   19e98:	e2833c01 	add	r3, r3, #256	; 0x100
   19e9c:	e1a00003 	mov	r0, r3
   19ea0:	ebffd79e 	bl	fd20 <Xil_In32>
   19ea4:	e50b0010 	str	r0, [fp, #-16]
   19ea8:	e51b3010 	ldr	r3, [fp, #-16]
   19eac:	e2033020 	and	r3, r3, #32
   19eb0:	e3530000 	cmp	r3, #0
   19eb4:	1a000035 	bne	19f90 <XIic_Recv+0x15c>
   19eb8:	e55b3021 	ldrb	r3, [fp, #-33]	; 0xffffffdf
   19ebc:	e1a03083 	lsl	r3, r3, #1
   19ec0:	e54b3011 	strb	r3, [fp, #-17]	; 0xffffffef
   19ec4:	e55b3011 	ldrb	r3, [fp, #-17]	; 0xffffffef
   19ec8:	e3833001 	orr	r3, r3, #1
   19ecc:	e54b3011 	strb	r3, [fp, #-17]	; 0xffffffef
   19ed0:	e51b3020 	ldr	r3, [fp, #-32]	; 0xffffffe0
   19ed4:	e2832f42 	add	r2, r3, #264	; 0x108
   19ed8:	e55b3011 	ldrb	r3, [fp, #-17]	; 0xffffffef
   19edc:	e1a00002 	mov	r0, r2
   19ee0:	e1a01003 	mov	r1, r3
   19ee4:	ebffd7af 	bl	fda8 <Xil_Out32>
   19ee8:	e3a03005 	mov	r3, #5
   19eec:	e50b3010 	str	r3, [fp, #-16]
   19ef0:	e51b302c 	ldr	r3, [fp, #-44]	; 0xffffffd4
   19ef4:	e3530001 	cmp	r3, #1
   19ef8:	1a000002 	bne	19f08 <XIic_Recv+0xd4>
   19efc:	e51b3010 	ldr	r3, [fp, #-16]
   19f00:	e3833010 	orr	r3, r3, #16
   19f04:	e50b3010 	str	r3, [fp, #-16]
   19f08:	e51b3020 	ldr	r3, [fp, #-32]	; 0xffffffe0
   19f0c:	e2833c01 	add	r3, r3, #256	; 0x100
   19f10:	e1a00003 	mov	r0, r3
   19f14:	e51b1010 	ldr	r1, [fp, #-16]
   19f18:	ebffd7a2 	bl	fda8 <Xil_Out32>
   19f1c:	e51b3020 	ldr	r3, [fp, #-32]	; 0xffffffe0
   19f20:	e2833f41 	add	r3, r3, #260	; 0x104
   19f24:	e1a00003 	mov	r0, r3
   19f28:	ebffd77c 	bl	fd20 <Xil_In32>
   19f2c:	e1a03000 	mov	r3, r0
   19f30:	e50b301c 	str	r3, [fp, #-28]	; 0xffffffe4
   19f34:	ea000005 	b	19f50 <XIic_Recv+0x11c>
   19f38:	e51b3020 	ldr	r3, [fp, #-32]	; 0xffffffe0
   19f3c:	e2833f41 	add	r3, r3, #260	; 0x104
   19f40:	e1a00003 	mov	r0, r3
   19f44:	ebffd775 	bl	fd20 <Xil_In32>
   19f48:	e1a03000 	mov	r3, r0
   19f4c:	e50b301c 	str	r3, [fp, #-28]	; 0xffffffe4
   19f50:	e51b301c 	ldr	r3, [fp, #-28]	; 0xffffffe4
   19f54:	e2033004 	and	r3, r3, #4
   19f58:	e3530000 	cmp	r3, #0
   19f5c:	0afffff5 	beq	19f38 <XIic_Recv+0x104>
   19f60:	e51b3020 	ldr	r3, [fp, #-32]	; 0xffffffe0
   19f64:	e2834020 	add	r4, r3, #32
   19f68:	e51b3020 	ldr	r3, [fp, #-32]	; 0xffffffe0
   19f6c:	e2833020 	add	r3, r3, #32
   19f70:	e1a00003 	mov	r0, r3
   19f74:	ebffd769 	bl	fd20 <Xil_In32>
   19f78:	e1a03000 	mov	r3, r0
   19f7c:	e2033010 	and	r3, r3, #16
   19f80:	e1a00004 	mov	r0, r4
   19f84:	e1a01003 	mov	r1, r3
   19f88:	ebffd786 	bl	fda8 <Xil_Out32>
   19f8c:	ea000013 	b	19fe0 <XIic_Recv+0x1ac>
   19f90:	e51b3010 	ldr	r3, [fp, #-16]
   19f94:	e3c33008 	bic	r3, r3, #8
   19f98:	e50b3010 	str	r3, [fp, #-16]
   19f9c:	e51b3020 	ldr	r3, [fp, #-32]	; 0xffffffe0
   19fa0:	e2833c01 	add	r3, r3, #256	; 0x100
   19fa4:	e1a00003 	mov	r0, r3
   19fa8:	e51b1010 	ldr	r1, [fp, #-16]
   19fac:	ebffd77d 	bl	fda8 <Xil_Out32>
   19fb0:	e55b3021 	ldrb	r3, [fp, #-33]	; 0xffffffdf
   19fb4:	e1a03083 	lsl	r3, r3, #1
   19fb8:	e54b3012 	strb	r3, [fp, #-18]	; 0xffffffee
   19fbc:	e55b3012 	ldrb	r3, [fp, #-18]	; 0xffffffee
   19fc0:	e3833001 	orr	r3, r3, #1
   19fc4:	e54b3012 	strb	r3, [fp, #-18]	; 0xffffffee
   19fc8:	e51b3020 	ldr	r3, [fp, #-32]	; 0xffffffe0
   19fcc:	e2832f42 	add	r2, r3, #264	; 0x108
   19fd0:	e55b3012 	ldrb	r3, [fp, #-18]	; 0xffffffee
   19fd4:	e1a00002 	mov	r0, r2
   19fd8:	e1a01003 	mov	r1, r3
   19fdc:	ebffd771 	bl	fda8 <Xil_Out32>
   19fe0:	e5db3004 	ldrb	r3, [fp, #4]
   19fe4:	e51b0020 	ldr	r0, [fp, #-32]	; 0xffffffe0
   19fe8:	e51b1028 	ldr	r1, [fp, #-40]	; 0xffffffd8
   19fec:	e51b202c 	ldr	r2, [fp, #-44]	; 0xffffffd4
   19ff0:	eb000014 	bl	1a048 <RecvData>
   19ff4:	e50b0018 	str	r0, [fp, #-24]	; 0xffffffe8
   19ff8:	e51b3020 	ldr	r3, [fp, #-32]	; 0xffffffe0
   19ffc:	e2833c01 	add	r3, r3, #256	; 0x100
   1a000:	e1a00003 	mov	r0, r3
   1a004:	ebffd745 	bl	fd20 <Xil_In32>
   1a008:	e50b0010 	str	r0, [fp, #-16]
   1a00c:	e51b3010 	ldr	r3, [fp, #-16]
   1a010:	e2033020 	and	r3, r3, #32
   1a014:	e3530000 	cmp	r3, #0
   1a018:	1a000004 	bne	1a030 <XIic_Recv+0x1fc>
   1a01c:	e51b3020 	ldr	r3, [fp, #-32]	; 0xffffffe0
   1a020:	e2833c01 	add	r3, r3, #256	; 0x100
   1a024:	e1a00003 	mov	r0, r3
   1a028:	e3a01000 	mov	r1, #0
   1a02c:	ebffd75d 	bl	fda8 <Xil_Out32>
   1a030:	e51b202c 	ldr	r2, [fp, #-44]	; 0xffffffd4
   1a034:	e51b3018 	ldr	r3, [fp, #-24]	; 0xffffffe8
   1a038:	e0633002 	rsb	r3, r3, r2
   1a03c:	e1a00003 	mov	r0, r3
   1a040:	e24bd008 	sub	sp, fp, #8
   1a044:	e8bd8810 	pop	{r4, fp, pc}

0001a048 <RecvData>:
   1a048:	e92d4810 	push	{r4, fp, lr}
   1a04c:	e28db008 	add	fp, sp, #8
   1a050:	e24dd024 	sub	sp, sp, #36	; 0x24
   1a054:	e50b0020 	str	r0, [fp, #-32]	; 0xffffffe0
   1a058:	e50b1024 	str	r1, [fp, #-36]	; 0xffffffdc
   1a05c:	e50b2028 	str	r2, [fp, #-40]	; 0xffffffd8
   1a060:	e54b3029 	strb	r3, [fp, #-41]	; 0xffffffd7
   1a064:	ea000057 	b	1a1c8 <RecvData+0x180>
   1a068:	e51b3028 	ldr	r3, [fp, #-40]	; 0xffffffd8
   1a06c:	e3530001 	cmp	r3, #1
   1a070:	1a000002 	bne	1a080 <RecvData+0x38>
   1a074:	e3a03011 	mov	r3, #17
   1a078:	e50b3010 	str	r3, [fp, #-16]
   1a07c:	ea000001 	b	1a088 <RecvData+0x40>
   1a080:	e3a03013 	mov	r3, #19
   1a084:	e50b3010 	str	r3, [fp, #-16]
   1a088:	e51b3020 	ldr	r3, [fp, #-32]	; 0xffffffe0
   1a08c:	e2833020 	add	r3, r3, #32
   1a090:	e1a00003 	mov	r0, r3
   1a094:	ebffd721 	bl	fd20 <Xil_In32>
   1a098:	e50b0014 	str	r0, [fp, #-20]	; 0xffffffec
   1a09c:	e51b3014 	ldr	r3, [fp, #-20]	; 0xffffffec
   1a0a0:	e2033008 	and	r3, r3, #8
   1a0a4:	e3530000 	cmp	r3, #0
   1a0a8:	0a000009 	beq	1a0d4 <RecvData+0x8c>
   1a0ac:	e1a00000 	nop			; (mov r0, r0)
   1a0b0:	e51b3020 	ldr	r3, [fp, #-32]	; 0xffffffe0
   1a0b4:	e2833c01 	add	r3, r3, #256	; 0x100
   1a0b8:	e1a00003 	mov	r0, r3
   1a0bc:	ebffd717 	bl	fd20 <Xil_In32>
   1a0c0:	e50b0018 	str	r0, [fp, #-24]	; 0xffffffe8
   1a0c4:	e51b3028 	ldr	r3, [fp, #-40]	; 0xffffffd8
   1a0c8:	e3530001 	cmp	r3, #1
   1a0cc:	1a000010 	bne	1a114 <RecvData+0xcc>
   1a0d0:	ea000007 	b	1a0f4 <RecvData+0xac>
   1a0d4:	e51b2014 	ldr	r2, [fp, #-20]	; 0xffffffec
   1a0d8:	e51b3010 	ldr	r3, [fp, #-16]
   1a0dc:	e0033002 	and	r3, r3, r2
   1a0e0:	e3530000 	cmp	r3, #0
   1a0e4:	0a000001 	beq	1a0f0 <RecvData+0xa8>
   1a0e8:	e51b3028 	ldr	r3, [fp, #-40]	; 0xffffffd8
   1a0ec:	ea000046 	b	1a20c <RecvData+0x1c4>
   1a0f0:	eaffffe4 	b	1a088 <RecvData+0x40>
   1a0f4:	e55b3029 	ldrb	r3, [fp, #-41]	; 0xffffffd7
   1a0f8:	e3530000 	cmp	r3, #0
   1a0fc:	1a000004 	bne	1a114 <RecvData+0xcc>
   1a100:	e51b3020 	ldr	r3, [fp, #-32]	; 0xffffffe0
   1a104:	e2833c01 	add	r3, r3, #256	; 0x100
   1a108:	e1a00003 	mov	r0, r3
   1a10c:	e3a01001 	mov	r1, #1
   1a110:	ebffd724 	bl	fda8 <Xil_Out32>
   1a114:	e51b3028 	ldr	r3, [fp, #-40]	; 0xffffffd8
   1a118:	e3530002 	cmp	r3, #2
   1a11c:	1a000006 	bne	1a13c <RecvData+0xf4>
   1a120:	e51b3020 	ldr	r3, [fp, #-32]	; 0xffffffe0
   1a124:	e2832c01 	add	r2, r3, #256	; 0x100
   1a128:	e51b3018 	ldr	r3, [fp, #-24]	; 0xffffffe8
   1a12c:	e3833010 	orr	r3, r3, #16
   1a130:	e1a00002 	mov	r0, r2
   1a134:	e1a01003 	mov	r1, r3
   1a138:	ebffd71a 	bl	fda8 <Xil_Out32>
   1a13c:	e51b4024 	ldr	r4, [fp, #-36]	; 0xffffffdc
   1a140:	e2843001 	add	r3, r4, #1
   1a144:	e50b3024 	str	r3, [fp, #-36]	; 0xffffffdc
   1a148:	e51b3020 	ldr	r3, [fp, #-32]	; 0xffffffe0
   1a14c:	e2833f43 	add	r3, r3, #268	; 0x10c
   1a150:	e1a00003 	mov	r0, r3
   1a154:	ebffd6f1 	bl	fd20 <Xil_In32>
   1a158:	e1a03000 	mov	r3, r0
   1a15c:	e6ef3073 	uxtb	r3, r3
   1a160:	e5c43000 	strb	r3, [r4]
   1a164:	e51b3028 	ldr	r3, [fp, #-40]	; 0xffffffd8
   1a168:	e3530001 	cmp	r3, #1
   1a16c:	1a000007 	bne	1a190 <RecvData+0x148>
   1a170:	e55b3029 	ldrb	r3, [fp, #-41]	; 0xffffffd7
   1a174:	e3530001 	cmp	r3, #1
   1a178:	1a000004 	bne	1a190 <RecvData+0x148>
   1a17c:	e51b3020 	ldr	r3, [fp, #-32]	; 0xffffffe0
   1a180:	e2833c01 	add	r3, r3, #256	; 0x100
   1a184:	e1a00003 	mov	r0, r3
   1a188:	e3a01025 	mov	r1, #37	; 0x25
   1a18c:	ebffd705 	bl	fda8 <Xil_Out32>
   1a190:	e51b3020 	ldr	r3, [fp, #-32]	; 0xffffffe0
   1a194:	e2834020 	add	r4, r3, #32
   1a198:	e51b3020 	ldr	r3, [fp, #-32]	; 0xffffffe0
   1a19c:	e2833020 	add	r3, r3, #32
   1a1a0:	e1a00003 	mov	r0, r3
   1a1a4:	ebffd6dd 	bl	fd20 <Xil_In32>
   1a1a8:	e1a03000 	mov	r3, r0
   1a1ac:	e203300b 	and	r3, r3, #11
   1a1b0:	e1a00004 	mov	r0, r4
   1a1b4:	e1a01003 	mov	r1, r3
   1a1b8:	ebffd6fa 	bl	fda8 <Xil_Out32>
   1a1bc:	e51b3028 	ldr	r3, [fp, #-40]	; 0xffffffd8
   1a1c0:	e2433001 	sub	r3, r3, #1
   1a1c4:	e50b3028 	str	r3, [fp, #-40]	; 0xffffffd8
   1a1c8:	e51b3028 	ldr	r3, [fp, #-40]	; 0xffffffd8
   1a1cc:	e3530000 	cmp	r3, #0
   1a1d0:	1affffa4 	bne	1a068 <RecvData+0x20>
   1a1d4:	e55b3029 	ldrb	r3, [fp, #-41]	; 0xffffffd7
   1a1d8:	e3530000 	cmp	r3, #0
   1a1dc:	1a000009 	bne	1a208 <RecvData+0x1c0>
   1a1e0:	e51b3020 	ldr	r3, [fp, #-32]	; 0xffffffe0
   1a1e4:	e2833020 	add	r3, r3, #32
   1a1e8:	e1a00003 	mov	r0, r3
   1a1ec:	ebffd6cb 	bl	fd20 <Xil_In32>
   1a1f0:	e1a03000 	mov	r3, r0
   1a1f4:	e2033010 	and	r3, r3, #16
   1a1f8:	e3530000 	cmp	r3, #0
   1a1fc:	0a000000 	beq	1a204 <RecvData+0x1bc>
   1a200:	ea000000 	b	1a208 <RecvData+0x1c0>
   1a204:	eafffff5 	b	1a1e0 <RecvData+0x198>
   1a208:	e51b3028 	ldr	r3, [fp, #-40]	; 0xffffffd8
   1a20c:	e1a00003 	mov	r0, r3
   1a210:	e24bd008 	sub	sp, fp, #8
   1a214:	e8bd8810 	pop	{r4, fp, pc}

0001a218 <XIic_Send>:
   1a218:	e92d4810 	push	{r4, fp, lr}
   1a21c:	e28db008 	add	fp, sp, #8
   1a220:	e24dd024 	sub	sp, sp, #36	; 0x24
   1a224:	e50b0020 	str	r0, [fp, #-32]	; 0xffffffe0
   1a228:	e50b2028 	str	r2, [fp, #-40]	; 0xffffffd8
   1a22c:	e50b302c 	str	r3, [fp, #-44]	; 0xffffffd4
   1a230:	e1a03001 	mov	r3, r1
   1a234:	e54b3021 	strb	r3, [fp, #-33]	; 0xffffffdf
   1a238:	e51b3020 	ldr	r3, [fp, #-32]	; 0xffffffe0
   1a23c:	e2833c01 	add	r3, r3, #256	; 0x100
   1a240:	e1a00003 	mov	r0, r3
   1a244:	ebffd6b5 	bl	fd20 <Xil_In32>
   1a248:	e50b0010 	str	r0, [fp, #-16]
   1a24c:	e51b3010 	ldr	r3, [fp, #-16]
   1a250:	e2033020 	and	r3, r3, #32
   1a254:	e3530000 	cmp	r3, #0
   1a258:	1a000038 	bne	1a340 <XIic_Send+0x128>
   1a25c:	e55b3021 	ldrb	r3, [fp, #-33]	; 0xffffffdf
   1a260:	e1a03083 	lsl	r3, r3, #1
   1a264:	e54b3011 	strb	r3, [fp, #-17]	; 0xffffffef
   1a268:	e55b3011 	ldrb	r3, [fp, #-17]	; 0xffffffef
   1a26c:	e3c33001 	bic	r3, r3, #1
   1a270:	e54b3011 	strb	r3, [fp, #-17]	; 0xffffffef
   1a274:	e51b3020 	ldr	r3, [fp, #-32]	; 0xffffffe0
   1a278:	e2832f42 	add	r2, r3, #264	; 0x108
   1a27c:	e55b3011 	ldrb	r3, [fp, #-17]	; 0xffffffef
   1a280:	e1a00002 	mov	r0, r2
   1a284:	e1a01003 	mov	r1, r3
   1a288:	ebffd6c6 	bl	fda8 <Xil_Out32>
   1a28c:	e51b3020 	ldr	r3, [fp, #-32]	; 0xffffffe0
   1a290:	e2834020 	add	r4, r3, #32
   1a294:	e51b3020 	ldr	r3, [fp, #-32]	; 0xffffffe0
   1a298:	e2833020 	add	r3, r3, #32
   1a29c:	e1a00003 	mov	r0, r3
   1a2a0:	ebffd69e 	bl	fd20 <Xil_In32>
   1a2a4:	e1a03000 	mov	r3, r0
   1a2a8:	e2033007 	and	r3, r3, #7
   1a2ac:	e1a00004 	mov	r0, r4
   1a2b0:	e1a01003 	mov	r1, r3
   1a2b4:	ebffd6bb 	bl	fda8 <Xil_Out32>
   1a2b8:	e51b3020 	ldr	r3, [fp, #-32]	; 0xffffffe0
   1a2bc:	e2833c01 	add	r3, r3, #256	; 0x100
   1a2c0:	e1a00003 	mov	r0, r3
   1a2c4:	e3a0100d 	mov	r1, #13
   1a2c8:	ebffd6b6 	bl	fda8 <Xil_Out32>
   1a2cc:	e51b3020 	ldr	r3, [fp, #-32]	; 0xffffffe0
   1a2d0:	e2833f41 	add	r3, r3, #260	; 0x104
   1a2d4:	e1a00003 	mov	r0, r3
   1a2d8:	ebffd690 	bl	fd20 <Xil_In32>
   1a2dc:	e1a03000 	mov	r3, r0
   1a2e0:	e50b301c 	str	r3, [fp, #-28]	; 0xffffffe4
   1a2e4:	ea000005 	b	1a300 <XIic_Send+0xe8>
   1a2e8:	e51b3020 	ldr	r3, [fp, #-32]	; 0xffffffe0
   1a2ec:	e2833f41 	add	r3, r3, #260	; 0x104
   1a2f0:	e1a00003 	mov	r0, r3
   1a2f4:	ebffd689 	bl	fd20 <Xil_In32>
   1a2f8:	e1a03000 	mov	r3, r0
   1a2fc:	e50b301c 	str	r3, [fp, #-28]	; 0xffffffe4
   1a300:	e51b301c 	ldr	r3, [fp, #-28]	; 0xffffffe4
   1a304:	e2033004 	and	r3, r3, #4
   1a308:	e3530000 	cmp	r3, #0
   1a30c:	0afffff5 	beq	1a2e8 <XIic_Send+0xd0>
   1a310:	e51b3020 	ldr	r3, [fp, #-32]	; 0xffffffe0
   1a314:	e2834020 	add	r4, r3, #32
   1a318:	e51b3020 	ldr	r3, [fp, #-32]	; 0xffffffe0
   1a31c:	e2833020 	add	r3, r3, #32
   1a320:	e1a00003 	mov	r0, r3
   1a324:	ebffd67d 	bl	fd20 <Xil_In32>
   1a328:	e1a03000 	mov	r3, r0
   1a32c:	e2033010 	and	r3, r3, #16
   1a330:	e1a00004 	mov	r0, r4
   1a334:	e1a01003 	mov	r1, r3
   1a338:	ebffd69a 	bl	fda8 <Xil_Out32>
   1a33c:	ea00000b 	b	1a370 <XIic_Send+0x158>
   1a340:	e55b3021 	ldrb	r3, [fp, #-33]	; 0xffffffdf
   1a344:	e1a03083 	lsl	r3, r3, #1
   1a348:	e54b3012 	strb	r3, [fp, #-18]	; 0xffffffee
   1a34c:	e55b3012 	ldrb	r3, [fp, #-18]	; 0xffffffee
   1a350:	e3c33001 	bic	r3, r3, #1
   1a354:	e54b3012 	strb	r3, [fp, #-18]	; 0xffffffee
   1a358:	e51b3020 	ldr	r3, [fp, #-32]	; 0xffffffe0
   1a35c:	e2832f42 	add	r2, r3, #264	; 0x108
   1a360:	e55b3012 	ldrb	r3, [fp, #-18]	; 0xffffffee
   1a364:	e1a00002 	mov	r0, r2
   1a368:	e1a01003 	mov	r1, r3
   1a36c:	ebffd68d 	bl	fda8 <Xil_Out32>
   1a370:	e5db3004 	ldrb	r3, [fp, #4]
   1a374:	e51b0020 	ldr	r0, [fp, #-32]	; 0xffffffe0
   1a378:	e51b1028 	ldr	r1, [fp, #-40]	; 0xffffffd8
   1a37c:	e51b202c 	ldr	r2, [fp, #-44]	; 0xffffffd4
   1a380:	eb000038 	bl	1a468 <SendData>
   1a384:	e50b0018 	str	r0, [fp, #-24]	; 0xffffffe8
   1a388:	e51b3020 	ldr	r3, [fp, #-32]	; 0xffffffe0
   1a38c:	e2833c01 	add	r3, r3, #256	; 0x100
   1a390:	e1a00003 	mov	r0, r3
   1a394:	ebffd661 	bl	fd20 <Xil_In32>
   1a398:	e50b0010 	str	r0, [fp, #-16]
   1a39c:	e51b3010 	ldr	r3, [fp, #-16]
   1a3a0:	e2033020 	and	r3, r3, #32
   1a3a4:	e3530000 	cmp	r3, #0
   1a3a8:	1a000028 	bne	1a450 <XIic_Send+0x238>
   1a3ac:	e51b3010 	ldr	r3, [fp, #-16]
   1a3b0:	e2033004 	and	r3, r3, #4
   1a3b4:	e3530000 	cmp	r3, #0
   1a3b8:	0a000017 	beq	1a41c <XIic_Send+0x204>
   1a3bc:	e51b3020 	ldr	r3, [fp, #-32]	; 0xffffffe0
   1a3c0:	e2832c01 	add	r2, r3, #256	; 0x100
   1a3c4:	e51b3010 	ldr	r3, [fp, #-16]
   1a3c8:	e3c33004 	bic	r3, r3, #4
   1a3cc:	e1a00002 	mov	r0, r2
   1a3d0:	e1a01003 	mov	r1, r3
   1a3d4:	ebffd673 	bl	fda8 <Xil_Out32>
   1a3d8:	e51b3020 	ldr	r3, [fp, #-32]	; 0xffffffe0
   1a3dc:	e2833f41 	add	r3, r3, #260	; 0x104
   1a3e0:	e1a00003 	mov	r0, r3
   1a3e4:	ebffd64d 	bl	fd20 <Xil_In32>
   1a3e8:	e1a03000 	mov	r3, r0
   1a3ec:	e50b301c 	str	r3, [fp, #-28]	; 0xffffffe4
   1a3f0:	ea000005 	b	1a40c <XIic_Send+0x1f4>
   1a3f4:	e51b3020 	ldr	r3, [fp, #-32]	; 0xffffffe0
   1a3f8:	e2833f41 	add	r3, r3, #260	; 0x104
   1a3fc:	e1a00003 	mov	r0, r3
   1a400:	ebffd646 	bl	fd20 <Xil_In32>
   1a404:	e1a03000 	mov	r3, r0
   1a408:	e50b301c 	str	r3, [fp, #-28]	; 0xffffffe4
   1a40c:	e51b301c 	ldr	r3, [fp, #-28]	; 0xffffffe4
   1a410:	e2033004 	and	r3, r3, #4
   1a414:	e3530000 	cmp	r3, #0
   1a418:	1afffff5 	bne	1a3f4 <XIic_Send+0x1dc>
   1a41c:	e51b3020 	ldr	r3, [fp, #-32]	; 0xffffffe0
   1a420:	e2833f41 	add	r3, r3, #260	; 0x104
   1a424:	e1a00003 	mov	r0, r3
   1a428:	ebffd63c 	bl	fd20 <Xil_In32>
   1a42c:	e1a03000 	mov	r3, r0
   1a430:	e2033002 	and	r3, r3, #2
   1a434:	e3530000 	cmp	r3, #0
   1a438:	0a000004 	beq	1a450 <XIic_Send+0x238>
   1a43c:	e51b3020 	ldr	r3, [fp, #-32]	; 0xffffffe0
   1a440:	e2833c01 	add	r3, r3, #256	; 0x100
   1a444:	e1a00003 	mov	r0, r3
   1a448:	e3a01000 	mov	r1, #0
   1a44c:	ebffd655 	bl	fda8 <Xil_Out32>
   1a450:	e51b202c 	ldr	r2, [fp, #-44]	; 0xffffffd4
   1a454:	e51b3018 	ldr	r3, [fp, #-24]	; 0xffffffe8
   1a458:	e0633002 	rsb	r3, r3, r2
   1a45c:	e1a00003 	mov	r0, r3
   1a460:	e24bd008 	sub	sp, fp, #8
   1a464:	e8bd8810 	pop	{r4, fp, pc}

0001a468 <SendData>:
   1a468:	e92d4810 	push	{r4, fp, lr}
   1a46c:	e28db008 	add	fp, sp, #8
   1a470:	e24dd01c 	sub	sp, sp, #28
   1a474:	e50b0018 	str	r0, [fp, #-24]	; 0xffffffe8
   1a478:	e50b101c 	str	r1, [fp, #-28]	; 0xffffffe4
   1a47c:	e50b2020 	str	r2, [fp, #-32]	; 0xffffffe0
   1a480:	e54b3021 	strb	r3, [fp, #-33]	; 0xffffffdf
   1a484:	ea00005b 	b	1a5f8 <SendData+0x190>
   1a488:	e51b3018 	ldr	r3, [fp, #-24]	; 0xffffffe8
   1a48c:	e2833020 	add	r3, r3, #32
   1a490:	e1a00003 	mov	r0, r3
   1a494:	ebffd621 	bl	fd20 <Xil_In32>
   1a498:	e50b0010 	str	r0, [fp, #-16]
   1a49c:	e51b3010 	ldr	r3, [fp, #-16]
   1a4a0:	e2033013 	and	r3, r3, #19
   1a4a4:	e3530000 	cmp	r3, #0
   1a4a8:	0a000001 	beq	1a4b4 <SendData+0x4c>
   1a4ac:	e51b3020 	ldr	r3, [fp, #-32]	; 0xffffffe0
   1a4b0:	ea000061 	b	1a63c <SendData+0x1d4>
   1a4b4:	e51b3010 	ldr	r3, [fp, #-16]
   1a4b8:	e2033004 	and	r3, r3, #4
   1a4bc:	e3530000 	cmp	r3, #0
   1a4c0:	0a000004 	beq	1a4d8 <SendData+0x70>
   1a4c4:	e1a00000 	nop			; (mov r0, r0)
   1a4c8:	e51b3020 	ldr	r3, [fp, #-32]	; 0xffffffe0
   1a4cc:	e3530001 	cmp	r3, #1
   1a4d0:	9a00000b 	bls	1a504 <SendData+0x9c>
   1a4d4:	ea000000 	b	1a4dc <SendData+0x74>
   1a4d8:	eaffffea 	b	1a488 <SendData+0x20>
   1a4dc:	e51b3018 	ldr	r3, [fp, #-24]	; 0xffffffe8
   1a4e0:	e2831f42 	add	r1, r3, #264	; 0x108
   1a4e4:	e51b301c 	ldr	r3, [fp, #-28]	; 0xffffffe4
   1a4e8:	e2832001 	add	r2, r3, #1
   1a4ec:	e50b201c 	str	r2, [fp, #-28]	; 0xffffffe4
   1a4f0:	e5d33000 	ldrb	r3, [r3]
   1a4f4:	e1a00001 	mov	r0, r1
   1a4f8:	e1a01003 	mov	r1, r3
   1a4fc:	ebffd629 	bl	fda8 <Xil_Out32>
   1a500:	ea00002e 	b	1a5c0 <SendData+0x158>
   1a504:	e55b3021 	ldrb	r3, [fp, #-33]	; 0xffffffdf
   1a508:	e3530000 	cmp	r3, #0
   1a50c:	1a000004 	bne	1a524 <SendData+0xbc>
   1a510:	e51b3018 	ldr	r3, [fp, #-24]	; 0xffffffe8
   1a514:	e2833c01 	add	r3, r3, #256	; 0x100
   1a518:	e1a00003 	mov	r0, r3
   1a51c:	e3a01009 	mov	r1, #9
   1a520:	ebffd620 	bl	fda8 <Xil_Out32>
   1a524:	e51b3018 	ldr	r3, [fp, #-24]	; 0xffffffe8
   1a528:	e2831f42 	add	r1, r3, #264	; 0x108
   1a52c:	e51b301c 	ldr	r3, [fp, #-28]	; 0xffffffe4
   1a530:	e2832001 	add	r2, r3, #1
   1a534:	e50b201c 	str	r2, [fp, #-28]	; 0xffffffe4
   1a538:	e5d33000 	ldrb	r3, [r3]
   1a53c:	e1a00001 	mov	r0, r1
   1a540:	e1a01003 	mov	r1, r3
   1a544:	ebffd617 	bl	fda8 <Xil_Out32>
   1a548:	e55b3021 	ldrb	r3, [fp, #-33]	; 0xffffffdf
   1a54c:	e3530001 	cmp	r3, #1
   1a550:	1a00001a 	bne	1a5c0 <SendData+0x158>
   1a554:	e51b3018 	ldr	r3, [fp, #-24]	; 0xffffffe8
   1a558:	e2834020 	add	r4, r3, #32
   1a55c:	e51b3018 	ldr	r3, [fp, #-24]	; 0xffffffe8
   1a560:	e2833020 	add	r3, r3, #32
   1a564:	e1a00003 	mov	r0, r3
   1a568:	ebffd5ec 	bl	fd20 <Xil_In32>
   1a56c:	e1a03000 	mov	r3, r0
   1a570:	e2033004 	and	r3, r3, #4
   1a574:	e1a00004 	mov	r0, r4
   1a578:	e1a01003 	mov	r1, r3
   1a57c:	ebffd609 	bl	fda8 <Xil_Out32>
   1a580:	e51b3018 	ldr	r3, [fp, #-24]	; 0xffffffe8
   1a584:	e2833020 	add	r3, r3, #32
   1a588:	e1a00003 	mov	r0, r3
   1a58c:	ebffd5e3 	bl	fd20 <Xil_In32>
   1a590:	e50b0010 	str	r0, [fp, #-16]
   1a594:	e51b3010 	ldr	r3, [fp, #-16]
   1a598:	e2033004 	and	r3, r3, #4
   1a59c:	e3530000 	cmp	r3, #0
   1a5a0:	0a000005 	beq	1a5bc <SendData+0x154>
   1a5a4:	e51b3018 	ldr	r3, [fp, #-24]	; 0xffffffe8
   1a5a8:	e2833c01 	add	r3, r3, #256	; 0x100
   1a5ac:	e1a00003 	mov	r0, r3
   1a5b0:	e3a0102d 	mov	r1, #45	; 0x2d
   1a5b4:	ebffd5fb 	bl	fda8 <Xil_Out32>
   1a5b8:	ea000000 	b	1a5c0 <SendData+0x158>
   1a5bc:	eaffffef 	b	1a580 <SendData+0x118>
   1a5c0:	e51b3018 	ldr	r3, [fp, #-24]	; 0xffffffe8
   1a5c4:	e2834020 	add	r4, r3, #32
   1a5c8:	e51b3018 	ldr	r3, [fp, #-24]	; 0xffffffe8
   1a5cc:	e2833020 	add	r3, r3, #32
   1a5d0:	e1a00003 	mov	r0, r3
   1a5d4:	ebffd5d1 	bl	fd20 <Xil_In32>
   1a5d8:	e1a03000 	mov	r3, r0
   1a5dc:	e2033004 	and	r3, r3, #4
   1a5e0:	e1a00004 	mov	r0, r4
   1a5e4:	e1a01003 	mov	r1, r3
   1a5e8:	ebffd5ee 	bl	fda8 <Xil_Out32>
   1a5ec:	e51b3020 	ldr	r3, [fp, #-32]	; 0xffffffe0
   1a5f0:	e2433001 	sub	r3, r3, #1
   1a5f4:	e50b3020 	str	r3, [fp, #-32]	; 0xffffffe0
   1a5f8:	e51b3020 	ldr	r3, [fp, #-32]	; 0xffffffe0
   1a5fc:	e3530000 	cmp	r3, #0
   1a600:	1affffa0 	bne	1a488 <SendData+0x20>
   1a604:	e55b3021 	ldrb	r3, [fp, #-33]	; 0xffffffdf
   1a608:	e3530000 	cmp	r3, #0
   1a60c:	1a000009 	bne	1a638 <SendData+0x1d0>
   1a610:	e51b3018 	ldr	r3, [fp, #-24]	; 0xffffffe8
   1a614:	e2833020 	add	r3, r3, #32
   1a618:	e1a00003 	mov	r0, r3
   1a61c:	ebffd5bf 	bl	fd20 <Xil_In32>
   1a620:	e1a03000 	mov	r3, r0
   1a624:	e2033010 	and	r3, r3, #16
   1a628:	e3530000 	cmp	r3, #0
   1a62c:	0a000000 	beq	1a634 <SendData+0x1cc>
   1a630:	ea000000 	b	1a638 <SendData+0x1d0>
   1a634:	eafffff5 	b	1a610 <SendData+0x1a8>
   1a638:	e51b3020 	ldr	r3, [fp, #-32]	; 0xffffffe0
   1a63c:	e1a00003 	mov	r0, r3
   1a640:	e24bd008 	sub	sp, fp, #8
   1a644:	e8bd8810 	pop	{r4, fp, pc}

0001a648 <XIic_DynRecv>:
   1a648:	e92d4810 	push	{r4, fp, lr}
   1a64c:	e28db008 	add	fp, sp, #8
   1a650:	e24dd024 	sub	sp, sp, #36	; 0x24
   1a654:	e50b0020 	str	r0, [fp, #-32]	; 0xffffffe0
   1a658:	e50b2028 	str	r2, [fp, #-40]	; 0xffffffd8
   1a65c:	e1a02003 	mov	r2, r3
   1a660:	e1a03001 	mov	r3, r1
   1a664:	e54b3021 	strb	r3, [fp, #-33]	; 0xffffffdf
   1a668:	e1a03002 	mov	r3, r2
   1a66c:	e54b3022 	strb	r3, [fp, #-34]	; 0xffffffde
   1a670:	e51b3020 	ldr	r3, [fp, #-32]	; 0xffffffe0
   1a674:	e2834020 	add	r4, r3, #32
   1a678:	e51b3020 	ldr	r3, [fp, #-32]	; 0xffffffe0
   1a67c:	e2833020 	add	r3, r3, #32
   1a680:	e1a00003 	mov	r0, r3
   1a684:	ebffd5a5 	bl	fd20 <Xil_In32>
   1a688:	e1a03000 	mov	r3, r0
   1a68c:	e2033007 	and	r3, r3, #7
   1a690:	e1a00004 	mov	r0, r4
   1a694:	e1a01003 	mov	r1, r3
   1a698:	ebffd5c2 	bl	fda8 <Xil_Out32>
   1a69c:	e55b3021 	ldrb	r3, [fp, #-33]	; 0xffffffdf
   1a6a0:	e1a03083 	lsl	r3, r3, #1
   1a6a4:	e54b3011 	strb	r3, [fp, #-17]	; 0xffffffef
   1a6a8:	e55b3011 	ldrb	r3, [fp, #-17]	; 0xffffffef
   1a6ac:	e3833001 	orr	r3, r3, #1
   1a6b0:	e54b3011 	strb	r3, [fp, #-17]	; 0xffffffef
   1a6b4:	e51b3020 	ldr	r3, [fp, #-32]	; 0xffffffe0
   1a6b8:	e2832f42 	add	r2, r3, #264	; 0x108
   1a6bc:	e55b3011 	ldrb	r3, [fp, #-17]	; 0xffffffef
   1a6c0:	e3833c01 	orr	r3, r3, #256	; 0x100
   1a6c4:	e1a00002 	mov	r0, r2
   1a6c8:	e1a01003 	mov	r1, r3
   1a6cc:	ebffd5b5 	bl	fda8 <Xil_Out32>
   1a6d0:	e51b3020 	ldr	r3, [fp, #-32]	; 0xffffffe0
   1a6d4:	e2833f41 	add	r3, r3, #260	; 0x104
   1a6d8:	e1a00003 	mov	r0, r3
   1a6dc:	ebffd58f 	bl	fd20 <Xil_In32>
   1a6e0:	e50b0010 	str	r0, [fp, #-16]
   1a6e4:	ea000004 	b	1a6fc <XIic_DynRecv+0xb4>
   1a6e8:	e51b3020 	ldr	r3, [fp, #-32]	; 0xffffffe0
   1a6ec:	e2833f41 	add	r3, r3, #260	; 0x104
   1a6f0:	e1a00003 	mov	r0, r3
   1a6f4:	ebffd589 	bl	fd20 <Xil_In32>
   1a6f8:	e50b0010 	str	r0, [fp, #-16]
   1a6fc:	e51b3010 	ldr	r3, [fp, #-16]
   1a700:	e2033004 	and	r3, r3, #4
   1a704:	e3530000 	cmp	r3, #0
   1a708:	0afffff6 	beq	1a6e8 <XIic_DynRecv+0xa0>
   1a70c:	e51b3020 	ldr	r3, [fp, #-32]	; 0xffffffe0
   1a710:	e2834020 	add	r4, r3, #32
   1a714:	e51b3020 	ldr	r3, [fp, #-32]	; 0xffffffe0
   1a718:	e2833020 	add	r3, r3, #32
   1a71c:	e1a00003 	mov	r0, r3
   1a720:	ebffd57e 	bl	fd20 <Xil_In32>
   1a724:	e1a03000 	mov	r3, r0
   1a728:	e2033010 	and	r3, r3, #16
   1a72c:	e1a00004 	mov	r0, r4
   1a730:	e1a01003 	mov	r1, r3
   1a734:	ebffd59b 	bl	fda8 <Xil_Out32>
   1a738:	e51b3020 	ldr	r3, [fp, #-32]	; 0xffffffe0
   1a73c:	e2832f42 	add	r2, r3, #264	; 0x108
   1a740:	e55b3022 	ldrb	r3, [fp, #-34]	; 0xffffffde
   1a744:	e3833c02 	orr	r3, r3, #512	; 0x200
   1a748:	e1a00002 	mov	r0, r2
   1a74c:	e1a01003 	mov	r1, r3
   1a750:	ebffd594 	bl	fda8 <Xil_Out32>
   1a754:	e55b3022 	ldrb	r3, [fp, #-34]	; 0xffffffde
   1a758:	e51b0020 	ldr	r0, [fp, #-32]	; 0xffffffe0
   1a75c:	e51b1028 	ldr	r1, [fp, #-40]	; 0xffffffd8
   1a760:	e1a02003 	mov	r2, r3
   1a764:	eb000006 	bl	1a784 <DynRecvData>
   1a768:	e50b0018 	str	r0, [fp, #-24]	; 0xffffffe8
   1a76c:	e55b2022 	ldrb	r2, [fp, #-34]	; 0xffffffde
   1a770:	e51b3018 	ldr	r3, [fp, #-24]	; 0xffffffe8
   1a774:	e0633002 	rsb	r3, r3, r2
   1a778:	e1a00003 	mov	r0, r3
   1a77c:	e24bd008 	sub	sp, fp, #8
   1a780:	e8bd8810 	pop	{r4, fp, pc}

0001a784 <DynRecvData>:
   1a784:	e92d4810 	push	{r4, fp, lr}
   1a788:	e28db008 	add	fp, sp, #8
   1a78c:	e24dd024 	sub	sp, sp, #36	; 0x24
   1a790:	e50b0020 	str	r0, [fp, #-32]	; 0xffffffe0
   1a794:	e50b1024 	str	r1, [fp, #-36]	; 0xffffffdc
   1a798:	e1a03002 	mov	r3, r2
   1a79c:	e54b3025 	strb	r3, [fp, #-37]	; 0xffffffdb
   1a7a0:	ea00002b 	b	1a854 <DynRecvData+0xd0>
   1a7a4:	e55b3025 	ldrb	r3, [fp, #-37]	; 0xffffffdb
   1a7a8:	e3530001 	cmp	r3, #1
   1a7ac:	1a000002 	bne	1a7bc <DynRecvData+0x38>
   1a7b0:	e3a03011 	mov	r3, #17
   1a7b4:	e50b3010 	str	r3, [fp, #-16]
   1a7b8:	ea000001 	b	1a7c4 <DynRecvData+0x40>
   1a7bc:	e3a03013 	mov	r3, #19
   1a7c0:	e50b3010 	str	r3, [fp, #-16]
   1a7c4:	e51b3020 	ldr	r3, [fp, #-32]	; 0xffffffe0
   1a7c8:	e2833020 	add	r3, r3, #32
   1a7cc:	e1a00003 	mov	r0, r3
   1a7d0:	ebffd552 	bl	fd20 <Xil_In32>
   1a7d4:	e50b0014 	str	r0, [fp, #-20]	; 0xffffffec
   1a7d8:	e51b3020 	ldr	r3, [fp, #-32]	; 0xffffffe0
   1a7dc:	e2833f41 	add	r3, r3, #260	; 0x104
   1a7e0:	e1a00003 	mov	r0, r3
   1a7e4:	ebffd54d 	bl	fd20 <Xil_In32>
   1a7e8:	e50b0018 	str	r0, [fp, #-24]	; 0xffffffe8
   1a7ec:	e51b3018 	ldr	r3, [fp, #-24]	; 0xffffffe8
   1a7f0:	e2033040 	and	r3, r3, #64	; 0x40
   1a7f4:	e3530000 	cmp	r3, #0
   1a7f8:	1a000000 	bne	1a800 <DynRecvData+0x7c>
   1a7fc:	ea000007 	b	1a820 <DynRecvData+0x9c>
   1a800:	e51b2014 	ldr	r2, [fp, #-20]	; 0xffffffec
   1a804:	e51b3010 	ldr	r3, [fp, #-16]
   1a808:	e0033002 	and	r3, r3, r2
   1a80c:	e3530000 	cmp	r3, #0
   1a810:	0a000001 	beq	1a81c <DynRecvData+0x98>
   1a814:	e55b3025 	ldrb	r3, [fp, #-37]	; 0xffffffdb
   1a818:	ea000011 	b	1a864 <DynRecvData+0xe0>
   1a81c:	eaffffe8 	b	1a7c4 <DynRecvData+0x40>
   1a820:	e51b4024 	ldr	r4, [fp, #-36]	; 0xffffffdc
   1a824:	e2843001 	add	r3, r4, #1
   1a828:	e50b3024 	str	r3, [fp, #-36]	; 0xffffffdc
   1a82c:	e51b3020 	ldr	r3, [fp, #-32]	; 0xffffffe0
   1a830:	e2833f43 	add	r3, r3, #268	; 0x10c
   1a834:	e1a00003 	mov	r0, r3
   1a838:	ebffd538 	bl	fd20 <Xil_In32>
   1a83c:	e1a03000 	mov	r3, r0
   1a840:	e6ef3073 	uxtb	r3, r3
   1a844:	e5c43000 	strb	r3, [r4]
   1a848:	e55b3025 	ldrb	r3, [fp, #-37]	; 0xffffffdb
   1a84c:	e2433001 	sub	r3, r3, #1
   1a850:	e54b3025 	strb	r3, [fp, #-37]	; 0xffffffdb
   1a854:	e55b3025 	ldrb	r3, [fp, #-37]	; 0xffffffdb
   1a858:	e3530000 	cmp	r3, #0
   1a85c:	1affffd0 	bne	1a7a4 <DynRecvData+0x20>
   1a860:	e55b3025 	ldrb	r3, [fp, #-37]	; 0xffffffdb
   1a864:	e1a00003 	mov	r0, r3
   1a868:	e24bd008 	sub	sp, fp, #8
   1a86c:	e8bd8810 	pop	{r4, fp, pc}

0001a870 <XIic_DynSend>:
   1a870:	e92d4810 	push	{r4, fp, lr}
   1a874:	e28db008 	add	fp, sp, #8
   1a878:	e24dd024 	sub	sp, sp, #36	; 0x24
   1a87c:	e50b0020 	str	r0, [fp, #-32]	; 0xffffffe0
   1a880:	e50b2028 	str	r2, [fp, #-40]	; 0xffffffd8
   1a884:	e14b12b2 	strh	r1, [fp, #-34]	; 0xffffffde
   1a888:	e54b3023 	strb	r3, [fp, #-35]	; 0xffffffdd
   1a88c:	e51b3020 	ldr	r3, [fp, #-32]	; 0xffffffe0
   1a890:	e2834020 	add	r4, r3, #32
   1a894:	e51b3020 	ldr	r3, [fp, #-32]	; 0xffffffe0
   1a898:	e2833020 	add	r3, r3, #32
   1a89c:	e1a00003 	mov	r0, r3
   1a8a0:	ebffd51e 	bl	fd20 <Xil_In32>
   1a8a4:	e1a03000 	mov	r3, r0
   1a8a8:	e2033007 	and	r3, r3, #7
   1a8ac:	e1a00004 	mov	r0, r4
   1a8b0:	e1a01003 	mov	r1, r3
   1a8b4:	ebffd53b 	bl	fda8 <Xil_Out32>
   1a8b8:	e15b32b2 	ldrh	r3, [fp, #-34]	; 0xffffffde
   1a8bc:	e2033c02 	and	r3, r3, #512	; 0x200
   1a8c0:	e3530000 	cmp	r3, #0
   1a8c4:	1a00000e 	bne	1a904 <XIic_DynSend+0x94>
   1a8c8:	e15b32b2 	ldrh	r3, [fp, #-34]	; 0xffffffde
   1a8cc:	e6ef3073 	uxtb	r3, r3
   1a8d0:	e1a03083 	lsl	r3, r3, #1
   1a8d4:	e54b3011 	strb	r3, [fp, #-17]	; 0xffffffef
   1a8d8:	e55b3011 	ldrb	r3, [fp, #-17]	; 0xffffffef
   1a8dc:	e3c33001 	bic	r3, r3, #1
   1a8e0:	e54b3011 	strb	r3, [fp, #-17]	; 0xffffffef
   1a8e4:	e51b3020 	ldr	r3, [fp, #-32]	; 0xffffffe0
   1a8e8:	e2832f42 	add	r2, r3, #264	; 0x108
   1a8ec:	e55b3011 	ldrb	r3, [fp, #-17]	; 0xffffffef
   1a8f0:	e3833c01 	orr	r3, r3, #256	; 0x100
   1a8f4:	e1a00002 	mov	r0, r2
   1a8f8:	e1a01003 	mov	r1, r3
   1a8fc:	ebffd529 	bl	fda8 <Xil_Out32>
   1a900:	ea00000d 	b	1a93c <XIic_DynSend+0xcc>
   1a904:	e15b32b2 	ldrh	r3, [fp, #-34]	; 0xffffffde
   1a908:	e6ef3073 	uxtb	r3, r3
   1a90c:	e1a03083 	lsl	r3, r3, #1
   1a910:	e54b3012 	strb	r3, [fp, #-18]	; 0xffffffee
   1a914:	e55b3012 	ldrb	r3, [fp, #-18]	; 0xffffffee
   1a918:	e3c33001 	bic	r3, r3, #1
   1a91c:	e54b3012 	strb	r3, [fp, #-18]	; 0xffffffee
   1a920:	e51b3020 	ldr	r3, [fp, #-32]	; 0xffffffe0
   1a924:	e2832f42 	add	r2, r3, #264	; 0x108
   1a928:	e55b3012 	ldrb	r3, [fp, #-18]	; 0xffffffee
   1a92c:	e3833c03 	orr	r3, r3, #768	; 0x300
   1a930:	e1a00002 	mov	r0, r2
   1a934:	e1a01003 	mov	r1, r3
   1a938:	ebffd51a 	bl	fda8 <Xil_Out32>
   1a93c:	e51b3020 	ldr	r3, [fp, #-32]	; 0xffffffe0
   1a940:	e2833f41 	add	r3, r3, #260	; 0x104
   1a944:	e1a00003 	mov	r0, r3
   1a948:	ebffd4f4 	bl	fd20 <Xil_In32>
   1a94c:	e50b0010 	str	r0, [fp, #-16]
   1a950:	ea000004 	b	1a968 <XIic_DynSend+0xf8>
   1a954:	e51b3020 	ldr	r3, [fp, #-32]	; 0xffffffe0
   1a958:	e2833f41 	add	r3, r3, #260	; 0x104
   1a95c:	e1a00003 	mov	r0, r3
   1a960:	ebffd4ee 	bl	fd20 <Xil_In32>
   1a964:	e50b0010 	str	r0, [fp, #-16]
   1a968:	e51b3010 	ldr	r3, [fp, #-16]
   1a96c:	e2033004 	and	r3, r3, #4
   1a970:	e3530000 	cmp	r3, #0
   1a974:	0afffff6 	beq	1a954 <XIic_DynSend+0xe4>
   1a978:	e51b3020 	ldr	r3, [fp, #-32]	; 0xffffffe0
   1a97c:	e2834020 	add	r4, r3, #32
   1a980:	e51b3020 	ldr	r3, [fp, #-32]	; 0xffffffe0
   1a984:	e2833020 	add	r3, r3, #32
   1a988:	e1a00003 	mov	r0, r3
   1a98c:	ebffd4e3 	bl	fd20 <Xil_In32>
   1a990:	e1a03000 	mov	r3, r0
   1a994:	e2033010 	and	r3, r3, #16
   1a998:	e1a00004 	mov	r0, r4
   1a99c:	e1a01003 	mov	r1, r3
   1a9a0:	ebffd500 	bl	fda8 <Xil_Out32>
   1a9a4:	e55b2023 	ldrb	r2, [fp, #-35]	; 0xffffffdd
   1a9a8:	e5db3004 	ldrb	r3, [fp, #4]
   1a9ac:	e51b0020 	ldr	r0, [fp, #-32]	; 0xffffffe0
   1a9b0:	e51b1028 	ldr	r1, [fp, #-40]	; 0xffffffd8
   1a9b4:	eb000006 	bl	1a9d4 <DynSendData>
   1a9b8:	e50b0018 	str	r0, [fp, #-24]	; 0xffffffe8
   1a9bc:	e55b2023 	ldrb	r2, [fp, #-35]	; 0xffffffdd
   1a9c0:	e51b3018 	ldr	r3, [fp, #-24]	; 0xffffffe8
   1a9c4:	e0633002 	rsb	r3, r3, r2
   1a9c8:	e1a00003 	mov	r0, r3
   1a9cc:	e24bd008 	sub	sp, fp, #8
   1a9d0:	e8bd8810 	pop	{r4, fp, pc}

0001a9d4 <DynSendData>:
   1a9d4:	e92d4800 	push	{fp, lr}
   1a9d8:	e28db004 	add	fp, sp, #4
   1a9dc:	e24dd018 	sub	sp, sp, #24
   1a9e0:	e50b0010 	str	r0, [fp, #-16]
   1a9e4:	e50b1014 	str	r1, [fp, #-20]	; 0xffffffec
   1a9e8:	e1a01002 	mov	r1, r2
   1a9ec:	e1a02003 	mov	r2, r3
   1a9f0:	e1a03001 	mov	r3, r1
   1a9f4:	e54b3015 	strb	r3, [fp, #-21]	; 0xffffffeb
   1a9f8:	e1a03002 	mov	r3, r2
   1a9fc:	e54b3016 	strb	r3, [fp, #-22]	; 0xffffffea
   1aa00:	ea000038 	b	1aae8 <DynSendData+0x114>
   1aa04:	e51b3010 	ldr	r3, [fp, #-16]
   1aa08:	e2833020 	add	r3, r3, #32
   1aa0c:	e1a00003 	mov	r0, r3
   1aa10:	ebffd4c2 	bl	fd20 <Xil_In32>
   1aa14:	e50b0008 	str	r0, [fp, #-8]
   1aa18:	e51b3008 	ldr	r3, [fp, #-8]
   1aa1c:	e2033013 	and	r3, r3, #19
   1aa20:	e3530000 	cmp	r3, #0
   1aa24:	0a00000b 	beq	1aa58 <DynSendData+0x84>
   1aa28:	e51b3010 	ldr	r3, [fp, #-16]
   1aa2c:	e2833c01 	add	r3, r3, #256	; 0x100
   1aa30:	e1a00003 	mov	r0, r3
   1aa34:	e3a01003 	mov	r1, #3
   1aa38:	ebffd4da 	bl	fda8 <Xil_Out32>
   1aa3c:	e51b3010 	ldr	r3, [fp, #-16]
   1aa40:	e2833c01 	add	r3, r3, #256	; 0x100
   1aa44:	e1a00003 	mov	r0, r3
   1aa48:	e3a01001 	mov	r1, #1
   1aa4c:	ebffd4d5 	bl	fda8 <Xil_Out32>
   1aa50:	e55b3015 	ldrb	r3, [fp, #-21]	; 0xffffffeb
   1aa54:	ea000034 	b	1ab2c <DynSendData+0x158>
   1aa58:	e51b3008 	ldr	r3, [fp, #-8]
   1aa5c:	e2033004 	and	r3, r3, #4
   1aa60:	e3530000 	cmp	r3, #0
   1aa64:	0a000004 	beq	1aa7c <DynSendData+0xa8>
   1aa68:	e1a00000 	nop			; (mov r0, r0)
   1aa6c:	e55b3015 	ldrb	r3, [fp, #-21]	; 0xffffffeb
   1aa70:	e3530001 	cmp	r3, #1
   1aa74:	1a00000f 	bne	1aab8 <DynSendData+0xe4>
   1aa78:	ea000000 	b	1aa80 <DynSendData+0xac>
   1aa7c:	eaffffe0 	b	1aa04 <DynSendData+0x30>
   1aa80:	e55b3016 	ldrb	r3, [fp, #-22]	; 0xffffffea
   1aa84:	e3530000 	cmp	r3, #0
   1aa88:	1a00000a 	bne	1aab8 <DynSendData+0xe4>
   1aa8c:	e51b3010 	ldr	r3, [fp, #-16]
   1aa90:	e2831f42 	add	r1, r3, #264	; 0x108
   1aa94:	e51b3014 	ldr	r3, [fp, #-20]	; 0xffffffec
   1aa98:	e2832001 	add	r2, r3, #1
   1aa9c:	e50b2014 	str	r2, [fp, #-20]	; 0xffffffec
   1aaa0:	e5d33000 	ldrb	r3, [r3]
   1aaa4:	e3833c02 	orr	r3, r3, #512	; 0x200
   1aaa8:	e1a00001 	mov	r0, r1
   1aaac:	e1a01003 	mov	r1, r3
   1aab0:	ebffd4bc 	bl	fda8 <Xil_Out32>
   1aab4:	ea000008 	b	1aadc <DynSendData+0x108>
   1aab8:	e51b3010 	ldr	r3, [fp, #-16]
   1aabc:	e2831f42 	add	r1, r3, #264	; 0x108
   1aac0:	e51b3014 	ldr	r3, [fp, #-20]	; 0xffffffec
   1aac4:	e2832001 	add	r2, r3, #1
   1aac8:	e50b2014 	str	r2, [fp, #-20]	; 0xffffffec
   1aacc:	e5d33000 	ldrb	r3, [r3]
   1aad0:	e1a00001 	mov	r0, r1
   1aad4:	e1a01003 	mov	r1, r3
   1aad8:	ebffd4b2 	bl	fda8 <Xil_Out32>
   1aadc:	e55b3015 	ldrb	r3, [fp, #-21]	; 0xffffffeb
   1aae0:	e2433001 	sub	r3, r3, #1
   1aae4:	e54b3015 	strb	r3, [fp, #-21]	; 0xffffffeb
   1aae8:	e55b3015 	ldrb	r3, [fp, #-21]	; 0xffffffeb
   1aaec:	e3530000 	cmp	r3, #0
   1aaf0:	1affffc3 	bne	1aa04 <DynSendData+0x30>
   1aaf4:	e55b3016 	ldrb	r3, [fp, #-22]	; 0xffffffea
   1aaf8:	e3530000 	cmp	r3, #0
   1aafc:	1a000009 	bne	1ab28 <DynSendData+0x154>
   1ab00:	e51b3010 	ldr	r3, [fp, #-16]
   1ab04:	e2833020 	add	r3, r3, #32
   1ab08:	e1a00003 	mov	r0, r3
   1ab0c:	ebffd483 	bl	fd20 <Xil_In32>
   1ab10:	e1a03000 	mov	r3, r0
   1ab14:	e2033010 	and	r3, r3, #16
   1ab18:	e3530000 	cmp	r3, #0
   1ab1c:	0a000000 	beq	1ab24 <DynSendData+0x150>
   1ab20:	ea000000 	b	1ab28 <DynSendData+0x154>
   1ab24:	eafffff5 	b	1ab00 <DynSendData+0x12c>
   1ab28:	e55b3015 	ldrb	r3, [fp, #-21]	; 0xffffffeb
   1ab2c:	e1a00003 	mov	r0, r3
   1ab30:	e24bd004 	sub	sp, fp, #4
   1ab34:	e8bd8800 	pop	{fp, pc}

0001ab38 <XIic_DynInit>:
   1ab38:	e92d4800 	push	{fp, lr}
   1ab3c:	e28db004 	add	fp, sp, #4
   1ab40:	e24dd010 	sub	sp, sp, #16
   1ab44:	e50b0010 	str	r0, [fp, #-16]
   1ab48:	e51b3010 	ldr	r3, [fp, #-16]
   1ab4c:	e2833040 	add	r3, r3, #64	; 0x40
   1ab50:	e1a00003 	mov	r0, r3
   1ab54:	e3a0100a 	mov	r1, #10
   1ab58:	ebffd492 	bl	fda8 <Xil_Out32>
   1ab5c:	e51b3010 	ldr	r3, [fp, #-16]
   1ab60:	e2833e12 	add	r3, r3, #288	; 0x120
   1ab64:	e1a00003 	mov	r0, r3
   1ab68:	e3a0100f 	mov	r1, #15
   1ab6c:	ebffd48d 	bl	fda8 <Xil_Out32>
   1ab70:	e51b3010 	ldr	r3, [fp, #-16]
   1ab74:	e2833c01 	add	r3, r3, #256	; 0x100
   1ab78:	e1a00003 	mov	r0, r3
   1ab7c:	e3a01002 	mov	r1, #2
   1ab80:	ebffd488 	bl	fda8 <Xil_Out32>
   1ab84:	e51b3010 	ldr	r3, [fp, #-16]
   1ab88:	e2833c01 	add	r3, r3, #256	; 0x100
   1ab8c:	e1a00003 	mov	r0, r3
   1ab90:	e3a01001 	mov	r1, #1
   1ab94:	ebffd483 	bl	fda8 <Xil_Out32>
   1ab98:	e51b3010 	ldr	r3, [fp, #-16]
   1ab9c:	e2833f41 	add	r3, r3, #260	; 0x104
   1aba0:	e1a00003 	mov	r0, r3
   1aba4:	ebffd45d 	bl	fd20 <Xil_In32>
   1aba8:	e50b0008 	str	r0, [fp, #-8]
   1abac:	e51b3008 	ldr	r3, [fp, #-8]
   1abb0:	e35300c0 	cmp	r3, #192	; 0xc0
   1abb4:	1a000001 	bne	1abc0 <XIic_DynInit+0x88>
   1abb8:	e3a03000 	mov	r3, #0
   1abbc:	ea000000 	b	1abc4 <XIic_DynInit+0x8c>
   1abc0:	e3a03001 	mov	r3, #1
   1abc4:	e1a00003 	mov	r0, r3
   1abc8:	e24bd004 	sub	sp, fp, #4
   1abcc:	e8bd8800 	pop	{fp, pc}

0001abd0 <__aeabi_uidiv>:
   1abd0:	e2512001 	subs	r2, r1, #1
   1abd4:	012fff1e 	bxeq	lr
   1abd8:	3a000074 	bcc	1adb0 <__aeabi_uidiv+0x1e0>
   1abdc:	e1500001 	cmp	r0, r1
   1abe0:	9a00006b 	bls	1ad94 <__aeabi_uidiv+0x1c4>
   1abe4:	e1110002 	tst	r1, r2
   1abe8:	0a00006c 	beq	1ada0 <__aeabi_uidiv+0x1d0>
   1abec:	e16f3f10 	clz	r3, r0
   1abf0:	e16f2f11 	clz	r2, r1
   1abf4:	e0423003 	sub	r3, r2, r3
   1abf8:	e273301f 	rsbs	r3, r3, #31
   1abfc:	10833083 	addne	r3, r3, r3, lsl #1
   1ac00:	e3a02000 	mov	r2, #0
   1ac04:	108ff103 	addne	pc, pc, r3, lsl #2
   1ac08:	e1a00000 	nop			; (mov r0, r0)
   1ac0c:	e1500f81 	cmp	r0, r1, lsl #31
   1ac10:	e0a22002 	adc	r2, r2, r2
   1ac14:	20400f81 	subcs	r0, r0, r1, lsl #31
   1ac18:	e1500f01 	cmp	r0, r1, lsl #30
   1ac1c:	e0a22002 	adc	r2, r2, r2
   1ac20:	20400f01 	subcs	r0, r0, r1, lsl #30
   1ac24:	e1500e81 	cmp	r0, r1, lsl #29
   1ac28:	e0a22002 	adc	r2, r2, r2
   1ac2c:	20400e81 	subcs	r0, r0, r1, lsl #29
   1ac30:	e1500e01 	cmp	r0, r1, lsl #28
   1ac34:	e0a22002 	adc	r2, r2, r2
   1ac38:	20400e01 	subcs	r0, r0, r1, lsl #28
   1ac3c:	e1500d81 	cmp	r0, r1, lsl #27
   1ac40:	e0a22002 	adc	r2, r2, r2
   1ac44:	20400d81 	subcs	r0, r0, r1, lsl #27
   1ac48:	e1500d01 	cmp	r0, r1, lsl #26
   1ac4c:	e0a22002 	adc	r2, r2, r2
   1ac50:	20400d01 	subcs	r0, r0, r1, lsl #26
   1ac54:	e1500c81 	cmp	r0, r1, lsl #25
   1ac58:	e0a22002 	adc	r2, r2, r2
   1ac5c:	20400c81 	subcs	r0, r0, r1, lsl #25
   1ac60:	e1500c01 	cmp	r0, r1, lsl #24
   1ac64:	e0a22002 	adc	r2, r2, r2
   1ac68:	20400c01 	subcs	r0, r0, r1, lsl #24
   1ac6c:	e1500b81 	cmp	r0, r1, lsl #23
   1ac70:	e0a22002 	adc	r2, r2, r2
   1ac74:	20400b81 	subcs	r0, r0, r1, lsl #23
   1ac78:	e1500b01 	cmp	r0, r1, lsl #22
   1ac7c:	e0a22002 	adc	r2, r2, r2
   1ac80:	20400b01 	subcs	r0, r0, r1, lsl #22
   1ac84:	e1500a81 	cmp	r0, r1, lsl #21
   1ac88:	e0a22002 	adc	r2, r2, r2
   1ac8c:	20400a81 	subcs	r0, r0, r1, lsl #21
   1ac90:	e1500a01 	cmp	r0, r1, lsl #20
   1ac94:	e0a22002 	adc	r2, r2, r2
   1ac98:	20400a01 	subcs	r0, r0, r1, lsl #20
   1ac9c:	e1500981 	cmp	r0, r1, lsl #19
   1aca0:	e0a22002 	adc	r2, r2, r2
   1aca4:	20400981 	subcs	r0, r0, r1, lsl #19
   1aca8:	e1500901 	cmp	r0, r1, lsl #18
   1acac:	e0a22002 	adc	r2, r2, r2
   1acb0:	20400901 	subcs	r0, r0, r1, lsl #18
   1acb4:	e1500881 	cmp	r0, r1, lsl #17
   1acb8:	e0a22002 	adc	r2, r2, r2
   1acbc:	20400881 	subcs	r0, r0, r1, lsl #17
   1acc0:	e1500801 	cmp	r0, r1, lsl #16
   1acc4:	e0a22002 	adc	r2, r2, r2
   1acc8:	20400801 	subcs	r0, r0, r1, lsl #16
   1accc:	e1500781 	cmp	r0, r1, lsl #15
   1acd0:	e0a22002 	adc	r2, r2, r2
   1acd4:	20400781 	subcs	r0, r0, r1, lsl #15
   1acd8:	e1500701 	cmp	r0, r1, lsl #14
   1acdc:	e0a22002 	adc	r2, r2, r2
   1ace0:	20400701 	subcs	r0, r0, r1, lsl #14
   1ace4:	e1500681 	cmp	r0, r1, lsl #13
   1ace8:	e0a22002 	adc	r2, r2, r2
   1acec:	20400681 	subcs	r0, r0, r1, lsl #13
   1acf0:	e1500601 	cmp	r0, r1, lsl #12
   1acf4:	e0a22002 	adc	r2, r2, r2
   1acf8:	20400601 	subcs	r0, r0, r1, lsl #12
   1acfc:	e1500581 	cmp	r0, r1, lsl #11
   1ad00:	e0a22002 	adc	r2, r2, r2
   1ad04:	20400581 	subcs	r0, r0, r1, lsl #11
   1ad08:	e1500501 	cmp	r0, r1, lsl #10
   1ad0c:	e0a22002 	adc	r2, r2, r2
   1ad10:	20400501 	subcs	r0, r0, r1, lsl #10
   1ad14:	e1500481 	cmp	r0, r1, lsl #9
   1ad18:	e0a22002 	adc	r2, r2, r2
   1ad1c:	20400481 	subcs	r0, r0, r1, lsl #9
   1ad20:	e1500401 	cmp	r0, r1, lsl #8
   1ad24:	e0a22002 	adc	r2, r2, r2
   1ad28:	20400401 	subcs	r0, r0, r1, lsl #8
   1ad2c:	e1500381 	cmp	r0, r1, lsl #7
   1ad30:	e0a22002 	adc	r2, r2, r2
   1ad34:	20400381 	subcs	r0, r0, r1, lsl #7
   1ad38:	e1500301 	cmp	r0, r1, lsl #6
   1ad3c:	e0a22002 	adc	r2, r2, r2
   1ad40:	20400301 	subcs	r0, r0, r1, lsl #6
   1ad44:	e1500281 	cmp	r0, r1, lsl #5
   1ad48:	e0a22002 	adc	r2, r2, r2
   1ad4c:	20400281 	subcs	r0, r0, r1, lsl #5
   1ad50:	e1500201 	cmp	r0, r1, lsl #4
   1ad54:	e0a22002 	adc	r2, r2, r2
   1ad58:	20400201 	subcs	r0, r0, r1, lsl #4
   1ad5c:	e1500181 	cmp	r0, r1, lsl #3
   1ad60:	e0a22002 	adc	r2, r2, r2
   1ad64:	20400181 	subcs	r0, r0, r1, lsl #3
   1ad68:	e1500101 	cmp	r0, r1, lsl #2
   1ad6c:	e0a22002 	adc	r2, r2, r2
   1ad70:	20400101 	subcs	r0, r0, r1, lsl #2
   1ad74:	e1500081 	cmp	r0, r1, lsl #1
   1ad78:	e0a22002 	adc	r2, r2, r2
   1ad7c:	20400081 	subcs	r0, r0, r1, lsl #1
   1ad80:	e1500001 	cmp	r0, r1
   1ad84:	e0a22002 	adc	r2, r2, r2
   1ad88:	20400001 	subcs	r0, r0, r1
   1ad8c:	e1a00002 	mov	r0, r2
   1ad90:	e12fff1e 	bx	lr
   1ad94:	03a00001 	moveq	r0, #1
   1ad98:	13a00000 	movne	r0, #0
   1ad9c:	e12fff1e 	bx	lr
   1ada0:	e16f2f11 	clz	r2, r1
   1ada4:	e262201f 	rsb	r2, r2, #31
   1ada8:	e1a00230 	lsr	r0, r0, r2
   1adac:	e12fff1e 	bx	lr
   1adb0:	e3500000 	cmp	r0, #0
   1adb4:	13e00000 	mvnne	r0, #0
   1adb8:	ea000097 	b	1b01c <__aeabi_idiv0>

0001adbc <__aeabi_uidivmod>:
   1adbc:	e3510000 	cmp	r1, #0
   1adc0:	0afffffa 	beq	1adb0 <__aeabi_uidiv+0x1e0>
   1adc4:	e92d4003 	push	{r0, r1, lr}
   1adc8:	ebffff80 	bl	1abd0 <__aeabi_uidiv>
   1adcc:	e8bd4006 	pop	{r1, r2, lr}
   1add0:	e0030092 	mul	r3, r2, r0
   1add4:	e0411003 	sub	r1, r1, r3
   1add8:	e12fff1e 	bx	lr

0001addc <__aeabi_idiv>:
   1addc:	e3510000 	cmp	r1, #0
   1ade0:	0a000081 	beq	1afec <.divsi3_skip_div0_test+0x208>

0001ade4 <.divsi3_skip_div0_test>:
   1ade4:	e020c001 	eor	ip, r0, r1
   1ade8:	42611000 	rsbmi	r1, r1, #0
   1adec:	e2512001 	subs	r2, r1, #1
   1adf0:	0a000070 	beq	1afb8 <.divsi3_skip_div0_test+0x1d4>
   1adf4:	e1b03000 	movs	r3, r0
   1adf8:	42603000 	rsbmi	r3, r0, #0
   1adfc:	e1530001 	cmp	r3, r1
   1ae00:	9a00006f 	bls	1afc4 <.divsi3_skip_div0_test+0x1e0>
   1ae04:	e1110002 	tst	r1, r2
   1ae08:	0a000071 	beq	1afd4 <.divsi3_skip_div0_test+0x1f0>
   1ae0c:	e16f2f13 	clz	r2, r3
   1ae10:	e16f0f11 	clz	r0, r1
   1ae14:	e0402002 	sub	r2, r0, r2
   1ae18:	e272201f 	rsbs	r2, r2, #31
   1ae1c:	10822082 	addne	r2, r2, r2, lsl #1
   1ae20:	e3a00000 	mov	r0, #0
   1ae24:	108ff102 	addne	pc, pc, r2, lsl #2
   1ae28:	e1a00000 	nop			; (mov r0, r0)
   1ae2c:	e1530f81 	cmp	r3, r1, lsl #31
   1ae30:	e0a00000 	adc	r0, r0, r0
   1ae34:	20433f81 	subcs	r3, r3, r1, lsl #31
   1ae38:	e1530f01 	cmp	r3, r1, lsl #30
   1ae3c:	e0a00000 	adc	r0, r0, r0
   1ae40:	20433f01 	subcs	r3, r3, r1, lsl #30
   1ae44:	e1530e81 	cmp	r3, r1, lsl #29
   1ae48:	e0a00000 	adc	r0, r0, r0
   1ae4c:	20433e81 	subcs	r3, r3, r1, lsl #29
   1ae50:	e1530e01 	cmp	r3, r1, lsl #28
   1ae54:	e0a00000 	adc	r0, r0, r0
   1ae58:	20433e01 	subcs	r3, r3, r1, lsl #28
   1ae5c:	e1530d81 	cmp	r3, r1, lsl #27
   1ae60:	e0a00000 	adc	r0, r0, r0
   1ae64:	20433d81 	subcs	r3, r3, r1, lsl #27
   1ae68:	e1530d01 	cmp	r3, r1, lsl #26
   1ae6c:	e0a00000 	adc	r0, r0, r0
   1ae70:	20433d01 	subcs	r3, r3, r1, lsl #26
   1ae74:	e1530c81 	cmp	r3, r1, lsl #25
   1ae78:	e0a00000 	adc	r0, r0, r0
   1ae7c:	20433c81 	subcs	r3, r3, r1, lsl #25
   1ae80:	e1530c01 	cmp	r3, r1, lsl #24
   1ae84:	e0a00000 	adc	r0, r0, r0
   1ae88:	20433c01 	subcs	r3, r3, r1, lsl #24
   1ae8c:	e1530b81 	cmp	r3, r1, lsl #23
   1ae90:	e0a00000 	adc	r0, r0, r0
   1ae94:	20433b81 	subcs	r3, r3, r1, lsl #23
   1ae98:	e1530b01 	cmp	r3, r1, lsl #22
   1ae9c:	e0a00000 	adc	r0, r0, r0
   1aea0:	20433b01 	subcs	r3, r3, r1, lsl #22
   1aea4:	e1530a81 	cmp	r3, r1, lsl #21
   1aea8:	e0a00000 	adc	r0, r0, r0
   1aeac:	20433a81 	subcs	r3, r3, r1, lsl #21
   1aeb0:	e1530a01 	cmp	r3, r1, lsl #20
   1aeb4:	e0a00000 	adc	r0, r0, r0
   1aeb8:	20433a01 	subcs	r3, r3, r1, lsl #20
   1aebc:	e1530981 	cmp	r3, r1, lsl #19
   1aec0:	e0a00000 	adc	r0, r0, r0
   1aec4:	20433981 	subcs	r3, r3, r1, lsl #19
   1aec8:	e1530901 	cmp	r3, r1, lsl #18
   1aecc:	e0a00000 	adc	r0, r0, r0
   1aed0:	20433901 	subcs	r3, r3, r1, lsl #18
   1aed4:	e1530881 	cmp	r3, r1, lsl #17
   1aed8:	e0a00000 	adc	r0, r0, r0
   1aedc:	20433881 	subcs	r3, r3, r1, lsl #17
   1aee0:	e1530801 	cmp	r3, r1, lsl #16
   1aee4:	e0a00000 	adc	r0, r0, r0
   1aee8:	20433801 	subcs	r3, r3, r1, lsl #16
   1aeec:	e1530781 	cmp	r3, r1, lsl #15
   1aef0:	e0a00000 	adc	r0, r0, r0
   1aef4:	20433781 	subcs	r3, r3, r1, lsl #15
   1aef8:	e1530701 	cmp	r3, r1, lsl #14
   1aefc:	e0a00000 	adc	r0, r0, r0
   1af00:	20433701 	subcs	r3, r3, r1, lsl #14
   1af04:	e1530681 	cmp	r3, r1, lsl #13
   1af08:	e0a00000 	adc	r0, r0, r0
   1af0c:	20433681 	subcs	r3, r3, r1, lsl #13
   1af10:	e1530601 	cmp	r3, r1, lsl #12
   1af14:	e0a00000 	adc	r0, r0, r0
   1af18:	20433601 	subcs	r3, r3, r1, lsl #12
   1af1c:	e1530581 	cmp	r3, r1, lsl #11
   1af20:	e0a00000 	adc	r0, r0, r0
   1af24:	20433581 	subcs	r3, r3, r1, lsl #11
   1af28:	e1530501 	cmp	r3, r1, lsl #10
   1af2c:	e0a00000 	adc	r0, r0, r0
   1af30:	20433501 	subcs	r3, r3, r1, lsl #10
   1af34:	e1530481 	cmp	r3, r1, lsl #9
   1af38:	e0a00000 	adc	r0, r0, r0
   1af3c:	20433481 	subcs	r3, r3, r1, lsl #9
   1af40:	e1530401 	cmp	r3, r1, lsl #8
   1af44:	e0a00000 	adc	r0, r0, r0
   1af48:	20433401 	subcs	r3, r3, r1, lsl #8
   1af4c:	e1530381 	cmp	r3, r1, lsl #7
   1af50:	e0a00000 	adc	r0, r0, r0
   1af54:	20433381 	subcs	r3, r3, r1, lsl #7
   1af58:	e1530301 	cmp	r3, r1, lsl #6
   1af5c:	e0a00000 	adc	r0, r0, r0
   1af60:	20433301 	subcs	r3, r3, r1, lsl #6
   1af64:	e1530281 	cmp	r3, r1, lsl #5
   1af68:	e0a00000 	adc	r0, r0, r0
   1af6c:	20433281 	subcs	r3, r3, r1, lsl #5
   1af70:	e1530201 	cmp	r3, r1, lsl #4
   1af74:	e0a00000 	adc	r0, r0, r0
   1af78:	20433201 	subcs	r3, r3, r1, lsl #4
   1af7c:	e1530181 	cmp	r3, r1, lsl #3
   1af80:	e0a00000 	adc	r0, r0, r0
   1af84:	20433181 	subcs	r3, r3, r1, lsl #3
   1af88:	e1530101 	cmp	r3, r1, lsl #2
   1af8c:	e0a00000 	adc	r0, r0, r0
   1af90:	20433101 	subcs	r3, r3, r1, lsl #2
   1af94:	e1530081 	cmp	r3, r1, lsl #1
   1af98:	e0a00000 	adc	r0, r0, r0
   1af9c:	20433081 	subcs	r3, r3, r1, lsl #1
   1afa0:	e1530001 	cmp	r3, r1
   1afa4:	e0a00000 	adc	r0, r0, r0
   1afa8:	20433001 	subcs	r3, r3, r1
   1afac:	e35c0000 	cmp	ip, #0
   1afb0:	42600000 	rsbmi	r0, r0, #0
   1afb4:	e12fff1e 	bx	lr
   1afb8:	e13c0000 	teq	ip, r0
   1afbc:	42600000 	rsbmi	r0, r0, #0
   1afc0:	e12fff1e 	bx	lr
   1afc4:	33a00000 	movcc	r0, #0
   1afc8:	01a00fcc 	asreq	r0, ip, #31
   1afcc:	03800001 	orreq	r0, r0, #1
   1afd0:	e12fff1e 	bx	lr
   1afd4:	e16f2f11 	clz	r2, r1
   1afd8:	e262201f 	rsb	r2, r2, #31
   1afdc:	e35c0000 	cmp	ip, #0
   1afe0:	e1a00233 	lsr	r0, r3, r2
   1afe4:	42600000 	rsbmi	r0, r0, #0
   1afe8:	e12fff1e 	bx	lr
   1afec:	e3500000 	cmp	r0, #0
   1aff0:	c3e00102 	mvngt	r0, #-2147483648	; 0x80000000
   1aff4:	b3a00102 	movlt	r0, #-2147483648	; 0x80000000
   1aff8:	ea000007 	b	1b01c <__aeabi_idiv0>

0001affc <__aeabi_idivmod>:
   1affc:	e3510000 	cmp	r1, #0
   1b000:	0afffff9 	beq	1afec <.divsi3_skip_div0_test+0x208>
   1b004:	e92d4003 	push	{r0, r1, lr}
   1b008:	ebffff75 	bl	1ade4 <.divsi3_skip_div0_test>
   1b00c:	e8bd4006 	pop	{r1, r2, lr}
   1b010:	e0030092 	mul	r3, r2, r0
   1b014:	e0411003 	sub	r1, r1, r3
   1b018:	e12fff1e 	bx	lr

0001b01c <__aeabi_idiv0>:
   1b01c:	e92d4002 	push	{r1, lr}
   1b020:	e3a00008 	mov	r0, #8
   1b024:	ebffb2fe 	bl	7c24 <raise>
   1b028:	e8bd8002 	pop	{r1, pc}

Disassembly of section .rodata:

0001b02c <_ctype>:
   1b02c:	08080808 	stmdaeq	r8, {r3, fp}
   1b030:	08080808 	stmdaeq	r8, {r3, fp}
   1b034:	28282808 	stmdacs	r8!, {r3, fp, sp}
   1b038:	08082828 	stmdaeq	r8, {r3, r5, fp, sp}
   1b03c:	08080808 	stmdaeq	r8, {r3, fp}
   1b040:	08080808 	stmdaeq	r8, {r3, fp}
   1b044:	08080808 	stmdaeq	r8, {r3, fp}
   1b048:	08080808 	stmdaeq	r8, {r3, fp}
   1b04c:	101010a0 	andsne	r1, r0, r0, lsr #1
   1b050:	10101010 	andsne	r1, r0, r0, lsl r0
   1b054:	10101010 	andsne	r1, r0, r0, lsl r0
   1b058:	10101010 	andsne	r1, r0, r0, lsl r0
   1b05c:	04040404 	streq	r0, [r4], #-1028	; 0xfffffbfc
   1b060:	04040404 	streq	r0, [r4], #-1028	; 0xfffffbfc
   1b064:	10100404 	andsne	r0, r0, r4, lsl #8
   1b068:	10101010 	andsne	r1, r0, r0, lsl r0
   1b06c:	41414110 	cmpmi	r1, r0, lsl r1
   1b070:	01414141 	cmpeq	r1, r1, asr #2
   1b074:	01010101 	tsteq	r1, r1, lsl #2
   1b078:	01010101 	tsteq	r1, r1, lsl #2
   1b07c:	01010101 	tsteq	r1, r1, lsl #2
   1b080:	01010101 	tsteq	r1, r1, lsl #2
   1b084:	10010101 	andne	r0, r1, r1, lsl #2
   1b088:	10101010 	andsne	r1, r0, r0, lsl r0
   1b08c:	42424210 	submi	r4, r2, #16, 4
   1b090:	02424242 	subeq	r4, r2, #536870916	; 0x20000004
   1b094:	02020202 	andeq	r0, r2, #536870912	; 0x20000000
   1b098:	02020202 	andeq	r0, r2, #536870912	; 0x20000000
   1b09c:	02020202 	andeq	r0, r2, #536870912	; 0x20000000
   1b0a0:	02020202 	andeq	r0, r2, #536870912	; 0x20000000
   1b0a4:	10020202 	andne	r0, r2, r2, lsl #4
   1b0a8:	08101010 	ldmdaeq	r0, {r4, ip}
	...
   1b0cc:	101010a0 	andsne	r1, r0, r0, lsr #1
   1b0d0:	10101010 	andsne	r1, r0, r0, lsl r0
   1b0d4:	10101010 	andsne	r1, r0, r0, lsl r0
   1b0d8:	10101010 	andsne	r1, r0, r0, lsl r0
   1b0dc:	10101010 	andsne	r1, r0, r0, lsl r0
   1b0e0:	10101010 	andsne	r1, r0, r0, lsl r0
   1b0e4:	10101010 	andsne	r1, r0, r0, lsl r0
   1b0e8:	10101010 	andsne	r1, r0, r0, lsl r0
   1b0ec:	01010101 	tsteq	r1, r1, lsl #2
   1b0f0:	01010101 	tsteq	r1, r1, lsl #2
   1b0f4:	01010101 	tsteq	r1, r1, lsl #2
   1b0f8:	01010101 	tsteq	r1, r1, lsl #2
   1b0fc:	01010101 	tsteq	r1, r1, lsl #2
   1b100:	10010101 	andne	r0, r1, r1, lsl #2
   1b104:	01010101 	tsteq	r1, r1, lsl #2
   1b108:	02010101 	andeq	r0, r1, #1073741824	; 0x40000000
   1b10c:	02020202 	andeq	r0, r2, #536870912	; 0x20000000
   1b110:	02020202 	andeq	r0, r2, #536870912	; 0x20000000
   1b114:	02020202 	andeq	r0, r2, #536870912	; 0x20000000
   1b118:	02020202 	andeq	r0, r2, #536870912	; 0x20000000
   1b11c:	02020202 	andeq	r0, r2, #536870912	; 0x20000000
   1b120:	10020202 	andne	r0, r2, r2, lsl #4
   1b124:	02020202 	andeq	r0, r2, #536870912	; 0x20000000
   1b128:	02020202 	andeq	r0, r2, #536870912	; 0x20000000

0001b12c <.LC0>:
   1b12c:	4c554e3c 	mrrcmi	14, 3, r4, r5, cr12
   1b130:	00003e4c 	andeq	r3, r0, ip, asr #28

0001b134 <.LC1>:
   1b134:	3031255b 	eorscc	r2, r1, fp, asr r5
   1b138:	30252e75 	eorcc	r2, r5, r5, ror lr
   1b13c:	255d7533 	ldrbcs	r7, [sp, #-1331]	; 0xfffffacd
   1b140:	00000073 	andeq	r0, r0, r3, ror r0

0001b144 <.LC2>:
   1b144:	73696172 	cmnvc	r9, #-2147483620	; 0x8000001c
   1b148:	53203a65 	teqpl	r0, #413696	; 0x65000
   1b14c:	616e6769 	cmnvs	lr, r9, ror #14
   1b150:	2023206c 	eorcs	r2, r3, ip, rrx
   1b154:	63206425 	teqvs	r0, #620756992	; 0x25000000
   1b158:	68677561 	stmdavs	r7!, {r0, r5, r6, r8, sl, ip, sp, lr}^
   1b15c:	00000a74 	andeq	r0, r0, r4, ror sl

0001b160 <digits.4216>:
   1b160:	33323130 	teqcc	r2, #48, 2
   1b164:	37363534 			; <UNDEFINED> instruction: 0x37363534
   1b168:	42413938 	submi	r3, r1, #56, 18	; 0xe0000
   1b16c:	46454443 	strbmi	r4, [r5], -r3, asr #8

0001b170 <.LC0>:
   1b170:	6c696146 	stfvse	f6, [r9], #-280	; 0xfffffee8
   1b174:	74206465 	strtvc	r6, [r0], #-1125	; 0xfffffb9b
   1b178:	6e69206f 	cdpvs	0, 6, cr2, cr9, cr15, {3}
   1b17c:	61697469 	cmnvs	r9, r9, ror #8
   1b180:	657a696c 	ldrbvs	r6, [sl, #-2412]!	; 0xfffff694
   1b184:	43324920 	teqmi	r2, #32, 18	; 0x80000
   1b188:	61686320 	cmnvs	r8, r0, lsr #6
   1b18c:	0d0a6e69 	stceq	14, cr6, [sl, #-420]	; 0xfffffe5c
   1b190:	00000000 	andeq	r0, r0, r0

0001b194 <.LC0>:
   1b194:	4f525245 	svcmi	0x00525245
   1b198:	4c203a52 	stcmi	10, cr3, [r0], #-328	; 0xfffffeb8
   1b19c:	756b6f6f 	strbvc	r6, [fp, #-3951]!	; 0xfffff091
   1b1a0:	666f2070 			; <UNDEFINED> instruction: 0x666f2070
   1b1a4:	63636120 	cmnvs	r3, #32, 2
   1b1a8:	6172656c 	cmnvs	r2, ip, ror #10
   1b1ac:	20726f74 	rsbscs	r6, r2, r4, ror pc
   1b1b0:	666e6f63 	strbtvs	r6, [lr], -r3, ror #30
   1b1b4:	72756769 	rsbsvc	r6, r5, #27525120	; 0x1a40000
   1b1b8:	6f697461 	svcvs	0x00697461
   1b1bc:	6166206e 	cmnvs	r6, lr, rrx
   1b1c0:	64656c69 	strbtvs	r6, [r5], #-3177	; 0xfffff397
   1b1c4:	000d0a2e 	andeq	r0, sp, lr, lsr #20

0001b1c8 <.LC1>:
   1b1c8:	4f525245 	svcmi	0x00525245
   1b1cc:	43203a52 	teqmi	r0, #335872	; 0x52000
   1b1d0:	646c756f 	strbtvs	r7, [ip], #-1391	; 0xfffffa91
   1b1d4:	746f6e20 	strbtvc	r6, [pc], #-3616	; 1b1dc <.LC1+0x14>
   1b1d8:	696e6920 	stmdbvs	lr!, {r5, r8, fp, sp, lr}^
   1b1dc:	6c616974 	stclvs	9, cr6, [r1], #-464	; 0xfffffe30
   1b1e0:	20657a69 	rsbcs	r7, r5, r9, ror #20
   1b1e4:	65636361 	strbvs	r6, [r3, #-865]!	; 0xfffffc9f
   1b1e8:	6172656c 	cmnvs	r2, ip, ror #10
   1b1ec:	2e726f74 	mrccs	15, 3, r6, cr2, cr4, {3}
   1b1f0:	00000d0a 	andeq	r0, r0, sl, lsl #26

0001b1f4 <.LC2>:
   1b1f4:	2d434d46 	stclcs	13, cr4, [r3, #-280]	; 0xfffffee8
   1b1f8:	47414d49 	strbmi	r4, [r1, -r9, asr #26]
   1b1fc:	204e4f45 	subcs	r4, lr, r5, asr #30
   1b200:	20433249 	subcs	r3, r3, r9, asr #4
   1b204:	746e6f43 	strbtvc	r6, [lr], #-3907	; 0xfffff0bd
   1b208:	6c6c6f72 	stclvs	15, cr6, [ip], #-456	; 0xfffffe38
   1b20c:	00007265 	andeq	r7, r0, r5, ror #4

0001b210 <.LC3>:
   1b210:	4f525245 	svcmi	0x00525245
   1b214:	203a2052 	eorscs	r2, sl, r2, asr r0
   1b218:	6c696146 	stfvse	f6, [r9], #-280	; 0xfffffee8
   1b21c:	74206465 	strtvc	r6, [r0], #-1125	; 0xfffffb9b
   1b220:	706f206f 	rsbvc	r2, pc, pc, rrx
   1b224:	46206e65 	strtmi	r6, [r0], -r5, ror #28
   1b228:	492d434d 	pushmi	{r0, r2, r3, r6, r8, r9, lr}
   1b22c:	64204349 	strtvs	r4, [r0], #-841	; 0xfffffcb7
   1b230:	65766972 	ldrbvs	r6, [r6, #-2418]!	; 0xfffff68e
   1b234:	000d0a72 	andeq	r0, sp, r2, ror sl

0001b238 <.LC4>:
   1b238:	2d434d46 	stclcs	13, cr4, [r3, #-280]	; 0xfffffee8
   1b23c:	47414d49 	strbmi	r4, [r1, -r9, asr #26]
   1b240:	004e4f45 	subeq	r4, lr, r5, asr #30

0001b244 <.LC5>:
   1b244:	4f525245 	svcmi	0x00525245
   1b248:	203a2052 	eorscs	r2, sl, r2, asr r0
   1b24c:	6c696146 	stfvse	f6, [r9], #-280	; 0xfffffee8
   1b250:	74206465 	strtvc	r6, [r0], #-1125	; 0xfffffb9b
   1b254:	6e69206f 	cdpvs	0, 6, cr2, cr9, cr15, {3}
   1b258:	48207469 	stmdami	r0!, {r0, r3, r5, r6, sl, ip, sp, lr}
   1b25c:	20494d44 	subcs	r4, r9, r4, asr #26
   1b260:	75706e49 	ldrbvc	r6, [r0, #-3657]!	; 0xfffff1b7
   1b264:	6e492074 	mcrvs	0, 2, r2, cr9, cr4, {3}
   1b268:	66726574 			; <UNDEFINED> instruction: 0x66726574
   1b26c:	0a656361 	beq	1973ff8 <__bss_end+0x1957854>
   1b270:	0000000d 	andeq	r0, r0, sp

0001b274 <.LC6>:
   1b274:	4f525245 	svcmi	0x00525245
   1b278:	203a2052 	eorscs	r2, sl, r2, asr r0
   1b27c:	6c696146 	stfvse	f6, [r9], #-280	; 0xfffffee8
   1b280:	74206465 	strtvc	r6, [r0], #-1125	; 0xfffffb9b
   1b284:	6e69206f 	cdpvs	0, 6, cr2, cr9, cr15, {3}
   1b288:	48207469 	stmdami	r0!, {r0, r3, r5, r6, sl, ip, sp, lr}
   1b28c:	20494d44 	subcs	r4, r9, r4, asr #26
   1b290:	7074754f 	rsbsvc	r7, r4, pc, asr #10
   1b294:	49207475 	stmdbmi	r0!, {r0, r2, r4, r5, r6, sl, ip, sp, lr}
   1b298:	7265746e 	rsbvc	r7, r5, #1845493760	; 0x6e000000
   1b29c:	65636166 	strbvs	r6, [r3, #-358]!	; 0xfffffe9a
   1b2a0:	00000d0a 	andeq	r0, r0, sl, lsl #26

0001b2a4 <.LC7>:
   1b2a4:	20534c48 	subscs	r4, r3, r8, asr #24
   1b2a8:	69726570 	ldmdbvs	r2!, {r4, r5, r6, r8, sl, sp, lr}^
   1b2ac:	72656870 	rsbvc	r6, r5, #112, 16	; 0x700000
   1b2b0:	73206c61 	teqvc	r0, #24832	; 0x6100
   1b2b4:	70757465 	rsbsvc	r7, r5, r5, ror #8
   1b2b8:	69616620 	stmdbvs	r1!, {r5, r9, sl, sp, lr}^
   1b2bc:	0a64656c 	beq	1934874 <__bss_end+0x19180d0>
   1b2c0:	0000000d 	andeq	r0, r0, sp

0001b2c4 <.LC8>:
   1b2c4:	52524509 	subspl	r4, r2, #37748736	; 0x2400000
   1b2c8:	3a20524f 	bcc	82fc0c <__bss_end+0x813468>
   1b2cc:	56444120 	strbpl	r4, [r4], -r0, lsr #2
   1b2d0:	31313637 	teqcc	r1, r7, lsr r6
   1b2d4:	73616820 	cmnvc	r1, #32, 16	; 0x200000
   1b2d8:	544f4e20 	strbpl	r4, [pc], #-3616	; 1b2e0 <.LC8+0x1c>
   1b2dc:	636f6c20 	cmnvs	pc, #32, 24	; 0x2000
   1b2e0:	2064656b 	rsbcs	r6, r4, fp, ror #10
   1b2e4:	69206e6f 	stmdbvs	r0!, {r0, r1, r2, r3, r5, r6, r9, sl, fp, sp, lr}
   1b2e8:	6d6f636e 	stclvs	3, cr6, [pc, #-440]!	; 1b138 <.LC1+0x4>
   1b2ec:	20676e69 	rsbcs	r6, r7, r9, ror #28
   1b2f0:	65646976 	strbvs	r6, [r4, #-2422]!	; 0xfffff68a
   1b2f4:	61202c6f 	teqvs	r0, pc, ror #24
   1b2f8:	74726f62 	ldrbtvc	r6, [r2], #-3938	; 0xfffff09e
   1b2fc:	20676e69 	rsbcs	r6, r7, r9, ror #28
   1b300:	000d0a21 	andeq	r0, sp, r1, lsr #20

0001b304 <.LC9>:
   1b304:	52524509 	subspl	r4, r2, #37748736	; 0x2400000
   1b308:	3a20524f 	bcc	82fc4c <__bss_end+0x8134a8>
   1b30c:	766e4920 	strbtvc	r4, [lr], -r0, lsr #18
   1b310:	64696c61 	strbtvs	r6, [r9], #-3169	; 0xfffff39f
   1b314:	73657220 	cmnvc	r5, #32, 4
   1b318:	74756c6f 	ldrbtvc	r6, [r5], #-3183	; 0xfffff391
   1b31c:	2c6e6f69 	stclcs	15, cr6, [lr], #-420	; 0xfffffe5c
   1b320:	6f626120 	svcvs	0x00626120
   1b324:	6e697472 	mcrvs	4, 3, r7, cr9, cr2, {3}
   1b328:	0a212067 	beq	8634cc <__bss_end+0x846d28>
   1b32c:	0000000d 	andeq	r0, r0, sp

0001b330 <.LC0>:
   1b330:	20434c4c 	subcs	r4, r3, ip, asr #24
   1b334:	616c6f70 	smcvs	50928	; 0xc6f0
   1b338:	79746972 	ldmdbvc	r4!, {r1, r4, r5, r6, r8, fp, sp, lr}^
   1b33c:	25203d20 	strcs	r3, [r0, #-3360]!	; 0xfffff2e0
   1b340:	000d0a64 	andeq	r0, sp, r4, ror #20

0001b344 <.LC1>:
   1b344:	69202020 	stmdbvs	r0!, {r5, sp}
   1b348:	685f6369 	ldmdavs	pc, {r0, r3, r5, r6, r8, r9, sp, lr}^	; <UNPREDICTABLE>
   1b34c:	5f696d64 	svcpl	0x00696d64
   1b350:	635f6e69 	cmpvs	pc, #1680	; 0x690
   1b354:	69666e6f 	stmdbvs	r6!, {r0, r1, r2, r3, r5, r6, r9, sl, fp, sp, lr}^
   1b358:	30315b67 	eorscc	r5, r1, r7, ror #22
   1b35c:	3e3d205d 	mrccc	0, 1, r2, cr13, cr13, {2}
   1b360:	30207b20 	eorcc	r7, r0, r0, lsr #22
   1b364:	32302578 	eorscc	r2, r0, #120, 10	; 0x1e000000
   1b368:	30202c58 	eorcc	r2, r0, r8, asr ip
   1b36c:	32302578 	eorscc	r2, r0, #120, 10	; 0x1e000000
   1b370:	30202c58 	eorcc	r2, r0, r8, asr ip
   1b374:	32302578 	eorscc	r2, r0, #120, 10	; 0x1e000000
   1b378:	0a7d2058 	beq	1f634e0 <__bss_end+0x1f46d3c>
   1b37c:	0000000d 	andeq	r0, r0, sp

0001b380 <.LC2>:
   1b380:	69202020 	stmdbvs	r0!, {r5, sp}
   1b384:	685f6369 	ldmdavs	pc, {r0, r3, r5, r6, r8, r9, sp, lr}^	; <UNPREDICTABLE>
   1b388:	5f696d64 	svcpl	0x00696d64
   1b38c:	635f6e69 	cmpvs	pc, #1680	; 0x690
   1b390:	69666e6f 	stmdbvs	r6!, {r0, r1, r2, r3, r5, r6, r9, sl, fp, sp, lr}^
   1b394:	30315b67 	eorscc	r5, r1, r7, ror #22
   1b398:	3d3c205d 	ldccc	0, cr2, [ip, #-372]!	; 0xfffffe8c
   1b39c:	30207b20 	eorcc	r7, r0, r0, lsr #22
   1b3a0:	32302578 	eorscc	r2, r0, #120, 10	; 0x1e000000
   1b3a4:	30202c58 	eorcc	r2, r0, r8, asr ip
   1b3a8:	32302578 	eorscc	r2, r0, #120, 10	; 0x1e000000
   1b3ac:	30202c58 	eorcc	r2, r0, r8, asr ip
   1b3b0:	32302578 	eorscc	r2, r0, #120, 10	; 0x1e000000
   1b3b4:	0a7d2058 	beq	1f6351c <__bss_end+0x1f46d78>
   1b3b8:	0000000d 	andeq	r0, r0, sp

0001b3bc <.LC3>:
   1b3bc:	20434c4c 	subcs	r4, r3, ip, asr #24
   1b3c0:	616c6564 	cmnvs	ip, r4, ror #10
   1b3c4:	203d2079 	eorscs	r2, sp, r9, ror r0
   1b3c8:	0d0a6425 	cfstrseq	mvf6, [sl, #-148]	; 0xffffff6c
   1b3cc:	00000000 	andeq	r0, r0, r0

0001b3d0 <.LC4>:
   1b3d0:	69202020 	stmdbvs	r0!, {r5, sp}
   1b3d4:	685f6369 	ldmdavs	pc, {r0, r3, r5, r6, r8, r9, sp, lr}^	; <UNPREDICTABLE>
   1b3d8:	5f696d64 	svcpl	0x00696d64
   1b3dc:	635f6e69 	cmpvs	pc, #1680	; 0x690
   1b3e0:	69666e6f 	stmdbvs	r6!, {r0, r1, r2, r3, r5, r6, r9, sl, fp, sp, lr}^
   1b3e4:	31315b67 	teqcc	r1, r7, ror #22
   1b3e8:	3e3d205d 	mrccc	0, 1, r2, cr13, cr13, {2}
   1b3ec:	30207b20 	eorcc	r7, r0, r0, lsr #22
   1b3f0:	32302578 	eorscc	r2, r0, #120, 10	; 0x1e000000
   1b3f4:	30202c58 	eorcc	r2, r0, r8, asr ip
   1b3f8:	32302578 	eorscc	r2, r0, #120, 10	; 0x1e000000
   1b3fc:	30202c58 	eorcc	r2, r0, r8, asr ip
   1b400:	32302578 	eorscc	r2, r0, #120, 10	; 0x1e000000
   1b404:	0a7d2058 	beq	1f6356c <__bss_end+0x1f46dc8>
   1b408:	0000000d 	andeq	r0, r0, sp

0001b40c <.LC5>:
   1b40c:	69202020 	stmdbvs	r0!, {r5, sp}
   1b410:	685f6369 	ldmdavs	pc, {r0, r3, r5, r6, r8, r9, sp, lr}^	; <UNPREDICTABLE>
   1b414:	5f696d64 	svcpl	0x00696d64
   1b418:	635f6e69 	cmpvs	pc, #1680	; 0x690
   1b41c:	69666e6f 	stmdbvs	r6!, {r0, r1, r2, r3, r5, r6, r9, sl, fp, sp, lr}^
   1b420:	31315b67 	teqcc	r1, r7, ror #22
   1b424:	3d3c205d 	ldccc	0, cr2, [ip, #-372]!	; 0xfffffe8c
   1b428:	30207b20 	eorcc	r7, r0, r0, lsr #22
   1b42c:	32302578 	eorscc	r2, r0, #120, 10	; 0x1e000000
   1b430:	30202c58 	eorcc	r2, r0, r8, asr ip
   1b434:	32302578 	eorscc	r2, r0, #120, 10	; 0x1e000000
   1b438:	30202c58 	eorcc	r2, r0, r8, asr ip
   1b43c:	32302578 	eorscc	r2, r0, #120, 10	; 0x1e000000
   1b440:	0a7d2058 	beq	1f635a8 <__bss_end+0x1f46e04>
   1b444:	0000000d 	andeq	r0, r0, sp

0001b448 <.LC6>:
   1b448:	74655309 	strbtvc	r5, [r5], #-777	; 0xfffffcf7
   1b44c:	676e6974 			; <UNDEFINED> instruction: 0x676e6974
   1b450:	43324920 	teqmi	r2, #32, 18	; 0x80000
   1b454:	6e6f6320 	cdpvs	3, 6, cr6, cr15, cr0, {1}
   1b458:	20676966 	rsbcs	r6, r7, r6, ror #18
   1b45c:	75716573 	ldrbvc	r6, [r1, #-1395]!	; 0xfffffa8d
   1b460:	65636e65 	strbvs	r6, [r3, #-3685]!	; 0xfffff19b
   1b464:	726f6620 	rsbvc	r6, pc, #32, 12	; 0x2000000
   1b468:	4d444820 	stclmi	8, cr4, [r4, #-128]	; 0xffffff80
   1b46c:	6f4d2049 	svcvs	0x004d2049
   1b470:	0d0a6564 	cfstr32eq	mvfx6, [sl, #-400]	; 0xfffffe70
   1b474:	00000000 	andeq	r0, r0, r0

0001b478 <.LC7>:
   1b478:	74655309 	strbtvc	r5, [r5], #-777	; 0xfffffcf7
   1b47c:	676e6974 			; <UNDEFINED> instruction: 0x676e6974
   1b480:	43324920 	teqmi	r2, #32, 18	; 0x80000
   1b484:	6e6f6320 	cdpvs	3, 6, cr6, cr15, cr0, {1}
   1b488:	20676966 	rsbcs	r6, r7, r6, ror #18
   1b48c:	75716573 	ldrbvc	r6, [r1, #-1395]!	; 0xfffffa8d
   1b490:	65636e65 	strbvs	r6, [r3, #-3685]!	; 0xfffff19b
   1b494:	726f6620 	rsbvc	r6, pc, #32, 12	; 0x2000000
   1b498:	49564420 	ldmdbmi	r6, {r5, sl, lr}^
   1b49c:	646f4d20 	strbtvs	r4, [pc], #-3360	; 1b4a4 <.LC8>
   1b4a0:	000d0a65 	andeq	r0, sp, r5, ror #20

0001b4a4 <.LC8>:
   1b4a4:	626d6509 	rsbvs	r6, sp, #37748736	; 0x2400000
   1b4a8:	65646465 	strbvs	r6, [r4, #-1125]!	; 0xfffffb9b
   1b4ac:	79735f64 	ldmdbvc	r3!, {r2, r5, r6, r8, r9, sl, fp, ip, lr}^
   1b4b0:	635f636e 	cmpvs	pc, #-1207959551	; 0xb8000001
   1b4b4:	69666e6f 	stmdbvs	r6!, {r0, r1, r2, r3, r5, r6, r9, sl, fp, sp, lr}^
   1b4b8:	64255b67 	strtvs	r5, [r5], #-2919	; 0xfffff499
   1b4bc:	203d205d 	eorscs	r2, sp, sp, asr r0
   1b4c0:	30257830 	eorcc	r7, r5, r0, lsr r8
   1b4c4:	202c5832 	eorcs	r5, ip, r2, lsr r8
   1b4c8:	30257830 	eorcc	r7, r5, r0, lsr r8
   1b4cc:	202c5832 	eorcs	r5, ip, r2, lsr r8
   1b4d0:	30257830 	eorcc	r7, r5, r0, lsr r8
   1b4d4:	0d0a5832 	stceq	8, cr5, [sl, #-200]	; 0xffffff38
   1b4d8:	00000000 	andeq	r0, r0, r0

0001b4dc <.LC9>:
   1b4dc:	52450909 	subpl	r0, r5, #147456	; 0x24000
   1b4e0:	20524f52 	subscs	r4, r2, r2, asr pc
   1b4e4:	7563636f 	strbvc	r6, [r3, #-879]!	; 0xfffffc91
   1b4e8:	64657272 	strbtvs	r7, [r5], #-626	; 0xfffffd8e
   1b4ec:	72756420 	rsbsvc	r6, r5, #32, 8	; 0x20000000
   1b4f0:	20676e69 	rsbcs	r6, r7, r9, ror #28
   1b4f4:	20433249 	subcs	r3, r3, r9, asr #4
   1b4f8:	6e617274 	mcrvs	2, 3, r7, cr1, cr4, {3}
   1b4fc:	74636173 	strbtvc	r6, [r3], #-371	; 0xfffffe8d
   1b500:	206e6f69 	rsbcs	r6, lr, r9, ror #30
   1b504:	000d0a21 	andeq	r0, sp, r1, lsr #20

0001b508 <.LC10>:
   1b508:	636d665b 	cmnvs	sp, #95420416	; 0x5b00000
   1b50c:	616d695f 	cmnvs	sp, pc, asr r9
   1b510:	6e6f6567 	cdpvs	5, 6, cr6, cr15, cr7, {3}
   1b514:	6d64685f 	stclvs	8, cr6, [r4, #-380]!	; 0xfffffe84
   1b518:	695f6f69 	ldmdbvs	pc, {r0, r3, r5, r6, r8, r9, sl, fp, sp, lr}^	; <UNPREDICTABLE>
   1b51c:	5d74696e 	ldclpl	9, cr6, [r4, #-440]!	; 0xfffffe48
   1b520:	52524520 	subspl	r4, r2, #32, 10	; 0x8000000
   1b524:	6f20524f 	svcvs	0x0020524f
   1b528:	72756363 	rsbsvc	r6, r5, #-1946157055	; 0x8c000001
   1b52c:	20646572 	rsbcs	r6, r4, r2, ror r5
   1b530:	69727564 	ldmdbvs	r2!, {r2, r5, r6, r8, sl, ip, sp, lr}^
   1b534:	4920676e 	stmdbmi	r0!, {r1, r2, r3, r5, r6, r8, r9, sl, sp, lr}
   1b538:	74204332 	strtvc	r4, [r0], #-818	; 0xfffffcce
   1b53c:	736e6172 	cmnvc	lr, #-2147483620	; 0x8000001c
   1b540:	69746361 	ldmdbvs	r4!, {r0, r5, r6, r8, r9, sp, lr}^
   1b544:	21206e6f 	teqcs	r0, pc, ror #28
   1b548:	00000d0a 	andeq	r0, r0, sl, lsl #26

0001b54c <.LC11>:
   1b54c:	636d665b 	cmnvs	sp, #95420416	; 0x5b00000
   1b550:	616d695f 	cmnvs	sp, pc, asr r9
   1b554:	6e6f6567 	cdpvs	5, 6, cr6, cr15, cr7, {3}
   1b558:	6d64685f 	stclvs	8, cr6, [r4, #-380]!	; 0xfffffe84
   1b55c:	695f6f69 	ldmdbvs	pc, {r0, r3, r5, r6, r8, r9, sl, fp, sp, lr}^	; <UNPREDICTABLE>
   1b560:	5d74696e 	ldclpl	9, cr6, [r4, #-440]!	; 0xfffffe48
   1b564:	52524520 	subspl	r4, r2, #32, 10	; 0x8000000
   1b568:	2d20524f 	sfmcs	f5, 4, [r0, #-316]!	; 0xfffffec4
   1b56c:	6d695420 	cfstrdvs	mvd5, [r9, #-128]!	; 0xffffff80
   1b570:	74756f65 	ldrbtvc	r6, [r5], #-3941	; 0xfffff09b
   1b574:	69617720 	stmdbvs	r1!, {r5, r8, r9, sl, ip, sp, lr}^
   1b578:	676e6974 			; <UNDEFINED> instruction: 0x676e6974
   1b57c:	726f6620 	rsbvc	r6, pc, #32, 12	; 0x2000000
   1b580:	746e6920 	strbtvc	r6, [lr], #-2336	; 0xfffff6e0
   1b584:	616e7265 	cmnvs	lr, r5, ror #4
   1b588:	6f48206c 	svcvs	0x0048206c
   1b58c:	756c5074 	strbvc	r5, [ip, #-116]!	; 0xffffff8c
   1b590:	74654467 	strbtvc	r4, [r5], #-1127	; 0xfffffb99
   1b594:	20746365 	rsbscs	r6, r4, r5, ror #6
   1b598:	000d0a21 	andeq	r0, sp, r1, lsr #20

0001b59c <.LC0>:
   1b59c:	76206f4e 	strtvc	r6, [r0], -lr, asr #30
   1b5a0:	6f656469 	svcvs	0x00656469
   1b5a4:	414d4420 	cmpmi	sp, r0, lsr #8
   1b5a8:	756f6620 	strbvc	r6, [pc, #-1568]!	; 1af90 <.divsi3_skip_div0_test+0x1ac>
   1b5ac:	6620646e 	strtvs	r6, [r0], -lr, ror #8
   1b5b0:	4920726f 	stmdbmi	r0!, {r0, r1, r2, r3, r5, r6, r9, ip, sp, lr}
   1b5b4:	64252044 	strtvs	r2, [r5], #-68	; 0xffffffbc
   1b5b8:	00000d0a 	andeq	r0, r0, sl, lsl #26

0001b5bc <.LC1>:
   1b5bc:	5f626676 	svcpl	0x00626676
   1b5c0:	6d6d6f63 	stclvs	15, cr6, [sp, #-396]!	; 0xfffffe74
   1b5c4:	695f6e6f 	ldmdbvs	pc, {r0, r1, r2, r3, r5, r6, r9, sl, fp, sp, lr}^	; <UNPREDICTABLE>
   1b5c8:	3a74696e 	bcc	1d35b88 <__bss_end+0x1d193e4>
   1b5cc:	696e4920 	stmdbvs	lr!, {r5, r8, fp, lr}^
   1b5d0:	6c616974 	stclvs	9, cr6, [r1], #-464	; 0xfffffe30
   1b5d4:	74617a69 	strbtvc	r7, [r1], #-2665	; 0xfffff597
   1b5d8:	206e6f69 	rsbcs	r6, lr, r9, ror #30
   1b5dc:	6c696166 	stfvse	f6, [r9], #-408	; 0xfffffe68
   1b5e0:	25206465 	strcs	r6, [r0, #-1125]!	; 0xfffffb9b
   1b5e4:	000d0a64 	andeq	r0, sp, r4, ror #20

0001b5e8 <.LC2>:
   1b5e8:	72617453 	rsbvc	r7, r1, #1392508928	; 0x53000000
   1b5ec:	72572074 	subsvc	r2, r7, #116	; 0x74
   1b5f0:	20657469 	rsbcs	r7, r5, r9, ror #8
   1b5f4:	6e617274 	mcrvs	2, 3, r7, cr1, cr4, {3}
   1b5f8:	72656673 	rsbvc	r6, r5, #120586240	; 0x7300000
   1b5fc:	69616620 	stmdbvs	r1!, {r5, r9, sl, sp, lr}^
   1b600:	2064656c 	rsbcs	r6, r4, ip, ror #10
   1b604:	0a0d6425 	beq	3746a0 <__bss_end+0x357efc>
   1b608:	00000000 	andeq	r0, r0, r0

0001b60c <.LC3>:
   1b60c:	5f626676 	svcpl	0x00626676
   1b610:	735f7874 	cmpvc	pc, #116, 16	; 0x740000
   1b614:	74726174 	ldrbtvc	r6, [r2], #-372	; 0xfffffe8c
   1b618:	7453203a 	ldrbvc	r2, [r3], #-58	; 0xffffffc6
   1b61c:	20747261 	rsbscs	r7, r4, r1, ror #4
   1b620:	64616572 	strbtvs	r6, [r1], #-1394	; 0xfffffa8e
   1b624:	61727420 	cmnvs	r2, r0, lsr #8
   1b628:	6566736e 	strbvs	r7, [r6, #-878]!	; 0xfffffc92
   1b62c:	61662072 	smcvs	25090	; 0x6202
   1b630:	64656c69 	strbtvs	r6, [r5], #-3177	; 0xfffff397
   1b634:	0a642520 	beq	1924abc <__bss_end+0x1908318>
   1b638:	0000000d 	andeq	r0, r0, sp

0001b63c <.LC4>:
   1b63c:	5f495841 	svcpl	0x00495841
   1b640:	414d4456 	cmpmi	sp, r6, asr r4
   1b644:	50202d20 	eorpl	r2, r0, r0, lsr #26
   1b648:	69747261 	ldmdbvs	r4!, {r0, r5, r6, r9, ip, sp, lr}^
   1b64c:	52206c61 	eorpl	r6, r0, #24832	; 0x6100
   1b650:	73696765 	cmnvc	r9, #26476544	; 0x1940000
   1b654:	20726574 	rsbscs	r6, r2, r4, ror r5
   1b658:	706d7544 	rsbvc	r7, sp, r4, asr #10
   1b65c:	42752820 	rsbsmi	r2, r5, #32, 16	; 0x200000
   1b660:	41657361 	cmnmi	r5, r1, ror #6
   1b664:	20726464 	rsbscs	r6, r2, r4, ror #8
   1b668:	7830203d 	ldmdavc	r0!, {r0, r2, r3, r4, r5, sp}
   1b66c:	58383025 	ldmdapl	r8!, {r0, r2, r5, ip, sp}
   1b670:	0d0a3a29 	vstreq	s6, [sl, #-164]	; 0xffffff5c
   1b674:	00000000 	andeq	r0, r0, r0

0001b678 <.LC5>:
   1b678:	41502009 	cmpmi	r0, r9
   1b67c:	54504b52 	ldrbpl	r4, [r0], #-2898	; 0xfffff4ae
   1b680:	20202052 	eorcs	r2, r0, r2, asr r0
   1b684:	20202020 	eorcs	r2, r0, r0, lsr #32
   1b688:	3d202020 	stccc	0, cr2, [r0, #-128]!	; 0xffffff80
   1b68c:	25783020 	ldrbcs	r3, [r8, #-32]!	; 0xffffffe0
   1b690:	0a583830 	beq	1629758 <__bss_end+0x160cfb4>
   1b694:	0000000d 	andeq	r0, r0, sp

0001b698 <.LC6>:
   1b698:	2d2d2009 	stccs	0, cr2, [sp, #-36]!	; 0xffffffdc
   1b69c:	2d2d2d2d 	stccs	13, cr2, [sp, #-180]!	; 0xffffff4c
   1b6a0:	2d2d2d2d 	stccs	13, cr2, [sp, #-180]!	; 0xffffff4c
   1b6a4:	2d2d2d2d 	stccs	13, cr2, [sp, #-180]!	; 0xffffff4c
   1b6a8:	0d0a2d2d 	stceq	13, cr2, [sl, #-180]	; 0xffffff4c
   1b6ac:	00000000 	andeq	r0, r0, r0

0001b6b0 <.LC7>:
   1b6b0:	32532009 	subscc	r2, r3, #9
   1b6b4:	445f4d4d 	ldrbmi	r4, [pc], #-3405	; 1b6bc <.LC7+0xc>
   1b6b8:	5243414d 	subpl	r4, r3, #1073741843	; 0x40000013
   1b6bc:	20202020 	eorcs	r2, r0, r0, lsr #32
   1b6c0:	3d202020 	stccc	0, cr2, [r0, #-128]!	; 0xffffff80
   1b6c4:	25783020 	ldrbcs	r3, [r8, #-32]!	; 0xffffffe0
   1b6c8:	0a583830 	beq	1629790 <__bss_end+0x160cfec>
   1b6cc:	0000000d 	andeq	r0, r0, sp

0001b6d0 <.LC8>:
   1b6d0:	32532009 	subscc	r2, r3, #9
   1b6d4:	445f4d4d 	ldrbmi	r4, [pc], #-3405	; 1b6dc <.LC8+0xc>
   1b6d8:	5253414d 	subspl	r4, r3, #1073741843	; 0x40000013
   1b6dc:	20202020 	eorcs	r2, r0, r0, lsr #32
   1b6e0:	3d202020 	stccc	0, cr2, [r0, #-128]!	; 0xffffff80
   1b6e4:	25783020 	ldrbcs	r3, [r8, #-32]!	; 0xffffffe0
   1b6e8:	0a583830 	beq	16297b0 <__bss_end+0x160d00c>
   1b6ec:	0000000d 	andeq	r0, r0, sp

0001b6f0 <.LC9>:
   1b6f0:	32532009 	subscc	r2, r3, #9
   1b6f4:	535f4d4d 	cmppl	pc, #4928	; 0x1340
   1b6f8:	5f445254 	svcpl	0x00445254
   1b6fc:	444d5246 	strbmi	r5, [sp], #-582	; 0xfffffdba
   1b700:	3d20594c 	stccc	9, cr5, [r0, #-304]!	; 0xfffffed0
   1b704:	25783020 	ldrbcs	r3, [r8, #-32]!	; 0xffffffe0
   1b708:	0a583830 	beq	16297d0 <__bss_end+0x160d02c>
   1b70c:	0000000d 	andeq	r0, r0, sp

0001b710 <.LC10>:
   1b710:	32532009 	subscc	r2, r3, #9
   1b714:	535f4d4d 	cmppl	pc, #4928	; 0x1340
   1b718:	54524154 	ldrbpl	r4, [r2], #-340	; 0xfffffeac
   1b71c:	4444415f 	strbmi	r4, [r4], #-351	; 0xfffffea1
   1b720:	3d203052 	stccc	0, cr3, [r0, #-328]!	; 0xfffffeb8
   1b724:	25783020 	ldrbcs	r3, [r8, #-32]!	; 0xffffffe0
   1b728:	0a583830 	beq	16297f0 <__bss_end+0x160d04c>
   1b72c:	0000000d 	andeq	r0, r0, sp

0001b730 <.LC11>:
   1b730:	32532009 	subscc	r2, r3, #9
   1b734:	535f4d4d 	cmppl	pc, #4928	; 0x1340
   1b738:	54524154 	ldrbpl	r4, [r2], #-340	; 0xfffffeac
   1b73c:	4444415f 	strbmi	r4, [r4], #-351	; 0xfffffea1
   1b740:	3d203152 	stfccs	f3, [r0, #-328]!	; 0xfffffeb8
   1b744:	25783020 	ldrbcs	r3, [r8, #-32]!	; 0xffffffe0
   1b748:	0a583830 	beq	1629810 <__bss_end+0x160d06c>
   1b74c:	0000000d 	andeq	r0, r0, sp

0001b750 <.LC12>:
   1b750:	32532009 	subscc	r2, r3, #9
   1b754:	535f4d4d 	cmppl	pc, #4928	; 0x1340
   1b758:	54524154 	ldrbpl	r4, [r2], #-340	; 0xfffffeac
   1b75c:	4444415f 	strbmi	r4, [r4], #-351	; 0xfffffea1
   1b760:	3d203252 	sfmcc	f3, 4, [r0, #-328]!	; 0xfffffeb8
   1b764:	25783020 	ldrbcs	r3, [r8, #-32]!	; 0xffffffe0
   1b768:	0a583830 	beq	1629830 <__bss_end+0x160d08c>
   1b76c:	0000000d 	andeq	r0, r0, sp

0001b770 <.LC13>:
   1b770:	32532009 	subscc	r2, r3, #9
   1b774:	485f4d4d 	ldmdami	pc, {r0, r2, r3, r6, r8, sl, fp, lr}^	; <UNPREDICTABLE>
   1b778:	455a4953 	ldrbmi	r4, [sl, #-2387]	; 0xfffff6ad
   1b77c:	20202020 	eorcs	r2, r0, r0, lsr #32
   1b780:	3d202020 	stccc	0, cr2, [r0, #-128]!	; 0xffffff80
   1b784:	25783020 	ldrbcs	r3, [r8, #-32]!	; 0xffffffe0
   1b788:	0a583830 	beq	1629850 <__bss_end+0x160d0ac>
   1b78c:	0000000d 	andeq	r0, r0, sp

0001b790 <.LC14>:
   1b790:	32532009 	subscc	r2, r3, #9
   1b794:	565f4d4d 	ldrbpl	r4, [pc], -sp, asr #26
   1b798:	455a4953 	ldrbmi	r4, [sl, #-2387]	; 0xfffff6ad
   1b79c:	20202020 	eorcs	r2, r0, r0, lsr #32
   1b7a0:	3d202020 	stccc	0, cr2, [r0, #-128]!	; 0xffffff80
   1b7a4:	25783020 	ldrbcs	r3, [r8, #-32]!	; 0xffffffe0
   1b7a8:	0a583830 	beq	1629870 <__bss_end+0x160d0cc>
   1b7ac:	0000000d 	andeq	r0, r0, sp

0001b7b0 <.LC15>:
   1b7b0:	4d4d2009 	stclmi	0, cr2, [sp, #-36]	; 0xffffffdc
   1b7b4:	445f5332 	ldrbmi	r5, [pc], #-818	; 1b7bc <.LC15+0xc>
   1b7b8:	5243414d 	subpl	r4, r3, #1073741843	; 0x40000013
   1b7bc:	20202020 	eorcs	r2, r0, r0, lsr #32
   1b7c0:	3d202020 	stccc	0, cr2, [r0, #-128]!	; 0xffffff80
   1b7c4:	25783020 	ldrbcs	r3, [r8, #-32]!	; 0xffffffe0
   1b7c8:	0a583830 	beq	1629890 <__bss_end+0x160d0ec>
   1b7cc:	0000000d 	andeq	r0, r0, sp

0001b7d0 <.LC16>:
   1b7d0:	4d4d2009 	stclmi	0, cr2, [sp, #-36]	; 0xffffffdc
   1b7d4:	445f5332 	ldrbmi	r5, [pc], #-818	; 1b7dc <.LC16+0xc>
   1b7d8:	5253414d 	subspl	r4, r3, #1073741843	; 0x40000013
   1b7dc:	20202020 	eorcs	r2, r0, r0, lsr #32
   1b7e0:	3d202020 	stccc	0, cr2, [r0, #-128]!	; 0xffffff80
   1b7e4:	25783020 	ldrbcs	r3, [r8, #-32]!	; 0xffffffe0
   1b7e8:	0a583830 	beq	16298b0 <__bss_end+0x160d10c>
   1b7ec:	0000000d 	andeq	r0, r0, sp

0001b7f0 <.LC17>:
   1b7f0:	4d4d2009 	stclmi	0, cr2, [sp, #-36]	; 0xffffffdc
   1b7f4:	535f5332 	cmppl	pc, #-939524096	; 0xc8000000
   1b7f8:	5f445254 	svcpl	0x00445254
   1b7fc:	444d5246 	strbmi	r5, [sp], #-582	; 0xfffffdba
   1b800:	3d20594c 	stccc	9, cr5, [r0, #-304]!	; 0xfffffed0
   1b804:	25783020 	ldrbcs	r3, [r8, #-32]!	; 0xffffffe0
   1b808:	0a583830 	beq	16298d0 <__bss_end+0x160d12c>
   1b80c:	0000000d 	andeq	r0, r0, sp

0001b810 <.LC18>:
   1b810:	4d4d2009 	stclmi	0, cr2, [sp, #-36]	; 0xffffffdc
   1b814:	535f5332 	cmppl	pc, #-939524096	; 0xc8000000
   1b818:	54524154 	ldrbpl	r4, [r2], #-340	; 0xfffffeac
   1b81c:	4444415f 	strbmi	r4, [r4], #-351	; 0xfffffea1
   1b820:	3d203052 	stccc	0, cr3, [r0, #-328]!	; 0xfffffeb8
   1b824:	25783020 	ldrbcs	r3, [r8, #-32]!	; 0xffffffe0
   1b828:	0a583830 	beq	16298f0 <__bss_end+0x160d14c>
   1b82c:	0000000d 	andeq	r0, r0, sp

0001b830 <.LC19>:
   1b830:	4d4d2009 	stclmi	0, cr2, [sp, #-36]	; 0xffffffdc
   1b834:	535f5332 	cmppl	pc, #-939524096	; 0xc8000000
   1b838:	54524154 	ldrbpl	r4, [r2], #-340	; 0xfffffeac
   1b83c:	4444415f 	strbmi	r4, [r4], #-351	; 0xfffffea1
   1b840:	3d203152 	stfccs	f3, [r0, #-328]!	; 0xfffffeb8
   1b844:	25783020 	ldrbcs	r3, [r8, #-32]!	; 0xffffffe0
   1b848:	0a583830 	beq	1629910 <__bss_end+0x160d16c>
   1b84c:	0000000d 	andeq	r0, r0, sp

0001b850 <.LC20>:
   1b850:	4d4d2009 	stclmi	0, cr2, [sp, #-36]	; 0xffffffdc
   1b854:	535f5332 	cmppl	pc, #-939524096	; 0xc8000000
   1b858:	54524154 	ldrbpl	r4, [r2], #-340	; 0xfffffeac
   1b85c:	4444415f 	strbmi	r4, [r4], #-351	; 0xfffffea1
   1b860:	3d203252 	sfmcc	f3, 4, [r0, #-328]!	; 0xfffffeb8
   1b864:	25783020 	ldrbcs	r3, [r8, #-32]!	; 0xffffffe0
   1b868:	0a583830 	beq	1629930 <__bss_end+0x160d18c>
   1b86c:	0000000d 	andeq	r0, r0, sp

0001b870 <.LC21>:
   1b870:	4d4d2009 	stclmi	0, cr2, [sp, #-36]	; 0xffffffdc
   1b874:	485f5332 	ldmdami	pc, {r1, r4, r5, r8, r9, ip, lr}^	; <UNPREDICTABLE>
   1b878:	455a4953 	ldrbmi	r4, [sl, #-2387]	; 0xfffff6ad
   1b87c:	20202020 	eorcs	r2, r0, r0, lsr #32
   1b880:	3d202020 	stccc	0, cr2, [r0, #-128]!	; 0xffffff80
   1b884:	25783020 	ldrbcs	r3, [r8, #-32]!	; 0xffffffe0
   1b888:	0a583830 	beq	1629950 <__bss_end+0x160d1ac>
   1b88c:	0000000d 	andeq	r0, r0, sp

0001b890 <.LC22>:
   1b890:	4d4d2009 	stclmi	0, cr2, [sp, #-36]	; 0xffffffdc
   1b894:	565f5332 			; <UNDEFINED> instruction: 0x565f5332
   1b898:	455a4953 	ldrbmi	r4, [sl, #-2387]	; 0xfffff6ad
   1b89c:	20202020 	eorcs	r2, r0, r0, lsr #32
   1b8a0:	3d202020 	stccc	0, cr2, [r0, #-128]!	; 0xffffff80
   1b8a4:	25783020 	ldrbcs	r3, [r8, #-32]!	; 0xffffffe0
   1b8a8:	0a583830 	beq	1629970 <__bss_end+0x160d1cc>
   1b8ac:	0000000d 	andeq	r0, r0, sp

0001b8b0 <.LC23>:
   1b8b0:	32532009 	subscc	r2, r3, #9
   1b8b4:	485f4d4d 	ldmdami	pc, {r0, r2, r3, r6, r8, sl, fp, lr}^	; <UNPREDICTABLE>
   1b8b8:	455a4953 	ldrbmi	r4, [sl, #-2387]	; 0xfffff6ad
   1b8bc:	4154535f 	cmpmi	r4, pc, asr r3
   1b8c0:	3d535554 	cfldr64cc	mvdx5, [r3, #-336]	; 0xfffffeb0
   1b8c4:	25783020 	ldrbcs	r3, [r8, #-32]!	; 0xffffffe0
   1b8c8:	0a583830 	beq	1629990 <__bss_end+0x160d1ec>
   1b8cc:	0000000d 	andeq	r0, r0, sp

0001b8d0 <.LC24>:
   1b8d0:	32532009 	subscc	r2, r3, #9
   1b8d4:	565f4d4d 	ldrbpl	r4, [pc], -sp, asr #26
   1b8d8:	455a4953 	ldrbmi	r4, [sl, #-2387]	; 0xfffff6ad
   1b8dc:	4154535f 	cmpmi	r4, pc, asr r3
   1b8e0:	3d535554 	cfldr64cc	mvdx5, [r3, #-336]	; 0xfffffeb0
   1b8e4:	25783020 	ldrbcs	r3, [r8, #-32]!	; 0xffffffe0
   1b8e8:	0a583830 	beq	16299b0 <__bss_end+0x160d20c>
   1b8ec:	0000000d 	andeq	r0, r0, sp

0001b8f0 <.LC25>:
   1b8f0:	5f495841 	svcpl	0x00495841
   1b8f4:	414d4456 	cmpmi	sp, r6, asr r4
   1b8f8:	43202d20 	teqmi	r0, #32, 26	; 0x800
   1b8fc:	6b636568 	blvs	18f4ea4 <__bss_end+0x18d8700>
   1b900:	20676e69 	rsbcs	r6, r7, r9, ror #28
   1b904:	6f727245 	svcvs	0x00727245
   1b908:	6c462072 	mcrrvs	0, 7, r2, r6, cr2
   1b90c:	0a736761 	beq	1cf5698 <__bss_end+0x1cd8ef4>
   1b910:	0000000d 	andeq	r0, r0, sp

0001b914 <.LC26>:
   1b914:	4d325309 	ldcmi	3, cr5, [r2, #-36]!	; 0xffffffdc
   1b918:	4d445f4d 	stclmi	15, cr5, [r4, #-308]	; 0xfffffecc
   1b91c:	20525341 	subscs	r5, r2, r1, asr #6
   1b920:	7245202d 	subvc	r2, r5, #45	; 0x2d
   1b924:	71724972 	cmnvc	r2, r2, ror r9
   1b928:	00000d0a 	andeq	r0, r0, sl, lsl #26

0001b92c <.LC27>:
   1b92c:	4d325309 	ldcmi	3, cr5, [r2, #-36]!	; 0xffffffdc
   1b930:	4d445f4d 	stclmi	15, cr5, [r4, #-308]	; 0xfffffecc
   1b934:	20525341 	subscs	r5, r2, r1, asr #6
   1b938:	4f45202d 	svcmi	0x0045202d
   1b93c:	74614c4c 	strbtvc	r4, [r1], #-3148	; 0xfffff3b4
   1b940:	72724565 	rsbsvc	r4, r2, #423624704	; 0x19400000
   1b944:	00000d0a 	andeq	r0, r0, sl, lsl #26

0001b948 <.LC28>:
   1b948:	4d325309 	ldcmi	3, cr5, [r2, #-36]!	; 0xffffffdc
   1b94c:	4d445f4d 	stclmi	15, cr5, [r4, #-308]	; 0xfffffecc
   1b950:	20525341 	subscs	r5, r2, r1, asr #6
   1b954:	4f53202d 	svcmi	0x0053202d
   1b958:	74614c46 	strbtvc	r4, [r1], #-3142	; 0xfffff3ba
   1b95c:	72724565 	rsbsvc	r4, r2, #423624704	; 0x19400000
   1b960:	00000d0a 	andeq	r0, r0, sl, lsl #26

0001b964 <.LC29>:
   1b964:	4d325309 	ldcmi	3, cr5, [r2, #-36]!	; 0xffffffdc
   1b968:	4d445f4d 	stclmi	15, cr5, [r4, #-308]	; 0xfffffecc
   1b96c:	20525341 	subscs	r5, r2, r1, asr #6
   1b970:	4753202d 	ldrbmi	r2, [r3, -sp, lsr #32]
   1b974:	45636544 	strbmi	r6, [r3, #-1348]!	; 0xfffffabc
   1b978:	0d0a7272 	sfmeq	f7, 4, [sl, #-456]	; 0xfffffe38
   1b97c:	00000000 	andeq	r0, r0, r0

0001b980 <.LC30>:
   1b980:	4d325309 	ldcmi	3, cr5, [r2, #-36]!	; 0xffffffdc
   1b984:	4d445f4d 	stclmi	15, cr5, [r4, #-308]	; 0xfffffecc
   1b988:	20525341 	subscs	r5, r2, r1, asr #6
   1b98c:	4753202d 	ldrbmi	r2, [r3, -sp, lsr #32]
   1b990:	45766c53 	ldrbmi	r6, [r6, #-3155]!	; 0xfffff3ad
   1b994:	0d0a7272 	sfmeq	f7, 4, [sl, #-456]	; 0xfffffe38
   1b998:	00000000 	andeq	r0, r0, r0

0001b99c <.LC31>:
   1b99c:	4d325309 	ldcmi	3, cr5, [r2, #-36]!	; 0xffffffdc
   1b9a0:	4d445f4d 	stclmi	15, cr5, [r4, #-308]	; 0xfffffecc
   1b9a4:	20525341 	subscs	r5, r2, r1, asr #6
   1b9a8:	4f45202d 	svcmi	0x0045202d
   1b9ac:	7261454c 	rsbvc	r4, r1, #76, 10	; 0x13000000
   1b9b0:	7245796c 	subvc	r7, r5, #108, 18	; 0x1b0000
   1b9b4:	000d0a72 	andeq	r0, sp, r2, ror sl

0001b9b8 <.LC32>:
   1b9b8:	4d325309 	ldcmi	3, cr5, [r2, #-36]!	; 0xffffffdc
   1b9bc:	4d445f4d 	stclmi	15, cr5, [r4, #-308]	; 0xfffffecc
   1b9c0:	20525341 	subscs	r5, r2, r1, asr #6
   1b9c4:	4f53202d 	svcmi	0x0053202d
   1b9c8:	72614546 	rsbvc	r4, r1, #293601280	; 0x11800000
   1b9cc:	7245796c 	subvc	r7, r5, #108, 18	; 0x1b0000
   1b9d0:	000d0a72 	andeq	r0, sp, r2, ror sl

0001b9d4 <.LC33>:
   1b9d4:	4d325309 	ldcmi	3, cr5, [r2, #-36]!	; 0xffffffdc
   1b9d8:	4d445f4d 	stclmi	15, cr5, [r4, #-308]	; 0xfffffecc
   1b9dc:	20525341 	subscs	r5, r2, r1, asr #6
   1b9e0:	4d44202d 	stclmi	0, cr2, [r4, #-180]	; 0xffffff4c
   1b9e4:	63654441 	cmnvs	r5, #1090519040	; 0x41000000
   1b9e8:	0a727245 	beq	1cb8304 <__bss_end+0x1c9bb60>
   1b9ec:	0000000d 	andeq	r0, r0, sp

0001b9f0 <.LC34>:
   1b9f0:	4d325309 	ldcmi	3, cr5, [r2, #-36]!	; 0xffffffdc
   1b9f4:	4d445f4d 	stclmi	15, cr5, [r4, #-308]	; 0xfffffecc
   1b9f8:	20525341 	subscs	r5, r2, r1, asr #6
   1b9fc:	4d44202d 	stclmi	0, cr2, [r4, #-180]	; 0xffffff4c
   1ba00:	766c5341 	strbtvc	r5, [ip], -r1, asr #6
   1ba04:	0a727245 	beq	1cb8320 <__bss_end+0x1c9bb7c>
   1ba08:	0000000d 	andeq	r0, r0, sp

0001ba0c <.LC35>:
   1ba0c:	4d325309 	ldcmi	3, cr5, [r2, #-36]!	; 0xffffffdc
   1ba10:	4d445f4d 	stclmi	15, cr5, [r4, #-308]	; 0xfffffecc
   1ba14:	20525341 	subscs	r5, r2, r1, asr #6
   1ba18:	4d44202d 	stclmi	0, cr2, [r4, #-180]	; 0xffffff4c
   1ba1c:	746e4941 	strbtvc	r4, [lr], #-2369	; 0xfffff6bf
   1ba20:	0a727245 	beq	1cb833c <__bss_end+0x1c9bb98>
   1ba24:	0000000d 	andeq	r0, r0, sp

0001ba28 <.LC36>:
   1ba28:	324d4d09 	subcc	r4, sp, #576	; 0x240
   1ba2c:	4d445f53 	stclmi	15, cr5, [r4, #-332]	; 0xfffffeb4
   1ba30:	20525341 	subscs	r5, r2, r1, asr #6
   1ba34:	7245202d 	subvc	r2, r5, #45	; 0x2d
   1ba38:	71724972 	cmnvc	r2, r2, ror r9
   1ba3c:	00000d0a 	andeq	r0, r0, sl, lsl #26

0001ba40 <.LC37>:
   1ba40:	324d4d09 	subcc	r4, sp, #576	; 0x240
   1ba44:	4d445f53 	stclmi	15, cr5, [r4, #-332]	; 0xfffffeb4
   1ba48:	20525341 	subscs	r5, r2, r1, asr #6
   1ba4c:	4753202d 	ldrbmi	r2, [r3, -sp, lsr #32]
   1ba50:	45636544 	strbmi	r6, [r3, #-1348]!	; 0xfffffabc
   1ba54:	0d0a7272 	sfmeq	f7, 4, [sl, #-456]	; 0xfffffe38
   1ba58:	00000000 	andeq	r0, r0, r0

0001ba5c <.LC38>:
   1ba5c:	324d4d09 	subcc	r4, sp, #576	; 0x240
   1ba60:	4d445f53 	stclmi	15, cr5, [r4, #-332]	; 0xfffffeb4
   1ba64:	20525341 	subscs	r5, r2, r1, asr #6
   1ba68:	4753202d 	ldrbmi	r2, [r3, -sp, lsr #32]
   1ba6c:	45766c53 	ldrbmi	r6, [r6, #-3155]!	; 0xfffff3ad
   1ba70:	0d0a7272 	sfmeq	f7, 4, [sl, #-456]	; 0xfffffe38
   1ba74:	00000000 	andeq	r0, r0, r0

0001ba78 <.LC39>:
   1ba78:	324d4d09 	subcc	r4, sp, #576	; 0x240
   1ba7c:	4d445f53 	stclmi	15, cr5, [r4, #-332]	; 0xfffffeb4
   1ba80:	20525341 	subscs	r5, r2, r1, asr #6
   1ba84:	4f53202d 	svcmi	0x0053202d
   1ba88:	72614546 	rsbvc	r4, r1, #293601280	; 0x11800000
   1ba8c:	7245796c 	subvc	r7, r5, #108, 18	; 0x1b0000
   1ba90:	000d0a72 	andeq	r0, sp, r2, ror sl

0001ba94 <.LC40>:
   1ba94:	324d4d09 	subcc	r4, sp, #576	; 0x240
   1ba98:	4d445f53 	stclmi	15, cr5, [r4, #-332]	; 0xfffffeb4
   1ba9c:	20525341 	subscs	r5, r2, r1, asr #6
   1baa0:	4d44202d 	stclmi	0, cr2, [r4, #-180]	; 0xffffff4c
   1baa4:	63654441 	cmnvs	r5, #1090519040	; 0x41000000
   1baa8:	0a727245 	beq	1cb83c4 <__bss_end+0x1c9bc20>
   1baac:	0000000d 	andeq	r0, r0, sp

0001bab0 <.LC41>:
   1bab0:	324d4d09 	subcc	r4, sp, #576	; 0x240
   1bab4:	4d445f53 	stclmi	15, cr5, [r4, #-332]	; 0xfffffeb4
   1bab8:	20525341 	subscs	r5, r2, r1, asr #6
   1babc:	4d44202d 	stclmi	0, cr2, [r4, #-180]	; 0xffffff4c
   1bac0:	766c5341 	strbtvc	r5, [ip], -r1, asr #6
   1bac4:	0a727245 	beq	1cb83e0 <__bss_end+0x1c9bc3c>
   1bac8:	0000000d 	andeq	r0, r0, sp

0001bacc <.LC42>:
   1bacc:	324d4d09 	subcc	r4, sp, #576	; 0x240
   1bad0:	4d445f53 	stclmi	15, cr5, [r4, #-332]	; 0xfffffeb4
   1bad4:	20525341 	subscs	r5, r2, r1, asr #6
   1bad8:	4d44202d 	stclmi	0, cr2, [r4, #-180]	; 0xffffff4c
   1badc:	746e4941 	strbtvc	r4, [lr], #-2369	; 0xfffff6bf
   1bae0:	0a727245 	beq	1cb83fc <__bss_end+0x1c9bc58>
   1bae4:	0000000d 	andeq	r0, r0, sp

0001bae8 <.LC43>:
   1bae8:	5f495841 	svcpl	0x00495841
   1baec:	414d4456 	cmpmi	sp, r6, asr r4
   1baf0:	43202d20 	teqmi	r0, #32, 26	; 0x800
   1baf4:	7261656c 	rsbvc	r6, r1, #108, 10	; 0x1b000000
   1baf8:	20676e69 	rsbcs	r6, r7, r9, ror #28
   1bafc:	6f727245 	svcvs	0x00727245
   1bb00:	6c462072 	mcrrvs	0, 7, r2, r6, cr2
   1bb04:	0a736761 	beq	1cf5890 <__bss_end+0x1cd90ec>
   1bb08:	0000000d 	andeq	r0, r0, sp

0001bb0c <.LC0>:
   1bb0c:	43545609 	cmpmi	r4, #9437184	; 0x900000
   1bb10:	6e654720 	cdpvs	7, 6, cr4, cr5, cr0, {1}
   1bb14:	74617265 	strbtvc	r7, [r1], #-613	; 0xfffffd9b
   1bb18:	4320726f 	teqmi	r0, #-268435450	; 0xf0000006
   1bb1c:	69666e6f 	stmdbvs	r6!, {r0, r1, r2, r3, r5, r6, r9, sl, fp, sp, lr}^
   1bb20:	61727567 	cmnvs	r2, r7, ror #10
   1bb24:	6e6f6974 	mcrvs	9, 3, r6, cr15, cr4, {3}
   1bb28:	00000d0a 	andeq	r0, r0, sl, lsl #26

0001bb2c <.LC1>:
   1bb2c:	6f480909 	svcvs	0x00480909
   1bb30:	6f7a6972 	svcvs	0x007a6972
   1bb34:	6c61746e 	cfstrdvs	mvd7, [r1], #-440	; 0xfffffe48
   1bb38:	6d695420 	cfstrdvs	mvd5, [r9, #-128]!	; 0xffffff80
   1bb3c:	3a676e69 	bcc	19f74e8 <__bss_end+0x19dad44>
   1bb40:	00000d0a 	andeq	r0, r0, sl, lsl #26

0001bb44 <.LC2>:
   1bb44:	48090909 	stmdami	r9, {r0, r3, r8, fp}
   1bb48:	69746341 	ldmdbvs	r4!, {r0, r6, r8, r9, sp, lr}^
   1bb4c:	74536576 	ldrbvc	r6, [r3], #-1398	; 0xfffffa8a
   1bb50:	20747261 	rsbscs	r7, r4, r1, ror #4
   1bb54:	6425203d 	strtvs	r2, [r5], #-61	; 0xffffffc3
   1bb58:	00000a0d 	andeq	r0, r0, sp, lsl #20

0001bb5c <.LC3>:
   1bb5c:	48090909 	stmdami	r9, {r0, r3, r8, fp}
   1bb60:	6e6f7246 	cdpvs	2, 6, cr7, cr15, cr6, {2}
   1bb64:	726f5074 	rsbvc	r5, pc, #116	; 0x74
   1bb68:	74536863 	ldrbvc	r6, [r3], #-2147	; 0xfffff79d
   1bb6c:	20747261 	rsbscs	r7, r4, r1, ror #4
   1bb70:	0a0d6425 	beq	374c0c <__bss_end+0x358468>
   1bb74:	00000000 	andeq	r0, r0, r0

0001bb78 <.LC4>:
   1bb78:	48090909 	stmdami	r9, {r0, r3, r8, fp}
   1bb7c:	636e7953 	cmnvs	lr, #1359872	; 0x14c000
   1bb80:	72617453 	rsbvc	r7, r1, #1392508928	; 0x53000000
   1bb84:	64252074 	strtvs	r2, [r5], #-116	; 0xffffff8c
   1bb88:	00000a0d 	andeq	r0, r0, sp, lsl #20

0001bb8c <.LC5>:
   1bb8c:	48090909 	stmdami	r9, {r0, r3, r8, fp}
   1bb90:	6b636142 	blvs	18f40a0 <__bss_end+0x18d78fc>
   1bb94:	63726f50 	cmnvs	r2, #80, 30	; 0x140
   1bb98:	61745368 	cmnvs	r4, r8, ror #6
   1bb9c:	25207472 	strcs	r7, [r0, #-1138]!	; 0xfffffb8e
   1bba0:	000a0d64 	andeq	r0, sl, r4, ror #26

0001bba4 <.LC6>:
   1bba4:	48090909 	stmdami	r9, {r0, r3, r8, fp}
   1bba8:	61746f54 	cmnvs	r4, r4, asr pc
   1bbac:	203d206c 	eorscs	r2, sp, ip, rrx
   1bbb0:	0a0d6425 	beq	374c4c <__bss_end+0x3584a8>
   1bbb4:	00000000 	andeq	r0, r0, r0

0001bbb8 <.LC7>:
   1bbb8:	65560909 	ldrbvs	r0, [r6, #-2313]	; 0xfffff6f7
   1bbbc:	63697472 	cmnvs	r9, #1912602624	; 0x72000000
   1bbc0:	54206c61 	strtpl	r6, [r0], #-3169	; 0xfffff39f
   1bbc4:	6e696d69 	cdpvs	13, 6, cr6, cr9, cr9, {3}
   1bbc8:	0d0a3a67 	vstreq	s6, [sl, #-412]	; 0xfffffe64
   1bbcc:	00000000 	andeq	r0, r0, r0

0001bbd0 <.LC8>:
   1bbd0:	56090909 	strpl	r0, [r9], -r9, lsl #18
   1bbd4:	74634130 	strbtvc	r4, [r3], #-304	; 0xfffffed0
   1bbd8:	53657669 	cmnpl	r5, #110100480	; 0x6900000
   1bbdc:	74726174 	ldrbtvc	r6, [r2], #-372	; 0xfffffe8c
   1bbe0:	0d642520 	cfstr64eq	mvdx2, [r4, #-128]!	; 0xffffff80
   1bbe4:	0000000a 	andeq	r0, r0, sl

0001bbe8 <.LC9>:
   1bbe8:	56090909 	strpl	r0, [r9], -r9, lsl #18
   1bbec:	6f724630 	svcvs	0x00724630
   1bbf0:	6f50746e 	svcvs	0x0050746e
   1bbf4:	53686372 	cmnpl	r8, #-939524095	; 0xc8000001
   1bbf8:	74726174 	ldrbtvc	r6, [r2], #-372	; 0xfffffe8c
   1bbfc:	0d642520 	cfstr64eq	mvdx2, [r4, #-128]!	; 0xffffff80
   1bc00:	0000000a 	andeq	r0, r0, sl

0001bc04 <.LC10>:
   1bc04:	56090909 	strpl	r0, [r9], -r9, lsl #18
   1bc08:	6e795330 	mrcvs	3, 3, r5, cr9, cr0, {1}
   1bc0c:	61745363 	cmnvs	r4, r3, ror #6
   1bc10:	25207472 	strcs	r7, [r0, #-1138]!	; 0xfffffb8e
   1bc14:	000a0d64 	andeq	r0, sl, r4, ror #26

0001bc18 <.LC11>:
   1bc18:	56090909 	strpl	r0, [r9], -r9, lsl #18
   1bc1c:	63614230 	cmnvs	r1, #48, 4
   1bc20:	726f506b 	rsbvc	r5, pc, #107	; 0x6b
   1bc24:	74536863 	ldrbvc	r6, [r3], #-2147	; 0xfffff79d
   1bc28:	20747261 	rsbscs	r7, r4, r1, ror #4
   1bc2c:	0a0d6425 	beq	374cc8 <__bss_end+0x358524>
   1bc30:	00000000 	andeq	r0, r0, r0

0001bc34 <.LC12>:
   1bc34:	56090909 	strpl	r0, [r9], -r9, lsl #18
   1bc38:	746f5430 	strbtvc	r5, [pc], #-1072	; 1bc40 <.LC12+0xc>
   1bc3c:	25206c61 	strcs	r6, [r0, #-3169]!	; 0xfffff39f
   1bc40:	000a0d64 	andeq	r0, sl, r4, ror #26
   1bc44:	00414756 	subeq	r4, r1, r6, asr r7
   1bc48:	50303834 	eorspl	r3, r0, r4, lsr r8
   1bc4c:	00000000 	andeq	r0, r0, r0
   1bc50:	50363735 	eorspl	r3, r6, r5, lsr r7
   1bc54:	00000000 	andeq	r0, r0, r0
   1bc58:	41475653 	cmpmi	r7, r3, asr r6
   1bc5c:	00000000 	andeq	r0, r0, r0
   1bc60:	00414758 	subeq	r4, r1, r8, asr r7
   1bc64:	50303237 	eorspl	r3, r0, r7, lsr r2
   1bc68:	00000000 	andeq	r0, r0, r0
   1bc6c:	41475853 	cmpmi	r7, r3, asr r8
   1bc70:	00000000 	andeq	r0, r0, r0
   1bc74:	30383031 	eorscc	r3, r8, r1, lsr r0
   1bc78:	00000050 	andeq	r0, r0, r0, asr r0
   1bc7c:	41475855 	cmpmi	r7, r5, asr r8
   1bc80:	00000000 	andeq	r0, r0, r0

0001bc84 <.LC9>:
   1bc84:	4b4e557b 	blmi	13b1278 <__bss_end+0x1394ad4>
   1bc88:	4e574f4e 	cdpmi	15, 5, cr4, cr7, cr14, {2}
   1bc8c:	0000007d 	andeq	r0, r0, sp, ror r0

0001bc90 <.LC0>:
   1bc90:	63747678 	cmnvs	r4, #120, 12	; 0x7800000
   1bc94:	0000632e 	andeq	r6, r0, lr, lsr #6

0001bc98 <.LC0>:
   1bc98:	69786178 	ldmdbvs	r8!, {r3, r4, r5, r6, r8, sp, lr}^
   1bc9c:	616d6476 	smcvs	54854	; 0xd646
   1bca0:	0000632e 	andeq	r6, r0, lr, lsr #6

0001bca4 <.LC0>:
   1bca4:	706d7544 	rsbvc	r7, sp, r4, asr #10
   1bca8:	67657220 	strbvs	r7, [r5, -r0, lsr #4]!
   1bcac:	65747369 	ldrbvs	r7, [r4, #-873]!	; 0xfffffc97
   1bcb0:	6f662072 	svcvs	0x00662072
   1bcb4:	68632072 	stmdavs	r3!, {r1, r4, r5, r6, sp}^
   1bcb8:	656e6e61 	strbvs	r6, [lr, #-3681]!	; 0xfffff19f
   1bcbc:	7825206c 	stmdavc	r5!, {r2, r3, r5, r6, sp}
   1bcc0:	000a0d3a 	andeq	r0, sl, sl, lsr sp

0001bcc4 <.LC1>:
   1bcc4:	6e6f4309 	cdpvs	3, 6, cr4, cr15, cr9, {0}
   1bcc8:	6c6f7274 	sfmvs	f7, 2, [pc], #-464	; 1bb00 <.LC43+0x18>
   1bccc:	67655220 	strbvs	r5, [r5, -r0, lsr #4]!
   1bcd0:	7825203a 	stmdavc	r5!, {r1, r3, r4, r5, sp}
   1bcd4:	00000a0d 	andeq	r0, r0, sp, lsl #20

0001bcd8 <.LC2>:
   1bcd8:	61745309 	cmnvs	r4, r9, lsl #6
   1bcdc:	20737574 	rsbscs	r7, r3, r4, ror r5
   1bce0:	3a676552 	bcc	19f5230 <__bss_end+0x19d8a8c>
   1bce4:	0d782520 	cfldr64eq	mvdx2, [r8, #-128]!	; 0xffffff80
   1bce8:	0000000a 	andeq	r0, r0, sl

0001bcec <.LC3>:
   1bcec:	45444309 	strbmi	r4, [r4, #-777]	; 0xfffffcf7
   1bcf0:	52204353 	eorpl	r4, r0, #1275068417	; 0x4c000001
   1bcf4:	203a6765 	eorscs	r6, sl, r5, ror #14
   1bcf8:	0a0d7825 	beq	379d94 <__bss_end+0x35d5f0>
   1bcfc:	00000000 	andeq	r0, r0, r0

0001bd00 <.LC4>:
   1bd00:	45445409 	strbmi	r5, [r4, #-1033]	; 0xfffffbf7
   1bd04:	52204353 	eorpl	r4, r0, #1275068417	; 0x4c000001
   1bd08:	203a6765 	eorscs	r6, sl, r5, ror #14
   1bd0c:	0a0d7825 	beq	379da8 <__bss_end+0x35d604>
   1bd10:	00000000 	andeq	r0, r0, r0

0001bd14 <.LC0>:
   1bd14:	75637378 	strbvc	r7, [r3, #-888]!	; 0xfffffc88
   1bd18:	656d6974 	strbvs	r6, [sp, #-2420]!	; 0xfffff68c
   1bd1c:	00632e72 	rsbeq	r2, r3, r2, ror lr

0001bd20 <.LC0>:
   1bd20:	75637378 	strbvc	r7, [r3, #-888]!	; 0xfffffc88
   1bd24:	656d6974 	strbvs	r6, [sp, #-2420]!	; 0xfffff68c
   1bd28:	65735f72 	ldrbvs	r5, [r3, #-3954]!	; 0xfffff08e
   1bd2c:	6574666c 	ldrbvs	r6, [r4, #-1644]!	; 0xfffff994
   1bd30:	632e7473 	teqvs	lr, #1929379840	; 0x73000000
   1bd34:	00000000 	andeq	r0, r0, r0

0001bd38 <.LC0>:
   1bd38:	706d7544 	rsbvc	r7, sp, r4, asr #10
   1bd3c:	67657220 	strbvs	r7, [r5, -r0, lsr #4]!
   1bd40:	65747369 	ldrbvs	r7, [r4, #-873]!	; 0xfffffc97
   1bd44:	0d3a7372 	ldceq	3, cr7, [sl, #-456]!	; 0xfffffe38
   1bd48:	0000000a 	andeq	r0, r0, sl

0001bd4c <.LC1>:
   1bd4c:	746e6f43 	strbtvc	r6, [lr], #-3907	; 0xfffff0bd
   1bd50:	206c6f72 	rsbcs	r6, ip, r2, ror pc
   1bd54:	69676572 	stmdbvs	r7!, {r1, r4, r5, r6, r8, sl, sp, lr}^
   1bd58:	72657473 	rsbvc	r7, r5, #1929379840	; 0x73000000
   1bd5c:	7825203a 	stmdavc	r5!, {r1, r3, r4, r5, sp}
   1bd60:	00000a0d 	andeq	r0, r0, sp, lsl #20

0001bd64 <.LC2>:
   1bd64:	74617453 	strbtvc	r7, [r1], #-1107	; 0xfffffbad
   1bd68:	72207375 	eorvc	r7, r0, #-738197503	; 0xd4000001
   1bd6c:	73696765 	cmnvc	r9, #26476544	; 0x1940000
   1bd70:	3a726574 	bcc	1cb5348 <__bss_end+0x1c98ba4>
   1bd74:	0d782520 	cfldr64eq	mvdx2, [r8, #-128]!	; 0xffffff80
   1bd78:	0000000a 	andeq	r0, r0, sl

0001bd7c <.LC3>:
   1bd7c:	72727543 	rsbsvc	r7, r2, #281018368	; 0x10c00000
   1bd80:	20746e65 	rsbscs	r6, r4, r5, ror #28
   1bd84:	72204442 	eorvc	r4, r0, #1107296256	; 0x42000000
   1bd88:	73696765 	cmnvc	r9, #26476544	; 0x1940000
   1bd8c:	3a726574 	bcc	1cb5364 <__bss_end+0x1c98bc0>
   1bd90:	0d782520 	cfldr64eq	mvdx2, [r8, #-128]!	; 0xffffff80
   1bd94:	0000000a 	andeq	r0, r0, sl

0001bd98 <.LC4>:
   1bd98:	6c696154 	stfvse	f6, [r9], #-336	; 0xfffffeb0
   1bd9c:	20444220 	subcs	r4, r4, r0, lsr #4
   1bda0:	69676572 	stmdbvs	r7!, {r1, r4, r5, r6, r8, sl, sp, lr}^
   1bda4:	72657473 	rsbvc	r7, r5, #1929379840	; 0x73000000
   1bda8:	7825203a 	stmdavc	r5!, {r1, r3, r4, r5, sp}
   1bdac:	00000a0d 	andeq	r0, r0, sp, lsl #20

0001bdb0 <.LC5>:
   1bdb0:	72756f53 	rsbsvc	r6, r5, #332	; 0x14c
   1bdb4:	41206563 	teqmi	r0, r3, ror #10
   1bdb8:	20726464 	rsbscs	r6, r2, r4, ror #8
   1bdbc:	69676572 	stmdbvs	r7!, {r1, r4, r5, r6, r8, sl, sp, lr}^
   1bdc0:	72657473 	rsbvc	r7, r5, #1929379840	; 0x73000000
   1bdc4:	7825203a 	stmdavc	r5!, {r1, r3, r4, r5, sp}
   1bdc8:	00000a0d 	andeq	r0, r0, sp, lsl #20

0001bdcc <.LC6>:
   1bdcc:	74736544 	ldrbtvc	r6, [r3], #-1348	; 0xfffffabc
   1bdd0:	74616e69 	strbtvc	r6, [r1], #-3689	; 0xfffff197
   1bdd4:	206e6f69 	rsbcs	r6, lr, r9, ror #30
   1bdd8:	72646441 	rsbvc	r6, r4, #1090519040	; 0x41000000
   1bddc:	67657220 	strbvs	r7, [r5, -r0, lsr #4]!
   1bde0:	65747369 	ldrbvs	r7, [r4, #-873]!	; 0xfffffc97
   1bde4:	25203a72 	strcs	r3, [r0, #-2674]!	; 0xfffff58e
   1bde8:	000a0d78 	andeq	r0, sl, r8, ror sp

0001bdec <.LC7>:
   1bdec:	20545442 	subscs	r5, r4, r2, asr #8
   1bdf0:	69676572 	stmdbvs	r7!, {r1, r4, r5, r6, r8, sl, sp, lr}^
   1bdf4:	72657473 	rsbvc	r7, r5, #1929379840	; 0x73000000
   1bdf8:	7825203a 	stmdavc	r5!, {r1, r3, r4, r5, sp}
   1bdfc:	00000a0d 	andeq	r0, r0, sp, lsl #20

0001be00 <.LC0>:
   1be00:	75440a0d 	strbvc	r0, [r4, #-2573]	; 0xfffff5f3
   1be04:	4220706d 	eormi	r7, r0, #109	; 0x6d
   1be08:	78252044 	stmdavc	r5!, {r2, r6, sp}
   1be0c:	000a0d3a 	andeq	r0, sl, sl, lsr sp

0001be10 <.LC1>:
   1be10:	7478654e 	ldrbtvc	r6, [r8], #-1358	; 0xfffffab2
   1be14:	20444220 	subcs	r4, r4, r0, lsr #4
   1be18:	20727470 	rsbscs	r7, r2, r0, ror r4
   1be1c:	0d782509 	cfldr64eq	mvdx2, [r8, #-36]!	; 0xffffffdc
   1be20:	0000000a 	andeq	r0, r0, sl

0001be24 <.LC2>:
   1be24:	66667542 	strbtvs	r7, [r6], -r2, asr #10
   1be28:	73207265 	teqvc	r0, #1342177286	; 0x50000006
   1be2c:	64616372 	strbtvs	r6, [r1], #-882	; 0xfffffc8e
   1be30:	09207264 	stmdbeq	r0!, {r2, r5, r6, r9, ip, sp, lr}
   1be34:	0a0d7825 	beq	379ed0 <__bss_end+0x35d72c>
   1be38:	00000000 	andeq	r0, r0, r0

0001be3c <.LC3>:
   1be3c:	66667542 	strbtvs	r7, [r6], -r2, asr #10
   1be40:	64207265 	strtvs	r7, [r0], #-613	; 0xfffffd9b
   1be44:	64617473 	strbtvs	r7, [r1], #-1139	; 0xfffffb8d
   1be48:	09207264 	stmdbeq	r0!, {r2, r5, r6, r9, ip, sp, lr}
   1be4c:	0a0d7825 	beq	379ee8 <__bss_end+0x35d744>
   1be50:	00000000 	andeq	r0, r0, r0

0001be54 <.LC4>:
   1be54:	66667542 	strbtvs	r7, [r6], -r2, asr #10
   1be58:	4c207265 	sfmmi	f7, 4, [r0], #-404	; 0xfffffe6c
   1be5c:	74676e65 	strbtvc	r6, [r7], #-3685	; 0xfffff19b
   1be60:	25092068 	strcs	r2, [r9, #-104]	; 0xffffff98
   1be64:	000a0d78 	andeq	r0, sl, r8, ror sp

0001be68 <.LC5>:
   1be68:	73204442 	teqvc	r0, #1107296256	; 0x42000000
   1be6c:	75746174 	ldrbvc	r6, [r4, #-372]!	; 0xfffffe8c
   1be70:	25092073 	strcs	r2, [r9, #-115]	; 0xffffff8d
   1be74:	000a0d78 	andeq	r0, sl, r8, ror sp

0001be78 <.LC6>:
   1be78:	70204442 	eorvc	r4, r0, r2, asr #8
   1be7c:	20737968 	rsbscs	r7, r3, r8, ror #18
   1be80:	72646441 	rsbvc	r6, r4, #1090519040	; 0x41000000
   1be84:	78250920 	stmdavc	r5!, {r5, r8, fp}
   1be88:	00000a0d 	andeq	r0, r0, sp, lsl #20

0001be8c <.LC7>:
   1be8c:	69204442 	stmdbvs	r0!, {r1, r6, sl, lr}
   1be90:	694c2073 	stmdbvs	ip, {r0, r1, r4, r5, r6, sp}^
   1be94:	09206574 	stmdbeq	r0!, {r2, r4, r5, r6, r8, sl, sp, lr}
   1be98:	0a0d7825 	beq	379f34 <__bss_end+0x35d790>
   1be9c:	00000000 	andeq	r0, r0, r0

0001bea0 <.LC8>:
   1bea0:	68204442 	stmdavs	r0!, {r1, r6, sl, lr}
   1bea4:	44207361 	strtmi	r7, [r0], #-865	; 0xfffffc9f
   1bea8:	09204552 	stmdbeq	r0!, {r1, r4, r6, r8, sl, lr}
   1beac:	0a0d7825 	beq	379f48 <__bss_end+0x35d7a4>
   1beb0:	00000000 	andeq	r0, r0, r0

0001beb4 <.LC9>:
   1beb4:	77204442 	strvc	r4, [r0, -r2, asr #8]!
   1beb8:	2064726f 	rsbcs	r7, r4, pc, ror #4
   1bebc:	676e656c 	strbvs	r6, [lr, -ip, ror #10]!
   1bec0:	09206874 	stmdbeq	r0!, {r2, r4, r5, r6, fp, sp, lr}
   1bec4:	0a0d7825 	beq	379f60 <__bss_end+0x35d7bc>
   1bec8:	00000a0d 	andeq	r0, r0, sp, lsl #20

0001becc <.LC10>:
   1becc:	6d204442 	cfstrsvs	mvf4, [r0, #-264]!	; 0xfffffef8
   1bed0:	74207861 	strtvc	r7, [r0], #-2145	; 0xfffff79f
   1bed4:	736e6172 	cmnvc	lr, #-2147483620	; 0x8000001c
   1bed8:	20726566 	rsbscs	r6, r2, r6, ror #10
   1bedc:	676e656c 	strbvs	r6, [lr, -ip, ror #10]!
   1bee0:	09206874 	stmdbeq	r0!, {r2, r4, r5, r6, fp, sp, lr}
   1bee4:	0a0d7825 	beq	379f80 <__bss_end+0x35d7dc>
   1bee8:	00000a0d 	andeq	r0, r0, sp, lsl #20

0001beec <.LC0>:
   1beec:	75637378 	strbvc	r7, [r3, #-888]!	; 0xfffffc88
   1bef0:	5f636967 	svcpl	0x00636967
   1bef4:	72746e69 	rsbsvc	r6, r4, #1680	; 0x690
   1bef8:	0000632e 	andeq	r6, r0, lr, lsr #6

0001befc <.LC0>:
   1befc:	75637378 	strbvc	r7, [r3, #-888]!	; 0xfffffc88
   1bf00:	2e636967 	cdpcs	9, 6, cr6, cr3, cr7, {3}
   1bf04:	00000063 	andeq	r0, r0, r3, rrx

0001bf08 <.LC0>:
   1bf08:	736c6878 	cmnvc	ip, #120, 16	; 0x780000
   1bf0c:	63616d5f 	cmnvs	r1, #6080	; 0x17c0
   1bf10:	00632e63 	rsbeq	r2, r3, r3, ror #28

0001bf14 <.LC0>:
   1bf14:	75637378 	strbvc	r7, [r3, #-888]!	; 0xfffffc88
   1bf18:	5f636967 	svcpl	0x00636967
   1bf1c:	632e7768 	teqvs	lr, #104, 14	; 0x1a00000
   1bf20:	00000000 	andeq	r0, r0, r0

Disassembly of section .data:

0001bf24 <timer_base>:
   1bf24:	f8f00600 			; <UNDEFINED> instruction: 0xf8f00600

0001bf28 <XHls_macc_ConfigTable>:
   1bf28:	00000000 	andeq	r0, r0, r0
   1bf2c:	43c50000 	bicmi	r0, r5, #0

0001bf30 <fmc_imageon_hdmii_edid_content>:
   1bf30:	ffffff00 			; <UNDEFINED> instruction: 0xffffff00
   1bf34:	00ffffff 	ldrshteq	pc, [pc], #255	; <UNPREDICTABLE>
   1bf38:	0000d406 	andeq	sp, r0, r6, lsl #8
   1bf3c:	00000000 	andeq	r0, r0, r0
   1bf40:	03011600 	movweq	r1, #5632	; 0x1600
   1bf44:	78274681 	stmdavc	r7!, {r0, r7, r9, sl, lr}
   1bf48:	a130320a 	teqge	r0, sl, lsl #4
   1bf4c:	269e5254 			; <UNDEFINED> instruction: 0x269e5254
   1bf50:	a34b490a 	movtge	r4, #47370	; 0xb90a
   1bf54:	c0810008 	addgt	r0, r1, r8
   1bf58:	0f810081 	svceq	0x00810081
   1bf5c:	80814081 	addhi	r4, r1, r1, lsl #1
   1bf60:	00b30095 	umlalseq	r0, r3, r5, r0
   1bf64:	3a020101 	bcc	9c370 <__bss_end+0x7fbcc>
   1bf68:	38711880 	ldmdacc	r1!, {r7, fp, ip}^
   1bf6c:	2c58402d 	mrrccs	0, 2, r4, r8, cr13
   1bf70:	8ec40045 	cdphi	0, 12, cr0, cr4, cr5, {2}
   1bf74:	1e000021 	cdpne	0, 0, cr0, cr0, cr1, {1}
   1bf78:	a0001aa9 	andge	r1, r0, r9, lsr #21
   1bf7c:	30160050 	andscc	r0, r6, r0, asr r0
   1bf80:	00372030 	eorseq	r2, r7, r0, lsr r0
   1bf84:	00218ec4 	eoreq	r8, r1, r4, asr #29
   1bf88:	00001a00 	andeq	r1, r0, r0, lsl #20
   1bf8c:	4600fc00 	strmi	pc, [r0], -r0, lsl #24
   1bf90:	492d434d 	pushmi	{r0, r2, r3, r6, r8, r9, lr}
   1bf94:	4547414d 	strbmi	r4, [r7, #-333]	; 0xfffffeb3
   1bf98:	200a4e4f 	andcs	r4, sl, pc, asr #28
   1bf9c:	fd000000 	stc2	0, cr0, [r0, #-0]
   1bfa0:	204b3800 	subcs	r3, fp, r0, lsl #16
   1bfa4:	0a001144 	beq	204bc <__bss_end+0x3d18>
   1bfa8:	20202020 	eorcs	r2, r0, r0, lsr #32
   1bfac:	54012020 	strpl	r2, [r1], #-32	; 0xffffffe0
   1bfb0:	711f0302 	tstvc	pc, r2, lsl #6
   1bfb4:	0403904b 	streq	r9, [r3], #-75	; 0xffffffb5
   1bfb8:	14131205 	ldrne	r1, [r3], #-517	; 0xfffffdfb
   1bfbc:	1607201f 			; <UNDEFINED> instruction: 0x1607201f
   1bfc0:	50071526 	andpl	r1, r7, r6, lsr #10
   1bfc4:	67010709 	strvs	r0, [r1, -r9, lsl #14]
   1bfc8:	10000c03 	andne	r0, r0, r3, lsl #24
   1bfcc:	011e0000 	tsteq	lr, r0
   1bfd0:	5172001d 	cmnpl	r2, sp, lsl r0
   1bfd4:	6e201ed0 	mcrvs	14, 1, r1, cr0, cr0, {6}
   1bfd8:	c4005528 	strgt	r5, [r0], #-1320	; 0xfffffad8
   1bfdc:	0000218e 	andeq	r2, r0, lr, lsl #3
   1bfe0:	801d011e 	andshi	r0, sp, lr, lsl r1
   1bfe4:	161c7118 			; <UNDEFINED> instruction: 0x161c7118
   1bfe8:	252c5820 	strcs	r5, [ip, #-2080]!	; 0xfffff7e0
   1bfec:	218ec400 	orrcs	ip, lr, r0, lsl #8
   1bff0:	8c9e0000 	ldchi	0, cr0, [lr], {0}
   1bff4:	208ad00a 	addcs	sp, sl, sl
   1bff8:	10102de0 	andsne	r2, r0, r0, ror #27
   1bffc:	c400963e 	strgt	r9, [r0], #-1598	; 0xfffff9c2
   1c000:	0000218e 	andeq	r2, r0, lr, lsl #3
   1c004:	801d0118 	andshi	r0, sp, r8, lsl r1
   1c008:	2d38733e 	ldccs	3, cr7, [r8, #-248]!	; 0xffffff08
   1c00c:	452c7e40 	strmi	r7, [ip, #-3648]!	; 0xfffff1c0
   1c010:	218ec480 	orrcs	ip, lr, r0, lsl #9
   1c014:	1a1e0000 	bne	79c01c <__bss_end+0x77f878>
   1c018:	70a08036 	adcvc	r8, r0, r6, lsr r0
   1c01c:	30401f38 	subcc	r1, r0, r8, lsr pc
   1c020:	c4002520 	strgt	r2, [r0], #-1312	; 0xfffffae0
   1c024:	0000218e 	andeq	r2, r0, lr, lsl #3
   1c028:	0000001a 	andeq	r0, r0, sl, lsl r0
   1c02c:	01000000 	mrseq	r0, (UNDEF: 0)

0001c030 <iic_cdce913>:
   1c030:	01018100 	mrseq	r8, (UNDEF: 17)
   1c034:	0203b402 	andeq	fp, r3, #33554432	; 0x2000000
   1c038:	50050204 	andpl	r0, r5, r4, lsl #4
   1c03c:	00076006 	andeq	r6, r7, r6
   1c040:	00090008 	andeq	r0, r9, r8
   1c044:	000b000a 	andeq	r0, fp, sl
   1c048:	000d000c 	andeq	r0, sp, ip
   1c04c:	000f000e 	andeq	r0, pc, lr
   1c050:	00110010 	andseq	r0, r1, r0, lsl r0
   1c054:	00130012 	andseq	r0, r3, r2, lsl r0
   1c058:	02156d14 	andseq	r6, r5, #20, 26	; 0x500
   1c05c:	00170016 	andseq	r0, r7, r6, lsl r0
   1c060:	b0190018 	andslt	r0, r9, r8, lsl r0
   1c064:	c91b021a 	ldmdbgt	fp, {r1, r3, r4, r9}
   1c068:	b01d001c 	andslt	r0, sp, ip, lsl r0
   1c06c:	c91f021e 	ldmdbgt	pc, {r1, r2, r3, r4, r9}	; <UNPREDICTABLE>

0001c070 <iic_cdce913_y1_config_25_175_000>:
   1c070:	0403b402 	streq	fp, [r3], #-1026	; 0xfffffbfe
   1c074:	f7193e18 			; <UNDEFINED> instruction: 0xf7193e18
   1c078:	ac1b131a 	ldcge	3, cr1, [fp], {26}

0001c07c <iic_cdce913_y1_config_27_000_000>:
   1c07c:	01033402 	tsteq	r3, r2, lsl #8
   1c080:	10190018 	andsne	r0, r9, r8, lsl r0
   1c084:	101b021a 	andsne	r0, fp, sl, lsl r2

0001c088 <iic_cdce913_y1_config_40_000_000>:
   1c088:	0203b402 	andeq	fp, r3, #33554432	; 0x2000000
   1c08c:	00190518 	andseq	r0, r9, r8, lsl r5
   1c090:	ec1b9a1a 	ldc	10, cr9, [fp], {26}

0001c094 <iic_cdce913_y1_config_65_000_000>:
   1c094:	0203b402 	andeq	fp, r3, #33554432	; 0x2000000
   1c098:	20190818 	andscs	r0, r9, r8, lsl r8
   1c09c:	691b3a1a 	ldmdbvs	fp, {r1, r3, r4, r9, fp, ip, sp}

0001c0a0 <iic_cdce913_y1_config_74_250_000>:
   1c0a0:	0203b402 	andeq	fp, r3, #33554432	; 0x2000000
   1c0a4:	b0190018 	andslt	r0, r9, r8, lsl r0
   1c0a8:	c91b021a 	ldmdbgt	fp, {r1, r3, r4, r9}

0001c0ac <iic_cdce913_y1_config_110_000_000>:
   1c0ac:	0103b402 	tsteq	r3, r2, lsl #8
   1c0b0:	e0190618 	ands	r0, r9, r8, lsl r6
   1c0b4:	081b421a 	ldmdaeq	fp, {r1, r3, r4, r9, lr}

0001c0b8 <iic_cdce913_y1_config_148_500_000>:
   1c0b8:	0103b402 	tsteq	r3, r2, lsl #8
   1c0bc:	b0190018 	andslt	r0, r9, r8, lsl r0
   1c0c0:	c91b021a 	ldmdbgt	fp, {r1, r3, r4, r9}

0001c0c4 <iic_cdce913_y1_config_162_000_000>:
   1c0c4:	0103b402 	tsteq	r3, r2, lsl #8
   1c0c8:	60190018 	andsvs	r0, r9, r8, lsl r0
   1c0cc:	0a1b031a 	beq	6dcd3c <__bss_end+0x6c0598>

0001c0d0 <iic_hdmi_in_reset>:
   1c0d0:	0080ff4c 	addeq	pc, r0, ip, asr #30

0001c0d4 <iic_hdmi_in_mapping>:
   1c0d4:	4c80f44c 	cfstrsmi	mvf15, [r0], {76}	; 0x4c
   1c0d8:	f84c6af5 			; <UNDEFINED> instruction: 0xf84c6af5
   1c0dc:	64f94c4c 	ldrbtvs	r4, [r9], #3148	; 0xc4c
   1c0e0:	4c6cfa4c 	stclmi	10, cr15, [ip], #-304	; 0xfffffed0
   1c0e4:	fd4c68fb 	stc2l	8, cr6, [ip, #-1004]	; 0xfffffc14
   1c0e8:	00000044 	andeq	r0, r0, r4, asr #32

0001c0ec <iic_hdmi_in_edid_pre>:
   1c0ec:	00007732 	andeq	r7, r0, r2, lsr r7

0001c0f0 <iic_hdmi_in_edid_post>:
   1c0f0:	32007732 	andcc	r7, r0, #13107200	; 0xc80000
   1c0f4:	53322052 	teqpl	r2, #82	; 0x52
   1c0f8:	9e703200 	cdpls	2, 7, cr3, cr0, cr0, {0}
   1c0fc:	00037432 	andeq	r7, r3, r2, lsr r4

0001c100 <iic_hdmi_in_config>:
   1c100:	4c06014c 	stfmis	f0, [r6], {76}	; 0x4c
   1c104:	034cf502 	movteq	pc, #50434	; 0xc502	; <UNPREDICTABLE>
   1c108:	62044c80 	andvs	r4, r4, #128, 24	; 0x8000
   1c10c:	222c054c 	eorcs	r0, ip, #76, 10	; 0x13000000
   1c110:	0b4c057b 	bleq	131d704 <__bss_end+0x1300f60>
   1c114:	420c4c44 	andmi	r4, ip, #68, 24	; 0x4400
   1c118:	4c7f144c 	cfldrdmi	mvd1, [pc], #-304	; 1bff0 <fmc_imageon_hdmii_edid_content+0xc0>
   1c11c:	064c8015 			; <UNDEFINED> instruction: 0x064c8015
   1c120:	80194ca1 	andshi	r4, r9, r1, lsr #25
   1c124:	2240334c 	subcs	r3, r0, #76, 6	; 0x30000001
   1c128:	403201ba 	ldrhtmi	r0, [r2], -sl
   1c12c:	039b3481 	orrseq	r3, fp, #-2130706432	; 0x81000000
   1c130:	3401c134 	strcc	ip, [r1], #-308	; 0xfffffecc
   1c134:	c33401c2 	teqgt	r4, #-2147483600	; 0x80000030
   1c138:	01c43401 	biceq	r3, r4, r1, lsl #8
   1c13c:	3401c534 	strcc	ip, [r1], #-1332	; 0xfffffacc
   1c140:	c73401c6 	ldrgt	r0, [r4, -r6, asr #3]!
   1c144:	01c83401 	biceq	r3, r8, r1, lsl #8
   1c148:	3401c934 	strcc	ip, [r1], #-2356	; 0xfffff6cc
   1c14c:	cb3401ca 	blgt	d1c87c <__bss_end+0xd000d8>
   1c150:	01cc3401 	biceq	r3, ip, r1, lsl #8
   1c154:	34080034 	strcc	r0, [r8], #-52	; 0xffffffcc
   1c158:	83340302 	teqhi	r4, #134217728	; 0x8000000
   1c15c:	0c6f34fc 	cfstrdeq	mvd3, [pc], #-1008	; 1bd74 <.LC2+0x10>
   1c160:	341f8534 	ldrcc	r8, [pc], #-1332	; 1c168 <iic_hdmi_in_config+0x68>
   1c164:	8d347087 	ldchi	0, cr7, [r4, #-540]!	; 0xfffffde4
   1c168:	1e8e3404 	cdpne	4, 8, cr3, cr14, cr4, {0}
   1c16c:	348a1a34 	strcc	r1, [sl], #2612	; 0xa34
   1c170:	5834da57 	ldmdapl	r4!, {r0, r1, r2, r4, r6, r9, fp, ip, lr, pc}
   1c174:	10753401 	rsbsne	r3, r5, r1, lsl #8
   1c178:	34049034 	strcc	r9, [r4], #-52	; 0xffffffcc
   1c17c:	00001e91 	muleq	r0, r1, lr

0001c180 <iic_hdmi_in_spdif_config>:
   1c180:	34780334 	ldrbtcc	r0, [r8], #-820	; 0xfffffccc
   1c184:	00000c6e 	andeq	r0, r0, lr, ror #24

0001c188 <iic_hdmi_out_config>:
   1c188:	39104139 	ldmdbcc	r0, {r0, r3, r4, r5, r8, lr}
   1c18c:	99390398 	ldmdbls	r9!, {r3, r4, r7, r8, r9}
   1c190:	e09a3902 	adds	r3, sl, r2, lsl #18
   1c194:	39309c39 	ldmdbcc	r0!, {r0, r3, r4, r5, sl, fp, ip, pc}
   1c198:	a239619d 	eorsge	r6, r9, #1073741863	; 0x40000027
   1c19c:	a4a339a4 	strtge	r3, [r3], #2468	; 0x9a4
   1c1a0:	3944a539 	stmdbcc	r4, {r0, r3, r4, r5, r8, sl, sp, pc}^
   1c1a4:	ba3940ab 	blt	e6c458 <__bss_end+0xe4fcb4>
   1c1a8:	00d03960 	sbcseq	r3, r0, r0, ror #18
   1c1ac:	39ffd139 	ldmibcc	pc!, {r0, r3, r4, r5, r8, ip, lr, pc}^	; <UNPREDICTABLE>
   1c1b0:	e0399cde 	ldrsbt	r9, [r9], -lr
   1c1b4:	60e439d0 	ldrdvs	r3, [r4], #144	; 0x90	; <UNPREDICTABLE>
   1c1b8:	3900f939 	stmdbcc	r0, {r0, r3, r4, r5, r8, fp, ip, sp, lr, pc}
   1c1bc:	16390215 			; <UNDEFINED> instruction: 0x16390215
   1c1c0:	c6183938 			; <UNDEFINED> instruction: 0xc6183938
   1c1c4:	39804039 	stmibcc	r0, {r0, r3, r4, r5, lr}
   1c1c8:	49391048 	ldmdbmi	r9!, {r3, r6, ip}
   1c1cc:	004c39a8 	subeq	r3, ip, r8, lsr #19
   1c1d0:	39005539 	stmdbcc	r0, {r0, r3, r4, r5, r8, sl, ip, lr}
   1c1d4:	af390856 	svcge	0x00390856
   1c1d8:	00013904 	andeq	r3, r1, r4, lsl #18
   1c1dc:	39180239 	ldmdbcc	r8, {r0, r3, r4, r5, r9}
   1c1e0:	0a390003 	beq	e5c1f4 <__bss_end+0xe3fa50>
   1c1e4:	8e0b3910 	mcrhi	9, 0, r3, cr11, cr0, {0}
   1c1e8:	39000c39 	stmdbcc	r0, {r0, r3, r4, r5, sl, fp}
   1c1ec:	14390173 	ldrtne	r0, [r9], #-371	; 0xfffffe8d
   1c1f0:	20963902 	addscs	r3, r6, r2, lsl #18
   1c1f4:	0000fa39 	andeq	pc, r0, r9, lsr sl	; <UNPREDICTABLE>

0001c1f8 <iic_hdmi_out_embedded_sync_config>:
   1c1f8:	39163039 	ldmdbcc	r6, {r0, r3, r4, r5, ip, sp}
   1c1fc:	32390231 	eorscc	r0, r9, #268435459	; 0x10000003
   1c200:	103339c0 	eorsne	r3, r3, r0, asr #19
   1c204:	39053439 	stmdbcc	r5, {r0, r3, r4, r5, sl, ip, sp}
   1c208:	00000217 	andeq	r0, r0, r7, lsl r2

0001c20c <vres_resolutions>:
   1c20c:	0001bc44 	andeq	fp, r1, r4, asr #24
   1c210:	000001e0 	andeq	r0, r0, r0, ror #3
   1c214:	0000000a 	andeq	r0, r0, sl
   1c218:	00000002 	andeq	r0, r0, r2
   1c21c:	00000021 	andeq	r0, r0, r1, lsr #32
   1c220:	00000000 	andeq	r0, r0, r0
   1c224:	00000280 	andeq	r0, r0, r0, lsl #5
   1c228:	00000010 	andeq	r0, r0, r0, lsl r0
   1c22c:	00000060 	andeq	r0, r0, r0, rrx
   1c230:	00000030 	andeq	r0, r0, r0, lsr r0
   1c234:	00000000 	andeq	r0, r0, r0
   1c238:	0001bc48 	andeq	fp, r1, r8, asr #24
   1c23c:	000001e0 	andeq	r0, r0, r0, ror #3
   1c240:	00000009 	andeq	r0, r0, r9
   1c244:	00000006 	andeq	r0, r0, r6
   1c248:	0000001e 	andeq	r0, r0, lr, lsl r0
   1c24c:	00000000 	andeq	r0, r0, r0
   1c250:	000002d0 	ldrdeq	r0, [r0], -r0	; <UNPREDICTABLE>
   1c254:	00000010 	andeq	r0, r0, r0, lsl r0
   1c258:	0000003e 	andeq	r0, r0, lr, lsr r0
   1c25c:	0000003c 	andeq	r0, r0, ip, lsr r0
   1c260:	00000000 	andeq	r0, r0, r0
   1c264:	0001bc50 	andeq	fp, r1, r0, asr ip
   1c268:	00000240 	andeq	r0, r0, r0, asr #4
   1c26c:	00000005 	andeq	r0, r0, r5
   1c270:	00000005 	andeq	r0, r0, r5
   1c274:	00000027 	andeq	r0, r0, r7, lsr #32
   1c278:	00000000 	andeq	r0, r0, r0
   1c27c:	000002d0 	ldrdeq	r0, [r0], -r0	; <UNPREDICTABLE>
   1c280:	0000000c 	andeq	r0, r0, ip
   1c284:	00000040 	andeq	r0, r0, r0, asr #32
   1c288:	00000044 	andeq	r0, r0, r4, asr #32
   1c28c:	00000000 	andeq	r0, r0, r0
   1c290:	0001bc58 	andeq	fp, r1, r8, asr ip
   1c294:	00000258 	andeq	r0, r0, r8, asr r2
   1c298:	00000001 	andeq	r0, r0, r1
   1c29c:	00000004 	andeq	r0, r0, r4
   1c2a0:	00000017 	andeq	r0, r0, r7, lsl r0
   1c2a4:	00000001 	andeq	r0, r0, r1
   1c2a8:	00000320 	andeq	r0, r0, r0, lsr #6
   1c2ac:	00000028 	andeq	r0, r0, r8, lsr #32
   1c2b0:	00000080 	andeq	r0, r0, r0, lsl #1
   1c2b4:	00000058 	andeq	r0, r0, r8, asr r0
   1c2b8:	00000001 	andeq	r0, r0, r1
   1c2bc:	0001bc60 	andeq	fp, r1, r0, ror #24
   1c2c0:	00000300 	andeq	r0, r0, r0, lsl #6
   1c2c4:	00000003 	andeq	r0, r0, r3
   1c2c8:	00000006 	andeq	r0, r0, r6
   1c2cc:	0000001d 	andeq	r0, r0, sp, lsl r0
   1c2d0:	00000000 	andeq	r0, r0, r0
   1c2d4:	00000400 	andeq	r0, r0, r0, lsl #8
   1c2d8:	00000018 	andeq	r0, r0, r8, lsl r0
   1c2dc:	00000088 	andeq	r0, r0, r8, lsl #1
   1c2e0:	000000a0 	andeq	r0, r0, r0, lsr #1
   1c2e4:	00000000 	andeq	r0, r0, r0
   1c2e8:	0001bc64 	andeq	fp, r1, r4, ror #24
   1c2ec:	000002d0 	ldrdeq	r0, [r0], -r0	; <UNPREDICTABLE>
   1c2f0:	00000005 	andeq	r0, r0, r5
   1c2f4:	00000005 	andeq	r0, r0, r5
   1c2f8:	00000014 	andeq	r0, r0, r4, lsl r0
   1c2fc:	00000001 	andeq	r0, r0, r1
   1c300:	00000500 	andeq	r0, r0, r0, lsl #10
   1c304:	0000006e 	andeq	r0, r0, lr, rrx
   1c308:	00000028 	andeq	r0, r0, r8, lsr #32
   1c30c:	000000dc 	ldrdeq	r0, [r0], -ip
   1c310:	00000001 	andeq	r0, r0, r1
   1c314:	0001bc6c 	andeq	fp, r1, ip, ror #24
   1c318:	00000400 	andeq	r0, r0, r0, lsl #8
   1c31c:	00000001 	andeq	r0, r0, r1
   1c320:	00000003 	andeq	r0, r0, r3
   1c324:	0000001a 	andeq	r0, r0, sl, lsl r0
   1c328:	00000000 	andeq	r0, r0, r0
   1c32c:	00000500 	andeq	r0, r0, r0, lsl #10
   1c330:	00000030 	andeq	r0, r0, r0, lsr r0
   1c334:	000000b8 	strheq	r0, [r0], -r8
   1c338:	000000c8 	andeq	r0, r0, r8, asr #1
   1c33c:	00000000 	andeq	r0, r0, r0
   1c340:	0001bc74 	andeq	fp, r1, r4, ror ip
   1c344:	00000438 	andeq	r0, r0, r8, lsr r4
   1c348:	00000004 	andeq	r0, r0, r4
   1c34c:	00000005 	andeq	r0, r0, r5
   1c350:	00000024 	andeq	r0, r0, r4, lsr #32
   1c354:	00000001 	andeq	r0, r0, r1
   1c358:	00000780 	andeq	r0, r0, r0, lsl #15
   1c35c:	00000058 	andeq	r0, r0, r8, asr r0
   1c360:	0000002c 	andeq	r0, r0, ip, lsr #32
   1c364:	00000094 	muleq	r0, r4, r0
   1c368:	00000001 	andeq	r0, r0, r1
   1c36c:	0001bc7c 	andeq	fp, r1, ip, ror ip
   1c370:	000004b0 			; <UNDEFINED> instruction: 0x000004b0
   1c374:	00000001 	andeq	r0, r0, r1
   1c378:	00000003 	andeq	r0, r0, r3
   1c37c:	0000002e 	andeq	r0, r0, lr, lsr #32
   1c380:	00000000 	andeq	r0, r0, r0
   1c384:	00000640 	andeq	r0, r0, r0, asr #12
   1c388:	00000040 	andeq	r0, r0, r0, asr #32
   1c38c:	000000c0 	andeq	r0, r0, r0, asr #1
   1c390:	00000130 	andeq	r0, r0, r0, lsr r1
   1c394:	00000000 	andeq	r0, r0, r0

0001c398 <Xil_AssertWait>:
   1c398:	00000001 	andeq	r0, r0, r1

0001c39c <XVtc_ConfigTable>:
   1c39c:	00000000 	andeq	r0, r0, r0
   1c3a0:	43c00000 	bicmi	r0, r0, #0
   1c3a4:	00000001 	andeq	r0, r0, r1
   1c3a8:	43c10000 	bicmi	r0, r1, #0

0001c3ac <XAxiVdma_ConfigTable>:
   1c3ac:	00000000 	andeq	r0, r0, r0
   1c3b0:	43000000 	movwmi	r0, #0
   1c3b4:	00000003 	andeq	r0, r0, r3
   1c3b8:	00000001 	andeq	r0, r0, r1
   1c3bc:	00000001 	andeq	r0, r0, r1
   1c3c0:	00000040 	andeq	r0, r0, r0, asr #32
   1c3c4:	00000001 	andeq	r0, r0, r1
   1c3c8:	00000001 	andeq	r0, r0, r1
   1c3cc:	00000040 	andeq	r0, r0, r0, asr #32
   1c3d0:	00000000 	andeq	r0, r0, r0
   1c3d4:	00000001 	andeq	r0, r0, r1
   1c3d8:	00000001 	andeq	r0, r0, r1
   1c3dc:	00000001 	andeq	r0, r0, r1
   1c3e0:	00001000 	andeq	r1, r0, r0
   1c3e4:	00001000 	andeq	r1, r0, r0
   1c3e8:	00000001 	andeq	r0, r0, r1
   1c3ec:	00000000 	andeq	r0, r0, r0
   1c3f0:	00000001 	andeq	r0, r0, r1
   1c3f4:	00000001 	andeq	r0, r0, r1
   1c3f8:	00000020 	andeq	r0, r0, r0, lsr #32
   1c3fc:	00000020 	andeq	r0, r0, r0, lsr #32
	...

0001c424 <XScuTimer_ConfigTable>:
   1c424:	00000000 	andeq	r0, r0, r0
   1c428:	f8f00600 			; <UNDEFINED> instruction: 0xf8f00600

0001c42c <XAxiCdma_ConfigTable>:
   1c42c:	00000000 	andeq	r0, r0, r0
   1c430:	7e200000 	cdpvc	0, 2, cr0, cr0, cr0, {0}
   1c434:	00000001 	andeq	r0, r0, r1
   1c438:	00000000 	andeq	r0, r0, r0
   1c43c:	00000040 	andeq	r0, r0, r0, asr #32
   1c440:	00000020 	andeq	r0, r0, r0, lsr #32

0001c444 <XScuGic_ConfigTable>:
   1c444:	00000000 	andeq	r0, r0, r0
   1c448:	f8f00100 			; <UNDEFINED> instruction: 0xf8f00100
   1c44c:	f8f01000 			; <UNDEFINED> instruction: 0xf8f01000
	...

Disassembly of section .bss:

0001c748 <__bss_start>:
   1c748:	00000000 	andeq	r0, r0, r0

0001c74c <ResultAvailHlsMacc>:
   1c74c:	00000000 	andeq	r0, r0, r0

0001c750 <Xil_AssertCallbackRoutine>:
   1c750:	00000000 	andeq	r0, r0, r0

0001c754 <HlsMacc>:
	...

0001c75c <ScuGic>:
	...

0001c768 <Xil_AssertStatus>:
   1c768:	00000000 	andeq	r0, r0, r0

0001c76c <XExc_VectorTable>:
	...

Disassembly of section .ARM.attributes:

00000000 <.ARM.attributes>:
   0:	00003c41 	andeq	r3, r0, r1, asr #24
   4:	61656100 	cmnvs	r5, r0, lsl #2
   8:	01006962 	tsteq	r0, r2, ror #18
   c:	00000032 	andeq	r0, r0, r2, lsr r0
  10:	726f4305 	rsbvc	r4, pc, #335544320	; 0x14000000
  14:	2d786574 	cfldr64cs	mvdx6, [r8, #-464]!	; 0xfffffe30
  18:	06003941 	streq	r3, [r0], -r1, asr #18
  1c:	0841070a 	stmdaeq	r1, {r1, r3, r8, r9, sl}^
  20:	0a020901 	beq	8242c <__bss_end+0x65c88>
  24:	12010c03 	andne	r0, r1, #768	; 0x300
  28:	15011404 	strne	r1, [r1, #-1028]	; 0xfffffbfc
  2c:	18031701 	stmdane	r3, {r0, r8, r9, sl, ip}
  30:	22021a01 	andcs	r1, r2, #4096	; 0x1000
  34:	2a012401 	bcs	49040 <__bss_end+0x2c89c>
  38:	44012c01 	strmi	r2, [r1], #-3073	; 0xfffff3ff
  3c:	Address 0x0000003c is out of bounds.


Disassembly of section .comment:

00000000 <.comment>:
   0:	3a434347 	bcc	10d0d24 <__bss_end+0x10b4580>
   4:	6f532820 	svcvs	0x00532820
   8:	65637275 	strbvs	r7, [r3, #-629]!	; 0xfffffd8b
   c:	43207972 	teqmi	r0, #1867776	; 0x1c8000
  10:	4265646f 	rsbmi	r6, r5, #1862270976	; 0x6f000000
  14:	68636e65 	stmdavs	r3!, {r0, r2, r5, r6, r9, sl, fp, sp, lr}^
  18:	74694c20 	strbtvc	r4, [r9], #-3104	; 0xfffff3e0
  1c:	30322065 	eorscc	r2, r2, r5, rrx
  20:	302e3531 	eorcc	r3, lr, r1, lsr r5
  24:	37312d35 			; <UNDEFINED> instruction: 0x37312d35
  28:	2e342029 	cdpcs	0, 3, cr2, cr4, cr9, {1}
  2c:	00322e39 	eorseq	r2, r2, r9, lsr lr

Disassembly of section .debug_frame:

00000000 <.debug_frame>:
   0:	0000000c 	andeq	r0, r0, ip
   4:	ffffffff 			; <UNDEFINED> instruction: 0xffffffff
   8:	7c010001 	stcvc	0, cr0, [r1], {1}
   c:	000d0c0e 	andeq	r0, sp, lr, lsl #24
  10:	0000000c 	andeq	r0, r0, ip
  14:	00000000 	andeq	r0, r0, r0
  18:	0001abd0 	ldrdeq	sl, [r1], -r0
  1c:	000001ec 	andeq	r0, r0, ip, ror #3
  20:	0000000c 	andeq	r0, r0, ip
  24:	ffffffff 			; <UNDEFINED> instruction: 0xffffffff
  28:	7c010001 	stcvc	0, cr0, [r1], {1}
  2c:	000d0c0e 	andeq	r0, sp, lr, lsl #24
  30:	0000000c 	andeq	r0, r0, ip
  34:	00000020 	andeq	r0, r0, r0, lsr #32
  38:	0001addc 	ldrdeq	sl, [r1], -ip
  3c:	00000220 	andeq	r0, r0, r0, lsr #4
