
secure.elf:     file format elf32-littlearm


Disassembly of section .text:

00006000 <LOAD_ADR>:
    6000:	e320f000 	nop	{0}
    6004:	e320f000 	nop	{0}
    6008:	e320f000 	nop	{0}
    600c:	e320f000 	nop	{0}
    6010:	e320f000 	nop	{0}
    6014:	e320f000 	nop	{0}
    6018:	e320f000 	nop	{0}
    601c:	e320f000 	nop	{0}

00006020 <_start_secure>:
    6020:	ee100fb0 	mrc	15, 0, r0, cr0, cr0, {5}
    6024:	e2000003 	and	r0, r0, #3
    6028:	e3500000 	cmp	r0, #0
    602c:	1b000021 	blne	60b8 <gotosleep>
    6030:	f10e00d1 	cpsid	if,#17
    6034:	e3a0dc01 	mov	sp, #256	; 0x100
    6038:	f10e00d2 	cpsid	if,#18
    603c:	e3a0dc02 	mov	sp, #512	; 0x200
    6040:	f10e00d7 	cpsid	if,#23
    6044:	e3a0dc03 	mov	sp, #768	; 0x300
    6048:	f10e00db 	cpsid	if,#27
    604c:	e3a0db01 	mov	sp, #1024	; 0x400
    6050:	f10e00df 	cpsid	if,#31
    6054:	e3a0dc05 	mov	sp, #1280	; 0x500
    6058:	f10e00d6 	cpsid	if,#22
    605c:	e3a0d901 	mov	sp, #16384	; 0x4000
    6060:	f10e00d3 	cpsid	if,#19
    6064:	e3a0da05 	mov	sp, #20480	; 0x5000
    6068:	ee110f10 	mrc	15, 0, r0, cr1, cr0, {0}
    606c:	e3c00a02 	bic	r0, r0, #8192	; 0x2000
    6070:	e3c00a01 	bic	r0, r0, #4096	; 0x1000
    6074:	e3c00004 	bic	r0, r0, #4
    6078:	e3c00001 	bic	r0, r0, #1
    607c:	e3800901 	orr	r0, r0, #16384	; 0x4000
    6080:	ee010f10 	mcr	15, 0, r0, cr1, cr0, {0}
    6084:	ee110f30 	mrc	15, 0, r0, cr1, cr0, {1}
    6088:	ee110f10 	mrc	15, 0, r0, cr1, cr0, {0}
    608c:	e3c00004 	bic	r0, r0, #4
    6090:	e3c00a01 	bic	r0, r0, #4096	; 0x1000
    6094:	ee010f10 	mcr	15, 0, r0, cr1, cr0, {0}
    6098:	e3a00000 	mov	r0, #0
    609c:	ee080f17 	mcr	15, 0, r0, cr8, cr7, {0}
    60a0:	eb00000e 	bl	60e0 <secure_main>
    60a4:	eafffffe 	b	60a4 <_start_secure+0x84>

000060a8 <LED_ON>:
    60a8:	e59f0014 	ldr	r0, [pc, #20]	; 60c4 <gotosleep+0xc>
    60ac:	e3a01061 	mov	r1, #97	; 0x61
    60b0:	e5801000 	str	r1, [r0]
    60b4:	e12fff1e 	bx	lr

000060b8 <gotosleep>:
    60b8:	e320f003 	wfi
    60bc:	eafffffd 	b	60b8 <gotosleep>
    60c0:	e12fff1e 	bx	lr
    60c4:	e0001030 	and	r1, r0, r0, lsr r0
    60c8:	e320f000 	nop	{0}
    60cc:	e320f000 	nop	{0}
    60d0:	e320f000 	nop	{0}
    60d4:	e320f000 	nop	{0}
    60d8:	e320f000 	nop	{0}
    60dc:	e320f000 	nop	{0}

000060e0 <secure_main>:
    60e0:	e92d4810 	push	{r4, fp, lr}
    60e4:	e28db008 	add	fp, sp, #8
    60e8:	e24dd02c 	sub	sp, sp, #44	; 0x2c
    60ec:	e24ddd32 	sub	sp, sp, #3200	; 0xc80
    60f0:	e1a0300d 	mov	r3, sp
    60f4:	e283301f 	add	r3, r3, #31
    60f8:	e1a032a3 	lsr	r3, r3, #5
    60fc:	e1a04283 	lsl	r4, r3, #5
    6100:	e24b3034 	sub	r3, fp, #52	; 0x34
    6104:	e3a02000 	mov	r2, #0
    6108:	e5832000 	str	r2, [r3]
    610c:	e2833004 	add	r3, r3, #4
    6110:	e3a02000 	mov	r2, #0
    6114:	e5832000 	str	r2, [r3]
    6118:	e2833004 	add	r3, r3, #4
    611c:	e3a02000 	mov	r2, #0
    6120:	e5832000 	str	r2, [r3]
    6124:	e2833004 	add	r3, r3, #4
    6128:	e3a02000 	mov	r2, #0
    612c:	e5832000 	str	r2, [r3]
    6130:	e2833004 	add	r3, r3, #4
    6134:	e3a02000 	mov	r2, #0
    6138:	e5832000 	str	r2, [r3]
    613c:	e2833004 	add	r3, r3, #4
    6140:	e3a02000 	mov	r2, #0
    6144:	e5832000 	str	r2, [r3]
    6148:	e2833004 	add	r3, r3, #4
    614c:	e3a02000 	mov	r2, #0
    6150:	e5832000 	str	r2, [r3]
    6154:	e2833004 	add	r3, r3, #4
    6158:	e3a02000 	mov	r2, #0
    615c:	e5832000 	str	r2, [r3]
    6160:	e2833004 	add	r3, r3, #4
    6164:	e3a02000 	mov	r2, #0
    6168:	e5832000 	str	r2, [r3]
    616c:	e2833004 	add	r3, r3, #4
    6170:	e3a02000 	mov	r2, #0
    6174:	e5832000 	str	r2, [r3]
    6178:	e2833004 	add	r3, r3, #4
    617c:	eb000818 	bl	81e4 <uart_init>
    6180:	eb00074e 	bl	7ec0 <timer_init>
    6184:	e3a03000 	mov	r3, #0
    6188:	e3443160 	movt	r3, #16736	; 0x4160
    618c:	e5843000 	str	r3, [r4]
    6190:	e3a03000 	mov	r3, #0
    6194:	e5843004 	str	r3, [r4, #4]
    6198:	e3a03001 	mov	r3, #1
    619c:	e5843008 	str	r3, [r4, #8]
    61a0:	e3a03000 	mov	r3, #0
    61a4:	e584300c 	str	r3, [r4, #12]
    61a8:	e3a03201 	mov	r3, #268435456	; 0x10000000
    61ac:	e5843010 	str	r3, [r4, #16]
    61b0:	e3a03202 	mov	r3, #536870912	; 0x20000000
    61b4:	e5843018 	str	r3, [r4, #24]
    61b8:	e3a03003 	mov	r3, #3
    61bc:	e5843014 	str	r3, [r4, #20]
    61c0:	e1a00004 	mov	r0, r4
    61c4:	eb000a47 	bl	8ae8 <fmc_imageon_hdmi_framebuffer_init>
    61c8:	e3a03000 	mov	r3, #0
    61cc:	e1a00003 	mov	r0, r3
    61d0:	e24bd008 	sub	sp, fp, #8
    61d4:	e8bd8810 	pop	{r4, fp, pc}

000061d8 <skip_atoi>:
    61d8:	e52db004 	push	{fp}		; (str fp, [sp, #-4]!)
    61dc:	e28db000 	add	fp, sp, #0
    61e0:	e24dd014 	sub	sp, sp, #20
    61e4:	e50b0010 	str	r0, [fp, #-16]
    61e8:	e3a03000 	mov	r3, #0
    61ec:	e50b3008 	str	r3, [fp, #-8]
    61f0:	ea00000c 	b	6228 <skip_atoi+0x50>
    61f4:	e51b3008 	ldr	r3, [fp, #-8]
    61f8:	e1a03083 	lsl	r3, r3, #1
    61fc:	e1a02103 	lsl	r2, r3, #2
    6200:	e0832002 	add	r2, r3, r2
    6204:	e51b3010 	ldr	r3, [fp, #-16]
    6208:	e5933000 	ldr	r3, [r3]
    620c:	e2830001 	add	r0, r3, #1
    6210:	e51b1010 	ldr	r1, [fp, #-16]
    6214:	e5810000 	str	r0, [r1]
    6218:	e5d33000 	ldrb	r3, [r3]
    621c:	e0823003 	add	r3, r2, r3
    6220:	e2433030 	sub	r3, r3, #48	; 0x30
    6224:	e50b3008 	str	r3, [fp, #-8]
    6228:	e51b3010 	ldr	r3, [fp, #-16]
    622c:	e5933000 	ldr	r3, [r3]
    6230:	e5d33000 	ldrb	r3, [r3]
    6234:	e353002f 	cmp	r3, #47	; 0x2f
    6238:	9a000004 	bls	6250 <skip_atoi+0x78>
    623c:	e51b3010 	ldr	r3, [fp, #-16]
    6240:	e5933000 	ldr	r3, [r3]
    6244:	e5d33000 	ldrb	r3, [r3]
    6248:	e3530039 	cmp	r3, #57	; 0x39
    624c:	9affffe8 	bls	61f4 <skip_atoi+0x1c>
    6250:	e51b3008 	ldr	r3, [fp, #-8]
    6254:	e1a00003 	mov	r0, r3
    6258:	e24bd000 	sub	sp, fp, #0
    625c:	e49db004 	pop	{fp}		; (ldr fp, [sp], #4)
    6260:	e12fff1e 	bx	lr

00006264 <strnlen>:
    6264:	e52db004 	push	{fp}		; (str fp, [sp, #-4]!)
    6268:	e28db000 	add	fp, sp, #0
    626c:	e24dd014 	sub	sp, sp, #20
    6270:	e50b0010 	str	r0, [fp, #-16]
    6274:	e50b1014 	str	r1, [fp, #-20]	; 0xffffffec
    6278:	e51b3010 	ldr	r3, [fp, #-16]
    627c:	e50b3008 	str	r3, [fp, #-8]
    6280:	ea000002 	b	6290 <strnlen+0x2c>
    6284:	e51b3008 	ldr	r3, [fp, #-8]
    6288:	e2833001 	add	r3, r3, #1
    628c:	e50b3008 	str	r3, [fp, #-8]
    6290:	e51b3014 	ldr	r3, [fp, #-20]	; 0xffffffec
    6294:	e2432001 	sub	r2, r3, #1
    6298:	e50b2014 	str	r2, [fp, #-20]	; 0xffffffec
    629c:	e3530000 	cmp	r3, #0
    62a0:	0a000003 	beq	62b4 <strnlen+0x50>
    62a4:	e51b3008 	ldr	r3, [fp, #-8]
    62a8:	e5d33000 	ldrb	r3, [r3]
    62ac:	e3530000 	cmp	r3, #0
    62b0:	1afffff3 	bne	6284 <strnlen+0x20>
    62b4:	e51b2008 	ldr	r2, [fp, #-8]
    62b8:	e51b3010 	ldr	r3, [fp, #-16]
    62bc:	e0633002 	rsb	r3, r3, r2
    62c0:	e1a00003 	mov	r0, r3
    62c4:	e24bd000 	sub	sp, fp, #0
    62c8:	e49db004 	pop	{fp}		; (ldr fp, [sp], #4)
    62cc:	e12fff1e 	bx	lr

000062d0 <put_dec_trunc>:
    62d0:	e52db004 	push	{fp}		; (str fp, [sp, #-4]!)
    62d4:	e28db000 	add	fp, sp, #0
    62d8:	e24dd01c 	sub	sp, sp, #28
    62dc:	e50b0018 	str	r0, [fp, #-24]	; 0xffffffe8
    62e0:	e50b101c 	str	r1, [fp, #-28]	; 0xffffffe4
    62e4:	e51b301c 	ldr	r3, [fp, #-28]	; 0xffffffe4
    62e8:	e1a03223 	lsr	r3, r3, #4
    62ec:	e203300f 	and	r3, r3, #15
    62f0:	e50b3008 	str	r3, [fp, #-8]
    62f4:	e51b301c 	ldr	r3, [fp, #-28]	; 0xffffffe4
    62f8:	e1a03423 	lsr	r3, r3, #8
    62fc:	e203300f 	and	r3, r3, #15
    6300:	e50b300c 	str	r3, [fp, #-12]
    6304:	e51b301c 	ldr	r3, [fp, #-28]	; 0xffffffe4
    6308:	e1a03623 	lsr	r3, r3, #12
    630c:	e50b3010 	str	r3, [fp, #-16]
    6310:	e51b2010 	ldr	r2, [fp, #-16]
    6314:	e51b300c 	ldr	r3, [fp, #-12]
    6318:	e0822003 	add	r2, r2, r3
    631c:	e51b3008 	ldr	r3, [fp, #-8]
    6320:	e0823003 	add	r3, r2, r3
    6324:	e1a03083 	lsl	r3, r3, #1
    6328:	e1a02103 	lsl	r2, r3, #2
    632c:	e0632002 	rsb	r2, r3, r2
    6330:	e51b301c 	ldr	r3, [fp, #-28]	; 0xffffffe4
    6334:	e203300f 	and	r3, r3, #15
    6338:	e0823003 	add	r3, r2, r3
    633c:	e50b3014 	str	r3, [fp, #-20]	; 0xffffffec
    6340:	e51b3014 	ldr	r3, [fp, #-20]	; 0xffffffec
    6344:	e3a020cd 	mov	r2, #205	; 0xcd
    6348:	e0030392 	mul	r3, r2, r3
    634c:	e1a035a3 	lsr	r3, r3, #11
    6350:	e50b301c 	str	r3, [fp, #-28]	; 0xffffffe4
    6354:	e51b301c 	ldr	r3, [fp, #-28]	; 0xffffffe4
    6358:	e1a03083 	lsl	r3, r3, #1
    635c:	e1a02103 	lsl	r2, r3, #2
    6360:	e0833002 	add	r3, r3, r2
    6364:	e51b2014 	ldr	r2, [fp, #-20]	; 0xffffffec
    6368:	e0633002 	rsb	r3, r3, r2
    636c:	e50b3014 	str	r3, [fp, #-20]	; 0xffffffec
    6370:	e51b3018 	ldr	r3, [fp, #-24]	; 0xffffffe8
    6374:	e2832001 	add	r2, r3, #1
    6378:	e50b2018 	str	r2, [fp, #-24]	; 0xffffffe8
    637c:	e51b2014 	ldr	r2, [fp, #-20]	; 0xffffffec
    6380:	e6ef2072 	uxtb	r2, r2
    6384:	e2822030 	add	r2, r2, #48	; 0x30
    6388:	e6ef2072 	uxtb	r2, r2
    638c:	e5c32000 	strb	r2, [r3]
    6390:	e51b2010 	ldr	r2, [fp, #-16]
    6394:	e1a03002 	mov	r3, r2
    6398:	e1a03183 	lsl	r3, r3, #3
    639c:	e0831002 	add	r1, r3, r2
    63a0:	e51b200c 	ldr	r2, [fp, #-12]
    63a4:	e1a03002 	mov	r3, r2
    63a8:	e1a03103 	lsl	r3, r3, #2
    63ac:	e0833002 	add	r3, r3, r2
    63b0:	e0812003 	add	r2, r1, r3
    63b4:	e51b301c 	ldr	r3, [fp, #-28]	; 0xffffffe4
    63b8:	e0823003 	add	r3, r2, r3
    63bc:	e51b2008 	ldr	r2, [fp, #-8]
    63c0:	e0823003 	add	r3, r2, r3
    63c4:	e50b3008 	str	r3, [fp, #-8]
    63c8:	e51b3008 	ldr	r3, [fp, #-8]
    63cc:	e3530000 	cmp	r3, #0
    63d0:	0a00005d 	beq	654c <put_dec_trunc+0x27c>
    63d4:	e51b3008 	ldr	r3, [fp, #-8]
    63d8:	e3a020cd 	mov	r2, #205	; 0xcd
    63dc:	e0030392 	mul	r3, r2, r3
    63e0:	e1a035a3 	lsr	r3, r3, #11
    63e4:	e50b301c 	str	r3, [fp, #-28]	; 0xffffffe4
    63e8:	e51b301c 	ldr	r3, [fp, #-28]	; 0xffffffe4
    63ec:	e1a03083 	lsl	r3, r3, #1
    63f0:	e1a02103 	lsl	r2, r3, #2
    63f4:	e0833002 	add	r3, r3, r2
    63f8:	e51b2008 	ldr	r2, [fp, #-8]
    63fc:	e0633002 	rsb	r3, r3, r2
    6400:	e50b3008 	str	r3, [fp, #-8]
    6404:	e51b3018 	ldr	r3, [fp, #-24]	; 0xffffffe8
    6408:	e2832001 	add	r2, r3, #1
    640c:	e50b2018 	str	r2, [fp, #-24]	; 0xffffffe8
    6410:	e51b2008 	ldr	r2, [fp, #-8]
    6414:	e6ef2072 	uxtb	r2, r2
    6418:	e2822030 	add	r2, r2, #48	; 0x30
    641c:	e6ef2072 	uxtb	r2, r2
    6420:	e5c32000 	strb	r2, [r3]
    6424:	e51b300c 	ldr	r3, [fp, #-12]
    6428:	e1a02083 	lsl	r2, r3, #1
    642c:	e51b301c 	ldr	r3, [fp, #-28]	; 0xffffffe4
    6430:	e0823003 	add	r3, r2, r3
    6434:	e50b300c 	str	r3, [fp, #-12]
    6438:	e51b300c 	ldr	r3, [fp, #-12]
    643c:	e3530000 	cmp	r3, #0
    6440:	1a000002 	bne	6450 <put_dec_trunc+0x180>
    6444:	e51b3010 	ldr	r3, [fp, #-16]
    6448:	e3530000 	cmp	r3, #0
    644c:	0a00003e 	beq	654c <put_dec_trunc+0x27c>
    6450:	e51b100c 	ldr	r1, [fp, #-12]
    6454:	e1a02001 	mov	r2, r1
    6458:	e1a03102 	lsl	r3, r2, #2
    645c:	e1a02003 	mov	r2, r3
    6460:	e1a03102 	lsl	r3, r2, #2
    6464:	e0623003 	rsb	r3, r2, r3
    6468:	e0833001 	add	r3, r3, r1
    646c:	e1a033a3 	lsr	r3, r3, #7
    6470:	e50b301c 	str	r3, [fp, #-28]	; 0xffffffe4
    6474:	e51b301c 	ldr	r3, [fp, #-28]	; 0xffffffe4
    6478:	e1a03083 	lsl	r3, r3, #1
    647c:	e1a02103 	lsl	r2, r3, #2
    6480:	e0833002 	add	r3, r3, r2
    6484:	e51b200c 	ldr	r2, [fp, #-12]
    6488:	e0633002 	rsb	r3, r3, r2
    648c:	e50b300c 	str	r3, [fp, #-12]
    6490:	e51b3018 	ldr	r3, [fp, #-24]	; 0xffffffe8
    6494:	e2832001 	add	r2, r3, #1
    6498:	e50b2018 	str	r2, [fp, #-24]	; 0xffffffe8
    649c:	e51b200c 	ldr	r2, [fp, #-12]
    64a0:	e6ef2072 	uxtb	r2, r2
    64a4:	e2822030 	add	r2, r2, #48	; 0x30
    64a8:	e6ef2072 	uxtb	r2, r2
    64ac:	e5c32000 	strb	r2, [r3]
    64b0:	e51b3010 	ldr	r3, [fp, #-16]
    64b4:	e1a02103 	lsl	r2, r3, #2
    64b8:	e51b301c 	ldr	r3, [fp, #-28]	; 0xffffffe4
    64bc:	e0823003 	add	r3, r2, r3
    64c0:	e50b3010 	str	r3, [fp, #-16]
    64c4:	e51b3010 	ldr	r3, [fp, #-16]
    64c8:	e3530000 	cmp	r3, #0
    64cc:	0a00001e 	beq	654c <put_dec_trunc+0x27c>
    64d0:	e51b3010 	ldr	r3, [fp, #-16]
    64d4:	e3a020cd 	mov	r2, #205	; 0xcd
    64d8:	e0030392 	mul	r3, r2, r3
    64dc:	e1a035a3 	lsr	r3, r3, #11
    64e0:	e50b301c 	str	r3, [fp, #-28]	; 0xffffffe4
    64e4:	e51b301c 	ldr	r3, [fp, #-28]	; 0xffffffe4
    64e8:	e1a03083 	lsl	r3, r3, #1
    64ec:	e1a02103 	lsl	r2, r3, #2
    64f0:	e0833002 	add	r3, r3, r2
    64f4:	e51b2010 	ldr	r2, [fp, #-16]
    64f8:	e0633002 	rsb	r3, r3, r2
    64fc:	e50b3010 	str	r3, [fp, #-16]
    6500:	e51b3018 	ldr	r3, [fp, #-24]	; 0xffffffe8
    6504:	e2832001 	add	r2, r3, #1
    6508:	e50b2018 	str	r2, [fp, #-24]	; 0xffffffe8
    650c:	e51b2010 	ldr	r2, [fp, #-16]
    6510:	e6ef2072 	uxtb	r2, r2
    6514:	e2822030 	add	r2, r2, #48	; 0x30
    6518:	e6ef2072 	uxtb	r2, r2
    651c:	e5c32000 	strb	r2, [r3]
    6520:	e51b301c 	ldr	r3, [fp, #-28]	; 0xffffffe4
    6524:	e3530000 	cmp	r3, #0
    6528:	0a000007 	beq	654c <put_dec_trunc+0x27c>
    652c:	e51b3018 	ldr	r3, [fp, #-24]	; 0xffffffe8
    6530:	e2832001 	add	r2, r3, #1
    6534:	e50b2018 	str	r2, [fp, #-24]	; 0xffffffe8
    6538:	e51b201c 	ldr	r2, [fp, #-28]	; 0xffffffe4
    653c:	e6ef2072 	uxtb	r2, r2
    6540:	e2822030 	add	r2, r2, #48	; 0x30
    6544:	e6ef2072 	uxtb	r2, r2
    6548:	e5c32000 	strb	r2, [r3]
    654c:	e51b3018 	ldr	r3, [fp, #-24]	; 0xffffffe8
    6550:	e1a00003 	mov	r0, r3
    6554:	e24bd000 	sub	sp, fp, #0
    6558:	e49db004 	pop	{fp}		; (ldr fp, [sp], #4)
    655c:	e12fff1e 	bx	lr

00006560 <put_dec_full>:
    6560:	e52db004 	push	{fp}		; (str fp, [sp, #-4]!)
    6564:	e28db000 	add	fp, sp, #0
    6568:	e24dd01c 	sub	sp, sp, #28
    656c:	e50b0018 	str	r0, [fp, #-24]	; 0xffffffe8
    6570:	e50b101c 	str	r1, [fp, #-28]	; 0xffffffe4
    6574:	e51b301c 	ldr	r3, [fp, #-28]	; 0xffffffe4
    6578:	e1a03223 	lsr	r3, r3, #4
    657c:	e203300f 	and	r3, r3, #15
    6580:	e50b3008 	str	r3, [fp, #-8]
    6584:	e51b301c 	ldr	r3, [fp, #-28]	; 0xffffffe4
    6588:	e1a03423 	lsr	r3, r3, #8
    658c:	e203300f 	and	r3, r3, #15
    6590:	e50b300c 	str	r3, [fp, #-12]
    6594:	e51b301c 	ldr	r3, [fp, #-28]	; 0xffffffe4
    6598:	e1a03623 	lsr	r3, r3, #12
    659c:	e50b3010 	str	r3, [fp, #-16]
    65a0:	e51b2010 	ldr	r2, [fp, #-16]
    65a4:	e51b300c 	ldr	r3, [fp, #-12]
    65a8:	e0822003 	add	r2, r2, r3
    65ac:	e51b3008 	ldr	r3, [fp, #-8]
    65b0:	e0823003 	add	r3, r2, r3
    65b4:	e1a03083 	lsl	r3, r3, #1
    65b8:	e1a02103 	lsl	r2, r3, #2
    65bc:	e0632002 	rsb	r2, r3, r2
    65c0:	e51b301c 	ldr	r3, [fp, #-28]	; 0xffffffe4
    65c4:	e203300f 	and	r3, r3, #15
    65c8:	e0823003 	add	r3, r2, r3
    65cc:	e50b3014 	str	r3, [fp, #-20]	; 0xffffffec
    65d0:	e51b3014 	ldr	r3, [fp, #-20]	; 0xffffffec
    65d4:	e3a020cd 	mov	r2, #205	; 0xcd
    65d8:	e0030392 	mul	r3, r2, r3
    65dc:	e1a035a3 	lsr	r3, r3, #11
    65e0:	e50b301c 	str	r3, [fp, #-28]	; 0xffffffe4
    65e4:	e51b301c 	ldr	r3, [fp, #-28]	; 0xffffffe4
    65e8:	e1a03083 	lsl	r3, r3, #1
    65ec:	e1a02103 	lsl	r2, r3, #2
    65f0:	e0833002 	add	r3, r3, r2
    65f4:	e51b2014 	ldr	r2, [fp, #-20]	; 0xffffffec
    65f8:	e0633002 	rsb	r3, r3, r2
    65fc:	e50b3014 	str	r3, [fp, #-20]	; 0xffffffec
    6600:	e51b3018 	ldr	r3, [fp, #-24]	; 0xffffffe8
    6604:	e2832001 	add	r2, r3, #1
    6608:	e50b2018 	str	r2, [fp, #-24]	; 0xffffffe8
    660c:	e51b2014 	ldr	r2, [fp, #-20]	; 0xffffffec
    6610:	e6ef2072 	uxtb	r2, r2
    6614:	e2822030 	add	r2, r2, #48	; 0x30
    6618:	e6ef2072 	uxtb	r2, r2
    661c:	e5c32000 	strb	r2, [r3]
    6620:	e51b2010 	ldr	r2, [fp, #-16]
    6624:	e1a03002 	mov	r3, r2
    6628:	e1a03183 	lsl	r3, r3, #3
    662c:	e0831002 	add	r1, r3, r2
    6630:	e51b200c 	ldr	r2, [fp, #-12]
    6634:	e1a03002 	mov	r3, r2
    6638:	e1a03103 	lsl	r3, r3, #2
    663c:	e0833002 	add	r3, r3, r2
    6640:	e0812003 	add	r2, r1, r3
    6644:	e51b301c 	ldr	r3, [fp, #-28]	; 0xffffffe4
    6648:	e0823003 	add	r3, r2, r3
    664c:	e51b2008 	ldr	r2, [fp, #-8]
    6650:	e0823003 	add	r3, r2, r3
    6654:	e50b3008 	str	r3, [fp, #-8]
    6658:	e51b3008 	ldr	r3, [fp, #-8]
    665c:	e3a020cd 	mov	r2, #205	; 0xcd
    6660:	e0030392 	mul	r3, r2, r3
    6664:	e1a035a3 	lsr	r3, r3, #11
    6668:	e50b301c 	str	r3, [fp, #-28]	; 0xffffffe4
    666c:	e51b301c 	ldr	r3, [fp, #-28]	; 0xffffffe4
    6670:	e1a03083 	lsl	r3, r3, #1
    6674:	e1a02103 	lsl	r2, r3, #2
    6678:	e0833002 	add	r3, r3, r2
    667c:	e51b2008 	ldr	r2, [fp, #-8]
    6680:	e0633002 	rsb	r3, r3, r2
    6684:	e50b3008 	str	r3, [fp, #-8]
    6688:	e51b3018 	ldr	r3, [fp, #-24]	; 0xffffffe8
    668c:	e2832001 	add	r2, r3, #1
    6690:	e50b2018 	str	r2, [fp, #-24]	; 0xffffffe8
    6694:	e51b2008 	ldr	r2, [fp, #-8]
    6698:	e6ef2072 	uxtb	r2, r2
    669c:	e2822030 	add	r2, r2, #48	; 0x30
    66a0:	e6ef2072 	uxtb	r2, r2
    66a4:	e5c32000 	strb	r2, [r3]
    66a8:	e51b300c 	ldr	r3, [fp, #-12]
    66ac:	e1a02083 	lsl	r2, r3, #1
    66b0:	e51b301c 	ldr	r3, [fp, #-28]	; 0xffffffe4
    66b4:	e0823003 	add	r3, r2, r3
    66b8:	e50b300c 	str	r3, [fp, #-12]
    66bc:	e51b100c 	ldr	r1, [fp, #-12]
    66c0:	e1a02001 	mov	r2, r1
    66c4:	e1a03102 	lsl	r3, r2, #2
    66c8:	e1a02003 	mov	r2, r3
    66cc:	e1a03102 	lsl	r3, r2, #2
    66d0:	e0623003 	rsb	r3, r2, r3
    66d4:	e0833001 	add	r3, r3, r1
    66d8:	e1a033a3 	lsr	r3, r3, #7
    66dc:	e50b301c 	str	r3, [fp, #-28]	; 0xffffffe4
    66e0:	e51b301c 	ldr	r3, [fp, #-28]	; 0xffffffe4
    66e4:	e1a03083 	lsl	r3, r3, #1
    66e8:	e1a02103 	lsl	r2, r3, #2
    66ec:	e0833002 	add	r3, r3, r2
    66f0:	e51b200c 	ldr	r2, [fp, #-12]
    66f4:	e0633002 	rsb	r3, r3, r2
    66f8:	e50b300c 	str	r3, [fp, #-12]
    66fc:	e51b3018 	ldr	r3, [fp, #-24]	; 0xffffffe8
    6700:	e2832001 	add	r2, r3, #1
    6704:	e50b2018 	str	r2, [fp, #-24]	; 0xffffffe8
    6708:	e51b200c 	ldr	r2, [fp, #-12]
    670c:	e6ef2072 	uxtb	r2, r2
    6710:	e2822030 	add	r2, r2, #48	; 0x30
    6714:	e6ef2072 	uxtb	r2, r2
    6718:	e5c32000 	strb	r2, [r3]
    671c:	e51b3010 	ldr	r3, [fp, #-16]
    6720:	e1a02103 	lsl	r2, r3, #2
    6724:	e51b301c 	ldr	r3, [fp, #-28]	; 0xffffffe4
    6728:	e0823003 	add	r3, r2, r3
    672c:	e50b3010 	str	r3, [fp, #-16]
    6730:	e51b3010 	ldr	r3, [fp, #-16]
    6734:	e3a020cd 	mov	r2, #205	; 0xcd
    6738:	e0030392 	mul	r3, r2, r3
    673c:	e1a035a3 	lsr	r3, r3, #11
    6740:	e50b301c 	str	r3, [fp, #-28]	; 0xffffffe4
    6744:	e51b301c 	ldr	r3, [fp, #-28]	; 0xffffffe4
    6748:	e1a03083 	lsl	r3, r3, #1
    674c:	e1a02103 	lsl	r2, r3, #2
    6750:	e0833002 	add	r3, r3, r2
    6754:	e51b2010 	ldr	r2, [fp, #-16]
    6758:	e0633002 	rsb	r3, r3, r2
    675c:	e50b3010 	str	r3, [fp, #-16]
    6760:	e51b3018 	ldr	r3, [fp, #-24]	; 0xffffffe8
    6764:	e2832001 	add	r2, r3, #1
    6768:	e50b2018 	str	r2, [fp, #-24]	; 0xffffffe8
    676c:	e51b2010 	ldr	r2, [fp, #-16]
    6770:	e6ef2072 	uxtb	r2, r2
    6774:	e2822030 	add	r2, r2, #48	; 0x30
    6778:	e6ef2072 	uxtb	r2, r2
    677c:	e5c32000 	strb	r2, [r3]
    6780:	e51b3018 	ldr	r3, [fp, #-24]	; 0xffffffe8
    6784:	e2832001 	add	r2, r3, #1
    6788:	e50b2018 	str	r2, [fp, #-24]	; 0xffffffe8
    678c:	e51b201c 	ldr	r2, [fp, #-28]	; 0xffffffe4
    6790:	e6ef2072 	uxtb	r2, r2
    6794:	e2822030 	add	r2, r2, #48	; 0x30
    6798:	e6ef2072 	uxtb	r2, r2
    679c:	e5c32000 	strb	r2, [r3]
    67a0:	e51b3018 	ldr	r3, [fp, #-24]	; 0xffffffe8
    67a4:	e1a00003 	mov	r0, r3
    67a8:	e24bd000 	sub	sp, fp, #0
    67ac:	e49db004 	pop	{fp}		; (ldr fp, [sp], #4)
    67b0:	e12fff1e 	bx	lr

000067b4 <put_dec>:
    67b4:	e92d4800 	push	{fp, lr}
    67b8:	e28db004 	add	fp, sp, #4
    67bc:	e24dd018 	sub	sp, sp, #24
    67c0:	e50b0018 	str	r0, [fp, #-24]	; 0xffffffe8
    67c4:	e50b101c 	str	r1, [fp, #-28]	; 0xffffffe4
    67c8:	e51b201c 	ldr	r2, [fp, #-28]	; 0xffffffe4
    67cc:	e308369f 	movw	r3, #34463	; 0x869f
    67d0:	e3403001 	movt	r3, #1
    67d4:	e1520003 	cmp	r2, r3
    67d8:	8a000005 	bhi	67f4 <put_dec+0x40>
    67dc:	e51b301c 	ldr	r3, [fp, #-28]	; 0xffffffe4
    67e0:	e51b0018 	ldr	r0, [fp, #-24]	; 0xffffffe8
    67e4:	e1a01003 	mov	r1, r3
    67e8:	ebfffeb8 	bl	62d0 <put_dec_trunc>
    67ec:	e1a03000 	mov	r3, r0
    67f0:	ea00001e 	b	6870 <put_dec+0xbc>
    67f4:	e30836a0 	movw	r3, #34464	; 0x86a0
    67f8:	e3403001 	movt	r3, #1
    67fc:	e50b300c 	str	r3, [fp, #-12]
    6800:	e3a03000 	mov	r3, #0
    6804:	e3530000 	cmp	r3, #0
    6808:	1a00000c 	bne	6840 <put_dec+0x8c>
    680c:	e51b301c 	ldr	r3, [fp, #-28]	; 0xffffffe4
    6810:	e1a00003 	mov	r0, r3
    6814:	e51b100c 	ldr	r1, [fp, #-12]
    6818:	eb005167 	bl	1adbc <__aeabi_uidivmod>
    681c:	e1a03001 	mov	r3, r1
    6820:	e50b3008 	str	r3, [fp, #-8]
    6824:	e51b301c 	ldr	r3, [fp, #-28]	; 0xffffffe4
    6828:	e1a00003 	mov	r0, r3
    682c:	e51b100c 	ldr	r1, [fp, #-12]
    6830:	eb0050e6 	bl	1abd0 <__aeabi_uidiv>
    6834:	e1a03000 	mov	r3, r0
    6838:	e50b301c 	str	r3, [fp, #-28]	; 0xffffffe4
    683c:	ea000004 	b	6854 <put_dec+0xa0>
    6840:	e24b301c 	sub	r3, fp, #28
    6844:	e1a00003 	mov	r0, r3
    6848:	e51b100c 	ldr	r1, [fp, #-12]
    684c:	eb000467 	bl	79f0 <__div64_32>
    6850:	e50b0008 	str	r0, [fp, #-8]
    6854:	e51b3008 	ldr	r3, [fp, #-8]
    6858:	e50b3010 	str	r3, [fp, #-16]
    685c:	e51b0018 	ldr	r0, [fp, #-24]	; 0xffffffe8
    6860:	e51b1010 	ldr	r1, [fp, #-16]
    6864:	ebffff3d 	bl	6560 <put_dec_full>
    6868:	e50b0018 	str	r0, [fp, #-24]	; 0xffffffe8
    686c:	eaffffd5 	b	67c8 <put_dec+0x14>
    6870:	e1a00003 	mov	r0, r3
    6874:	e24bd004 	sub	sp, fp, #4
    6878:	e8bd8800 	pop	{fp, pc}

0000687c <number>:
    687c:	e92d4830 	push	{r4, r5, fp, lr}
    6880:	e28db00c 	add	fp, sp, #12
    6884:	e24dd070 	sub	sp, sp, #112	; 0x70
    6888:	e50b0070 	str	r0, [fp, #-112]	; 0xffffff90
    688c:	e50b1074 	str	r1, [fp, #-116]	; 0xffffff8c
    6890:	e14b27fc 	strd	r2, [fp, #-124]	; 0xffffff84
    6894:	e59b3010 	ldr	r3, [fp, #16]
    6898:	e2033040 	and	r3, r3, #64	; 0x40
    689c:	e3530000 	cmp	r3, #0
    68a0:	0a000004 	beq	68b8 <number+0x3c>
    68a4:	e59b3004 	ldr	r3, [fp, #4]
    68a8:	e353000a 	cmp	r3, #10
    68ac:	0a000001 	beq	68b8 <number+0x3c>
    68b0:	e3a03001 	mov	r3, #1
    68b4:	ea000000 	b	68bc <number+0x40>
    68b8:	e3a03000 	mov	r3, #0
    68bc:	e50b301c 	str	r3, [fp, #-28]	; 0xffffffe4
    68c0:	e59b3010 	ldr	r3, [fp, #16]
    68c4:	e6ef3073 	uxtb	r3, r3
    68c8:	e2033020 	and	r3, r3, #32
    68cc:	e54b301d 	strb	r3, [fp, #-29]	; 0xffffffe3
    68d0:	e59b3010 	ldr	r3, [fp, #16]
    68d4:	e2033010 	and	r3, r3, #16
    68d8:	e3530000 	cmp	r3, #0
    68dc:	0a000002 	beq	68ec <number+0x70>
    68e0:	e59b3010 	ldr	r3, [fp, #16]
    68e4:	e3c33001 	bic	r3, r3, #1
    68e8:	e58b3010 	str	r3, [fp, #16]
    68ec:	e3a03000 	mov	r3, #0
    68f0:	e54b300d 	strb	r3, [fp, #-13]
    68f4:	e59b3010 	ldr	r3, [fp, #16]
    68f8:	e2033002 	and	r3, r3, #2
    68fc:	e3530000 	cmp	r3, #0
    6900:	0a000020 	beq	6988 <number+0x10c>
    6904:	e14b27dc 	ldrd	r2, [fp, #-124]	; 0xffffff84
    6908:	e3520000 	cmp	r2, #0
    690c:	e2d33000 	sbcs	r3, r3, #0
    6910:	aa000009 	bge	693c <number+0xc0>
    6914:	e3a0302d 	mov	r3, #45	; 0x2d
    6918:	e54b300d 	strb	r3, [fp, #-13]
    691c:	e14b27dc 	ldrd	r2, [fp, #-124]	; 0xffffff84
    6920:	e2722000 	rsbs	r2, r2, #0
    6924:	e2e33000 	rsc	r3, r3, #0
    6928:	e14b27fc 	strd	r2, [fp, #-124]	; 0xffffff84
    692c:	e59b3008 	ldr	r3, [fp, #8]
    6930:	e2433001 	sub	r3, r3, #1
    6934:	e58b3008 	str	r3, [fp, #8]
    6938:	ea000012 	b	6988 <number+0x10c>
    693c:	e59b3010 	ldr	r3, [fp, #16]
    6940:	e2033004 	and	r3, r3, #4
    6944:	e3530000 	cmp	r3, #0
    6948:	0a000005 	beq	6964 <number+0xe8>
    694c:	e3a0302b 	mov	r3, #43	; 0x2b
    6950:	e54b300d 	strb	r3, [fp, #-13]
    6954:	e59b3008 	ldr	r3, [fp, #8]
    6958:	e2433001 	sub	r3, r3, #1
    695c:	e58b3008 	str	r3, [fp, #8]
    6960:	ea000008 	b	6988 <number+0x10c>
    6964:	e59b3010 	ldr	r3, [fp, #16]
    6968:	e2033008 	and	r3, r3, #8
    696c:	e3530000 	cmp	r3, #0
    6970:	0a000004 	beq	6988 <number+0x10c>
    6974:	e3a03020 	mov	r3, #32
    6978:	e54b300d 	strb	r3, [fp, #-13]
    697c:	e59b3008 	ldr	r3, [fp, #8]
    6980:	e2433001 	sub	r3, r3, #1
    6984:	e58b3008 	str	r3, [fp, #8]
    6988:	e51b301c 	ldr	r3, [fp, #-28]	; 0xffffffe4
    698c:	e3530000 	cmp	r3, #0
    6990:	0a000008 	beq	69b8 <number+0x13c>
    6994:	e59b3008 	ldr	r3, [fp, #8]
    6998:	e2433001 	sub	r3, r3, #1
    699c:	e58b3008 	str	r3, [fp, #8]
    69a0:	e59b3004 	ldr	r3, [fp, #4]
    69a4:	e3530010 	cmp	r3, #16
    69a8:	1a000002 	bne	69b8 <number+0x13c>
    69ac:	e59b3008 	ldr	r3, [fp, #8]
    69b0:	e2433001 	sub	r3, r3, #1
    69b4:	e58b3008 	str	r3, [fp, #8]
    69b8:	e3a03000 	mov	r3, #0
    69bc:	e50b3014 	str	r3, [fp, #-20]	; 0xffffffec
    69c0:	e14b27dc 	ldrd	r2, [fp, #-124]	; 0xffffff84
    69c4:	e1923003 	orrs	r3, r2, r3
    69c8:	1a000007 	bne	69ec <number+0x170>
    69cc:	e51b3014 	ldr	r3, [fp, #-20]	; 0xffffffec
    69d0:	e2832001 	add	r2, r3, #1
    69d4:	e50b2014 	str	r2, [fp, #-20]	; 0xffffffec
    69d8:	e24b200c 	sub	r2, fp, #12
    69dc:	e0823003 	add	r3, r2, r3
    69e0:	e3a02030 	mov	r2, #48	; 0x30
    69e4:	e543205c 	strb	r2, [r3, #-92]	; 0xffffffa4
    69e8:	ea000034 	b	6ac0 <number+0x244>
    69ec:	e59b3004 	ldr	r3, [fp, #4]
    69f0:	e353000a 	cmp	r3, #10
    69f4:	0a000027 	beq	6a98 <number+0x21c>
    69f8:	e59b3004 	ldr	r3, [fp, #4]
    69fc:	e2433001 	sub	r3, r3, #1
    6a00:	e50b3024 	str	r3, [fp, #-36]	; 0xffffffdc
    6a04:	e3a03003 	mov	r3, #3
    6a08:	e50b3018 	str	r3, [fp, #-24]	; 0xffffffe8
    6a0c:	e59b3004 	ldr	r3, [fp, #4]
    6a10:	e3530010 	cmp	r3, #16
    6a14:	1a000001 	bne	6a20 <number+0x1a4>
    6a18:	e3a03004 	mov	r3, #4
    6a1c:	e50b3018 	str	r3, [fp, #-24]	; 0xffffffe8
    6a20:	e51b2014 	ldr	r2, [fp, #-20]	; 0xffffffec
    6a24:	e2823001 	add	r3, r2, #1
    6a28:	e50b3014 	str	r3, [fp, #-20]	; 0xffffffec
    6a2c:	e55b307c 	ldrb	r3, [fp, #-124]	; 0xffffff84
    6a30:	e1a01003 	mov	r1, r3
    6a34:	e51b3024 	ldr	r3, [fp, #-36]	; 0xffffffdc
    6a38:	e0011003 	and	r1, r1, r3
    6a3c:	e30b3160 	movw	r3, #45408	; 0xb160
    6a40:	e3403001 	movt	r3, #1
    6a44:	e7d31001 	ldrb	r1, [r3, r1]
    6a48:	e55b301d 	ldrb	r3, [fp, #-29]	; 0xffffffe3
    6a4c:	e1813003 	orr	r3, r1, r3
    6a50:	e6ef1073 	uxtb	r1, r3
    6a54:	e24b300c 	sub	r3, fp, #12
    6a58:	e0833002 	add	r3, r3, r2
    6a5c:	e1a02001 	mov	r2, r1
    6a60:	e543205c 	strb	r2, [r3, #-92]	; 0xffffffa4
    6a64:	e14b27dc 	ldrd	r2, [fp, #-124]	; 0xffffff84
    6a68:	e51b1018 	ldr	r1, [fp, #-24]	; 0xffffffe8
    6a6c:	e261c020 	rsb	ip, r1, #32
    6a70:	e2410020 	sub	r0, r1, #32
    6a74:	e1a04132 	lsr	r4, r2, r1
    6a78:	e1844c13 	orr	r4, r4, r3, lsl ip
    6a7c:	e1844033 	orr	r4, r4, r3, lsr r0
    6a80:	e1a05133 	lsr	r5, r3, r1
    6a84:	e14b47fc 	strd	r4, [fp, #-124]	; 0xffffff84
    6a88:	e14b27dc 	ldrd	r2, [fp, #-124]	; 0xffffff84
    6a8c:	e1923003 	orrs	r3, r2, r3
    6a90:	1affffe2 	bne	6a20 <number+0x1a4>
    6a94:	ea000009 	b	6ac0 <number+0x244>
    6a98:	e51b307c 	ldr	r3, [fp, #-124]	; 0xffffff84
    6a9c:	e24b2068 	sub	r2, fp, #104	; 0x68
    6aa0:	e1a00002 	mov	r0, r2
    6aa4:	e1a01003 	mov	r1, r3
    6aa8:	ebffff41 	bl	67b4 <put_dec>
    6aac:	e1a03000 	mov	r3, r0
    6ab0:	e1a02003 	mov	r2, r3
    6ab4:	e24b3068 	sub	r3, fp, #104	; 0x68
    6ab8:	e0633002 	rsb	r3, r3, r2
    6abc:	e50b3014 	str	r3, [fp, #-20]	; 0xffffffec
    6ac0:	e51b2014 	ldr	r2, [fp, #-20]	; 0xffffffec
    6ac4:	e59b300c 	ldr	r3, [fp, #12]
    6ac8:	e1520003 	cmp	r2, r3
    6acc:	da000001 	ble	6ad8 <number+0x25c>
    6ad0:	e51b3014 	ldr	r3, [fp, #-20]	; 0xffffffec
    6ad4:	e58b300c 	str	r3, [fp, #12]
    6ad8:	e59b2008 	ldr	r2, [fp, #8]
    6adc:	e59b300c 	ldr	r3, [fp, #12]
    6ae0:	e0633002 	rsb	r3, r3, r2
    6ae4:	e58b3008 	str	r3, [fp, #8]
    6ae8:	e59b3010 	ldr	r3, [fp, #16]
    6aec:	e2033011 	and	r3, r3, #17
    6af0:	e3530000 	cmp	r3, #0
    6af4:	1a00000b 	bne	6b28 <number+0x2ac>
    6af8:	ea000004 	b	6b10 <number+0x294>
    6afc:	e51b3070 	ldr	r3, [fp, #-112]	; 0xffffff90
    6b00:	e2832001 	add	r2, r3, #1
    6b04:	e50b2070 	str	r2, [fp, #-112]	; 0xffffff90
    6b08:	e3a02020 	mov	r2, #32
    6b0c:	e5c32000 	strb	r2, [r3]
    6b10:	e59b3008 	ldr	r3, [fp, #8]
    6b14:	e2433001 	sub	r3, r3, #1
    6b18:	e58b3008 	str	r3, [fp, #8]
    6b1c:	e59b3008 	ldr	r3, [fp, #8]
    6b20:	e3530000 	cmp	r3, #0
    6b24:	aafffff4 	bge	6afc <number+0x280>
    6b28:	e55b300d 	ldrb	r3, [fp, #-13]
    6b2c:	e3530000 	cmp	r3, #0
    6b30:	0a000004 	beq	6b48 <number+0x2cc>
    6b34:	e51b3070 	ldr	r3, [fp, #-112]	; 0xffffff90
    6b38:	e2832001 	add	r2, r3, #1
    6b3c:	e50b2070 	str	r2, [fp, #-112]	; 0xffffff90
    6b40:	e55b200d 	ldrb	r2, [fp, #-13]
    6b44:	e5c32000 	strb	r2, [r3]
    6b48:	e51b301c 	ldr	r3, [fp, #-28]	; 0xffffffe4
    6b4c:	e3530000 	cmp	r3, #0
    6b50:	0a00000e 	beq	6b90 <number+0x314>
    6b54:	e51b3070 	ldr	r3, [fp, #-112]	; 0xffffff90
    6b58:	e2832001 	add	r2, r3, #1
    6b5c:	e50b2070 	str	r2, [fp, #-112]	; 0xffffff90
    6b60:	e3a02030 	mov	r2, #48	; 0x30
    6b64:	e5c32000 	strb	r2, [r3]
    6b68:	e59b3004 	ldr	r3, [fp, #4]
    6b6c:	e3530010 	cmp	r3, #16
    6b70:	1a000006 	bne	6b90 <number+0x314>
    6b74:	e51b3070 	ldr	r3, [fp, #-112]	; 0xffffff90
    6b78:	e2832001 	add	r2, r3, #1
    6b7c:	e50b2070 	str	r2, [fp, #-112]	; 0xffffff90
    6b80:	e55b201d 	ldrb	r2, [fp, #-29]	; 0xffffffe3
    6b84:	e3822058 	orr	r2, r2, #88	; 0x58
    6b88:	e6ef2072 	uxtb	r2, r2
    6b8c:	e5c32000 	strb	r2, [r3]
    6b90:	e59b3010 	ldr	r3, [fp, #16]
    6b94:	e2033010 	and	r3, r3, #16
    6b98:	e3530000 	cmp	r3, #0
    6b9c:	1a000013 	bne	6bf0 <number+0x374>
    6ba0:	e59b3010 	ldr	r3, [fp, #16]
    6ba4:	e2033001 	and	r3, r3, #1
    6ba8:	e3530000 	cmp	r3, #0
    6bac:	0a000001 	beq	6bb8 <number+0x33c>
    6bb0:	e3a03030 	mov	r3, #48	; 0x30
    6bb4:	ea000000 	b	6bbc <number+0x340>
    6bb8:	e3a03020 	mov	r3, #32
    6bbc:	e54b3025 	strb	r3, [fp, #-37]	; 0xffffffdb
    6bc0:	ea000004 	b	6bd8 <number+0x35c>
    6bc4:	e51b3070 	ldr	r3, [fp, #-112]	; 0xffffff90
    6bc8:	e2832001 	add	r2, r3, #1
    6bcc:	e50b2070 	str	r2, [fp, #-112]	; 0xffffff90
    6bd0:	e55b2025 	ldrb	r2, [fp, #-37]	; 0xffffffdb
    6bd4:	e5c32000 	strb	r2, [r3]
    6bd8:	e59b3008 	ldr	r3, [fp, #8]
    6bdc:	e2433001 	sub	r3, r3, #1
    6be0:	e58b3008 	str	r3, [fp, #8]
    6be4:	e59b3008 	ldr	r3, [fp, #8]
    6be8:	e3530000 	cmp	r3, #0
    6bec:	aafffff4 	bge	6bc4 <number+0x348>
    6bf0:	ea000004 	b	6c08 <number+0x38c>
    6bf4:	e51b3070 	ldr	r3, [fp, #-112]	; 0xffffff90
    6bf8:	e2832001 	add	r2, r3, #1
    6bfc:	e50b2070 	str	r2, [fp, #-112]	; 0xffffff90
    6c00:	e3a02030 	mov	r2, #48	; 0x30
    6c04:	e5c32000 	strb	r2, [r3]
    6c08:	e59b300c 	ldr	r3, [fp, #12]
    6c0c:	e2433001 	sub	r3, r3, #1
    6c10:	e58b300c 	str	r3, [fp, #12]
    6c14:	e59b200c 	ldr	r2, [fp, #12]
    6c18:	e51b3014 	ldr	r3, [fp, #-20]	; 0xffffffec
    6c1c:	e1520003 	cmp	r2, r3
    6c20:	aafffff3 	bge	6bf4 <number+0x378>
    6c24:	ea000007 	b	6c48 <number+0x3cc>
    6c28:	e51b3070 	ldr	r3, [fp, #-112]	; 0xffffff90
    6c2c:	e2832001 	add	r2, r3, #1
    6c30:	e50b2070 	str	r2, [fp, #-112]	; 0xffffff90
    6c34:	e24b1068 	sub	r1, fp, #104	; 0x68
    6c38:	e51b2014 	ldr	r2, [fp, #-20]	; 0xffffffec
    6c3c:	e0812002 	add	r2, r1, r2
    6c40:	e5d22000 	ldrb	r2, [r2]
    6c44:	e5c32000 	strb	r2, [r3]
    6c48:	e51b3014 	ldr	r3, [fp, #-20]	; 0xffffffec
    6c4c:	e2433001 	sub	r3, r3, #1
    6c50:	e50b3014 	str	r3, [fp, #-20]	; 0xffffffec
    6c54:	e51b3014 	ldr	r3, [fp, #-20]	; 0xffffffec
    6c58:	e3530000 	cmp	r3, #0
    6c5c:	aafffff1 	bge	6c28 <number+0x3ac>
    6c60:	ea000004 	b	6c78 <number+0x3fc>
    6c64:	e51b3070 	ldr	r3, [fp, #-112]	; 0xffffff90
    6c68:	e2832001 	add	r2, r3, #1
    6c6c:	e50b2070 	str	r2, [fp, #-112]	; 0xffffff90
    6c70:	e3a02020 	mov	r2, #32
    6c74:	e5c32000 	strb	r2, [r3]
    6c78:	e59b3008 	ldr	r3, [fp, #8]
    6c7c:	e2433001 	sub	r3, r3, #1
    6c80:	e58b3008 	str	r3, [fp, #8]
    6c84:	e59b3008 	ldr	r3, [fp, #8]
    6c88:	e3530000 	cmp	r3, #0
    6c8c:	aafffff4 	bge	6c64 <number+0x3e8>
    6c90:	e51b3070 	ldr	r3, [fp, #-112]	; 0xffffff90
    6c94:	e1a00003 	mov	r0, r3
    6c98:	e24bd00c 	sub	sp, fp, #12
    6c9c:	e8bd8830 	pop	{r4, r5, fp, pc}

00006ca0 <string>:
    6ca0:	e92d4800 	push	{fp, lr}
    6ca4:	e28db004 	add	fp, sp, #4
    6ca8:	e24dd018 	sub	sp, sp, #24
    6cac:	e50b0010 	str	r0, [fp, #-16]
    6cb0:	e50b1014 	str	r1, [fp, #-20]	; 0xffffffec
    6cb4:	e50b2018 	str	r2, [fp, #-24]	; 0xffffffe8
    6cb8:	e50b301c 	str	r3, [fp, #-28]	; 0xffffffe4
    6cbc:	e51b3018 	ldr	r3, [fp, #-24]	; 0xffffffe8
    6cc0:	e3530000 	cmp	r3, #0
    6cc4:	1a000002 	bne	6cd4 <string+0x34>
    6cc8:	e30b312c 	movw	r3, #45356	; 0xb12c
    6ccc:	e3403001 	movt	r3, #1
    6cd0:	e50b3018 	str	r3, [fp, #-24]	; 0xffffffe8
    6cd4:	e59b3004 	ldr	r3, [fp, #4]
    6cd8:	e51b0018 	ldr	r0, [fp, #-24]	; 0xffffffe8
    6cdc:	e1a01003 	mov	r1, r3
    6ce0:	ebfffd5f 	bl	6264 <strnlen>
    6ce4:	e1a03000 	mov	r3, r0
    6ce8:	e50b300c 	str	r3, [fp, #-12]
    6cec:	e59b3008 	ldr	r3, [fp, #8]
    6cf0:	e2033010 	and	r3, r3, #16
    6cf4:	e3530000 	cmp	r3, #0
    6cf8:	1a00000b 	bne	6d2c <string+0x8c>
    6cfc:	ea000004 	b	6d14 <string+0x74>
    6d00:	e51b3010 	ldr	r3, [fp, #-16]
    6d04:	e2832001 	add	r2, r3, #1
    6d08:	e50b2010 	str	r2, [fp, #-16]
    6d0c:	e3a02020 	mov	r2, #32
    6d10:	e5c32000 	strb	r2, [r3]
    6d14:	e51b301c 	ldr	r3, [fp, #-28]	; 0xffffffe4
    6d18:	e2432001 	sub	r2, r3, #1
    6d1c:	e50b201c 	str	r2, [fp, #-28]	; 0xffffffe4
    6d20:	e51b200c 	ldr	r2, [fp, #-12]
    6d24:	e1530002 	cmp	r3, r2
    6d28:	cafffff4 	bgt	6d00 <string+0x60>
    6d2c:	e3a03000 	mov	r3, #0
    6d30:	e50b3008 	str	r3, [fp, #-8]
    6d34:	ea00000a 	b	6d64 <string+0xc4>
    6d38:	e51b3010 	ldr	r3, [fp, #-16]
    6d3c:	e2832001 	add	r2, r3, #1
    6d40:	e50b2010 	str	r2, [fp, #-16]
    6d44:	e51b2018 	ldr	r2, [fp, #-24]	; 0xffffffe8
    6d48:	e2821001 	add	r1, r2, #1
    6d4c:	e50b1018 	str	r1, [fp, #-24]	; 0xffffffe8
    6d50:	e5d22000 	ldrb	r2, [r2]
    6d54:	e5c32000 	strb	r2, [r3]
    6d58:	e51b3008 	ldr	r3, [fp, #-8]
    6d5c:	e2833001 	add	r3, r3, #1
    6d60:	e50b3008 	str	r3, [fp, #-8]
    6d64:	e51b2008 	ldr	r2, [fp, #-8]
    6d68:	e51b300c 	ldr	r3, [fp, #-12]
    6d6c:	e1520003 	cmp	r2, r3
    6d70:	bafffff0 	blt	6d38 <string+0x98>
    6d74:	ea000004 	b	6d8c <string+0xec>
    6d78:	e51b3010 	ldr	r3, [fp, #-16]
    6d7c:	e2832001 	add	r2, r3, #1
    6d80:	e50b2010 	str	r2, [fp, #-16]
    6d84:	e3a02020 	mov	r2, #32
    6d88:	e5c32000 	strb	r2, [r3]
    6d8c:	e51b301c 	ldr	r3, [fp, #-28]	; 0xffffffe4
    6d90:	e2432001 	sub	r2, r3, #1
    6d94:	e50b201c 	str	r2, [fp, #-28]	; 0xffffffe4
    6d98:	e51b200c 	ldr	r2, [fp, #-12]
    6d9c:	e1530002 	cmp	r3, r2
    6da0:	cafffff4 	bgt	6d78 <string+0xd8>
    6da4:	e51b3010 	ldr	r3, [fp, #-16]
    6da8:	e1a00003 	mov	r0, r3
    6dac:	e24bd004 	sub	sp, fp, #4
    6db0:	e8bd8800 	pop	{fp, pc}

00006db4 <pointer>:
    6db4:	e92d4800 	push	{fp, lr}
    6db8:	e28db004 	add	fp, sp, #4
    6dbc:	e24dd028 	sub	sp, sp, #40	; 0x28
    6dc0:	e50b0010 	str	r0, [fp, #-16]
    6dc4:	e50b1014 	str	r1, [fp, #-20]	; 0xffffffec
    6dc8:	e50b2018 	str	r2, [fp, #-24]	; 0xffffffe8
    6dcc:	e50b301c 	str	r3, [fp, #-28]	; 0xffffffe4
    6dd0:	e51b301c 	ldr	r3, [fp, #-28]	; 0xffffffe4
    6dd4:	e1a02003 	mov	r2, r3
    6dd8:	e3a03000 	mov	r3, #0
    6ddc:	e14b20fc 	strd	r2, [fp, #-12]
    6de0:	e51b3010 	ldr	r3, [fp, #-16]
    6de4:	e5d33000 	ldrb	r3, [r3]
    6de8:	e3530061 	cmp	r3, #97	; 0x61
    6dec:	0a000002 	beq	6dfc <pointer+0x48>
    6df0:	e353006d 	cmp	r3, #109	; 0x6d
    6df4:	0a00000a 	beq	6e24 <pointer+0x70>
    6df8:	ea00000d 	b	6e34 <pointer+0x80>
    6dfc:	e59b300c 	ldr	r3, [fp, #12]
    6e00:	e3833041 	orr	r3, r3, #65	; 0x41
    6e04:	e58b300c 	str	r3, [fp, #12]
    6e08:	e3a03012 	mov	r3, #18
    6e0c:	e58b3004 	str	r3, [fp, #4]
    6e10:	e51b301c 	ldr	r3, [fp, #-28]	; 0xffffffe4
    6e14:	e1c320d0 	ldrd	r2, [r3]
    6e18:	e14b20fc 	strd	r2, [fp, #-12]
    6e1c:	e1a00000 	nop			; (mov r0, r0)
    6e20:	ea000003 	b	6e34 <pointer+0x80>
    6e24:	e59b300c 	ldr	r3, [fp, #12]
    6e28:	e3833040 	orr	r3, r3, #64	; 0x40
    6e2c:	e58b300c 	str	r3, [fp, #12]
    6e30:	e1a00000 	nop			; (mov r0, r0)
    6e34:	e59b300c 	ldr	r3, [fp, #12]
    6e38:	e3833020 	orr	r3, r3, #32
    6e3c:	e58b300c 	str	r3, [fp, #12]
    6e40:	e59b3004 	ldr	r3, [fp, #4]
    6e44:	e3730001 	cmn	r3, #1
    6e48:	1a000004 	bne	6e60 <pointer+0xac>
    6e4c:	e3a03008 	mov	r3, #8
    6e50:	e58b3004 	str	r3, [fp, #4]
    6e54:	e59b300c 	ldr	r3, [fp, #12]
    6e58:	e3833001 	orr	r3, r3, #1
    6e5c:	e58b300c 	str	r3, [fp, #12]
    6e60:	e3a03010 	mov	r3, #16
    6e64:	e58d3000 	str	r3, [sp]
    6e68:	e59b3004 	ldr	r3, [fp, #4]
    6e6c:	e58d3004 	str	r3, [sp, #4]
    6e70:	e59b3008 	ldr	r3, [fp, #8]
    6e74:	e58d3008 	str	r3, [sp, #8]
    6e78:	e59b300c 	ldr	r3, [fp, #12]
    6e7c:	e58d300c 	str	r3, [sp, #12]
    6e80:	e51b0014 	ldr	r0, [fp, #-20]	; 0xffffffec
    6e84:	e51b1018 	ldr	r1, [fp, #-24]	; 0xffffffe8
    6e88:	e14b20dc 	ldrd	r2, [fp, #-12]
    6e8c:	ebfffe7a 	bl	687c <number>
    6e90:	e1a03000 	mov	r3, r0
    6e94:	e1a00003 	mov	r0, r3
    6e98:	e24bd004 	sub	sp, fp, #4
    6e9c:	e8bd8800 	pop	{fp, pc}

00006ea0 <vsnprintf_internal>:
    6ea0:	e92d4800 	push	{fp, lr}
    6ea4:	e28db004 	add	fp, sp, #4
    6ea8:	e24dd050 	sub	sp, sp, #80	; 0x50
    6eac:	e50b0038 	str	r0, [fp, #-56]	; 0xffffffc8
    6eb0:	e50b103c 	str	r1, [fp, #-60]	; 0xffffffc4
    6eb4:	e50b2040 	str	r2, [fp, #-64]	; 0xffffffc0
    6eb8:	e50b3044 	str	r3, [fp, #-68]	; 0xffffffbc
    6ebc:	e51b2038 	ldr	r2, [fp, #-56]	; 0xffffffc8
    6ec0:	e51b303c 	ldr	r3, [fp, #-60]	; 0xffffffc4
    6ec4:	e0823003 	add	r3, r2, r3
    6ec8:	e50b3028 	str	r3, [fp, #-40]	; 0xffffffd8
    6ecc:	e51b3038 	ldr	r3, [fp, #-56]	; 0xffffffc8
    6ed0:	e50b3014 	str	r3, [fp, #-20]	; 0xffffffec
    6ed4:	ea00020d 	b	7710 <vsnprintf_internal+0x870>
    6ed8:	e51b3040 	ldr	r3, [fp, #-64]	; 0xffffffc0
    6edc:	e5d33000 	ldrb	r3, [r3]
    6ee0:	e3530025 	cmp	r3, #37	; 0x25
    6ee4:	0a000006 	beq	6f04 <vsnprintf_internal+0x64>
    6ee8:	e51b3014 	ldr	r3, [fp, #-20]	; 0xffffffec
    6eec:	e2832001 	add	r2, r3, #1
    6ef0:	e50b2014 	str	r2, [fp, #-20]	; 0xffffffec
    6ef4:	e51b2040 	ldr	r2, [fp, #-64]	; 0xffffffc0
    6ef8:	e5d22000 	ldrb	r2, [r2]
    6efc:	e5c32000 	strb	r2, [r3]
    6f00:	ea0001ff 	b	7704 <vsnprintf_internal+0x864>
    6f04:	e3a03000 	mov	r3, #0
    6f08:	e50b3018 	str	r3, [fp, #-24]	; 0xffffffe8
    6f0c:	e51b3040 	ldr	r3, [fp, #-64]	; 0xffffffc0
    6f10:	e2833001 	add	r3, r3, #1
    6f14:	e50b3040 	str	r3, [fp, #-64]	; 0xffffffc0
    6f18:	e51b3040 	ldr	r3, [fp, #-64]	; 0xffffffc0
    6f1c:	e5d33000 	ldrb	r3, [r3]
    6f20:	e2433020 	sub	r3, r3, #32
    6f24:	e3530010 	cmp	r3, #16
    6f28:	979ff103 	ldrls	pc, [pc, r3, lsl #2]
    6f2c:	ea000024 	b	6fc4 <vsnprintf_internal+0x124>
    6f30:	00006f94 	muleq	r0, r4, pc	; <UNPREDICTABLE>
    6f34:	00006fc4 	andeq	r6, r0, r4, asr #31
    6f38:	00006fc4 	andeq	r6, r0, r4, asr #31
    6f3c:	00006fa4 	andeq	r6, r0, r4, lsr #31
    6f40:	00006fc4 	andeq	r6, r0, r4, asr #31
    6f44:	00006fc4 	andeq	r6, r0, r4, asr #31
    6f48:	00006fc4 	andeq	r6, r0, r4, asr #31
    6f4c:	00006fc4 	andeq	r6, r0, r4, asr #31
    6f50:	00006fc4 	andeq	r6, r0, r4, asr #31
    6f54:	00006fc4 	andeq	r6, r0, r4, asr #31
    6f58:	00006fc4 	andeq	r6, r0, r4, asr #31
    6f5c:	00006f84 	andeq	r6, r0, r4, lsl #31
    6f60:	00006fc4 	andeq	r6, r0, r4, asr #31
    6f64:	00006f74 	andeq	r6, r0, r4, ror pc
    6f68:	00006fc4 	andeq	r6, r0, r4, asr #31
    6f6c:	00006fc4 	andeq	r6, r0, r4, asr #31
    6f70:	00006fb4 			; <UNDEFINED> instruction: 0x00006fb4
    6f74:	e51b3018 	ldr	r3, [fp, #-24]	; 0xffffffe8
    6f78:	e3833010 	orr	r3, r3, #16
    6f7c:	e50b3018 	str	r3, [fp, #-24]	; 0xffffffe8
    6f80:	eaffffe1 	b	6f0c <vsnprintf_internal+0x6c>
    6f84:	e51b3018 	ldr	r3, [fp, #-24]	; 0xffffffe8
    6f88:	e3833004 	orr	r3, r3, #4
    6f8c:	e50b3018 	str	r3, [fp, #-24]	; 0xffffffe8
    6f90:	eaffffdd 	b	6f0c <vsnprintf_internal+0x6c>
    6f94:	e51b3018 	ldr	r3, [fp, #-24]	; 0xffffffe8
    6f98:	e3833008 	orr	r3, r3, #8
    6f9c:	e50b3018 	str	r3, [fp, #-24]	; 0xffffffe8
    6fa0:	eaffffd9 	b	6f0c <vsnprintf_internal+0x6c>
    6fa4:	e51b3018 	ldr	r3, [fp, #-24]	; 0xffffffe8
    6fa8:	e3833040 	orr	r3, r3, #64	; 0x40
    6fac:	e50b3018 	str	r3, [fp, #-24]	; 0xffffffe8
    6fb0:	eaffffd5 	b	6f0c <vsnprintf_internal+0x6c>
    6fb4:	e51b3018 	ldr	r3, [fp, #-24]	; 0xffffffe8
    6fb8:	e3833001 	orr	r3, r3, #1
    6fbc:	e50b3018 	str	r3, [fp, #-24]	; 0xffffffe8
    6fc0:	eaffffd1 	b	6f0c <vsnprintf_internal+0x6c>
    6fc4:	e3e03000 	mvn	r3, #0
    6fc8:	e50b301c 	str	r3, [fp, #-28]	; 0xffffffe4
    6fcc:	e51b3040 	ldr	r3, [fp, #-64]	; 0xffffffc0
    6fd0:	e5d33000 	ldrb	r3, [r3]
    6fd4:	e353002f 	cmp	r3, #47	; 0x2f
    6fd8:	9a000008 	bls	7000 <vsnprintf_internal+0x160>
    6fdc:	e51b3040 	ldr	r3, [fp, #-64]	; 0xffffffc0
    6fe0:	e5d33000 	ldrb	r3, [r3]
    6fe4:	e3530039 	cmp	r3, #57	; 0x39
    6fe8:	8a000004 	bhi	7000 <vsnprintf_internal+0x160>
    6fec:	e24b3040 	sub	r3, fp, #64	; 0x40
    6ff0:	e1a00003 	mov	r0, r3
    6ff4:	ebfffc77 	bl	61d8 <skip_atoi>
    6ff8:	e50b001c 	str	r0, [fp, #-28]	; 0xffffffe4
    6ffc:	ea000014 	b	7054 <vsnprintf_internal+0x1b4>
    7000:	e51b3040 	ldr	r3, [fp, #-64]	; 0xffffffc0
    7004:	e5d33000 	ldrb	r3, [r3]
    7008:	e353002a 	cmp	r3, #42	; 0x2a
    700c:	1a000010 	bne	7054 <vsnprintf_internal+0x1b4>
    7010:	e51b3040 	ldr	r3, [fp, #-64]	; 0xffffffc0
    7014:	e2833001 	add	r3, r3, #1
    7018:	e50b3040 	str	r3, [fp, #-64]	; 0xffffffc0
    701c:	e51b3044 	ldr	r3, [fp, #-68]	; 0xffffffbc
    7020:	e2832004 	add	r2, r3, #4
    7024:	e50b2044 	str	r2, [fp, #-68]	; 0xffffffbc
    7028:	e5933000 	ldr	r3, [r3]
    702c:	e50b301c 	str	r3, [fp, #-28]	; 0xffffffe4
    7030:	e51b301c 	ldr	r3, [fp, #-28]	; 0xffffffe4
    7034:	e3530000 	cmp	r3, #0
    7038:	aa000005 	bge	7054 <vsnprintf_internal+0x1b4>
    703c:	e51b301c 	ldr	r3, [fp, #-28]	; 0xffffffe4
    7040:	e2633000 	rsb	r3, r3, #0
    7044:	e50b301c 	str	r3, [fp, #-28]	; 0xffffffe4
    7048:	e51b3018 	ldr	r3, [fp, #-24]	; 0xffffffe8
    704c:	e3833010 	orr	r3, r3, #16
    7050:	e50b3018 	str	r3, [fp, #-24]	; 0xffffffe8
    7054:	e3e03000 	mvn	r3, #0
    7058:	e50b3020 	str	r3, [fp, #-32]	; 0xffffffe0
    705c:	e51b3040 	ldr	r3, [fp, #-64]	; 0xffffffc0
    7060:	e5d33000 	ldrb	r3, [r3]
    7064:	e353002e 	cmp	r3, #46	; 0x2e
    7068:	1a000020 	bne	70f0 <vsnprintf_internal+0x250>
    706c:	e51b3040 	ldr	r3, [fp, #-64]	; 0xffffffc0
    7070:	e2833001 	add	r3, r3, #1
    7074:	e50b3040 	str	r3, [fp, #-64]	; 0xffffffc0
    7078:	e51b3040 	ldr	r3, [fp, #-64]	; 0xffffffc0
    707c:	e5d33000 	ldrb	r3, [r3]
    7080:	e353002f 	cmp	r3, #47	; 0x2f
    7084:	9a000008 	bls	70ac <vsnprintf_internal+0x20c>
    7088:	e51b3040 	ldr	r3, [fp, #-64]	; 0xffffffc0
    708c:	e5d33000 	ldrb	r3, [r3]
    7090:	e3530039 	cmp	r3, #57	; 0x39
    7094:	8a000004 	bhi	70ac <vsnprintf_internal+0x20c>
    7098:	e24b3040 	sub	r3, fp, #64	; 0x40
    709c:	e1a00003 	mov	r0, r3
    70a0:	ebfffc4c 	bl	61d8 <skip_atoi>
    70a4:	e50b0020 	str	r0, [fp, #-32]	; 0xffffffe0
    70a8:	ea00000b 	b	70dc <vsnprintf_internal+0x23c>
    70ac:	e51b3040 	ldr	r3, [fp, #-64]	; 0xffffffc0
    70b0:	e5d33000 	ldrb	r3, [r3]
    70b4:	e353002a 	cmp	r3, #42	; 0x2a
    70b8:	1a000007 	bne	70dc <vsnprintf_internal+0x23c>
    70bc:	e51b3040 	ldr	r3, [fp, #-64]	; 0xffffffc0
    70c0:	e2833001 	add	r3, r3, #1
    70c4:	e50b3040 	str	r3, [fp, #-64]	; 0xffffffc0
    70c8:	e51b3044 	ldr	r3, [fp, #-68]	; 0xffffffbc
    70cc:	e2832004 	add	r2, r3, #4
    70d0:	e50b2044 	str	r2, [fp, #-68]	; 0xffffffbc
    70d4:	e5933000 	ldr	r3, [r3]
    70d8:	e50b3020 	str	r3, [fp, #-32]	; 0xffffffe0
    70dc:	e51b3020 	ldr	r3, [fp, #-32]	; 0xffffffe0
    70e0:	e3530000 	cmp	r3, #0
    70e4:	aa000001 	bge	70f0 <vsnprintf_internal+0x250>
    70e8:	e3a03000 	mov	r3, #0
    70ec:	e50b3020 	str	r3, [fp, #-32]	; 0xffffffe0
    70f0:	e3e03000 	mvn	r3, #0
    70f4:	e50b3024 	str	r3, [fp, #-36]	; 0xffffffdc
    70f8:	e51b3040 	ldr	r3, [fp, #-64]	; 0xffffffc0
    70fc:	e5d33000 	ldrb	r3, [r3]
    7100:	e3530068 	cmp	r3, #104	; 0x68
    7104:	0a000013 	beq	7158 <vsnprintf_internal+0x2b8>
    7108:	e51b3040 	ldr	r3, [fp, #-64]	; 0xffffffc0
    710c:	e5d33000 	ldrb	r3, [r3]
    7110:	e353006c 	cmp	r3, #108	; 0x6c
    7114:	0a00000f 	beq	7158 <vsnprintf_internal+0x2b8>
    7118:	e51b3040 	ldr	r3, [fp, #-64]	; 0xffffffc0
    711c:	e5d33000 	ldrb	r3, [r3]
    7120:	e353004c 	cmp	r3, #76	; 0x4c
    7124:	0a00000b 	beq	7158 <vsnprintf_internal+0x2b8>
    7128:	e51b3040 	ldr	r3, [fp, #-64]	; 0xffffffc0
    712c:	e5d33000 	ldrb	r3, [r3]
    7130:	e353005a 	cmp	r3, #90	; 0x5a
    7134:	0a000007 	beq	7158 <vsnprintf_internal+0x2b8>
    7138:	e51b3040 	ldr	r3, [fp, #-64]	; 0xffffffc0
    713c:	e5d33000 	ldrb	r3, [r3]
    7140:	e353007a 	cmp	r3, #122	; 0x7a
    7144:	0a000003 	beq	7158 <vsnprintf_internal+0x2b8>
    7148:	e51b3040 	ldr	r3, [fp, #-64]	; 0xffffffc0
    714c:	e5d33000 	ldrb	r3, [r3]
    7150:	e3530074 	cmp	r3, #116	; 0x74
    7154:	1a000011 	bne	71a0 <vsnprintf_internal+0x300>
    7158:	e51b3040 	ldr	r3, [fp, #-64]	; 0xffffffc0
    715c:	e5d33000 	ldrb	r3, [r3]
    7160:	e50b3024 	str	r3, [fp, #-36]	; 0xffffffdc
    7164:	e51b3040 	ldr	r3, [fp, #-64]	; 0xffffffc0
    7168:	e2833001 	add	r3, r3, #1
    716c:	e50b3040 	str	r3, [fp, #-64]	; 0xffffffc0
    7170:	e51b3024 	ldr	r3, [fp, #-36]	; 0xffffffdc
    7174:	e353006c 	cmp	r3, #108	; 0x6c
    7178:	1a000008 	bne	71a0 <vsnprintf_internal+0x300>
    717c:	e51b3040 	ldr	r3, [fp, #-64]	; 0xffffffc0
    7180:	e5d33000 	ldrb	r3, [r3]
    7184:	e353006c 	cmp	r3, #108	; 0x6c
    7188:	1a000004 	bne	71a0 <vsnprintf_internal+0x300>
    718c:	e3a0304c 	mov	r3, #76	; 0x4c
    7190:	e50b3024 	str	r3, [fp, #-36]	; 0xffffffdc
    7194:	e51b3040 	ldr	r3, [fp, #-64]	; 0xffffffc0
    7198:	e2833001 	add	r3, r3, #1
    719c:	e50b3040 	str	r3, [fp, #-64]	; 0xffffffc0
    71a0:	e3a0300a 	mov	r3, #10
    71a4:	e50b3010 	str	r3, [fp, #-16]
    71a8:	e51b3040 	ldr	r3, [fp, #-64]	; 0xffffffc0
    71ac:	e5d33000 	ldrb	r3, [r3]
    71b0:	e2433025 	sub	r3, r3, #37	; 0x25
    71b4:	e3530053 	cmp	r3, #83	; 0x53
    71b8:	979ff103 	ldrls	pc, [pc, r3, lsl #2]
    71bc:	ea0000d4 	b	7514 <vsnprintf_internal+0x674>
    71c0:	000074c8 	andeq	r7, r0, r8, asr #9
    71c4:	00007514 	andeq	r7, r0, r4, lsl r5
    71c8:	00007514 	andeq	r7, r0, r4, lsl r5
    71cc:	00007514 	andeq	r7, r0, r4, lsl r5
    71d0:	00007514 	andeq	r7, r0, r4, lsl r5
    71d4:	00007514 	andeq	r7, r0, r4, lsl r5
    71d8:	00007514 	andeq	r7, r0, r4, lsl r5
    71dc:	00007514 	andeq	r7, r0, r4, lsl r5
    71e0:	00007514 	andeq	r7, r0, r4, lsl r5
    71e4:	00007514 	andeq	r7, r0, r4, lsl r5
    71e8:	00007514 	andeq	r7, r0, r4, lsl r5
    71ec:	00007514 	andeq	r7, r0, r4, lsl r5
    71f0:	00007514 	andeq	r7, r0, r4, lsl r5
    71f4:	00007514 	andeq	r7, r0, r4, lsl r5
    71f8:	00007514 	andeq	r7, r0, r4, lsl r5
    71fc:	00007514 	andeq	r7, r0, r4, lsl r5
    7200:	00007514 	andeq	r7, r0, r4, lsl r5
    7204:	00007514 	andeq	r7, r0, r4, lsl r5
    7208:	00007514 	andeq	r7, r0, r4, lsl r5
    720c:	00007514 	andeq	r7, r0, r4, lsl r5
    7210:	00007514 	andeq	r7, r0, r4, lsl r5
    7214:	00007514 	andeq	r7, r0, r4, lsl r5
    7218:	00007514 	andeq	r7, r0, r4, lsl r5
    721c:	00007514 	andeq	r7, r0, r4, lsl r5
    7220:	00007514 	andeq	r7, r0, r4, lsl r5
    7224:	00007514 	andeq	r7, r0, r4, lsl r5
    7228:	00007514 	andeq	r7, r0, r4, lsl r5
    722c:	00007514 	andeq	r7, r0, r4, lsl r5
    7230:	00007514 	andeq	r7, r0, r4, lsl r5
    7234:	00007514 	andeq	r7, r0, r4, lsl r5
    7238:	00007514 	andeq	r7, r0, r4, lsl r5
    723c:	00007514 	andeq	r7, r0, r4, lsl r5
    7240:	00007514 	andeq	r7, r0, r4, lsl r5
    7244:	00007514 	andeq	r7, r0, r4, lsl r5
    7248:	00007514 	andeq	r7, r0, r4, lsl r5
    724c:	00007514 	andeq	r7, r0, r4, lsl r5
    7250:	00007514 	andeq	r7, r0, r4, lsl r5
    7254:	00007514 	andeq	r7, r0, r4, lsl r5
    7258:	00007514 	andeq	r7, r0, r4, lsl r5
    725c:	00007514 	andeq	r7, r0, r4, lsl r5
    7260:	00007514 	andeq	r7, r0, r4, lsl r5
    7264:	00007514 	andeq	r7, r0, r4, lsl r5
    7268:	00007514 	andeq	r7, r0, r4, lsl r5
    726c:	00007514 	andeq	r7, r0, r4, lsl r5
    7270:	00007514 	andeq	r7, r0, r4, lsl r5
    7274:	00007514 	andeq	r7, r0, r4, lsl r5
    7278:	00007514 	andeq	r7, r0, r4, lsl r5
    727c:	00007514 	andeq	r7, r0, r4, lsl r5
    7280:	00007514 	andeq	r7, r0, r4, lsl r5
    7284:	00007514 	andeq	r7, r0, r4, lsl r5
    7288:	00007514 	andeq	r7, r0, r4, lsl r5
    728c:	000074f8 	strdeq	r7, [r0], -r8
    7290:	00007514 	andeq	r7, r0, r4, lsl r5
    7294:	00007514 	andeq	r7, r0, r4, lsl r5
    7298:	00007514 	andeq	r7, r0, r4, lsl r5
    729c:	00007514 	andeq	r7, r0, r4, lsl r5
    72a0:	00007514 	andeq	r7, r0, r4, lsl r5
    72a4:	00007514 	andeq	r7, r0, r4, lsl r5
    72a8:	00007514 	andeq	r7, r0, r4, lsl r5
    72ac:	00007514 	andeq	r7, r0, r4, lsl r5
    72b0:	00007514 	andeq	r7, r0, r4, lsl r5
    72b4:	00007514 	andeq	r7, r0, r4, lsl r5
    72b8:	00007310 	andeq	r7, r0, r0, lsl r3
    72bc:	00007504 	andeq	r7, r0, r4, lsl #10
    72c0:	00007514 	andeq	r7, r0, r4, lsl r5
    72c4:	00007514 	andeq	r7, r0, r4, lsl r5
    72c8:	00007514 	andeq	r7, r0, r4, lsl r5
    72cc:	00007514 	andeq	r7, r0, r4, lsl r5
    72d0:	00007504 	andeq	r7, r0, r4, lsl #10
    72d4:	00007514 	andeq	r7, r0, r4, lsl r5
    72d8:	00007514 	andeq	r7, r0, r4, lsl r5
    72dc:	00007514 	andeq	r7, r0, r4, lsl r5
    72e0:	00007514 	andeq	r7, r0, r4, lsl r5
    72e4:	00007464 	andeq	r7, r0, r4, ror #8
    72e8:	000074e0 	andeq	r7, r0, r0, ror #9
    72ec:	000073e0 	andeq	r7, r0, r0, ror #7
    72f0:	00007514 	andeq	r7, r0, r4, lsl r5
    72f4:	00007514 	andeq	r7, r0, r4, lsl r5
    72f8:	000073a8 	andeq	r7, r0, r8, lsr #7
    72fc:	00007514 	andeq	r7, r0, r4, lsl r5
    7300:	00007564 	andeq	r7, r0, r4, ror #10
    7304:	00007514 	andeq	r7, r0, r4, lsl r5
    7308:	00007514 	andeq	r7, r0, r4, lsl r5
    730c:	000074ec 	andeq	r7, r0, ip, ror #9
    7310:	e51b3018 	ldr	r3, [fp, #-24]	; 0xffffffe8
    7314:	e2033010 	and	r3, r3, #16
    7318:	e3530000 	cmp	r3, #0
    731c:	1a00000b 	bne	7350 <vsnprintf_internal+0x4b0>
    7320:	ea000004 	b	7338 <vsnprintf_internal+0x498>
    7324:	e51b3014 	ldr	r3, [fp, #-20]	; 0xffffffec
    7328:	e2832001 	add	r2, r3, #1
    732c:	e50b2014 	str	r2, [fp, #-20]	; 0xffffffec
    7330:	e3a02020 	mov	r2, #32
    7334:	e5c32000 	strb	r2, [r3]
    7338:	e51b301c 	ldr	r3, [fp, #-28]	; 0xffffffe4
    733c:	e2433001 	sub	r3, r3, #1
    7340:	e50b301c 	str	r3, [fp, #-28]	; 0xffffffe4
    7344:	e51b301c 	ldr	r3, [fp, #-28]	; 0xffffffe4
    7348:	e3530000 	cmp	r3, #0
    734c:	cafffff4 	bgt	7324 <vsnprintf_internal+0x484>
    7350:	e51b3014 	ldr	r3, [fp, #-20]	; 0xffffffec
    7354:	e2832001 	add	r2, r3, #1
    7358:	e50b2014 	str	r2, [fp, #-20]	; 0xffffffec
    735c:	e51b2044 	ldr	r2, [fp, #-68]	; 0xffffffbc
    7360:	e2821004 	add	r1, r2, #4
    7364:	e50b1044 	str	r1, [fp, #-68]	; 0xffffffbc
    7368:	e5922000 	ldr	r2, [r2]
    736c:	e6ef2072 	uxtb	r2, r2
    7370:	e5c32000 	strb	r2, [r3]
    7374:	ea000004 	b	738c <vsnprintf_internal+0x4ec>
    7378:	e51b3014 	ldr	r3, [fp, #-20]	; 0xffffffec
    737c:	e2832001 	add	r2, r3, #1
    7380:	e50b2014 	str	r2, [fp, #-20]	; 0xffffffec
    7384:	e3a02020 	mov	r2, #32
    7388:	e5c32000 	strb	r2, [r3]
    738c:	e51b301c 	ldr	r3, [fp, #-28]	; 0xffffffe4
    7390:	e2433001 	sub	r3, r3, #1
    7394:	e50b301c 	str	r3, [fp, #-28]	; 0xffffffe4
    7398:	e51b301c 	ldr	r3, [fp, #-28]	; 0xffffffe4
    739c:	e3530000 	cmp	r3, #0
    73a0:	cafffff4 	bgt	7378 <vsnprintf_internal+0x4d8>
    73a4:	ea0000d6 	b	7704 <vsnprintf_internal+0x864>
    73a8:	e51b3044 	ldr	r3, [fp, #-68]	; 0xffffffbc
    73ac:	e2832004 	add	r2, r3, #4
    73b0:	e50b2044 	str	r2, [fp, #-68]	; 0xffffffbc
    73b4:	e5932000 	ldr	r2, [r3]
    73b8:	e51b3020 	ldr	r3, [fp, #-32]	; 0xffffffe0
    73bc:	e58d3000 	str	r3, [sp]
    73c0:	e51b3018 	ldr	r3, [fp, #-24]	; 0xffffffe8
    73c4:	e58d3004 	str	r3, [sp, #4]
    73c8:	e51b0014 	ldr	r0, [fp, #-20]	; 0xffffffec
    73cc:	e51b1028 	ldr	r1, [fp, #-40]	; 0xffffffd8
    73d0:	e51b301c 	ldr	r3, [fp, #-28]	; 0xffffffe4
    73d4:	ebfffe31 	bl	6ca0 <string>
    73d8:	e50b0014 	str	r0, [fp, #-20]	; 0xffffffec
    73dc:	ea0000c8 	b	7704 <vsnprintf_internal+0x864>
    73e0:	e51b3040 	ldr	r3, [fp, #-64]	; 0xffffffc0
    73e4:	e2831001 	add	r1, r3, #1
    73e8:	e51b3044 	ldr	r3, [fp, #-68]	; 0xffffffbc
    73ec:	e2832004 	add	r2, r3, #4
    73f0:	e50b2044 	str	r2, [fp, #-68]	; 0xffffffbc
    73f4:	e593c000 	ldr	ip, [r3]
    73f8:	e51b301c 	ldr	r3, [fp, #-28]	; 0xffffffe4
    73fc:	e58d3000 	str	r3, [sp]
    7400:	e51b3020 	ldr	r3, [fp, #-32]	; 0xffffffe0
    7404:	e58d3004 	str	r3, [sp, #4]
    7408:	e51b3018 	ldr	r3, [fp, #-24]	; 0xffffffe8
    740c:	e58d3008 	str	r3, [sp, #8]
    7410:	e1a00001 	mov	r0, r1
    7414:	e51b1014 	ldr	r1, [fp, #-20]	; 0xffffffec
    7418:	e51b2028 	ldr	r2, [fp, #-40]	; 0xffffffd8
    741c:	e1a0300c 	mov	r3, ip
    7420:	ebfffe63 	bl	6db4 <pointer>
    7424:	e50b0014 	str	r0, [fp, #-20]	; 0xffffffec
    7428:	ea000002 	b	7438 <vsnprintf_internal+0x598>
    742c:	e51b3040 	ldr	r3, [fp, #-64]	; 0xffffffc0
    7430:	e2833001 	add	r3, r3, #1
    7434:	e50b3040 	str	r3, [fp, #-64]	; 0xffffffc0
    7438:	e51b3040 	ldr	r3, [fp, #-64]	; 0xffffffc0
    743c:	e2833001 	add	r3, r3, #1
    7440:	e5d33000 	ldrb	r3, [r3]
    7444:	e1a02003 	mov	r2, r3
    7448:	e30b302c 	movw	r3, #45100	; 0xb02c
    744c:	e3403001 	movt	r3, #1
    7450:	e7d33002 	ldrb	r3, [r3, r2]
    7454:	e2033007 	and	r3, r3, #7
    7458:	e3530000 	cmp	r3, #0
    745c:	1afffff2 	bne	742c <vsnprintf_internal+0x58c>
    7460:	ea0000a7 	b	7704 <vsnprintf_internal+0x864>
    7464:	e51b3024 	ldr	r3, [fp, #-36]	; 0xffffffdc
    7468:	e353006c 	cmp	r3, #108	; 0x6c
    746c:	1a00000a 	bne	749c <vsnprintf_internal+0x5fc>
    7470:	e51b3044 	ldr	r3, [fp, #-68]	; 0xffffffbc
    7474:	e2832004 	add	r2, r3, #4
    7478:	e50b2044 	str	r2, [fp, #-68]	; 0xffffffbc
    747c:	e5933000 	ldr	r3, [r3]
    7480:	e50b302c 	str	r3, [fp, #-44]	; 0xffffffd4
    7484:	e51b2014 	ldr	r2, [fp, #-20]	; 0xffffffec
    7488:	e51b3038 	ldr	r3, [fp, #-56]	; 0xffffffc8
    748c:	e0632002 	rsb	r2, r3, r2
    7490:	e51b302c 	ldr	r3, [fp, #-44]	; 0xffffffd4
    7494:	e5832000 	str	r2, [r3]
    7498:	ea000099 	b	7704 <vsnprintf_internal+0x864>
    749c:	e51b3044 	ldr	r3, [fp, #-68]	; 0xffffffbc
    74a0:	e2832004 	add	r2, r3, #4
    74a4:	e50b2044 	str	r2, [fp, #-68]	; 0xffffffbc
    74a8:	e5933000 	ldr	r3, [r3]
    74ac:	e50b3030 	str	r3, [fp, #-48]	; 0xffffffd0
    74b0:	e51b2014 	ldr	r2, [fp, #-20]	; 0xffffffec
    74b4:	e51b3038 	ldr	r3, [fp, #-56]	; 0xffffffc8
    74b8:	e0632002 	rsb	r2, r3, r2
    74bc:	e51b3030 	ldr	r3, [fp, #-48]	; 0xffffffd0
    74c0:	e5832000 	str	r2, [r3]
    74c4:	ea00008e 	b	7704 <vsnprintf_internal+0x864>
    74c8:	e51b3014 	ldr	r3, [fp, #-20]	; 0xffffffec
    74cc:	e2832001 	add	r2, r3, #1
    74d0:	e50b2014 	str	r2, [fp, #-20]	; 0xffffffec
    74d4:	e3a02025 	mov	r2, #37	; 0x25
    74d8:	e5c32000 	strb	r2, [r3]
    74dc:	ea000088 	b	7704 <vsnprintf_internal+0x864>
    74e0:	e3a03008 	mov	r3, #8
    74e4:	e50b3010 	str	r3, [fp, #-16]
    74e8:	ea00001e 	b	7568 <vsnprintf_internal+0x6c8>
    74ec:	e51b3018 	ldr	r3, [fp, #-24]	; 0xffffffe8
    74f0:	e3833020 	orr	r3, r3, #32
    74f4:	e50b3018 	str	r3, [fp, #-24]	; 0xffffffe8
    74f8:	e3a03010 	mov	r3, #16
    74fc:	e50b3010 	str	r3, [fp, #-16]
    7500:	ea000018 	b	7568 <vsnprintf_internal+0x6c8>
    7504:	e51b3018 	ldr	r3, [fp, #-24]	; 0xffffffe8
    7508:	e3833002 	orr	r3, r3, #2
    750c:	e50b3018 	str	r3, [fp, #-24]	; 0xffffffe8
    7510:	ea000013 	b	7564 <vsnprintf_internal+0x6c4>
    7514:	e51b3014 	ldr	r3, [fp, #-20]	; 0xffffffec
    7518:	e2832001 	add	r2, r3, #1
    751c:	e50b2014 	str	r2, [fp, #-20]	; 0xffffffec
    7520:	e3a02025 	mov	r2, #37	; 0x25
    7524:	e5c32000 	strb	r2, [r3]
    7528:	e51b3040 	ldr	r3, [fp, #-64]	; 0xffffffc0
    752c:	e5d33000 	ldrb	r3, [r3]
    7530:	e3530000 	cmp	r3, #0
    7534:	0a000006 	beq	7554 <vsnprintf_internal+0x6b4>
    7538:	e51b3014 	ldr	r3, [fp, #-20]	; 0xffffffec
    753c:	e2832001 	add	r2, r3, #1
    7540:	e50b2014 	str	r2, [fp, #-20]	; 0xffffffec
    7544:	e51b2040 	ldr	r2, [fp, #-64]	; 0xffffffc0
    7548:	e5d22000 	ldrb	r2, [r2]
    754c:	e5c32000 	strb	r2, [r3]
    7550:	ea00006b 	b	7704 <vsnprintf_internal+0x864>
    7554:	e51b3040 	ldr	r3, [fp, #-64]	; 0xffffffc0
    7558:	e2433001 	sub	r3, r3, #1
    755c:	e50b3040 	str	r3, [fp, #-64]	; 0xffffffc0
    7560:	ea000067 	b	7704 <vsnprintf_internal+0x864>
    7564:	e1a00000 	nop			; (mov r0, r0)
    7568:	e51b3024 	ldr	r3, [fp, #-36]	; 0xffffffdc
    756c:	e353004c 	cmp	r3, #76	; 0x4c
    7570:	1a000007 	bne	7594 <vsnprintf_internal+0x6f4>
    7574:	e51b3044 	ldr	r3, [fp, #-68]	; 0xffffffbc
    7578:	e2833007 	add	r3, r3, #7
    757c:	e3c33007 	bic	r3, r3, #7
    7580:	e2832008 	add	r2, r3, #8
    7584:	e50b2044 	str	r2, [fp, #-68]	; 0xffffffbc
    7588:	e1c320d0 	ldrd	r2, [r3]
    758c:	e14b20fc 	strd	r2, [fp, #-12]
    7590:	ea00004e 	b	76d0 <vsnprintf_internal+0x830>
    7594:	e51b3024 	ldr	r3, [fp, #-36]	; 0xffffffdc
    7598:	e353006c 	cmp	r3, #108	; 0x6c
    759c:	1a00000f 	bne	75e0 <vsnprintf_internal+0x740>
    75a0:	e51b3044 	ldr	r3, [fp, #-68]	; 0xffffffbc
    75a4:	e2832004 	add	r2, r3, #4
    75a8:	e50b2044 	str	r2, [fp, #-68]	; 0xffffffbc
    75ac:	e5933000 	ldr	r3, [r3]
    75b0:	e1a02003 	mov	r2, r3
    75b4:	e3a03000 	mov	r3, #0
    75b8:	e14b20fc 	strd	r2, [fp, #-12]
    75bc:	e51b3018 	ldr	r3, [fp, #-24]	; 0xffffffe8
    75c0:	e2033002 	and	r3, r3, #2
    75c4:	e3530000 	cmp	r3, #0
    75c8:	0a000040 	beq	76d0 <vsnprintf_internal+0x830>
    75cc:	e51b300c 	ldr	r3, [fp, #-12]
    75d0:	e1a02003 	mov	r2, r3
    75d4:	e1a03fc2 	asr	r3, r2, #31
    75d8:	e14b20fc 	strd	r2, [fp, #-12]
    75dc:	ea00003b 	b	76d0 <vsnprintf_internal+0x830>
    75e0:	e51b3024 	ldr	r3, [fp, #-36]	; 0xffffffdc
    75e4:	e353005a 	cmp	r3, #90	; 0x5a
    75e8:	0a000002 	beq	75f8 <vsnprintf_internal+0x758>
    75ec:	e51b3024 	ldr	r3, [fp, #-36]	; 0xffffffdc
    75f0:	e353007a 	cmp	r3, #122	; 0x7a
    75f4:	1a000007 	bne	7618 <vsnprintf_internal+0x778>
    75f8:	e51b3044 	ldr	r3, [fp, #-68]	; 0xffffffbc
    75fc:	e2832004 	add	r2, r3, #4
    7600:	e50b2044 	str	r2, [fp, #-68]	; 0xffffffbc
    7604:	e5933000 	ldr	r3, [r3]
    7608:	e1a02003 	mov	r2, r3
    760c:	e3a03000 	mov	r3, #0
    7610:	e14b20fc 	strd	r2, [fp, #-12]
    7614:	ea00002d 	b	76d0 <vsnprintf_internal+0x830>
    7618:	e51b3024 	ldr	r3, [fp, #-36]	; 0xffffffdc
    761c:	e3530074 	cmp	r3, #116	; 0x74
    7620:	1a000007 	bne	7644 <vsnprintf_internal+0x7a4>
    7624:	e51b3044 	ldr	r3, [fp, #-68]	; 0xffffffbc
    7628:	e2832004 	add	r2, r3, #4
    762c:	e50b2044 	str	r2, [fp, #-68]	; 0xffffffbc
    7630:	e5933000 	ldr	r3, [r3]
    7634:	e1a02003 	mov	r2, r3
    7638:	e3a03000 	mov	r3, #0
    763c:	e14b20fc 	strd	r2, [fp, #-12]
    7640:	ea000022 	b	76d0 <vsnprintf_internal+0x830>
    7644:	e51b3024 	ldr	r3, [fp, #-36]	; 0xffffffdc
    7648:	e3530068 	cmp	r3, #104	; 0x68
    764c:	1a000010 	bne	7694 <vsnprintf_internal+0x7f4>
    7650:	e51b3044 	ldr	r3, [fp, #-68]	; 0xffffffbc
    7654:	e2832004 	add	r2, r3, #4
    7658:	e50b2044 	str	r2, [fp, #-68]	; 0xffffffbc
    765c:	e5933000 	ldr	r3, [r3]
    7660:	e6ff3073 	uxth	r3, r3
    7664:	e6ff2073 	uxth	r2, r3
    7668:	e3a03000 	mov	r3, #0
    766c:	e14b20fc 	strd	r2, [fp, #-12]
    7670:	e51b3018 	ldr	r3, [fp, #-24]	; 0xffffffe8
    7674:	e2033002 	and	r3, r3, #2
    7678:	e3530000 	cmp	r3, #0
    767c:	0a000013 	beq	76d0 <vsnprintf_internal+0x830>
    7680:	e15b30bc 	ldrh	r3, [fp, #-12]
    7684:	e6bf2073 	sxth	r2, r3
    7688:	e1a03fc2 	asr	r3, r2, #31
    768c:	e14b20fc 	strd	r2, [fp, #-12]
    7690:	ea00000e 	b	76d0 <vsnprintf_internal+0x830>
    7694:	e51b3044 	ldr	r3, [fp, #-68]	; 0xffffffbc
    7698:	e2832004 	add	r2, r3, #4
    769c:	e50b2044 	str	r2, [fp, #-68]	; 0xffffffbc
    76a0:	e5933000 	ldr	r3, [r3]
    76a4:	e1a02003 	mov	r2, r3
    76a8:	e3a03000 	mov	r3, #0
    76ac:	e14b20fc 	strd	r2, [fp, #-12]
    76b0:	e51b3018 	ldr	r3, [fp, #-24]	; 0xffffffe8
    76b4:	e2033002 	and	r3, r3, #2
    76b8:	e3530000 	cmp	r3, #0
    76bc:	0a000003 	beq	76d0 <vsnprintf_internal+0x830>
    76c0:	e51b300c 	ldr	r3, [fp, #-12]
    76c4:	e1a02003 	mov	r2, r3
    76c8:	e1a03fc2 	asr	r3, r2, #31
    76cc:	e14b20fc 	strd	r2, [fp, #-12]
    76d0:	e51b3010 	ldr	r3, [fp, #-16]
    76d4:	e58d3000 	str	r3, [sp]
    76d8:	e51b301c 	ldr	r3, [fp, #-28]	; 0xffffffe4
    76dc:	e58d3004 	str	r3, [sp, #4]
    76e0:	e51b3020 	ldr	r3, [fp, #-32]	; 0xffffffe0
    76e4:	e58d3008 	str	r3, [sp, #8]
    76e8:	e51b3018 	ldr	r3, [fp, #-24]	; 0xffffffe8
    76ec:	e58d300c 	str	r3, [sp, #12]
    76f0:	e51b0014 	ldr	r0, [fp, #-20]	; 0xffffffec
    76f4:	e51b1028 	ldr	r1, [fp, #-40]	; 0xffffffd8
    76f8:	e14b20dc 	ldrd	r2, [fp, #-12]
    76fc:	ebfffc5e 	bl	687c <number>
    7700:	e50b0014 	str	r0, [fp, #-20]	; 0xffffffec
    7704:	e51b3040 	ldr	r3, [fp, #-64]	; 0xffffffc0
    7708:	e2833001 	add	r3, r3, #1
    770c:	e50b3040 	str	r3, [fp, #-64]	; 0xffffffc0
    7710:	e51b3040 	ldr	r3, [fp, #-64]	; 0xffffffc0
    7714:	e5d33000 	ldrb	r3, [r3]
    7718:	e3530000 	cmp	r3, #0
    771c:	1afffded 	bne	6ed8 <vsnprintf_internal+0x38>
    7720:	e51b3014 	ldr	r3, [fp, #-20]	; 0xffffffec
    7724:	e3a02000 	mov	r2, #0
    7728:	e5c32000 	strb	r2, [r3]
    772c:	e51b2014 	ldr	r2, [fp, #-20]	; 0xffffffec
    7730:	e51b3038 	ldr	r3, [fp, #-56]	; 0xffffffc8
    7734:	e0633002 	rsb	r3, r3, r2
    7738:	e1a00003 	mov	r0, r3
    773c:	e24bd004 	sub	sp, fp, #4
    7740:	e8bd8800 	pop	{fp, pc}

00007744 <vsprintf>:
    7744:	e92d4800 	push	{fp, lr}
    7748:	e28db004 	add	fp, sp, #4
    774c:	e24dd010 	sub	sp, sp, #16
    7750:	e50b0008 	str	r0, [fp, #-8]
    7754:	e50b100c 	str	r1, [fp, #-12]
    7758:	e50b2010 	str	r2, [fp, #-16]
    775c:	e51b0008 	ldr	r0, [fp, #-8]
    7760:	e3e01102 	mvn	r1, #-2147483648	; 0x80000000
    7764:	e51b200c 	ldr	r2, [fp, #-12]
    7768:	e51b3010 	ldr	r3, [fp, #-16]
    776c:	ebfffdcb 	bl	6ea0 <vsnprintf_internal>
    7770:	e1a03000 	mov	r3, r0
    7774:	e1a00003 	mov	r0, r3
    7778:	e24bd004 	sub	sp, fp, #4
    777c:	e8bd8800 	pop	{fp, pc}

00007780 <sprintf>:
    7780:	e92d000e 	push	{r1, r2, r3}
    7784:	e92d4800 	push	{fp, lr}
    7788:	e28db004 	add	fp, sp, #4
    778c:	e24dd014 	sub	sp, sp, #20
    7790:	e50b0014 	str	r0, [fp, #-20]	; 0xffffffec
    7794:	e28b3008 	add	r3, fp, #8
    7798:	e50b3010 	str	r3, [fp, #-16]
    779c:	e51b0014 	ldr	r0, [fp, #-20]	; 0xffffffec
    77a0:	e59b1004 	ldr	r1, [fp, #4]
    77a4:	e51b2010 	ldr	r2, [fp, #-16]
    77a8:	ebffffe5 	bl	7744 <vsprintf>
    77ac:	e50b000c 	str	r0, [fp, #-12]
    77b0:	e51b300c 	ldr	r3, [fp, #-12]
    77b4:	e1a00003 	mov	r0, r3
    77b8:	e24bd004 	sub	sp, fp, #4
    77bc:	e8bd4800 	pop	{fp, lr}
    77c0:	e28dd00c 	add	sp, sp, #12
    77c4:	e12fff1e 	bx	lr

000077c8 <printf>:
    77c8:	e92d000f 	push	{r0, r1, r2, r3}
    77cc:	e92d4800 	push	{fp, lr}
    77d0:	e28db004 	add	fp, sp, #4
    77d4:	e24ddf42 	sub	sp, sp, #264	; 0x108
    77d8:	e28b3008 	add	r3, fp, #8
    77dc:	e50b300c 	str	r3, [fp, #-12]
    77e0:	e24b3f43 	sub	r3, fp, #268	; 0x10c
    77e4:	e1a00003 	mov	r0, r3
    77e8:	e3a01c01 	mov	r1, #256	; 0x100
    77ec:	e59b2004 	ldr	r2, [fp, #4]
    77f0:	e51b300c 	ldr	r3, [fp, #-12]
    77f4:	eb0000ed 	bl	7bb0 <vscnprintf>
    77f8:	e1a03000 	mov	r3, r0
    77fc:	e50b3008 	str	r3, [fp, #-8]
    7800:	e24b3f43 	sub	r3, fp, #268	; 0x10c
    7804:	e1a00003 	mov	r0, r3
    7808:	eb000264 	bl	81a0 <uart_puts>
    780c:	e51b3008 	ldr	r3, [fp, #-8]
    7810:	e1a00003 	mov	r0, r3
    7814:	e24bd004 	sub	sp, fp, #4
    7818:	e8bd4800 	pop	{fp, lr}
    781c:	e28dd010 	add	sp, sp, #16
    7820:	e12fff1e 	bx	lr

00007824 <timer_printf>:
    7824:	e92d000f 	push	{r0, r1, r2, r3}
    7828:	e92d4800 	push	{fp, lr}
    782c:	e28db004 	add	fp, sp, #4
    7830:	e24ddf82 	sub	sp, sp, #520	; 0x208
    7834:	e3a03000 	mov	r3, #0
    7838:	e50b3008 	str	r3, [fp, #-8]
    783c:	e3a03000 	mov	r3, #0
    7840:	e50b300c 	str	r3, [fp, #-12]
    7844:	e28b3008 	add	r3, fp, #8
    7848:	e50b3010 	str	r3, [fp, #-16]
    784c:	e3a00000 	mov	r0, #0
    7850:	eb000169 	bl	7dfc <get_timer>
    7854:	e50b000c 	str	r0, [fp, #-12]
    7858:	e24b3f41 	sub	r3, fp, #260	; 0x104
    785c:	e1a00003 	mov	r0, r3
    7860:	e59b1004 	ldr	r1, [fp, #4]
    7864:	e51b2010 	ldr	r2, [fp, #-16]
    7868:	ebffffb5 	bl	7744 <vsprintf>
    786c:	e51b200c 	ldr	r2, [fp, #-12]
    7870:	e3043dd3 	movw	r3, #19923	; 0x4dd3
    7874:	e3413062 	movt	r3, #4194	; 0x1062
    7878:	e0832392 	umull	r2, r3, r2, r3
    787c:	e1a0e323 	lsr	lr, r3, #6
    7880:	e51b100c 	ldr	r1, [fp, #-12]
    7884:	e3043dd3 	movw	r3, #19923	; 0x4dd3
    7888:	e3413062 	movt	r3, #4194	; 0x1062
    788c:	e0832391 	umull	r2, r3, r1, r3
    7890:	e1a0c323 	lsr	ip, r3, #6
    7894:	e1a0200c 	mov	r2, ip
    7898:	e1a03102 	lsl	r3, r2, #2
    789c:	e1a02003 	mov	r2, r3
    78a0:	e1a03282 	lsl	r3, r2, #5
    78a4:	e0623003 	rsb	r3, r2, r3
    78a8:	e083300c 	add	r3, r3, ip
    78ac:	e1a03183 	lsl	r3, r3, #3
    78b0:	e063c001 	rsb	ip, r3, r1
    78b4:	e24b2f81 	sub	r2, fp, #516	; 0x204
    78b8:	e24b3f41 	sub	r3, fp, #260	; 0x104
    78bc:	e58d3000 	str	r3, [sp]
    78c0:	e1a00002 	mov	r0, r2
    78c4:	e30b1134 	movw	r1, #45364	; 0xb134
    78c8:	e3401001 	movt	r1, #1
    78cc:	e1a0200e 	mov	r2, lr
    78d0:	e1a0300c 	mov	r3, ip
    78d4:	ebffffa9 	bl	7780 <sprintf>
    78d8:	e1a03000 	mov	r3, r0
    78dc:	e50b3008 	str	r3, [fp, #-8]
    78e0:	e24b3f81 	sub	r3, fp, #516	; 0x204
    78e4:	e1a00003 	mov	r0, r3
    78e8:	eb00022c 	bl	81a0 <uart_puts>
    78ec:	e51b3008 	ldr	r3, [fp, #-8]
    78f0:	e1a00003 	mov	r0, r3
    78f4:	e24bd004 	sub	sp, fp, #4
    78f8:	e8bd4800 	pop	{fp, lr}
    78fc:	e28dd010 	add	sp, sp, #16
    7900:	e12fff1e 	bx	lr

00007904 <gtimer_printf>:
    7904:	e92d000f 	push	{r0, r1, r2, r3}
    7908:	e92d4800 	push	{fp, lr}
    790c:	e28db004 	add	fp, sp, #4
    7910:	e24ddf82 	sub	sp, sp, #520	; 0x208
    7914:	e3a03000 	mov	r3, #0
    7918:	e50b3008 	str	r3, [fp, #-8]
    791c:	e3a03000 	mov	r3, #0
    7920:	e50b300c 	str	r3, [fp, #-12]
    7924:	e28b3008 	add	r3, fp, #8
    7928:	e50b3010 	str	r3, [fp, #-16]
    792c:	e3a00000 	mov	r0, #0
    7930:	eb0001c6 	bl	8050 <gget_timer>
    7934:	e1a02000 	mov	r2, r0
    7938:	e1a03001 	mov	r3, r1
    793c:	e1a03002 	mov	r3, r2
    7940:	e50b300c 	str	r3, [fp, #-12]
    7944:	e24b3f41 	sub	r3, fp, #260	; 0x104
    7948:	e1a00003 	mov	r0, r3
    794c:	e59b1004 	ldr	r1, [fp, #4]
    7950:	e51b2010 	ldr	r2, [fp, #-16]
    7954:	ebffff7a 	bl	7744 <vsprintf>
    7958:	e51b200c 	ldr	r2, [fp, #-12]
    795c:	e3043dd3 	movw	r3, #19923	; 0x4dd3
    7960:	e3413062 	movt	r3, #4194	; 0x1062
    7964:	e0832392 	umull	r2, r3, r2, r3
    7968:	e1a0e323 	lsr	lr, r3, #6
    796c:	e51b100c 	ldr	r1, [fp, #-12]
    7970:	e3043dd3 	movw	r3, #19923	; 0x4dd3
    7974:	e3413062 	movt	r3, #4194	; 0x1062
    7978:	e0832391 	umull	r2, r3, r1, r3
    797c:	e1a0c323 	lsr	ip, r3, #6
    7980:	e1a0200c 	mov	r2, ip
    7984:	e1a03102 	lsl	r3, r2, #2
    7988:	e1a02003 	mov	r2, r3
    798c:	e1a03282 	lsl	r3, r2, #5
    7990:	e0623003 	rsb	r3, r2, r3
    7994:	e083300c 	add	r3, r3, ip
    7998:	e1a03183 	lsl	r3, r3, #3
    799c:	e063c001 	rsb	ip, r3, r1
    79a0:	e24b2f81 	sub	r2, fp, #516	; 0x204
    79a4:	e24b3f41 	sub	r3, fp, #260	; 0x104
    79a8:	e58d3000 	str	r3, [sp]
    79ac:	e1a00002 	mov	r0, r2
    79b0:	e30b1134 	movw	r1, #45364	; 0xb134
    79b4:	e3401001 	movt	r1, #1
    79b8:	e1a0200e 	mov	r2, lr
    79bc:	e1a0300c 	mov	r3, ip
    79c0:	ebffff6e 	bl	7780 <sprintf>
    79c4:	e1a03000 	mov	r3, r0
    79c8:	e50b3008 	str	r3, [fp, #-8]
    79cc:	e24b3f81 	sub	r3, fp, #516	; 0x204
    79d0:	e1a00003 	mov	r0, r3
    79d4:	eb0001f1 	bl	81a0 <uart_puts>
    79d8:	e51b3008 	ldr	r3, [fp, #-8]
    79dc:	e1a00003 	mov	r0, r3
    79e0:	e24bd004 	sub	sp, fp, #4
    79e4:	e8bd4800 	pop	{fp, lr}
    79e8:	e28dd010 	add	sp, sp, #16
    79ec:	e12fff1e 	bx	lr

000079f0 <__div64_32>:
    79f0:	e92d4830 	push	{r4, r5, fp, lr}
    79f4:	e28db00c 	add	fp, sp, #12
    79f8:	e24dd030 	sub	sp, sp, #48	; 0x30
    79fc:	e50b0038 	str	r0, [fp, #-56]	; 0xffffffc8
    7a00:	e50b103c 	str	r1, [fp, #-60]	; 0xffffffc4
    7a04:	e51b3038 	ldr	r3, [fp, #-56]	; 0xffffffc8
    7a08:	e1c320d0 	ldrd	r2, [r3]
    7a0c:	e14b21f4 	strd	r2, [fp, #-20]	; 0xffffffec
    7a10:	e51b303c 	ldr	r3, [fp, #-60]	; 0xffffffc4
    7a14:	e1a02003 	mov	r2, r3
    7a18:	e3a03000 	mov	r3, #0
    7a1c:	e14b21fc 	strd	r2, [fp, #-28]	; 0xffffffe4
    7a20:	e3a02001 	mov	r2, #1
    7a24:	e3a03000 	mov	r3, #0
    7a28:	e14b22fc 	strd	r2, [fp, #-44]	; 0xffffffd4
    7a2c:	e14b21d4 	ldrd	r2, [fp, #-20]	; 0xffffffec
    7a30:	e1a04003 	mov	r4, r3
    7a34:	e3a05000 	mov	r5, #0
    7a38:	e1a03004 	mov	r3, r4
    7a3c:	e50b3030 	str	r3, [fp, #-48]	; 0xffffffd0
    7a40:	e3a02000 	mov	r2, #0
    7a44:	e3a03000 	mov	r3, #0
    7a48:	e14b22f4 	strd	r2, [fp, #-36]	; 0xffffffdc
    7a4c:	e51b2030 	ldr	r2, [fp, #-48]	; 0xffffffd0
    7a50:	e51b303c 	ldr	r3, [fp, #-60]	; 0xffffffc4
    7a54:	e1520003 	cmp	r2, r3
    7a58:	3a00000f 	bcc	7a9c <__div64_32+0xac>
    7a5c:	e51b0030 	ldr	r0, [fp, #-48]	; 0xffffffd0
    7a60:	e51b103c 	ldr	r1, [fp, #-60]	; 0xffffffc4
    7a64:	eb004c59 	bl	1abd0 <__aeabi_uidiv>
    7a68:	e1a03000 	mov	r3, r0
    7a6c:	e50b3030 	str	r3, [fp, #-48]	; 0xffffffd0
    7a70:	e3a03000 	mov	r3, #0
    7a74:	e1a02003 	mov	r2, r3
    7a78:	e3a03000 	mov	r3, #0
    7a7c:	e14b22f4 	strd	r2, [fp, #-36]	; 0xffffffdc
    7a80:	e3a03000 	mov	r3, #0
    7a84:	e1a02003 	mov	r2, r3
    7a88:	e3a03000 	mov	r3, #0
    7a8c:	e14b01d4 	ldrd	r0, [fp, #-20]	; 0xffffffec
    7a90:	e0502002 	subs	r2, r0, r2
    7a94:	e0c13003 	sbc	r3, r1, r3
    7a98:	e14b21f4 	strd	r2, [fp, #-20]	; 0xffffffec
    7a9c:	ea000009 	b	7ac8 <__div64_32+0xd8>
    7aa0:	e14b01dc 	ldrd	r0, [fp, #-28]	; 0xffffffe4
    7aa4:	e14b21dc 	ldrd	r2, [fp, #-28]	; 0xffffffe4
    7aa8:	e0922000 	adds	r2, r2, r0
    7aac:	e0a33001 	adc	r3, r3, r1
    7ab0:	e14b21fc 	strd	r2, [fp, #-28]	; 0xffffffe4
    7ab4:	e14b02dc 	ldrd	r0, [fp, #-44]	; 0xffffffd4
    7ab8:	e14b22dc 	ldrd	r2, [fp, #-44]	; 0xffffffd4
    7abc:	e0922000 	adds	r2, r2, r0
    7ac0:	e0a33001 	adc	r3, r3, r1
    7ac4:	e14b22fc 	strd	r2, [fp, #-44]	; 0xffffffd4
    7ac8:	e14b21dc 	ldrd	r2, [fp, #-28]	; 0xffffffe4
    7acc:	e3520001 	cmp	r2, #1
    7ad0:	e2d33000 	sbcs	r3, r3, #0
    7ad4:	ba000004 	blt	7aec <__div64_32+0xfc>
    7ad8:	e14b01dc 	ldrd	r0, [fp, #-28]	; 0xffffffe4
    7adc:	e14b21d4 	ldrd	r2, [fp, #-20]	; 0xffffffec
    7ae0:	e1510003 	cmp	r1, r3
    7ae4:	01500002 	cmpeq	r0, r2
    7ae8:	3affffec 	bcc	7aa0 <__div64_32+0xb0>
    7aec:	e14b01d4 	ldrd	r0, [fp, #-20]	; 0xffffffec
    7af0:	e14b21dc 	ldrd	r2, [fp, #-28]	; 0xffffffe4
    7af4:	e1510003 	cmp	r1, r3
    7af8:	01500002 	cmpeq	r0, r2
    7afc:	3a000009 	bcc	7b28 <__div64_32+0x138>
    7b00:	e14b01d4 	ldrd	r0, [fp, #-20]	; 0xffffffec
    7b04:	e14b21dc 	ldrd	r2, [fp, #-28]	; 0xffffffe4
    7b08:	e0502002 	subs	r2, r0, r2
    7b0c:	e0c13003 	sbc	r3, r1, r3
    7b10:	e14b21f4 	strd	r2, [fp, #-20]	; 0xffffffec
    7b14:	e14b02d4 	ldrd	r0, [fp, #-36]	; 0xffffffdc
    7b18:	e14b22dc 	ldrd	r2, [fp, #-44]	; 0xffffffd4
    7b1c:	e0922000 	adds	r2, r2, r0
    7b20:	e0a33001 	adc	r3, r3, r1
    7b24:	e14b22f4 	strd	r2, [fp, #-36]	; 0xffffffdc
    7b28:	e14b21dc 	ldrd	r2, [fp, #-28]	; 0xffffffe4
    7b2c:	e1b030a3 	lsrs	r3, r3, #1
    7b30:	e1a02062 	rrx	r2, r2
    7b34:	e14b21fc 	strd	r2, [fp, #-28]	; 0xffffffe4
    7b38:	e14b22dc 	ldrd	r2, [fp, #-44]	; 0xffffffd4
    7b3c:	e1b030a3 	lsrs	r3, r3, #1
    7b40:	e1a02062 	rrx	r2, r2
    7b44:	e14b22fc 	strd	r2, [fp, #-44]	; 0xffffffd4
    7b48:	e14b22dc 	ldrd	r2, [fp, #-44]	; 0xffffffd4
    7b4c:	e1923003 	orrs	r3, r2, r3
    7b50:	1affffe5 	bne	7aec <__div64_32+0xfc>
    7b54:	e51b1038 	ldr	r1, [fp, #-56]	; 0xffffffc8
    7b58:	e14b22d4 	ldrd	r2, [fp, #-36]	; 0xffffffdc
    7b5c:	e1c120f0 	strd	r2, [r1]
    7b60:	e51b3014 	ldr	r3, [fp, #-20]	; 0xffffffec
    7b64:	e1a00003 	mov	r0, r3
    7b68:	e24bd00c 	sub	sp, fp, #12
    7b6c:	e8bd8830 	pop	{r4, r5, fp, pc}

00007b70 <vsnprintf>:
    7b70:	e92d4800 	push	{fp, lr}
    7b74:	e28db004 	add	fp, sp, #4
    7b78:	e24dd010 	sub	sp, sp, #16
    7b7c:	e50b0008 	str	r0, [fp, #-8]
    7b80:	e50b100c 	str	r1, [fp, #-12]
    7b84:	e50b2010 	str	r2, [fp, #-16]
    7b88:	e50b3014 	str	r3, [fp, #-20]	; 0xffffffec
    7b8c:	e51b0008 	ldr	r0, [fp, #-8]
    7b90:	e51b100c 	ldr	r1, [fp, #-12]
    7b94:	e51b2010 	ldr	r2, [fp, #-16]
    7b98:	e51b3014 	ldr	r3, [fp, #-20]	; 0xffffffec
    7b9c:	ebfffcbf 	bl	6ea0 <vsnprintf_internal>
    7ba0:	e1a03000 	mov	r3, r0
    7ba4:	e1a00003 	mov	r0, r3
    7ba8:	e24bd004 	sub	sp, fp, #4
    7bac:	e8bd8800 	pop	{fp, pc}

00007bb0 <vscnprintf>:
    7bb0:	e92d4800 	push	{fp, lr}
    7bb4:	e28db004 	add	fp, sp, #4
    7bb8:	e24dd018 	sub	sp, sp, #24
    7bbc:	e50b0010 	str	r0, [fp, #-16]
    7bc0:	e50b1014 	str	r1, [fp, #-20]	; 0xffffffec
    7bc4:	e50b2018 	str	r2, [fp, #-24]	; 0xffffffe8
    7bc8:	e50b301c 	str	r3, [fp, #-28]	; 0xffffffe4
    7bcc:	e51b0010 	ldr	r0, [fp, #-16]
    7bd0:	e51b1014 	ldr	r1, [fp, #-20]	; 0xffffffec
    7bd4:	e51b2018 	ldr	r2, [fp, #-24]	; 0xffffffe8
    7bd8:	e51b301c 	ldr	r3, [fp, #-28]	; 0xffffffe4
    7bdc:	ebffffe3 	bl	7b70 <vsnprintf>
    7be0:	e50b0008 	str	r0, [fp, #-8]
    7be4:	e51b2008 	ldr	r2, [fp, #-8]
    7be8:	e51b3014 	ldr	r3, [fp, #-20]	; 0xffffffec
    7bec:	e1520003 	cmp	r2, r3
    7bf0:	2a000001 	bcs	7bfc <vscnprintf+0x4c>
    7bf4:	e51b3008 	ldr	r3, [fp, #-8]
    7bf8:	ea000006 	b	7c18 <vscnprintf+0x68>
    7bfc:	e51b3014 	ldr	r3, [fp, #-20]	; 0xffffffec
    7c00:	e3530000 	cmp	r3, #0
    7c04:	0a000002 	beq	7c14 <vscnprintf+0x64>
    7c08:	e51b3014 	ldr	r3, [fp, #-20]	; 0xffffffec
    7c0c:	e2433001 	sub	r3, r3, #1
    7c10:	ea000000 	b	7c18 <vscnprintf+0x68>
    7c14:	e3a03000 	mov	r3, #0
    7c18:	e1a00003 	mov	r0, r3
    7c1c:	e24bd004 	sub	sp, fp, #4
    7c20:	e8bd8800 	pop	{fp, pc}

00007c24 <raise>:
    7c24:	e92d4800 	push	{fp, lr}
    7c28:	e28db004 	add	fp, sp, #4
    7c2c:	e24dd008 	sub	sp, sp, #8
    7c30:	e50b0008 	str	r0, [fp, #-8]
    7c34:	e30b0144 	movw	r0, #45380	; 0xb144
    7c38:	e3400001 	movt	r0, #1
    7c3c:	e51b1008 	ldr	r1, [fp, #-8]
    7c40:	ebfffee0 	bl	77c8 <printf>
    7c44:	e3a03000 	mov	r3, #0
    7c48:	e1a00003 	mov	r0, r3
    7c4c:	e24bd004 	sub	sp, fp, #4
    7c50:	e8bd8800 	pop	{fp, pc}

00007c54 <timer_read_counter>:
    7c54:	e52db004 	push	{fp}		; (str fp, [sp, #-4]!)
    7c58:	e28db000 	add	fp, sp, #0
    7c5c:	e3003604 	movw	r3, #1540	; 0x604
    7c60:	e34f38f0 	movt	r3, #63728	; 0xf8f0
    7c64:	e5933000 	ldr	r3, [r3]
    7c68:	e1e03003 	mvn	r3, r3
    7c6c:	e1a00003 	mov	r0, r3
    7c70:	e24bd000 	sub	sp, fp, #0
    7c74:	e49db004 	pop	{fp}		; (ldr fp, [sp], #4)
    7c78:	e12fff1e 	bx	lr

00007c7c <get_ticks>:
    7c7c:	e92d4830 	push	{r4, r5, fp, lr}
    7c80:	e28db00c 	add	fp, sp, #12
    7c84:	e24dd010 	sub	sp, sp, #16
    7c88:	e3a03000 	mov	r3, #0
    7c8c:	e50b3014 	str	r3, [fp, #-20]	; 0xffffffec
    7c90:	e3a03000 	mov	r3, #0
    7c94:	e50b3010 	str	r3, [fp, #-16]
    7c98:	ebffffed 	bl	7c54 <timer_read_counter>
    7c9c:	e50b0018 	str	r0, [fp, #-24]	; 0xffffffe8
    7ca0:	e51b2018 	ldr	r2, [fp, #-24]	; 0xffffffe8
    7ca4:	e51b3014 	ldr	r3, [fp, #-20]	; 0xffffffec
    7ca8:	e1520003 	cmp	r2, r3
    7cac:	2a000002 	bcs	7cbc <get_ticks+0x40>
    7cb0:	e51b3010 	ldr	r3, [fp, #-16]
    7cb4:	e2833001 	add	r3, r3, #1
    7cb8:	e50b3010 	str	r3, [fp, #-16]
    7cbc:	e51b3018 	ldr	r3, [fp, #-24]	; 0xffffffe8
    7cc0:	e50b3014 	str	r3, [fp, #-20]	; 0xffffffec
    7cc4:	e51b3010 	ldr	r3, [fp, #-16]
    7cc8:	e1a02003 	mov	r2, r3
    7ccc:	e3a03000 	mov	r3, #0
    7cd0:	e1a05002 	mov	r5, r2
    7cd4:	e3a04000 	mov	r4, #0
    7cd8:	e51b3014 	ldr	r3, [fp, #-20]	; 0xffffffec
    7cdc:	e1a02003 	mov	r2, r3
    7ce0:	e3a03000 	mov	r3, #0
    7ce4:	e1822004 	orr	r2, r2, r4
    7ce8:	e1833005 	orr	r3, r3, r5
    7cec:	e1a00002 	mov	r0, r2
    7cf0:	e1a01003 	mov	r1, r3
    7cf4:	e24bd00c 	sub	sp, fp, #12
    7cf8:	e8bd8830 	pop	{r4, r5, fp, pc}

00007cfc <tick_to_time>:
    7cfc:	e92d4bf0 	push	{r4, r5, r6, r7, r8, r9, fp, lr}
    7d00:	e28db01c 	add	fp, sp, #28
    7d04:	e24dd020 	sub	sp, sp, #32
    7d08:	e14b03f4 	strd	r0, [fp, #-52]	; 0xffffffcc
    7d0c:	e30d1e43 	movw	r1, #56899	; 0xde43
    7d10:	e3401013 	movt	r1, #19
    7d14:	e50b1024 	str	r1, [fp, #-36]	; 0xffffffdc
    7d18:	e14b03d4 	ldrd	r0, [fp, #-52]	; 0xffffffcc
    7d1c:	e14b03fc 	strd	r0, [fp, #-60]	; 0xffffffc4
    7d20:	e1a07101 	lsl	r7, r1, #2
    7d24:	e1877f20 	orr	r7, r7, r0, lsr #30
    7d28:	e1a06100 	lsl	r6, r0, #2
    7d2c:	e1a00006 	mov	r0, r6
    7d30:	e1a01007 	mov	r1, r7
    7d34:	e1a03281 	lsl	r3, r1, #5
    7d38:	e1833da0 	orr	r3, r3, r0, lsr #27
    7d3c:	e1a02280 	lsl	r2, r0, #5
    7d40:	e0522000 	subs	r2, r2, r0
    7d44:	e0c33001 	sbc	r3, r3, r1
    7d48:	e14b03dc 	ldrd	r0, [fp, #-60]	; 0xffffffc4
    7d4c:	e0900002 	adds	r0, r0, r2
    7d50:	e0a11003 	adc	r1, r1, r3
    7d54:	e1a02000 	mov	r2, r0
    7d58:	e1a03001 	mov	r3, r1
    7d5c:	e1a05183 	lsl	r5, r3, #3
    7d60:	e1855ea2 	orr	r5, r5, r2, lsr #29
    7d64:	e1a04182 	lsl	r4, r2, #3
    7d68:	e1a02004 	mov	r2, r4
    7d6c:	e1a03005 	mov	r3, r5
    7d70:	e14b23f4 	strd	r2, [fp, #-52]	; 0xffffffcc
    7d74:	e51b3024 	ldr	r3, [fp, #-36]	; 0xffffffdc
    7d78:	e50b3028 	str	r3, [fp, #-40]	; 0xffffffd8
    7d7c:	e14b23d4 	ldrd	r2, [fp, #-52]	; 0xffffffcc
    7d80:	e1a08003 	mov	r8, r3
    7d84:	e3a09000 	mov	r9, #0
    7d88:	e1983009 	orrs	r3, r8, r9
    7d8c:	1a000010 	bne	7dd4 <tick_to_time+0xd8>
    7d90:	e14b23d4 	ldrd	r2, [fp, #-52]	; 0xffffffcc
    7d94:	e1a03002 	mov	r3, r2
    7d98:	e1a00003 	mov	r0, r3
    7d9c:	e51b1028 	ldr	r1, [fp, #-40]	; 0xffffffd8
    7da0:	eb004c05 	bl	1adbc <__aeabi_uidivmod>
    7da4:	e1a03001 	mov	r3, r1
    7da8:	e50b3020 	str	r3, [fp, #-32]	; 0xffffffe0
    7dac:	e14b23d4 	ldrd	r2, [fp, #-52]	; 0xffffffcc
    7db0:	e1a03002 	mov	r3, r2
    7db4:	e1a00003 	mov	r0, r3
    7db8:	e51b1028 	ldr	r1, [fp, #-40]	; 0xffffffd8
    7dbc:	eb004b83 	bl	1abd0 <__aeabi_uidiv>
    7dc0:	e1a03000 	mov	r3, r0
    7dc4:	e1a02003 	mov	r2, r3
    7dc8:	e3a03000 	mov	r3, #0
    7dcc:	e14b23f4 	strd	r2, [fp, #-52]	; 0xffffffcc
    7dd0:	ea000004 	b	7de8 <tick_to_time+0xec>
    7dd4:	e24b3034 	sub	r3, fp, #52	; 0x34
    7dd8:	e1a00003 	mov	r0, r3
    7ddc:	e51b1028 	ldr	r1, [fp, #-40]	; 0xffffffd8
    7de0:	ebffff02 	bl	79f0 <__div64_32>
    7de4:	e50b0020 	str	r0, [fp, #-32]	; 0xffffffe0
    7de8:	e14b23d4 	ldrd	r2, [fp, #-52]	; 0xffffffcc
    7dec:	e1a00002 	mov	r0, r2
    7df0:	e1a01003 	mov	r1, r3
    7df4:	e24bd01c 	sub	sp, fp, #28
    7df8:	e8bd8bf0 	pop	{r4, r5, r6, r7, r8, r9, fp, pc}

00007dfc <get_timer>:
    7dfc:	e92d4800 	push	{fp, lr}
    7e00:	e28db004 	add	fp, sp, #4
    7e04:	e24dd008 	sub	sp, sp, #8
    7e08:	e50b0008 	str	r0, [fp, #-8]
    7e0c:	ebffff9a 	bl	7c7c <get_ticks>
    7e10:	e1a02000 	mov	r2, r0
    7e14:	e1a03001 	mov	r3, r1
    7e18:	e1a00002 	mov	r0, r2
    7e1c:	e1a01003 	mov	r1, r3
    7e20:	ebffffb5 	bl	7cfc <tick_to_time>
    7e24:	e1a02000 	mov	r2, r0
    7e28:	e1a03001 	mov	r3, r1
    7e2c:	e51b3008 	ldr	r3, [fp, #-8]
    7e30:	e0633002 	rsb	r3, r3, r2
    7e34:	e1a00003 	mov	r0, r3
    7e38:	e24bd004 	sub	sp, fp, #4
    7e3c:	e8bd8800 	pop	{fp, pc}

00007e40 <timer_get_us>:
    7e40:	e92d4bf0 	push	{r4, r5, r6, r7, r8, r9, fp, lr}
    7e44:	e28db01c 	add	fp, sp, #28
    7e48:	ebffff8b 	bl	7c7c <get_ticks>
    7e4c:	e1a02000 	mov	r2, r0
    7e50:	e1a03001 	mov	r3, r1
    7e54:	e1a09103 	lsl	r9, r3, #2
    7e58:	e1899f22 	orr	r9, r9, r2, lsr #30
    7e5c:	e1a08102 	lsl	r8, r2, #2
    7e60:	e1a02008 	mov	r2, r8
    7e64:	e1a03009 	mov	r3, r9
    7e68:	e1a05283 	lsl	r5, r3, #5
    7e6c:	e1855da2 	orr	r5, r5, r2, lsr #27
    7e70:	e1a04282 	lsl	r4, r2, #5
    7e74:	e0544002 	subs	r4, r4, r2
    7e78:	e0c55003 	sbc	r5, r5, r3
    7e7c:	e0944000 	adds	r4, r4, r0
    7e80:	e0a55001 	adc	r5, r5, r1
    7e84:	e1a07185 	lsl	r7, r5, #3
    7e88:	e1877ea4 	orr	r7, r7, r4, lsr #29
    7e8c:	e1a06184 	lsl	r6, r4, #3
    7e90:	e1a04006 	mov	r4, r6
    7e94:	e1a05007 	mov	r5, r7
    7e98:	e1a02004 	mov	r2, r4
    7e9c:	e1a03005 	mov	r3, r5
    7ea0:	e1a00002 	mov	r0, r2
    7ea4:	e1a01003 	mov	r1, r3
    7ea8:	ebffff93 	bl	7cfc <tick_to_time>
    7eac:	e1a02000 	mov	r2, r0
    7eb0:	e1a03001 	mov	r3, r1
    7eb4:	e1a03002 	mov	r3, r2
    7eb8:	e1a00003 	mov	r0, r3
    7ebc:	e8bd8bf0 	pop	{r4, r5, r6, r7, r8, r9, fp, pc}

00007ec0 <timer_init>:
    7ec0:	e52db004 	push	{fp}		; (str fp, [sp, #-4]!)
    7ec4:	e28db000 	add	fp, sp, #0
    7ec8:	e24dd00c 	sub	sp, sp, #12
    7ecc:	e3a03000 	mov	r3, #0
    7ed0:	e50b3008 	str	r3, [fp, #-8]
    7ed4:	e30f3f03 	movw	r3, #65283	; 0xff03
    7ed8:	e50b300c 	str	r3, [fp, #-12]
    7edc:	e30b3f24 	movw	r3, #48932	; 0xbf24
    7ee0:	e3403001 	movt	r3, #1
    7ee4:	e5933000 	ldr	r3, [r3]
    7ee8:	e1a02003 	mov	r2, r3
    7eec:	e3e03000 	mvn	r3, #0
    7ef0:	e5823000 	str	r3, [r2]
    7ef4:	e30b3f24 	movw	r3, #48932	; 0xbf24
    7ef8:	e3403001 	movt	r3, #1
    7efc:	e5933000 	ldr	r3, [r3]
    7f00:	e5933008 	ldr	r3, [r3, #8]
    7f04:	e50b3008 	str	r3, [fp, #-8]
    7f08:	e51b3008 	ldr	r3, [fp, #-8]
    7f0c:	e3c33cff 	bic	r3, r3, #65280	; 0xff00
    7f10:	e50b3008 	str	r3, [fp, #-8]
    7f14:	e51b2008 	ldr	r2, [fp, #-8]
    7f18:	e51b300c 	ldr	r3, [fp, #-12]
    7f1c:	e1823003 	orr	r3, r2, r3
    7f20:	e50b3008 	str	r3, [fp, #-8]
    7f24:	e30b3f24 	movw	r3, #48932	; 0xbf24
    7f28:	e3403001 	movt	r3, #1
    7f2c:	e5933000 	ldr	r3, [r3]
    7f30:	e2833008 	add	r3, r3, #8
    7f34:	e51b2008 	ldr	r2, [fp, #-8]
    7f38:	e5832000 	str	r2, [r3]
    7f3c:	e3a03000 	mov	r3, #0
    7f40:	e1a00003 	mov	r0, r3
    7f44:	e24bd000 	sub	sp, fp, #0
    7f48:	e49db004 	pop	{fp}		; (ldr fp, [sp], #4)
    7f4c:	e12fff1e 	bx	lr

00007f50 <gtimer_init>:
    7f50:	e52db004 	push	{fp}		; (str fp, [sp, #-4]!)
    7f54:	e28db000 	add	fp, sp, #0
    7f58:	e24dd00c 	sub	sp, sp, #12
    7f5c:	e3a03000 	mov	r3, #0
    7f60:	e50b3008 	str	r3, [fp, #-8]
    7f64:	e30f3f01 	movw	r3, #65281	; 0xff01
    7f68:	e50b300c 	str	r3, [fp, #-12]
    7f6c:	e3a03f82 	mov	r3, #520	; 0x208
    7f70:	e34f38f0 	movt	r3, #63728	; 0xf8f0
    7f74:	e51b200c 	ldr	r2, [fp, #-12]
    7f78:	e5832000 	str	r2, [r3]
    7f7c:	e3a03000 	mov	r3, #0
    7f80:	e1a00003 	mov	r0, r3
    7f84:	e24bd000 	sub	sp, fp, #0
    7f88:	e49db004 	pop	{fp}		; (ldr fp, [sp], #4)
    7f8c:	e12fff1e 	bx	lr

00007f90 <gtimer_read_counter>:
    7f90:	e52db004 	push	{fp}		; (str fp, [sp, #-4]!)
    7f94:	e28db000 	add	fp, sp, #0
    7f98:	e24dd01c 	sub	sp, sp, #28
    7f9c:	e3a03000 	mov	r3, #0
    7fa0:	e50b3008 	str	r3, [fp, #-8]
    7fa4:	e3a03000 	mov	r3, #0
    7fa8:	e50b300c 	str	r3, [fp, #-12]
    7fac:	e3a03000 	mov	r3, #0
    7fb0:	e50b3010 	str	r3, [fp, #-16]
    7fb4:	e3a02000 	mov	r2, #0
    7fb8:	e3a03000 	mov	r3, #0
    7fbc:	e14b21fc 	strd	r2, [fp, #-28]	; 0xffffffe4
    7fc0:	e3a03f81 	mov	r3, #516	; 0x204
    7fc4:	e34f38f0 	movt	r3, #63728	; 0xf8f0
    7fc8:	e5933000 	ldr	r3, [r3]
    7fcc:	e50b300c 	str	r3, [fp, #-12]
    7fd0:	e3a03c02 	mov	r3, #512	; 0x200
    7fd4:	e34f38f0 	movt	r3, #63728	; 0xf8f0
    7fd8:	e5933000 	ldr	r3, [r3]
    7fdc:	e50b3008 	str	r3, [fp, #-8]
    7fe0:	e3a03f81 	mov	r3, #516	; 0x204
    7fe4:	e34f38f0 	movt	r3, #63728	; 0xf8f0
    7fe8:	e5933000 	ldr	r3, [r3]
    7fec:	e50b3010 	str	r3, [fp, #-16]
    7ff0:	e51b200c 	ldr	r2, [fp, #-12]
    7ff4:	e51b3010 	ldr	r3, [fp, #-16]
    7ff8:	e1520003 	cmp	r2, r3
    7ffc:	0a000003 	beq	8010 <gtimer_read_counter+0x80>
    8000:	e3a03c02 	mov	r3, #512	; 0x200
    8004:	e34f38f0 	movt	r3, #63728	; 0xf8f0
    8008:	e5933000 	ldr	r3, [r3]
    800c:	e50b3008 	str	r3, [fp, #-8]
    8010:	e3a03f81 	mov	r3, #516	; 0x204
    8014:	e34f38f0 	movt	r3, #63728	; 0xf8f0
    8018:	e5933000 	ldr	r3, [r3]
    801c:	e50b300c 	str	r3, [fp, #-12]
    8020:	e3a02000 	mov	r2, #0
    8024:	e51b3008 	ldr	r3, [fp, #-8]
    8028:	e1823003 	orr	r3, r2, r3
    802c:	e1a02003 	mov	r2, r3
    8030:	e3a03000 	mov	r3, #0
    8034:	e14b21fc 	strd	r2, [fp, #-28]	; 0xffffffe4
    8038:	e14b21dc 	ldrd	r2, [fp, #-28]	; 0xffffffe4
    803c:	e1a00002 	mov	r0, r2
    8040:	e1a01003 	mov	r1, r3
    8044:	e24bd000 	sub	sp, fp, #0
    8048:	e49db004 	pop	{fp}		; (ldr fp, [sp], #4)
    804c:	e12fff1e 	bx	lr

00008050 <gget_timer>:
    8050:	e92d4800 	push	{fp, lr}
    8054:	e28db004 	add	fp, sp, #4
    8058:	e24dd008 	sub	sp, sp, #8
    805c:	e50b0008 	str	r0, [fp, #-8]
    8060:	ebffffca 	bl	7f90 <gtimer_read_counter>
    8064:	e1a02000 	mov	r2, r0
    8068:	e1a03001 	mov	r3, r1
    806c:	e1a00002 	mov	r0, r2
    8070:	e1a01003 	mov	r1, r3
    8074:	ebffff20 	bl	7cfc <tick_to_time>
    8078:	e51b3008 	ldr	r3, [fp, #-8]
    807c:	e1a02003 	mov	r2, r3
    8080:	e3a03000 	mov	r3, #0
    8084:	e0502002 	subs	r2, r0, r2
    8088:	e0c13003 	sbc	r3, r1, r3
    808c:	e1a00002 	mov	r0, r2
    8090:	e1a01003 	mov	r1, r3
    8094:	e24bd004 	sub	sp, fp, #4
    8098:	e8bd8800 	pop	{fp, pc}

0000809c <gtimer_get_us>:
    809c:	e92d4bf0 	push	{r4, r5, r6, r7, r8, r9, fp, lr}
    80a0:	e28db01c 	add	fp, sp, #28
    80a4:	ebffffb9 	bl	7f90 <gtimer_read_counter>
    80a8:	e1a02000 	mov	r2, r0
    80ac:	e1a03001 	mov	r3, r1
    80b0:	e1a09103 	lsl	r9, r3, #2
    80b4:	e1899f22 	orr	r9, r9, r2, lsr #30
    80b8:	e1a08102 	lsl	r8, r2, #2
    80bc:	e1a02008 	mov	r2, r8
    80c0:	e1a03009 	mov	r3, r9
    80c4:	e1a05283 	lsl	r5, r3, #5
    80c8:	e1855da2 	orr	r5, r5, r2, lsr #27
    80cc:	e1a04282 	lsl	r4, r2, #5
    80d0:	e0544002 	subs	r4, r4, r2
    80d4:	e0c55003 	sbc	r5, r5, r3
    80d8:	e0944000 	adds	r4, r4, r0
    80dc:	e0a55001 	adc	r5, r5, r1
    80e0:	e1a07185 	lsl	r7, r5, #3
    80e4:	e1877ea4 	orr	r7, r7, r4, lsr #29
    80e8:	e1a06184 	lsl	r6, r4, #3
    80ec:	e1a04006 	mov	r4, r6
    80f0:	e1a05007 	mov	r5, r7
    80f4:	e1a02004 	mov	r2, r4
    80f8:	e1a03005 	mov	r3, r5
    80fc:	e1a00002 	mov	r0, r2
    8100:	e1a01003 	mov	r1, r3
    8104:	ebfffefc 	bl	7cfc <tick_to_time>
    8108:	e1a02000 	mov	r2, r0
    810c:	e1a03001 	mov	r3, r1
    8110:	e1a00002 	mov	r0, r2
    8114:	e1a01003 	mov	r1, r3
    8118:	e8bd8bf0 	pop	{r4, r5, r6, r7, r8, r9, fp, pc}

0000811c <uart_putc>:
    811c:	e52db004 	push	{fp}		; (str fp, [sp, #-4]!)
    8120:	e28db000 	add	fp, sp, #0
    8124:	e24dd00c 	sub	sp, sp, #12
    8128:	e1a03000 	mov	r3, r0
    812c:	e54b3005 	strb	r3, [fp, #-5]
    8130:	e1a00000 	nop			; (mov r0, r0)
    8134:	e301302c 	movw	r3, #4140	; 0x102c
    8138:	e34e3000 	movt	r3, #57344	; 0xe000
    813c:	e5933000 	ldr	r3, [r3]
    8140:	e2033010 	and	r3, r3, #16
    8144:	e3530000 	cmp	r3, #0
    8148:	1afffff9 	bne	8134 <uart_putc+0x18>
    814c:	e55b3005 	ldrb	r3, [fp, #-5]
    8150:	e353000a 	cmp	r3, #10
    8154:	1a00000a 	bne	8184 <uart_putc+0x68>
    8158:	e3013030 	movw	r3, #4144	; 0x1030
    815c:	e34e3000 	movt	r3, #57344	; 0xe000
    8160:	e3a0200d 	mov	r2, #13
    8164:	e5832000 	str	r2, [r3]
    8168:	e1a00000 	nop			; (mov r0, r0)
    816c:	e301302c 	movw	r3, #4140	; 0x102c
    8170:	e34e3000 	movt	r3, #57344	; 0xe000
    8174:	e5933000 	ldr	r3, [r3]
    8178:	e2033010 	and	r3, r3, #16
    817c:	e3530000 	cmp	r3, #0
    8180:	1afffff9 	bne	816c <uart_putc+0x50>
    8184:	e3013030 	movw	r3, #4144	; 0x1030
    8188:	e34e3000 	movt	r3, #57344	; 0xe000
    818c:	e55b2005 	ldrb	r2, [fp, #-5]
    8190:	e5832000 	str	r2, [r3]
    8194:	e24bd000 	sub	sp, fp, #0
    8198:	e49db004 	pop	{fp}		; (ldr fp, [sp], #4)
    819c:	e12fff1e 	bx	lr

000081a0 <uart_puts>:
    81a0:	e92d4800 	push	{fp, lr}
    81a4:	e28db004 	add	fp, sp, #4
    81a8:	e24dd008 	sub	sp, sp, #8
    81ac:	e50b0008 	str	r0, [fp, #-8]
    81b0:	ea000005 	b	81cc <uart_puts+0x2c>
    81b4:	e51b3008 	ldr	r3, [fp, #-8]
    81b8:	e2832001 	add	r2, r3, #1
    81bc:	e50b2008 	str	r2, [fp, #-8]
    81c0:	e5d33000 	ldrb	r3, [r3]
    81c4:	e1a00003 	mov	r0, r3
    81c8:	ebffffd3 	bl	811c <uart_putc>
    81cc:	e51b3008 	ldr	r3, [fp, #-8]
    81d0:	e5d33000 	ldrb	r3, [r3]
    81d4:	e3530000 	cmp	r3, #0
    81d8:	1afffff5 	bne	81b4 <uart_puts+0x14>
    81dc:	e24bd004 	sub	sp, fp, #4
    81e0:	e8bd8800 	pop	{fp, pc}

000081e4 <uart_init>:
    81e4:	e52db004 	push	{fp}		; (str fp, [sp, #-4]!)
    81e8:	e28db000 	add	fp, sp, #0
    81ec:	e3a03a01 	mov	r3, #4096	; 0x1000
    81f0:	e34e3000 	movt	r3, #57344	; 0xe000
    81f4:	e3a02017 	mov	r2, #23
    81f8:	e5832000 	str	r2, [r3]
    81fc:	e3013004 	movw	r3, #4100	; 0x1004
    8200:	e34e3000 	movt	r3, #57344	; 0xe000
    8204:	e3a02020 	mov	r2, #32
    8208:	e5832000 	str	r2, [r3]
    820c:	e3013018 	movw	r3, #4120	; 0x1018
    8210:	e34e3000 	movt	r3, #57344	; 0xe000
    8214:	e3a02056 	mov	r2, #86	; 0x56
    8218:	e5832000 	str	r2, [r3]
    821c:	e3013034 	movw	r3, #4148	; 0x1034
    8220:	e34e3000 	movt	r3, #57344	; 0xe000
    8224:	e3a02004 	mov	r2, #4
    8228:	e5832000 	str	r2, [r3]
    822c:	e24bd000 	sub	sp, fp, #0
    8230:	e49db004 	pop	{fp}		; (ldr fp, [sp], #4)
    8234:	e12fff1e 	bx	lr

00008238 <fmc_iic_axi_init>:
    8238:	e92d4800 	push	{fp, lr}
    823c:	e28db004 	add	fp, sp, #4
    8240:	e24dd020 	sub	sp, sp, #32
    8244:	e50b0018 	str	r0, [fp, #-24]	; 0xffffffe8
    8248:	e50b101c 	str	r1, [fp, #-28]	; 0xffffffe4
    824c:	e50b2020 	str	r2, [fp, #-32]	; 0xffffffe0
    8250:	e3023710 	movw	r3, #10000	; 0x2710
    8254:	e50b3008 	str	r3, [fp, #-8]
    8258:	e51b3018 	ldr	r3, [fp, #-24]	; 0xffffffe8
    825c:	e2833028 	add	r3, r3, #40	; 0x28
    8260:	e50b300c 	str	r3, [fp, #-12]
    8264:	e51b300c 	ldr	r3, [fp, #-12]
    8268:	e51b2020 	ldr	r2, [fp, #-32]	; 0xffffffe0
    826c:	e5832000 	str	r2, [r3]
    8270:	e51b300c 	ldr	r3, [fp, #-12]
    8274:	e5933000 	ldr	r3, [r3]
    8278:	e1a00003 	mov	r0, r3
    827c:	eb004a2d 	bl	1ab38 <XIic_DynInit>
    8280:	e50b0010 	str	r0, [fp, #-16]
    8284:	e51b3010 	ldr	r3, [fp, #-16]
    8288:	e3530000 	cmp	r3, #0
    828c:	0a000004 	beq	82a4 <fmc_iic_axi_init+0x6c>
    8290:	e30b0170 	movw	r0, #45424	; 0xb170
    8294:	e3400001 	movt	r0, #1
    8298:	ebffffc0 	bl	81a0 <uart_puts>
    829c:	e3a03000 	mov	r3, #0
    82a0:	ea000035 	b	837c <fmc_iic_axi_init+0x144>
    82a4:	e51b300c 	ldr	r3, [fp, #-12]
    82a8:	e5933000 	ldr	r3, [r3]
    82ac:	e2833f41 	add	r3, r3, #260	; 0x104
    82b0:	e1a00003 	mov	r0, r3
    82b4:	eb001e83 	bl	fcc8 <Xil_In8>
    82b8:	e1a03000 	mov	r3, r0
    82bc:	e54b3011 	strb	r3, [fp, #-17]	; 0xffffffef
    82c0:	e55b3011 	ldrb	r3, [fp, #-17]	; 0xffffffef
    82c4:	e3c3303b 	bic	r3, r3, #59	; 0x3b
    82c8:	e54b3011 	strb	r3, [fp, #-17]	; 0xffffffef
    82cc:	e51b3008 	ldr	r3, [fp, #-8]
    82d0:	e2432001 	sub	r2, r3, #1
    82d4:	e50b2008 	str	r2, [fp, #-8]
    82d8:	e3530000 	cmp	r3, #0
    82dc:	0a000002 	beq	82ec <fmc_iic_axi_init+0xb4>
    82e0:	e55b3011 	ldrb	r3, [fp, #-17]	; 0xffffffef
    82e4:	e35300c0 	cmp	r3, #192	; 0xc0
    82e8:	1affffed 	bne	82a4 <fmc_iic_axi_init+0x6c>
    82ec:	e51b3018 	ldr	r3, [fp, #-24]	; 0xffffffe8
    82f0:	e3a02001 	mov	r2, #1
    82f4:	e5832000 	str	r2, [r3]
    82f8:	e51b3018 	ldr	r3, [fp, #-24]	; 0xffffffe8
    82fc:	e2833004 	add	r3, r3, #4
    8300:	e1a00003 	mov	r0, r3
    8304:	e51b101c 	ldr	r1, [fp, #-28]	; 0xffffffe4
    8308:	eb0004b6 	bl	95e8 <strcpy>
    830c:	e51b3018 	ldr	r3, [fp, #-24]	; 0xffffffe8
    8310:	e51b200c 	ldr	r2, [fp, #-12]
    8314:	e5832024 	str	r2, [r3, #36]	; 0x24
    8318:	e51b2018 	ldr	r2, [fp, #-24]	; 0xffffffe8
    831c:	e3083388 	movw	r3, #33672	; 0x8388
    8320:	e3403000 	movt	r3, #0
    8324:	e5823048 	str	r3, [r2, #72]	; 0x48
    8328:	e51b2018 	ldr	r2, [fp, #-24]	; 0xffffffe8
    832c:	e30833d8 	movw	r3, #33752	; 0x83d8
    8330:	e3403000 	movt	r3, #0
    8334:	e582304c 	str	r3, [r2, #76]	; 0x4c
    8338:	e51b2018 	ldr	r2, [fp, #-24]	; 0xffffffe8
    833c:	e3083538 	movw	r3, #34104	; 0x8538
    8340:	e3403000 	movt	r3, #0
    8344:	e5823050 	str	r3, [r2, #80]	; 0x50
    8348:	e51b2018 	ldr	r2, [fp, #-24]	; 0xffffffe8
    834c:	e3083420 	movw	r3, #33824	; 0x8420
    8350:	e3403000 	movt	r3, #0
    8354:	e5823054 	str	r3, [r2, #84]	; 0x54
    8358:	e51b2018 	ldr	r2, [fp, #-24]	; 0xffffffe8
    835c:	e30837b0 	movw	r3, #34736	; 0x87b0
    8360:	e3403000 	movt	r3, #0
    8364:	e5823058 	str	r3, [r2, #88]	; 0x58
    8368:	e51b2018 	ldr	r2, [fp, #-24]	; 0xffffffe8
    836c:	e3083684 	movw	r3, #34436	; 0x8684
    8370:	e3403000 	movt	r3, #0
    8374:	e582305c 	str	r3, [r2, #92]	; 0x5c
    8378:	e3a03001 	mov	r3, #1
    837c:	e1a00003 	mov	r0, r3
    8380:	e24bd004 	sub	sp, fp, #4
    8384:	e8bd8800 	pop	{fp, pc}

00008388 <fmc_iic_axi_GpoRead>:
    8388:	e92d4800 	push	{fp, lr}
    838c:	e28db004 	add	fp, sp, #4
    8390:	e24dd010 	sub	sp, sp, #16
    8394:	e50b0010 	str	r0, [fp, #-16]
    8398:	e50b1014 	str	r1, [fp, #-20]	; 0xffffffec
    839c:	e51b3010 	ldr	r3, [fp, #-16]
    83a0:	e5933024 	ldr	r3, [r3, #36]	; 0x24
    83a4:	e50b3008 	str	r3, [fp, #-8]
    83a8:	e51b3008 	ldr	r3, [fp, #-8]
    83ac:	e5933000 	ldr	r3, [r3]
    83b0:	e2833f49 	add	r3, r3, #292	; 0x124
    83b4:	e1a00003 	mov	r0, r3
    83b8:	eb001e58 	bl	fd20 <Xil_In32>
    83bc:	e1a02000 	mov	r2, r0
    83c0:	e51b3014 	ldr	r3, [fp, #-20]	; 0xffffffec
    83c4:	e5832000 	str	r2, [r3]
    83c8:	e3a03001 	mov	r3, #1
    83cc:	e1a00003 	mov	r0, r3
    83d0:	e24bd004 	sub	sp, fp, #4
    83d4:	e8bd8800 	pop	{fp, pc}

000083d8 <fmc_iic_axi_GpoWrite>:
    83d8:	e92d4800 	push	{fp, lr}
    83dc:	e28db004 	add	fp, sp, #4
    83e0:	e24dd010 	sub	sp, sp, #16
    83e4:	e50b0010 	str	r0, [fp, #-16]
    83e8:	e50b1014 	str	r1, [fp, #-20]	; 0xffffffec
    83ec:	e51b3010 	ldr	r3, [fp, #-16]
    83f0:	e5933024 	ldr	r3, [r3, #36]	; 0x24
    83f4:	e50b3008 	str	r3, [fp, #-8]
    83f8:	e51b3008 	ldr	r3, [fp, #-8]
    83fc:	e5933000 	ldr	r3, [r3]
    8400:	e2833f49 	add	r3, r3, #292	; 0x124
    8404:	e1a00003 	mov	r0, r3
    8408:	e51b1014 	ldr	r1, [fp, #-20]	; 0xffffffec
    840c:	eb001e65 	bl	fda8 <Xil_Out32>
    8410:	e3a03001 	mov	r3, #1
    8414:	e1a00003 	mov	r0, r3
    8418:	e24bd004 	sub	sp, fp, #4
    841c:	e8bd8800 	pop	{fp, pc}

00008420 <fmc_iic_axi_IicWrite>:
    8420:	e92d4800 	push	{fp, lr}
    8424:	e28db004 	add	fp, sp, #4
    8428:	e24dd028 	sub	sp, sp, #40	; 0x28
    842c:	e50b0018 	str	r0, [fp, #-24]	; 0xffffffe8
    8430:	e50b3020 	str	r3, [fp, #-32]	; 0xffffffe0
    8434:	e1a03001 	mov	r3, r1
    8438:	e54b3019 	strb	r3, [fp, #-25]	; 0xffffffe7
    843c:	e1a03002 	mov	r3, r2
    8440:	e54b301a 	strb	r3, [fp, #-26]	; 0xffffffe6
    8444:	e51b3018 	ldr	r3, [fp, #-24]	; 0xffffffe8
    8448:	e5933024 	ldr	r3, [r3, #36]	; 0x24
    844c:	e50b300c 	str	r3, [fp, #-12]
    8450:	e51b300c 	ldr	r3, [fp, #-12]
    8454:	e5933000 	ldr	r3, [r3]
    8458:	e2833f41 	add	r3, r3, #260	; 0x104
    845c:	e1a00003 	mov	r0, r3
    8460:	eb001e18 	bl	fcc8 <Xil_In8>
    8464:	e1a03000 	mov	r3, r0
    8468:	e54b300d 	strb	r3, [fp, #-13]
    846c:	e55b300d 	ldrb	r3, [fp, #-13]
    8470:	e3c3303b 	bic	r3, r3, #59	; 0x3b
    8474:	e54b300d 	strb	r3, [fp, #-13]
    8478:	e55b300d 	ldrb	r3, [fp, #-13]
    847c:	e35300c0 	cmp	r3, #192	; 0xc0
    8480:	1afffff2 	bne	8450 <fmc_iic_axi_IicWrite+0x30>
    8484:	e55b301a 	ldrb	r3, [fp, #-26]	; 0xffffffe6
    8488:	e54b3010 	strb	r3, [fp, #-16]
    848c:	e3a03000 	mov	r3, #0
    8490:	e54b3006 	strb	r3, [fp, #-6]
    8494:	ea00000b 	b	84c8 <fmc_iic_axi_IicWrite+0xa8>
    8498:	e55b3006 	ldrb	r3, [fp, #-6]
    849c:	e2833001 	add	r3, r3, #1
    84a0:	e55b2006 	ldrb	r2, [fp, #-6]
    84a4:	e51b1020 	ldr	r1, [fp, #-32]	; 0xffffffe0
    84a8:	e0812002 	add	r2, r1, r2
    84ac:	e5d22000 	ldrb	r2, [r2]
    84b0:	e24b1004 	sub	r1, fp, #4
    84b4:	e0813003 	add	r3, r1, r3
    84b8:	e543200c 	strb	r2, [r3, #-12]
    84bc:	e55b3006 	ldrb	r3, [fp, #-6]
    84c0:	e2833001 	add	r3, r3, #1
    84c4:	e54b3006 	strb	r3, [fp, #-6]
    84c8:	e55b2006 	ldrb	r2, [fp, #-6]
    84cc:	e5db3004 	ldrb	r3, [fp, #4]
    84d0:	e1520003 	cmp	r2, r3
    84d4:	3affffef 	bcc	8498 <fmc_iic_axi_IicWrite+0x78>
    84d8:	e51b300c 	ldr	r3, [fp, #-12]
    84dc:	e5930000 	ldr	r0, [r3]
    84e0:	e55b3019 	ldrb	r3, [fp, #-25]	; 0xffffffe7
    84e4:	e6ff1073 	uxth	r1, r3
    84e8:	e5db3004 	ldrb	r3, [fp, #4]
    84ec:	e2833001 	add	r3, r3, #1
    84f0:	e6efc073 	uxtb	ip, r3
    84f4:	e24b2010 	sub	r2, fp, #16
    84f8:	e3a03000 	mov	r3, #0
    84fc:	e58d3000 	str	r3, [sp]
    8500:	e1a0300c 	mov	r3, ip
    8504:	eb0048d9 	bl	1a870 <XIic_DynSend>
    8508:	e1a03000 	mov	r3, r0
    850c:	e54b3005 	strb	r3, [fp, #-5]
    8510:	e55b3005 	ldrb	r3, [fp, #-5]
    8514:	e3530000 	cmp	r3, #0
    8518:	1a000001 	bne	8524 <fmc_iic_axi_IicWrite+0x104>
    851c:	e3a03001 	mov	r3, #1
    8520:	e54b3005 	strb	r3, [fp, #-5]
    8524:	e55b3005 	ldrb	r3, [fp, #-5]
    8528:	e2433001 	sub	r3, r3, #1
    852c:	e1a00003 	mov	r0, r3
    8530:	e24bd004 	sub	sp, fp, #4
    8534:	e8bd8800 	pop	{fp, pc}

00008538 <fmc_iic_axi_IicRead>:
    8538:	e92d4800 	push	{fp, lr}
    853c:	e28db004 	add	fp, sp, #4
    8540:	e24dd030 	sub	sp, sp, #48	; 0x30
    8544:	e50b0020 	str	r0, [fp, #-32]	; 0xffffffe0
    8548:	e50b3028 	str	r3, [fp, #-40]	; 0xffffffd8
    854c:	e1a03001 	mov	r3, r1
    8550:	e54b3021 	strb	r3, [fp, #-33]	; 0xffffffdf
    8554:	e1a03002 	mov	r3, r2
    8558:	e54b3022 	strb	r3, [fp, #-34]	; 0xffffffde
    855c:	e3a03000 	mov	r3, #0
    8560:	e54b300d 	strb	r3, [fp, #-13]
    8564:	e3a03000 	mov	r3, #0
    8568:	e54b3005 	strb	r3, [fp, #-5]
    856c:	e3a03001 	mov	r3, #1
    8570:	e50b3014 	str	r3, [fp, #-20]	; 0xffffffec
    8574:	e3a03000 	mov	r3, #0
    8578:	e50b300c 	str	r3, [fp, #-12]
    857c:	e51b3020 	ldr	r3, [fp, #-32]	; 0xffffffe0
    8580:	e5933024 	ldr	r3, [r3, #36]	; 0x24
    8584:	e50b3018 	str	r3, [fp, #-24]	; 0xffffffe8
    8588:	e51b3018 	ldr	r3, [fp, #-24]	; 0xffffffe8
    858c:	e5933000 	ldr	r3, [r3]
    8590:	e2833f41 	add	r3, r3, #260	; 0x104
    8594:	e1a00003 	mov	r0, r3
    8598:	eb001dca 	bl	fcc8 <Xil_In8>
    859c:	e1a03000 	mov	r3, r0
    85a0:	e54b3019 	strb	r3, [fp, #-25]	; 0xffffffe7
    85a4:	e55b3019 	ldrb	r3, [fp, #-25]	; 0xffffffe7
    85a8:	e3c3303b 	bic	r3, r3, #59	; 0x3b
    85ac:	e54b3019 	strb	r3, [fp, #-25]	; 0xffffffe7
    85b0:	e55b3019 	ldrb	r3, [fp, #-25]	; 0xffffffe7
    85b4:	e35300c0 	cmp	r3, #192	; 0xc0
    85b8:	1afffff2 	bne	8588 <fmc_iic_axi_IicRead+0x50>
    85bc:	e51b3018 	ldr	r3, [fp, #-24]	; 0xffffffe8
    85c0:	e5933000 	ldr	r3, [r3]
    85c4:	e2833f41 	add	r3, r3, #260	; 0x104
    85c8:	e1a00003 	mov	r0, r3
    85cc:	eb001dbd 	bl	fcc8 <Xil_In8>
    85d0:	e1a03000 	mov	r3, r0
    85d4:	e54b3019 	strb	r3, [fp, #-25]	; 0xffffffe7
    85d8:	e55b3019 	ldrb	r3, [fp, #-25]	; 0xffffffe7
    85dc:	e2033004 	and	r3, r3, #4
    85e0:	e3530000 	cmp	r3, #0
    85e4:	1a00000a 	bne	8614 <fmc_iic_axi_IicRead+0xdc>
    85e8:	e51b3018 	ldr	r3, [fp, #-24]	; 0xffffffe8
    85ec:	e5930000 	ldr	r0, [r3]
    85f0:	e55b3021 	ldrb	r3, [fp, #-33]	; 0xffffffdf
    85f4:	e6ff1073 	uxth	r1, r3
    85f8:	e24b2022 	sub	r2, fp, #34	; 0x22
    85fc:	e3a03001 	mov	r3, #1
    8600:	e58d3000 	str	r3, [sp]
    8604:	e3a03001 	mov	r3, #1
    8608:	eb004898 	bl	1a870 <XIic_DynSend>
    860c:	e1a03000 	mov	r3, r0
    8610:	e54b3005 	strb	r3, [fp, #-5]
    8614:	e51b300c 	ldr	r3, [fp, #-12]
    8618:	e2833001 	add	r3, r3, #1
    861c:	e50b300c 	str	r3, [fp, #-12]
    8620:	e55b3005 	ldrb	r3, [fp, #-5]
    8624:	e3530001 	cmp	r3, #1
    8628:	0a000002 	beq	8638 <fmc_iic_axi_IicRead+0x100>
    862c:	e51b300c 	ldr	r3, [fp, #-12]
    8630:	e3530063 	cmp	r3, #99	; 0x63
    8634:	daffffe0 	ble	85bc <fmc_iic_axi_IicRead+0x84>
    8638:	e55b3005 	ldrb	r3, [fp, #-5]
    863c:	e3530000 	cmp	r3, #0
    8640:	1a000001 	bne	864c <fmc_iic_axi_IicRead+0x114>
    8644:	e55b3005 	ldrb	r3, [fp, #-5]
    8648:	ea00000a 	b	8678 <fmc_iic_axi_IicRead+0x140>
    864c:	e51b3018 	ldr	r3, [fp, #-24]	; 0xffffffe8
    8650:	e5931000 	ldr	r1, [r3]
    8654:	e55b2021 	ldrb	r2, [fp, #-33]	; 0xffffffdf
    8658:	e5db3004 	ldrb	r3, [fp, #4]
    865c:	e1a00001 	mov	r0, r1
    8660:	e1a01002 	mov	r1, r2
    8664:	e51b2028 	ldr	r2, [fp, #-40]	; 0xffffffd8
    8668:	eb0047f6 	bl	1a648 <XIic_DynRecv>
    866c:	e1a03000 	mov	r3, r0
    8670:	e54b300d 	strb	r3, [fp, #-13]
    8674:	e55b300d 	ldrb	r3, [fp, #-13]
    8678:	e1a00003 	mov	r0, r3
    867c:	e24bd004 	sub	sp, fp, #4
    8680:	e8bd8800 	pop	{fp, pc}

00008684 <fmc_iic_axi_IicEWrite>:
    8684:	e92d4800 	push	{fp, lr}
    8688:	e28db004 	add	fp, sp, #4
    868c:	e24dd028 	sub	sp, sp, #40	; 0x28
    8690:	e50b0018 	str	r0, [fp, #-24]	; 0xffffffe8
    8694:	e50b3020 	str	r3, [fp, #-32]	; 0xffffffe0
    8698:	e1a03001 	mov	r3, r1
    869c:	e54b3019 	strb	r3, [fp, #-25]	; 0xffffffe7
    86a0:	e14b21bc 	strh	r2, [fp, #-28]	; 0xffffffe4
    86a4:	e51b3018 	ldr	r3, [fp, #-24]	; 0xffffffe8
    86a8:	e5933024 	ldr	r3, [r3, #36]	; 0x24
    86ac:	e50b300c 	str	r3, [fp, #-12]
    86b0:	e51b300c 	ldr	r3, [fp, #-12]
    86b4:	e5933000 	ldr	r3, [r3]
    86b8:	e2833f41 	add	r3, r3, #260	; 0x104
    86bc:	e1a00003 	mov	r0, r3
    86c0:	eb001d80 	bl	fcc8 <Xil_In8>
    86c4:	e1a03000 	mov	r3, r0
    86c8:	e54b300d 	strb	r3, [fp, #-13]
    86cc:	e55b300d 	ldrb	r3, [fp, #-13]
    86d0:	e3c3303b 	bic	r3, r3, #59	; 0x3b
    86d4:	e54b300d 	strb	r3, [fp, #-13]
    86d8:	e55b300d 	ldrb	r3, [fp, #-13]
    86dc:	e35300c0 	cmp	r3, #192	; 0xc0
    86e0:	1afffff2 	bne	86b0 <fmc_iic_axi_IicEWrite+0x2c>
    86e4:	e15b31bc 	ldrh	r3, [fp, #-28]	; 0xffffffe4
    86e8:	e1a03423 	lsr	r3, r3, #8
    86ec:	e6ff3073 	uxth	r3, r3
    86f0:	e6ef3073 	uxtb	r3, r3
    86f4:	e54b3010 	strb	r3, [fp, #-16]
    86f8:	e15b31bc 	ldrh	r3, [fp, #-28]	; 0xffffffe4
    86fc:	e6ef3073 	uxtb	r3, r3
    8700:	e54b300f 	strb	r3, [fp, #-15]
    8704:	e3a03000 	mov	r3, #0
    8708:	e54b3006 	strb	r3, [fp, #-6]
    870c:	ea00000b 	b	8740 <fmc_iic_axi_IicEWrite+0xbc>
    8710:	e55b3006 	ldrb	r3, [fp, #-6]
    8714:	e2833002 	add	r3, r3, #2
    8718:	e55b2006 	ldrb	r2, [fp, #-6]
    871c:	e51b1020 	ldr	r1, [fp, #-32]	; 0xffffffe0
    8720:	e0812002 	add	r2, r1, r2
    8724:	e5d22000 	ldrb	r2, [r2]
    8728:	e24b1004 	sub	r1, fp, #4
    872c:	e0813003 	add	r3, r1, r3
    8730:	e543200c 	strb	r2, [r3, #-12]
    8734:	e55b3006 	ldrb	r3, [fp, #-6]
    8738:	e2833001 	add	r3, r3, #1
    873c:	e54b3006 	strb	r3, [fp, #-6]
    8740:	e55b2006 	ldrb	r2, [fp, #-6]
    8744:	e5db3004 	ldrb	r3, [fp, #4]
    8748:	e1520003 	cmp	r2, r3
    874c:	3affffef 	bcc	8710 <fmc_iic_axi_IicEWrite+0x8c>
    8750:	e51b300c 	ldr	r3, [fp, #-12]
    8754:	e5930000 	ldr	r0, [r3]
    8758:	e55b3019 	ldrb	r3, [fp, #-25]	; 0xffffffe7
    875c:	e6ff1073 	uxth	r1, r3
    8760:	e5db3004 	ldrb	r3, [fp, #4]
    8764:	e2833002 	add	r3, r3, #2
    8768:	e6efc073 	uxtb	ip, r3
    876c:	e24b2010 	sub	r2, fp, #16
    8770:	e3a03000 	mov	r3, #0
    8774:	e58d3000 	str	r3, [sp]
    8778:	e1a0300c 	mov	r3, ip
    877c:	eb00483b 	bl	1a870 <XIic_DynSend>
    8780:	e1a03000 	mov	r3, r0
    8784:	e54b3005 	strb	r3, [fp, #-5]
    8788:	e55b3005 	ldrb	r3, [fp, #-5]
    878c:	e3530000 	cmp	r3, #0
    8790:	1a000001 	bne	879c <fmc_iic_axi_IicEWrite+0x118>
    8794:	e3a03001 	mov	r3, #1
    8798:	e54b3005 	strb	r3, [fp, #-5]
    879c:	e55b3005 	ldrb	r3, [fp, #-5]
    87a0:	e2433001 	sub	r3, r3, #1
    87a4:	e1a00003 	mov	r0, r3
    87a8:	e24bd004 	sub	sp, fp, #4
    87ac:	e8bd8800 	pop	{fp, pc}

000087b0 <fmc_iic_axi_IicERead>:
    87b0:	e92d4800 	push	{fp, lr}
    87b4:	e28db004 	add	fp, sp, #4
    87b8:	e24dd030 	sub	sp, sp, #48	; 0x30
    87bc:	e50b0020 	str	r0, [fp, #-32]	; 0xffffffe0
    87c0:	e50b3028 	str	r3, [fp, #-40]	; 0xffffffd8
    87c4:	e1a03001 	mov	r3, r1
    87c8:	e54b3021 	strb	r3, [fp, #-33]	; 0xffffffdf
    87cc:	e14b22b4 	strh	r2, [fp, #-36]	; 0xffffffdc
    87d0:	e3a03000 	mov	r3, #0
    87d4:	e54b300d 	strb	r3, [fp, #-13]
    87d8:	e3a03000 	mov	r3, #0
    87dc:	e54b3005 	strb	r3, [fp, #-5]
    87e0:	e3a03001 	mov	r3, #1
    87e4:	e50b3014 	str	r3, [fp, #-20]	; 0xffffffec
    87e8:	e3a03000 	mov	r3, #0
    87ec:	e50b300c 	str	r3, [fp, #-12]
    87f0:	e51b3020 	ldr	r3, [fp, #-32]	; 0xffffffe0
    87f4:	e5933024 	ldr	r3, [r3, #36]	; 0x24
    87f8:	e50b3018 	str	r3, [fp, #-24]	; 0xffffffe8
    87fc:	e51b3018 	ldr	r3, [fp, #-24]	; 0xffffffe8
    8800:	e5933000 	ldr	r3, [r3]
    8804:	e2833f41 	add	r3, r3, #260	; 0x104
    8808:	e1a00003 	mov	r0, r3
    880c:	eb001d2d 	bl	fcc8 <Xil_In8>
    8810:	e1a03000 	mov	r3, r0
    8814:	e54b3019 	strb	r3, [fp, #-25]	; 0xffffffe7
    8818:	e55b3019 	ldrb	r3, [fp, #-25]	; 0xffffffe7
    881c:	e3c3303b 	bic	r3, r3, #59	; 0x3b
    8820:	e54b3019 	strb	r3, [fp, #-25]	; 0xffffffe7
    8824:	e55b3019 	ldrb	r3, [fp, #-25]	; 0xffffffe7
    8828:	e35300c0 	cmp	r3, #192	; 0xc0
    882c:	1afffff2 	bne	87fc <fmc_iic_axi_IicERead+0x4c>
    8830:	e15b32b4 	ldrh	r3, [fp, #-36]	; 0xffffffdc
    8834:	e1a03423 	lsr	r3, r3, #8
    8838:	e6ff3073 	uxth	r3, r3
    883c:	e6ef3073 	uxtb	r3, r3
    8840:	e54b301c 	strb	r3, [fp, #-28]	; 0xffffffe4
    8844:	e15b32b4 	ldrh	r3, [fp, #-36]	; 0xffffffdc
    8848:	e6ef3073 	uxtb	r3, r3
    884c:	e54b301b 	strb	r3, [fp, #-27]	; 0xffffffe5
    8850:	e51b3018 	ldr	r3, [fp, #-24]	; 0xffffffe8
    8854:	e5933000 	ldr	r3, [r3]
    8858:	e2833f41 	add	r3, r3, #260	; 0x104
    885c:	e1a00003 	mov	r0, r3
    8860:	eb001d18 	bl	fcc8 <Xil_In8>
    8864:	e1a03000 	mov	r3, r0
    8868:	e54b3019 	strb	r3, [fp, #-25]	; 0xffffffe7
    886c:	e55b3019 	ldrb	r3, [fp, #-25]	; 0xffffffe7
    8870:	e2033004 	and	r3, r3, #4
    8874:	e3530000 	cmp	r3, #0
    8878:	1a00000a 	bne	88a8 <fmc_iic_axi_IicERead+0xf8>
    887c:	e51b3018 	ldr	r3, [fp, #-24]	; 0xffffffe8
    8880:	e5930000 	ldr	r0, [r3]
    8884:	e55b3021 	ldrb	r3, [fp, #-33]	; 0xffffffdf
    8888:	e6ff1073 	uxth	r1, r3
    888c:	e24b201c 	sub	r2, fp, #28
    8890:	e3a03001 	mov	r3, #1
    8894:	e58d3000 	str	r3, [sp]
    8898:	e3a03002 	mov	r3, #2
    889c:	eb0047f3 	bl	1a870 <XIic_DynSend>
    88a0:	e1a03000 	mov	r3, r0
    88a4:	e54b3005 	strb	r3, [fp, #-5]
    88a8:	e51b300c 	ldr	r3, [fp, #-12]
    88ac:	e2833001 	add	r3, r3, #1
    88b0:	e50b300c 	str	r3, [fp, #-12]
    88b4:	e55b3005 	ldrb	r3, [fp, #-5]
    88b8:	e3530001 	cmp	r3, #1
    88bc:	0a000002 	beq	88cc <fmc_iic_axi_IicERead+0x11c>
    88c0:	e51b300c 	ldr	r3, [fp, #-12]
    88c4:	e3530063 	cmp	r3, #99	; 0x63
    88c8:	daffffe0 	ble	8850 <fmc_iic_axi_IicERead+0xa0>
    88cc:	e55b3005 	ldrb	r3, [fp, #-5]
    88d0:	e3530000 	cmp	r3, #0
    88d4:	1a000001 	bne	88e0 <fmc_iic_axi_IicERead+0x130>
    88d8:	e55b3005 	ldrb	r3, [fp, #-5]
    88dc:	ea00000a 	b	890c <fmc_iic_axi_IicERead+0x15c>
    88e0:	e51b3018 	ldr	r3, [fp, #-24]	; 0xffffffe8
    88e4:	e5931000 	ldr	r1, [r3]
    88e8:	e55b2021 	ldrb	r2, [fp, #-33]	; 0xffffffdf
    88ec:	e5db3004 	ldrb	r3, [fp, #4]
    88f0:	e1a00001 	mov	r0, r1
    88f4:	e1a01002 	mov	r1, r2
    88f8:	e51b2028 	ldr	r2, [fp, #-40]	; 0xffffffd8
    88fc:	eb004751 	bl	1a648 <XIic_DynRecv>
    8900:	e1a03000 	mov	r3, r0
    8904:	e54b300d 	strb	r3, [fp, #-13]
    8908:	e55b300d 	ldrb	r3, [fp, #-13]
    890c:	e1a00003 	mov	r0, r3
    8910:	e24bd004 	sub	sp, fp, #4
    8914:	e8bd8800 	pop	{fp, pc}

00008918 <memcpy_cus>:
    8918:	e52db004 	push	{fp}		; (str fp, [sp, #-4]!)
    891c:	e28db000 	add	fp, sp, #0
    8920:	e24dd024 	sub	sp, sp, #36	; 0x24
    8924:	e50b0018 	str	r0, [fp, #-24]	; 0xffffffe8
    8928:	e50b101c 	str	r1, [fp, #-28]	; 0xffffffe4
    892c:	e50b2020 	str	r2, [fp, #-32]	; 0xffffffe0
    8930:	e51b3018 	ldr	r3, [fp, #-24]	; 0xffffffe8
    8934:	e50b300c 	str	r3, [fp, #-12]
    8938:	e51b301c 	ldr	r3, [fp, #-28]	; 0xffffffe4
    893c:	e50b3010 	str	r3, [fp, #-16]
    8940:	e3a03000 	mov	r3, #0
    8944:	e50b3008 	str	r3, [fp, #-8]
    8948:	ea00000a 	b	8978 <memcpy_cus+0x60>
    894c:	e51b200c 	ldr	r2, [fp, #-12]
    8950:	e51b3008 	ldr	r3, [fp, #-8]
    8954:	e0823003 	add	r3, r2, r3
    8958:	e51b1010 	ldr	r1, [fp, #-16]
    895c:	e51b2008 	ldr	r2, [fp, #-8]
    8960:	e0812002 	add	r2, r1, r2
    8964:	e5d22000 	ldrb	r2, [r2]
    8968:	e5c32000 	strb	r2, [r3]
    896c:	e51b3008 	ldr	r3, [fp, #-8]
    8970:	e2833001 	add	r3, r3, #1
    8974:	e50b3008 	str	r3, [fp, #-8]
    8978:	e51b2008 	ldr	r2, [fp, #-8]
    897c:	e51b3020 	ldr	r3, [fp, #-32]	; 0xffffffe0
    8980:	e1520003 	cmp	r2, r3
    8984:	3afffff0 	bcc	894c <memcpy_cus+0x34>
    8988:	e51b3018 	ldr	r3, [fp, #-24]	; 0xffffffe8
    898c:	e1a00003 	mov	r0, r3
    8990:	e24bd000 	sub	sp, fp, #0
    8994:	e49db004 	pop	{fp}		; (ldr fp, [sp], #4)
    8998:	e12fff1e 	bx	lr

0000899c <XHls_macc_LookupConfig>:
    899c:	e52db004 	push	{fp}		; (str fp, [sp, #-4]!)
    89a0:	e28db000 	add	fp, sp, #0
    89a4:	e24dd014 	sub	sp, sp, #20
    89a8:	e1a03000 	mov	r3, r0
    89ac:	e14b30be 	strh	r3, [fp, #-14]
    89b0:	e3a03000 	mov	r3, #0
    89b4:	e50b3008 	str	r3, [fp, #-8]
    89b8:	e3a03000 	mov	r3, #0
    89bc:	e50b300c 	str	r3, [fp, #-12]
    89c0:	ea000012 	b	8a10 <XHls_macc_LookupConfig+0x74>
    89c4:	e30b3f28 	movw	r3, #48936	; 0xbf28
    89c8:	e3403001 	movt	r3, #1
    89cc:	e51b200c 	ldr	r2, [fp, #-12]
    89d0:	e1a02182 	lsl	r2, r2, #3
    89d4:	e0833002 	add	r3, r3, r2
    89d8:	e1d330b0 	ldrh	r3, [r3]
    89dc:	e15b20be 	ldrh	r2, [fp, #-14]
    89e0:	e1520003 	cmp	r2, r3
    89e4:	1a000006 	bne	8a04 <XHls_macc_LookupConfig+0x68>
    89e8:	e51b300c 	ldr	r3, [fp, #-12]
    89ec:	e1a02183 	lsl	r2, r3, #3
    89f0:	e30b3f28 	movw	r3, #48936	; 0xbf28
    89f4:	e3403001 	movt	r3, #1
    89f8:	e0823003 	add	r3, r2, r3
    89fc:	e50b3008 	str	r3, [fp, #-8]
    8a00:	ea000005 	b	8a1c <XHls_macc_LookupConfig+0x80>
    8a04:	e51b300c 	ldr	r3, [fp, #-12]
    8a08:	e2833001 	add	r3, r3, #1
    8a0c:	e50b300c 	str	r3, [fp, #-12]
    8a10:	e51b300c 	ldr	r3, [fp, #-12]
    8a14:	e3530000 	cmp	r3, #0
    8a18:	daffffe9 	ble	89c4 <XHls_macc_LookupConfig+0x28>
    8a1c:	e51b3008 	ldr	r3, [fp, #-8]
    8a20:	e1a00003 	mov	r0, r3
    8a24:	e24bd000 	sub	sp, fp, #0
    8a28:	e49db004 	pop	{fp}		; (ldr fp, [sp], #4)
    8a2c:	e12fff1e 	bx	lr

00008a30 <hls_macc_init>:
    8a30:	e92d4800 	push	{fp, lr}
    8a34:	e28db004 	add	fp, sp, #4
    8a38:	e24dd010 	sub	sp, sp, #16
    8a3c:	e50b0010 	str	r0, [fp, #-16]
    8a40:	e3a00000 	mov	r0, #0
    8a44:	ebffffd4 	bl	899c <XHls_macc_LookupConfig>
    8a48:	e50b0008 	str	r0, [fp, #-8]
    8a4c:	e51b3008 	ldr	r3, [fp, #-8]
    8a50:	e3530000 	cmp	r3, #0
    8a54:	1a000004 	bne	8a6c <hls_macc_init+0x3c>
    8a58:	e30b0194 	movw	r0, #45460	; 0xb194
    8a5c:	e3400001 	movt	r0, #1
    8a60:	ebfffdce 	bl	81a0 <uart_puts>
    8a64:	e3a03001 	mov	r3, #1
    8a68:	ea00000c 	b	8aa0 <hls_macc_init+0x70>
    8a6c:	e51b0010 	ldr	r0, [fp, #-16]
    8a70:	e51b1008 	ldr	r1, [fp, #-8]
    8a74:	eb003da0 	bl	180fc <XHls_macc_CfgInitialize>
    8a78:	e50b000c 	str	r0, [fp, #-12]
    8a7c:	e51b300c 	ldr	r3, [fp, #-12]
    8a80:	e3530000 	cmp	r3, #0
    8a84:	0a000004 	beq	8a9c <hls_macc_init+0x6c>
    8a88:	e30b01c8 	movw	r0, #45512	; 0xb1c8
    8a8c:	e3400001 	movt	r0, #1
    8a90:	ebfffdc2 	bl	81a0 <uart_puts>
    8a94:	e3a03001 	mov	r3, #1
    8a98:	ea000000 	b	8aa0 <hls_macc_init+0x70>
    8a9c:	e51b300c 	ldr	r3, [fp, #-12]
    8aa0:	e1a00003 	mov	r0, r3
    8aa4:	e24bd004 	sub	sp, fp, #4
    8aa8:	e8bd8800 	pop	{fp, pc}

00008aac <hls_macc_start>:
    8aac:	e92d4800 	push	{fp, lr}
    8ab0:	e28db004 	add	fp, sp, #4
    8ab4:	e24dd010 	sub	sp, sp, #16
    8ab8:	e50b0010 	str	r0, [fp, #-16]
    8abc:	e51b3010 	ldr	r3, [fp, #-16]
    8ac0:	e50b3008 	str	r3, [fp, #-8]
    8ac4:	e51b0008 	ldr	r0, [fp, #-8]
    8ac8:	e3a01001 	mov	r1, #1
    8acc:	eb0041c1 	bl	191d8 <XHls_macc_InterruptEnable>
    8ad0:	e51b0008 	ldr	r0, [fp, #-8]
    8ad4:	eb00415d 	bl	19050 <XHls_macc_InterruptGlobalEnable>
    8ad8:	e51b0008 	ldr	r0, [fp, #-8]
    8adc:	eb003dba 	bl	181cc <XHls_macc_Start>
    8ae0:	e24bd004 	sub	sp, fp, #4
    8ae4:	e8bd8800 	pop	{fp, pc}

00008ae8 <fmc_imageon_hdmi_framebuffer_init>:
    8ae8:	e92d4800 	push	{fp, lr}
    8aec:	e28db004 	add	fp, sp, #4
    8af0:	e24dd098 	sub	sp, sp, #152	; 0x98
    8af4:	e50b0090 	str	r0, [fp, #-144]	; 0xffffff70
    8af8:	e3a03000 	mov	r3, #0
    8afc:	e50b3038 	str	r3, [fp, #-56]	; 0xffffffc8
    8b00:	e3a03000 	mov	r3, #0
    8b04:	e50b3008 	str	r3, [fp, #-8]
    8b08:	e3a03a2f 	mov	r3, #192512	; 0x2f000
    8b0c:	e50b303c 	str	r3, [fp, #-60]	; 0xffffffc4
    8b10:	e3a03064 	mov	r3, #100	; 0x64
    8b14:	e50b300c 	str	r3, [fp, #-12]
    8b18:	e3a03000 	mov	r3, #0
    8b1c:	e50b3010 	str	r3, [fp, #-16]
    8b20:	e51b3090 	ldr	r3, [fp, #-144]	; 0xffffff70
    8b24:	e283201c 	add	r2, r3, #28
    8b28:	e51b3090 	ldr	r3, [fp, #-144]	; 0xffffff70
    8b2c:	e5933000 	ldr	r3, [r3]
    8b30:	e1a00002 	mov	r0, r2
    8b34:	e30b11f4 	movw	r1, #45556	; 0xb1f4
    8b38:	e3401001 	movt	r1, #1
    8b3c:	e1a02003 	mov	r2, r3
    8b40:	ebfffdbc 	bl	8238 <fmc_iic_axi_init>
    8b44:	e50b0040 	str	r0, [fp, #-64]	; 0xffffffc0
    8b48:	e51b3040 	ldr	r3, [fp, #-64]	; 0xffffffc0
    8b4c:	e3530000 	cmp	r3, #0
    8b50:	1a000002 	bne	8b60 <fmc_imageon_hdmi_framebuffer_init+0x78>
    8b54:	e30b0210 	movw	r0, #45584	; 0xb210
    8b58:	e3400001 	movt	r0, #1
    8b5c:	ebfffd8f 	bl	81a0 <uart_puts>
    8b60:	e51b3090 	ldr	r3, [fp, #-144]	; 0xffffff70
    8b64:	e283207c 	add	r2, r3, #124	; 0x7c
    8b68:	e51b3090 	ldr	r3, [fp, #-144]	; 0xffffff70
    8b6c:	e283301c 	add	r3, r3, #28
    8b70:	e1a00002 	mov	r0, r2
    8b74:	e30b1238 	movw	r1, #45624	; 0xb238
    8b78:	e3401001 	movt	r1, #1
    8b7c:	e1a02003 	mov	r2, r3
    8b80:	eb0002b2 	bl	9650 <fmc_imageon_init>
    8b84:	e51b3090 	ldr	r3, [fp, #-144]	; 0xffffff70
    8b88:	e5932bd0 	ldr	r2, [r3, #3024]	; 0xbd0
    8b8c:	e51b3090 	ldr	r3, [fp, #-144]	; 0xffffff70
    8b90:	e58320a8 	str	r2, [r3, #168]	; 0xa8
    8b94:	e51b3090 	ldr	r3, [fp, #-144]	; 0xffffff70
    8b98:	e283307c 	add	r3, r3, #124	; 0x7c
    8b9c:	e1a00003 	mov	r0, r3
    8ba0:	eb0003e8 	bl	9b48 <fmc_imageon_vclk_init>
    8ba4:	e51b3090 	ldr	r3, [fp, #-144]	; 0xffffff70
    8ba8:	e283307c 	add	r3, r3, #124	; 0x7c
    8bac:	e1a00003 	mov	r0, r3
    8bb0:	e3a01004 	mov	r1, #4
    8bb4:	eb000410 	bl	9bfc <fmc_imageon_vclk_config>
    8bb8:	e51b3090 	ldr	r3, [fp, #-144]	; 0xffffff70
    8bbc:	e283307c 	add	r3, r3, #124	; 0x7c
    8bc0:	e1a00003 	mov	r0, r3
    8bc4:	e3a01001 	mov	r1, #1
    8bc8:	e3a02001 	mov	r2, #1
    8bcc:	e30b3f30 	movw	r3, #48944	; 0xbf30
    8bd0:	e3403001 	movt	r3, #1
    8bd4:	eb0005bd 	bl	a2d0 <fmc_imageon_hdmii_init>
    8bd8:	e50b0040 	str	r0, [fp, #-64]	; 0xffffffc0
    8bdc:	e51b3040 	ldr	r3, [fp, #-64]	; 0xffffffc0
    8be0:	e3530000 	cmp	r3, #0
    8be4:	1a000002 	bne	8bf4 <fmc_imageon_hdmi_framebuffer_init+0x10c>
    8be8:	e30b0244 	movw	r0, #45636	; 0xb244
    8bec:	e3400001 	movt	r0, #1
    8bf0:	ebfffd6a 	bl	81a0 <uart_puts>
    8bf4:	e51b3090 	ldr	r3, [fp, #-144]	; 0xffffff70
    8bf8:	e283307c 	add	r3, r3, #124	; 0x7c
    8bfc:	e1a00003 	mov	r0, r3
    8c00:	e3a01004 	mov	r1, #4
    8c04:	eb0003fc 	bl	9bfc <fmc_imageon_vclk_config>
    8c08:	e3a00001 	mov	r0, #1
    8c0c:	eb001ce5 	bl	ffa8 <sleep>
    8c10:	e51b3090 	ldr	r3, [fp, #-144]	; 0xffffff70
    8c14:	e3a02005 	mov	r2, #5
    8c18:	e5832bdc 	str	r2, [r3, #3036]	; 0xbdc
    8c1c:	e51b3090 	ldr	r3, [fp, #-144]	; 0xffffff70
    8c20:	e3a02c05 	mov	r2, #1280	; 0x500
    8c24:	e5832bd4 	str	r2, [r3, #3028]	; 0xbd4
    8c28:	e51b3090 	ldr	r3, [fp, #-144]	; 0xffffff70
    8c2c:	e3a02e2d 	mov	r2, #720	; 0x2d0
    8c30:	e5832bd8 	str	r2, [r3, #3032]	; 0xbd8
    8c34:	e51b3090 	ldr	r3, [fp, #-144]	; 0xffffff70
    8c38:	e3a02000 	mov	r2, #0
    8c3c:	e5832be0 	str	r2, [r3, #3040]	; 0xbe0
    8c40:	e51b3090 	ldr	r3, [fp, #-144]	; 0xffffff70
    8c44:	e3a02000 	mov	r2, #0
    8c48:	e5832be4 	str	r2, [r3, #3044]	; 0xbe4
    8c4c:	e51b3090 	ldr	r3, [fp, #-144]	; 0xffffff70
    8c50:	e3a02000 	mov	r2, #0
    8c54:	e5832be8 	str	r2, [r3, #3048]	; 0xbe8
    8c58:	e51b3090 	ldr	r3, [fp, #-144]	; 0xffffff70
    8c5c:	e3a02008 	mov	r2, #8
    8c60:	e5832bec 	str	r2, [r3, #3052]	; 0xbec
    8c64:	e51b3090 	ldr	r3, [fp, #-144]	; 0xffffff70
    8c68:	e3a02c05 	mov	r2, #1280	; 0x500
    8c6c:	e5832bf0 	str	r2, [r3, #3056]	; 0xbf0
    8c70:	e51b3090 	ldr	r3, [fp, #-144]	; 0xffffff70
    8c74:	e3a0206e 	mov	r2, #110	; 0x6e
    8c78:	e5832bf4 	str	r2, [r3, #3060]	; 0xbf4
    8c7c:	e51b3090 	ldr	r3, [fp, #-144]	; 0xffffff70
    8c80:	e3a02028 	mov	r2, #40	; 0x28
    8c84:	e5832bf8 	str	r2, [r3, #3064]	; 0xbf8
    8c88:	e51b3090 	ldr	r3, [fp, #-144]	; 0xffffff70
    8c8c:	e3a02001 	mov	r2, #1
    8c90:	e5832c00 	str	r2, [r3, #3072]	; 0xc00
    8c94:	e51b3090 	ldr	r3, [fp, #-144]	; 0xffffff70
    8c98:	e3a020dc 	mov	r2, #220	; 0xdc
    8c9c:	e5832bfc 	str	r2, [r3, #3068]	; 0xbfc
    8ca0:	e51b3090 	ldr	r3, [fp, #-144]	; 0xffffff70
    8ca4:	e3a02e2d 	mov	r2, #720	; 0x2d0
    8ca8:	e5832c04 	str	r2, [r3, #3076]	; 0xc04
    8cac:	e51b3090 	ldr	r3, [fp, #-144]	; 0xffffff70
    8cb0:	e3a02005 	mov	r2, #5
    8cb4:	e5832c08 	str	r2, [r3, #3080]	; 0xc08
    8cb8:	e51b3090 	ldr	r3, [fp, #-144]	; 0xffffff70
    8cbc:	e3a02005 	mov	r2, #5
    8cc0:	e5832c0c 	str	r2, [r3, #3084]	; 0xc0c
    8cc4:	e51b3090 	ldr	r3, [fp, #-144]	; 0xffffff70
    8cc8:	e3a02001 	mov	r2, #1
    8ccc:	e5832c14 	str	r2, [r3, #3092]	; 0xc14
    8cd0:	e51b3090 	ldr	r3, [fp, #-144]	; 0xffffff70
    8cd4:	e3a02014 	mov	r2, #20
    8cd8:	e5832c10 	str	r2, [r3, #3088]	; 0xc10
    8cdc:	e51b3090 	ldr	r3, [fp, #-144]	; 0xffffff70
    8ce0:	e283207c 	add	r2, r3, #124	; 0x7c
    8ce4:	e51b3090 	ldr	r3, [fp, #-144]	; 0xffffff70
    8ce8:	e2833ebe 	add	r3, r3, #3040	; 0xbe0
    8cec:	e1a00002 	mov	r0, r2
    8cf0:	e3a01001 	mov	r1, #1
    8cf4:	e1a02003 	mov	r2, r3
    8cf8:	e3a03000 	mov	r3, #0
    8cfc:	eb00075d 	bl	aa78 <fmc_imageon_hdmio_init>
    8d00:	e50b0040 	str	r0, [fp, #-64]	; 0xffffffc0
    8d04:	e51b3040 	ldr	r3, [fp, #-64]	; 0xffffffc0
    8d08:	e3530000 	cmp	r3, #0
    8d0c:	1a000002 	bne	8d1c <fmc_imageon_hdmi_framebuffer_init+0x234>
    8d10:	e30b0274 	movw	r0, #45684	; 0xb274
    8d14:	e3400001 	movt	r0, #1
    8d18:	ebfffd20 	bl	81a0 <uart_puts>
    8d1c:	e51b3090 	ldr	r3, [fp, #-144]	; 0xffffff70
    8d20:	e5933014 	ldr	r3, [r3, #20]
    8d24:	e1a02003 	mov	r2, r3
    8d28:	e1a03682 	lsl	r3, r2, #13
    8d2c:	e1a02003 	mov	r2, r3
    8d30:	e1a03202 	lsl	r3, r2, #4
    8d34:	e0623003 	rsb	r3, r2, r3
    8d38:	e1a02203 	lsl	r2, r3, #4
    8d3c:	e0633002 	rsb	r3, r3, r2
    8d40:	e50b3044 	str	r3, [fp, #-68]	; 0xffffffbc
    8d44:	e51b3090 	ldr	r3, [fp, #-144]	; 0xffffff70
    8d48:	e5933010 	ldr	r3, [r3, #16]
    8d4c:	e50b3018 	str	r3, [fp, #-24]	; 0xffffffe8
    8d50:	e3a03000 	mov	r3, #0
    8d54:	e50b3014 	str	r3, [fp, #-20]	; 0xffffffec
    8d58:	ea00000c 	b	8d90 <fmc_imageon_hdmi_framebuffer_init+0x2a8>
    8d5c:	e51b3018 	ldr	r3, [fp, #-24]	; 0xffffffe8
    8d60:	e2832001 	add	r2, r3, #1
    8d64:	e50b2018 	str	r2, [fp, #-24]	; 0xffffffe8
    8d68:	e3e0207f 	mvn	r2, #127	; 0x7f
    8d6c:	e5c32000 	strb	r2, [r3]
    8d70:	e51b3018 	ldr	r3, [fp, #-24]	; 0xffffffe8
    8d74:	e2832001 	add	r2, r3, #1
    8d78:	e50b2018 	str	r2, [fp, #-24]	; 0xffffffe8
    8d7c:	e3a02000 	mov	r2, #0
    8d80:	e5c32000 	strb	r2, [r3]
    8d84:	e51b3014 	ldr	r3, [fp, #-20]	; 0xffffffec
    8d88:	e2833002 	add	r3, r3, #2
    8d8c:	e50b3014 	str	r3, [fp, #-20]	; 0xffffffec
    8d90:	e51b2014 	ldr	r2, [fp, #-20]	; 0xffffffec
    8d94:	e51b3044 	ldr	r3, [fp, #-68]	; 0xffffffbc
    8d98:	e1520003 	cmp	r2, r3
    8d9c:	3affffee 	bcc	8d5c <fmc_imageon_hdmi_framebuffer_init+0x274>
    8da0:	e51b3090 	ldr	r3, [fp, #-144]	; 0xffffff70
    8da4:	e5933010 	ldr	r3, [r3, #16]
    8da8:	e2833401 	add	r3, r3, #16777216	; 0x1000000
    8dac:	e50b301c 	str	r3, [fp, #-28]	; 0xffffffe4
    8db0:	e3a03000 	mov	r3, #0
    8db4:	e50b3014 	str	r3, [fp, #-20]	; 0xffffffec
    8db8:	ea00000c 	b	8df0 <fmc_imageon_hdmi_framebuffer_init+0x308>
    8dbc:	e51b301c 	ldr	r3, [fp, #-28]	; 0xffffffe4
    8dc0:	e2832001 	add	r2, r3, #1
    8dc4:	e50b201c 	str	r2, [fp, #-28]	; 0xffffffe4
    8dc8:	e3a02040 	mov	r2, #64	; 0x40
    8dcc:	e5c32000 	strb	r2, [r3]
    8dd0:	e51b301c 	ldr	r3, [fp, #-28]	; 0xffffffe4
    8dd4:	e2832001 	add	r2, r3, #1
    8dd8:	e50b201c 	str	r2, [fp, #-28]	; 0xffffffe4
    8ddc:	e3a02020 	mov	r2, #32
    8de0:	e5c32000 	strb	r2, [r3]
    8de4:	e51b3014 	ldr	r3, [fp, #-20]	; 0xffffffec
    8de8:	e2833002 	add	r3, r3, #2
    8dec:	e50b3014 	str	r3, [fp, #-20]	; 0xffffffec
    8df0:	e51b2014 	ldr	r2, [fp, #-20]	; 0xffffffec
    8df4:	e51b3044 	ldr	r3, [fp, #-68]	; 0xffffffbc
    8df8:	e1520003 	cmp	r2, r3
    8dfc:	3affffee 	bcc	8dbc <fmc_imageon_hdmi_framebuffer_init+0x2d4>
    8e00:	e51b3090 	ldr	r3, [fp, #-144]	; 0xffffff70
    8e04:	e593300c 	ldr	r3, [r3, #12]
    8e08:	e6ff2073 	uxth	r2, r3
    8e0c:	e51b3090 	ldr	r3, [fp, #-144]	; 0xffffff70
    8e10:	e2833e12 	add	r3, r3, #288	; 0x120
    8e14:	e1a00002 	mov	r0, r2
    8e18:	e1a01003 	mov	r1, r3
    8e1c:	eb000960 	bl	b3a4 <vfb_common_init>
    8e20:	e51b3090 	ldr	r3, [fp, #-144]	; 0xffffff70
    8e24:	e2830e12 	add	r0, r3, #288	; 0x120
    8e28:	e51b3090 	ldr	r3, [fp, #-144]	; 0xffffff70
    8e2c:	e2831d2a 	add	r1, r3, #2688	; 0xa80
    8e30:	e51b3090 	ldr	r3, [fp, #-144]	; 0xffffff70
    8e34:	e593ebdc 	ldr	lr, [r3, #3036]	; 0xbdc
    8e38:	e51b3090 	ldr	r3, [fp, #-144]	; 0xffffff70
    8e3c:	e593cbdc 	ldr	ip, [r3, #3036]	; 0xbdc
    8e40:	e51b3090 	ldr	r3, [fp, #-144]	; 0xffffff70
    8e44:	e5933010 	ldr	r3, [r3, #16]
    8e48:	e2832401 	add	r2, r3, #16777216	; 0x1000000
    8e4c:	e51b3090 	ldr	r3, [fp, #-144]	; 0xffffff70
    8e50:	e5933014 	ldr	r3, [r3, #20]
    8e54:	e58d2000 	str	r2, [sp]
    8e58:	e58d3004 	str	r3, [sp, #4]
    8e5c:	e1a0200e 	mov	r2, lr
    8e60:	e1a0300c 	mov	r3, ip
    8e64:	eb00099e 	bl	b4e4 <vfb_tx_init>
    8e68:	e51b3090 	ldr	r3, [fp, #-144]	; 0xffffff70
    8e6c:	e28320e0 	add	r2, r3, #224	; 0xe0
    8e70:	e51b3090 	ldr	r3, [fp, #-144]	; 0xffffff70
    8e74:	e5933008 	ldr	r3, [r3, #8]
    8e78:	e6ff3073 	uxth	r3, r3
    8e7c:	e1a00002 	mov	r0, r2
    8e80:	e1a01003 	mov	r1, r3
    8e84:	eb000c1a 	bl	bef4 <vgen_init>
    8e88:	e51b3090 	ldr	r3, [fp, #-144]	; 0xffffff70
    8e8c:	e28320e0 	add	r2, r3, #224	; 0xe0
    8e90:	e51b3090 	ldr	r3, [fp, #-144]	; 0xffffff70
    8e94:	e5933bdc 	ldr	r3, [r3, #3036]	; 0xbdc
    8e98:	e1a00002 	mov	r0, r2
    8e9c:	e1a01003 	mov	r1, r3
    8ea0:	e3a02001 	mov	r2, #1
    8ea4:	eb000c31 	bl	bf70 <vgen_config>
    8ea8:	e3a03000 	mov	r3, #0
    8eac:	e50b3048 	str	r3, [fp, #-72]	; 0xffffffb8
    8eb0:	e30c0754 	movw	r0, #51028	; 0xc754
    8eb4:	e3400001 	movt	r0, #1
    8eb8:	ebfffedc 	bl	8a30 <hls_macc_init>
    8ebc:	e50b004c 	str	r0, [fp, #-76]	; 0xffffffb4
    8ec0:	e51b304c 	ldr	r3, [fp, #-76]	; 0xffffffb4
    8ec4:	e3530000 	cmp	r3, #0
    8ec8:	0a000002 	beq	8ed8 <fmc_imageon_hdmi_framebuffer_init+0x3f0>
    8ecc:	e30b02a4 	movw	r0, #45732	; 0xb2a4
    8ed0:	e3400001 	movt	r0, #1
    8ed4:	ebfffcb1 	bl	81a0 <uart_puts>
    8ed8:	e51b3010 	ldr	r3, [fp, #-16]
    8edc:	e2833001 	add	r3, r3, #1
    8ee0:	e50b3010 	str	r3, [fp, #-16]
    8ee4:	e51b3090 	ldr	r3, [fp, #-144]	; 0xffffff70
    8ee8:	e3a02000 	mov	r2, #0
    8eec:	e5832c18 	str	r2, [r3, #3096]	; 0xc18
    8ef0:	e3a03064 	mov	r3, #100	; 0x64
    8ef4:	e50b300c 	str	r3, [fp, #-12]
    8ef8:	ea00000a 	b	8f28 <fmc_imageon_hdmi_framebuffer_init+0x440>
    8efc:	e51b3090 	ldr	r3, [fp, #-144]	; 0xffffff70
    8f00:	e283307c 	add	r3, r3, #124	; 0x7c
    8f04:	e1a00003 	mov	r0, r3
    8f08:	eb0005dc 	bl	a680 <fmc_imageon_hdmii_get_lock>
    8f0c:	e1a03000 	mov	r3, r0
    8f10:	e1a02003 	mov	r2, r3
    8f14:	e51b3090 	ldr	r3, [fp, #-144]	; 0xffffff70
    8f18:	e5832c18 	str	r2, [r3, #3096]	; 0xc18
    8f1c:	e30806a0 	movw	r0, #34464	; 0x86a0
    8f20:	e3400001 	movt	r0, #1
    8f24:	eb001c4b 	bl	10058 <usleep>
    8f28:	e51b3090 	ldr	r3, [fp, #-144]	; 0xffffff70
    8f2c:	e5933c18 	ldr	r3, [r3, #3096]	; 0xc18
    8f30:	e3530000 	cmp	r3, #0
    8f34:	1a000004 	bne	8f4c <fmc_imageon_hdmi_framebuffer_init+0x464>
    8f38:	e51b300c 	ldr	r3, [fp, #-12]
    8f3c:	e2432001 	sub	r2, r3, #1
    8f40:	e50b200c 	str	r2, [fp, #-12]
    8f44:	e3530000 	cmp	r3, #0
    8f48:	1affffeb 	bne	8efc <fmc_imageon_hdmi_framebuffer_init+0x414>
    8f4c:	e51b3090 	ldr	r3, [fp, #-144]	; 0xffffff70
    8f50:	e5933c18 	ldr	r3, [r3, #3096]	; 0xc18
    8f54:	e3530000 	cmp	r3, #0
    8f58:	1a000003 	bne	8f6c <fmc_imageon_hdmi_framebuffer_init+0x484>
    8f5c:	e30b02c4 	movw	r0, #45764	; 0xb2c4
    8f60:	e3400001 	movt	r0, #1
    8f64:	ebfffc8d 	bl	81a0 <uart_puts>
    8f68:	ea00019d 	b	95e4 <fmc_imageon_hdmi_framebuffer_init+0xafc>
    8f6c:	e51b3090 	ldr	r3, [fp, #-144]	; 0xffffff70
    8f70:	e283207c 	add	r2, r3, #124	; 0x7c
    8f74:	e51b3090 	ldr	r3, [fp, #-144]	; 0xffffff70
    8f78:	e2833ec2 	add	r3, r3, #3104	; 0xc20
    8f7c:	e2833008 	add	r3, r3, #8
    8f80:	e1a00002 	mov	r0, r2
    8f84:	e1a01003 	mov	r1, r3
    8f88:	eb0005df 	bl	a70c <fmc_imageon_hdmii_get_timing>
    8f8c:	e51b3090 	ldr	r3, [fp, #-144]	; 0xffffff70
    8f90:	e5932c38 	ldr	r2, [r3, #3128]	; 0xc38
    8f94:	e51b3090 	ldr	r3, [fp, #-144]	; 0xffffff70
    8f98:	e5832c1c 	str	r2, [r3, #3100]	; 0xc1c
    8f9c:	e51b3090 	ldr	r3, [fp, #-144]	; 0xffffff70
    8fa0:	e5932c4c 	ldr	r2, [r3, #3148]	; 0xc4c
    8fa4:	e51b3090 	ldr	r3, [fp, #-144]	; 0xffffff70
    8fa8:	e5832c20 	str	r2, [r3, #3104]	; 0xc20
    8fac:	e51b3090 	ldr	r3, [fp, #-144]	; 0xffffff70
    8fb0:	e5932c1c 	ldr	r2, [r3, #3100]	; 0xc1c
    8fb4:	e51b3090 	ldr	r3, [fp, #-144]	; 0xffffff70
    8fb8:	e5933c20 	ldr	r3, [r3, #3104]	; 0xc20
    8fbc:	e1a00002 	mov	r0, r2
    8fc0:	e1a01003 	mov	r1, r3
    8fc4:	eb000df8 	bl	c7ac <vres_detect>
    8fc8:	e1a03000 	mov	r3, r0
    8fcc:	e1a02003 	mov	r2, r3
    8fd0:	e51b3090 	ldr	r3, [fp, #-144]	; 0xffffff70
    8fd4:	e5832c24 	str	r2, [r3, #3108]	; 0xc24
    8fd8:	e51b3090 	ldr	r3, [fp, #-144]	; 0xffffff70
    8fdc:	e5933c24 	ldr	r3, [r3, #3108]	; 0xc24
    8fe0:	e3730001 	cmn	r3, #1
    8fe4:	1a000003 	bne	8ff8 <fmc_imageon_hdmi_framebuffer_init+0x510>
    8fe8:	e30b0304 	movw	r0, #45828	; 0xb304
    8fec:	e3400001 	movt	r0, #1
    8ff0:	ebfffc6a 	bl	81a0 <uart_puts>
    8ff4:	ea00017a 	b	95e4 <fmc_imageon_hdmi_framebuffer_init+0xafc>
    8ff8:	e51b3090 	ldr	r3, [fp, #-144]	; 0xffffff70
    8ffc:	e28320ac 	add	r2, r3, #172	; 0xac
    9000:	e51b3090 	ldr	r3, [fp, #-144]	; 0xffffff70
    9004:	e5933004 	ldr	r3, [r3, #4]
    9008:	e1a00002 	mov	r0, r2
    900c:	e1a01003 	mov	r1, r3
    9010:	eb0008b7 	bl	b2f4 <vdet_init>
    9014:	e51b3090 	ldr	r3, [fp, #-144]	; 0xffffff70
    9018:	e28330ac 	add	r3, r3, #172	; 0xac
    901c:	e1a00003 	mov	r0, r3
    9020:	eb0008d2 	bl	b370 <vdet_reset>
    9024:	e51b3090 	ldr	r3, [fp, #-144]	; 0xffffff70
    9028:	e2833e12 	add	r3, r3, #288	; 0x120
    902c:	e1a00003 	mov	r0, r3
    9030:	eb000a50 	bl	b978 <vfb_rx_stop>
    9034:	e51b3090 	ldr	r3, [fp, #-144]	; 0xffffff70
    9038:	e5933014 	ldr	r3, [r3, #20]
    903c:	e1a02003 	mov	r2, r3
    9040:	e1a03682 	lsl	r3, r2, #13
    9044:	e1a02003 	mov	r2, r3
    9048:	e1a03202 	lsl	r3, r2, #4
    904c:	e0623003 	rsb	r3, r2, r3
    9050:	e1a02203 	lsl	r2, r3, #4
    9054:	e0633002 	rsb	r3, r3, r2
    9058:	e50b3050 	str	r3, [fp, #-80]	; 0xffffffb0
    905c:	e51b3090 	ldr	r3, [fp, #-144]	; 0xffffff70
    9060:	e5933010 	ldr	r3, [r3, #16]
    9064:	e50b3024 	str	r3, [fp, #-36]	; 0xffffffdc
    9068:	e51b3090 	ldr	r3, [fp, #-144]	; 0xffffff70
    906c:	e5933010 	ldr	r3, [r3, #16]
    9070:	e2833402 	add	r3, r3, #33554432	; 0x2000000
    9074:	e50b3054 	str	r3, [fp, #-84]	; 0xffffffac
    9078:	e51b3010 	ldr	r3, [fp, #-16]
    907c:	e353000a 	cmp	r3, #10
    9080:	1a000003 	bne	9094 <fmc_imageon_hdmi_framebuffer_init+0x5ac>
    9084:	e51b0054 	ldr	r0, [fp, #-84]	; 0xffffffac
    9088:	e51b1024 	ldr	r1, [fp, #-36]	; 0xffffffdc
    908c:	e51b2050 	ldr	r2, [fp, #-80]	; 0xffffffb0
    9090:	ebfffe20 	bl	8918 <memcpy_cus>
    9094:	e51b3054 	ldr	r3, [fp, #-84]	; 0xffffffac
    9098:	e50b3028 	str	r3, [fp, #-40]	; 0xffffffd8
    909c:	e51b3090 	ldr	r3, [fp, #-144]	; 0xffffff70
    90a0:	e5933010 	ldr	r3, [r3, #16]
    90a4:	e2833401 	add	r3, r3, #16777216	; 0x1000000
    90a8:	e50b302c 	str	r3, [fp, #-44]	; 0xffffffd4
    90ac:	e51b3054 	ldr	r3, [fp, #-84]	; 0xffffffac
    90b0:	e50b3058 	str	r3, [fp, #-88]	; 0xffffffa8
    90b4:	e51b3024 	ldr	r3, [fp, #-36]	; 0xffffffdc
    90b8:	e50b305c 	str	r3, [fp, #-92]	; 0xffffffa4
    90bc:	e51b302c 	ldr	r3, [fp, #-44]	; 0xffffffd4
    90c0:	e50b3060 	str	r3, [fp, #-96]	; 0xffffffa0
    90c4:	e51b3050 	ldr	r3, [fp, #-80]	; 0xffffffb0
    90c8:	e50b3064 	str	r3, [fp, #-100]	; 0xffffff9c
    90cc:	e3a03000 	mov	r3, #0
    90d0:	e50b3020 	str	r3, [fp, #-32]	; 0xffffffe0
    90d4:	ea000031 	b	91a0 <fmc_imageon_hdmi_framebuffer_init+0x6b8>
    90d8:	e51b3024 	ldr	r3, [fp, #-36]	; 0xffffffdc
    90dc:	e5d33000 	ldrb	r3, [r3]
    90e0:	e6ef3073 	uxtb	r3, r3
    90e4:	e1a02003 	mov	r2, r3
    90e8:	e51b3028 	ldr	r3, [fp, #-40]	; 0xffffffd8
    90ec:	e5d33000 	ldrb	r3, [r3]
    90f0:	e6ef3073 	uxtb	r3, r3
    90f4:	e0633002 	rsb	r3, r3, r2
    90f8:	e353000a 	cmp	r3, #10
    90fc:	ca000009 	bgt	9128 <fmc_imageon_hdmi_framebuffer_init+0x640>
    9100:	e51b3028 	ldr	r3, [fp, #-40]	; 0xffffffd8
    9104:	e5d33000 	ldrb	r3, [r3]
    9108:	e6ef3073 	uxtb	r3, r3
    910c:	e1a02003 	mov	r2, r3
    9110:	e51b3024 	ldr	r3, [fp, #-36]	; 0xffffffdc
    9114:	e5d33000 	ldrb	r3, [r3]
    9118:	e6ef3073 	uxtb	r3, r3
    911c:	e0633002 	rsb	r3, r3, r2
    9120:	e353000a 	cmp	r3, #10
    9124:	da00000a 	ble	9154 <fmc_imageon_hdmi_framebuffer_init+0x66c>
    9128:	e51b302c 	ldr	r3, [fp, #-44]	; 0xffffffd4
    912c:	e2832001 	add	r2, r3, #1
    9130:	e50b202c 	str	r2, [fp, #-44]	; 0xffffffd4
    9134:	e3e02000 	mvn	r2, #0
    9138:	e5c32000 	strb	r2, [r3]
    913c:	e51b302c 	ldr	r3, [fp, #-44]	; 0xffffffd4
    9140:	e2832001 	add	r2, r3, #1
    9144:	e50b202c 	str	r2, [fp, #-44]	; 0xffffffd4
    9148:	e3e02000 	mvn	r2, #0
    914c:	e5c32000 	strb	r2, [r3]
    9150:	ea000009 	b	917c <fmc_imageon_hdmi_framebuffer_init+0x694>
    9154:	e51b302c 	ldr	r3, [fp, #-44]	; 0xffffffd4
    9158:	e2832001 	add	r2, r3, #1
    915c:	e50b202c 	str	r2, [fp, #-44]	; 0xffffffd4
    9160:	e3a02000 	mov	r2, #0
    9164:	e5c32000 	strb	r2, [r3]
    9168:	e51b302c 	ldr	r3, [fp, #-44]	; 0xffffffd4
    916c:	e2832001 	add	r2, r3, #1
    9170:	e50b202c 	str	r2, [fp, #-44]	; 0xffffffd4
    9174:	e3a02000 	mov	r2, #0
    9178:	e5c32000 	strb	r2, [r3]
    917c:	e51b3028 	ldr	r3, [fp, #-40]	; 0xffffffd8
    9180:	e2833002 	add	r3, r3, #2
    9184:	e50b3028 	str	r3, [fp, #-40]	; 0xffffffd8
    9188:	e51b3024 	ldr	r3, [fp, #-36]	; 0xffffffdc
    918c:	e2833002 	add	r3, r3, #2
    9190:	e50b3024 	str	r3, [fp, #-36]	; 0xffffffdc
    9194:	e51b3020 	ldr	r3, [fp, #-32]	; 0xffffffe0
    9198:	e2833002 	add	r3, r3, #2
    919c:	e50b3020 	str	r3, [fp, #-32]	; 0xffffffe0
    91a0:	e51b2020 	ldr	r2, [fp, #-32]	; 0xffffffe0
    91a4:	e51b3050 	ldr	r3, [fp, #-80]	; 0xffffffb0
    91a8:	e1520003 	cmp	r2, r3
    91ac:	3affffc9 	bcc	90d8 <fmc_imageon_hdmi_framebuffer_init+0x5f0>
    91b0:	e51b3090 	ldr	r3, [fp, #-144]	; 0xffffff70
    91b4:	e2830e12 	add	r0, r3, #288	; 0x120
    91b8:	e51b3090 	ldr	r3, [fp, #-144]	; 0xffffff70
    91bc:	e2833eb2 	add	r3, r3, #2848	; 0xb20
    91c0:	e2833008 	add	r3, r3, #8
    91c4:	e51b2090 	ldr	r2, [fp, #-144]	; 0xffffff70
    91c8:	e592ec24 	ldr	lr, [r2, #3108]	; 0xc24
    91cc:	e51b2090 	ldr	r2, [fp, #-144]	; 0xffffff70
    91d0:	e592cbdc 	ldr	ip, [r2, #3036]	; 0xbdc
    91d4:	e51b2090 	ldr	r2, [fp, #-144]	; 0xffffff70
    91d8:	e5921010 	ldr	r1, [r2, #16]
    91dc:	e51b2090 	ldr	r2, [fp, #-144]	; 0xffffff70
    91e0:	e5922014 	ldr	r2, [r2, #20]
    91e4:	e58d1000 	str	r1, [sp]
    91e8:	e58d2004 	str	r2, [sp, #4]
    91ec:	e1a01003 	mov	r1, r3
    91f0:	e1a0200e 	mov	r2, lr
    91f4:	e1a0300c 	mov	r3, ip
    91f8:	eb000894 	bl	b450 <vfb_rx_init>
    91fc:	e51b3090 	ldr	r3, [fp, #-144]	; 0xffffff70
    9200:	e283207c 	add	r2, r3, #124	; 0x7c
    9204:	e51b3090 	ldr	r3, [fp, #-144]	; 0xffffff70
    9208:	e2833ebe 	add	r3, r3, #3040	; 0xbe0
    920c:	e1a00002 	mov	r0, r2
    9210:	e3a01001 	mov	r1, #1
    9214:	e1a02003 	mov	r2, r3
    9218:	e3a03000 	mov	r3, #0
    921c:	eb000615 	bl	aa78 <fmc_imageon_hdmio_init>
    9220:	e50b0040 	str	r0, [fp, #-64]	; 0xffffffc0
    9224:	e51b3040 	ldr	r3, [fp, #-64]	; 0xffffffc0
    9228:	e3530000 	cmp	r3, #0
    922c:	1a000002 	bne	923c <fmc_imageon_hdmi_framebuffer_init+0x754>
    9230:	e30b0274 	movw	r0, #45684	; 0xb274
    9234:	e3400001 	movt	r0, #1
    9238:	ebfffbd8 	bl	81a0 <uart_puts>
    923c:	e51b3010 	ldr	r3, [fp, #-16]
    9240:	e353000b 	cmp	r3, #11
    9244:	9a0000e6 	bls	95e4 <fmc_imageon_hdmi_framebuffer_init+0xafc>
    9248:	e51b3090 	ldr	r3, [fp, #-144]	; 0xffffff70
    924c:	e5933010 	ldr	r3, [r3, #16]
    9250:	e2833403 	add	r3, r3, #50331648	; 0x3000000
    9254:	e50b3068 	str	r3, [fp, #-104]	; 0xffffff98
    9258:	e51b3090 	ldr	r3, [fp, #-144]	; 0xffffff70
    925c:	e5933010 	ldr	r3, [r3, #16]
    9260:	e2833301 	add	r3, r3, #67108864	; 0x4000000
    9264:	e50b306c 	str	r3, [fp, #-108]	; 0xffffff94
    9268:	e51b3090 	ldr	r3, [fp, #-144]	; 0xffffff70
    926c:	e5933010 	ldr	r3, [r3, #16]
    9270:	e2833405 	add	r3, r3, #83886080	; 0x5000000
    9274:	e50b3070 	str	r3, [fp, #-112]	; 0xffffff90
    9278:	e51b3090 	ldr	r3, [fp, #-144]	; 0xffffff70
    927c:	e5933010 	ldr	r3, [r3, #16]
    9280:	e2833406 	add	r3, r3, #100663296	; 0x6000000
    9284:	e50b3074 	str	r3, [fp, #-116]	; 0xffffff8c
    9288:	e51b3090 	ldr	r3, [fp, #-144]	; 0xffffff70
    928c:	e5933010 	ldr	r3, [r3, #16]
    9290:	e2833407 	add	r3, r3, #117440512	; 0x7000000
    9294:	e50b3078 	str	r3, [fp, #-120]	; 0xffffff88
    9298:	e51b3090 	ldr	r3, [fp, #-144]	; 0xffffff70
    929c:	e5933010 	ldr	r3, [r3, #16]
    92a0:	e2833302 	add	r3, r3, #134217728	; 0x8000000
    92a4:	e50b307c 	str	r3, [fp, #-124]	; 0xffffff84
    92a8:	e51b3090 	ldr	r3, [fp, #-144]	; 0xffffff70
    92ac:	e5933010 	ldr	r3, [r3, #16]
    92b0:	e2833409 	add	r3, r3, #150994944	; 0x9000000
    92b4:	e50b3080 	str	r3, [fp, #-128]	; 0xffffff80
    92b8:	e3a03000 	mov	r3, #0
    92bc:	e50b3030 	str	r3, [fp, #-48]	; 0xffffffd0
    92c0:	e3a03000 	mov	r3, #0
    92c4:	e50b3034 	str	r3, [fp, #-52]	; 0xffffffcc
    92c8:	e51b3090 	ldr	r3, [fp, #-144]	; 0xffffff70
    92cc:	e5933010 	ldr	r3, [r3, #16]
    92d0:	e50b3084 	str	r3, [fp, #-132]	; 0xffffff7c
    92d4:	e51b3090 	ldr	r3, [fp, #-144]	; 0xffffff70
    92d8:	e5933010 	ldr	r3, [r3, #16]
    92dc:	e2833402 	add	r3, r3, #33554432	; 0x2000000
    92e0:	e50b3088 	str	r3, [fp, #-136]	; 0xffffff78
    92e4:	e51b3010 	ldr	r3, [fp, #-16]
    92e8:	e353000a 	cmp	r3, #10
    92ec:	1a000003 	bne	9300 <fmc_imageon_hdmi_framebuffer_init+0x818>
    92f0:	e51b0088 	ldr	r0, [fp, #-136]	; 0xffffff78
    92f4:	e51b1084 	ldr	r1, [fp, #-132]	; 0xffffff7c
    92f8:	e51b2050 	ldr	r2, [fp, #-80]	; 0xffffffb0
    92fc:	ebfffd85 	bl	8918 <memcpy_cus>
    9300:	e51b3030 	ldr	r3, [fp, #-48]	; 0xffffffd0
    9304:	e2833001 	add	r3, r3, #1
    9308:	e50b3030 	str	r3, [fp, #-48]	; 0xffffffd0
    930c:	e51b3030 	ldr	r3, [fp, #-48]	; 0xffffffd0
    9310:	e353000a 	cmp	r3, #10
    9314:	1a000004 	bne	932c <fmc_imageon_hdmi_framebuffer_init+0x844>
    9318:	e51b3060 	ldr	r3, [fp, #-96]	; 0xffffffa0
    931c:	e51b0068 	ldr	r0, [fp, #-104]	; 0xffffff98
    9320:	e1a01003 	mov	r1, r3
    9324:	e51b2050 	ldr	r2, [fp, #-80]	; 0xffffffb0
    9328:	ebfffd7a 	bl	8918 <memcpy_cus>
    932c:	e51b3030 	ldr	r3, [fp, #-48]	; 0xffffffd0
    9330:	e353000b 	cmp	r3, #11
    9334:	1a000004 	bne	934c <fmc_imageon_hdmi_framebuffer_init+0x864>
    9338:	e51b3060 	ldr	r3, [fp, #-96]	; 0xffffffa0
    933c:	e51b006c 	ldr	r0, [fp, #-108]	; 0xffffff94
    9340:	e1a01003 	mov	r1, r3
    9344:	e51b2050 	ldr	r2, [fp, #-80]	; 0xffffffb0
    9348:	ebfffd72 	bl	8918 <memcpy_cus>
    934c:	e51b3030 	ldr	r3, [fp, #-48]	; 0xffffffd0
    9350:	e353000c 	cmp	r3, #12
    9354:	1a000004 	bne	936c <fmc_imageon_hdmi_framebuffer_init+0x884>
    9358:	e51b3060 	ldr	r3, [fp, #-96]	; 0xffffffa0
    935c:	e51b0070 	ldr	r0, [fp, #-112]	; 0xffffff90
    9360:	e1a01003 	mov	r1, r3
    9364:	e51b2050 	ldr	r2, [fp, #-80]	; 0xffffffb0
    9368:	ebfffd6a 	bl	8918 <memcpy_cus>
    936c:	e51b3030 	ldr	r3, [fp, #-48]	; 0xffffffd0
    9370:	e353000d 	cmp	r3, #13
    9374:	1a000004 	bne	938c <fmc_imageon_hdmi_framebuffer_init+0x8a4>
    9378:	e51b3060 	ldr	r3, [fp, #-96]	; 0xffffffa0
    937c:	e51b0074 	ldr	r0, [fp, #-116]	; 0xffffff8c
    9380:	e1a01003 	mov	r1, r3
    9384:	e51b2050 	ldr	r2, [fp, #-80]	; 0xffffffb0
    9388:	ebfffd62 	bl	8918 <memcpy_cus>
    938c:	e51b3030 	ldr	r3, [fp, #-48]	; 0xffffffd0
    9390:	e353000e 	cmp	r3, #14
    9394:	1a000004 	bne	93ac <fmc_imageon_hdmi_framebuffer_init+0x8c4>
    9398:	e51b3060 	ldr	r3, [fp, #-96]	; 0xffffffa0
    939c:	e51b0078 	ldr	r0, [fp, #-120]	; 0xffffff88
    93a0:	e1a01003 	mov	r1, r3
    93a4:	e51b2050 	ldr	r2, [fp, #-80]	; 0xffffffb0
    93a8:	ebfffd5a 	bl	8918 <memcpy_cus>
    93ac:	e51b3030 	ldr	r3, [fp, #-48]	; 0xffffffd0
    93b0:	e353000f 	cmp	r3, #15
    93b4:	1a000004 	bne	93cc <fmc_imageon_hdmi_framebuffer_init+0x8e4>
    93b8:	e51b3060 	ldr	r3, [fp, #-96]	; 0xffffffa0
    93bc:	e51b007c 	ldr	r0, [fp, #-124]	; 0xffffff84
    93c0:	e1a01003 	mov	r1, r3
    93c4:	e51b2050 	ldr	r2, [fp, #-80]	; 0xffffffb0
    93c8:	ebfffd52 	bl	8918 <memcpy_cus>
    93cc:	e51b3030 	ldr	r3, [fp, #-48]	; 0xffffffd0
    93d0:	e3530013 	cmp	r3, #19
    93d4:	da00004c 	ble	950c <fmc_imageon_hdmi_framebuffer_init+0xa24>
    93d8:	e51b3034 	ldr	r3, [fp, #-52]	; 0xffffffcc
    93dc:	e3530005 	cmp	r3, #5
    93e0:	979ff103 	ldrls	pc, [pc, r3, lsl #2]
    93e4:	ea000035 	b	94c0 <fmc_imageon_hdmi_framebuffer_init+0x9d8>
    93e8:	00009400 	andeq	r9, r0, r0, lsl #8
    93ec:	00009420 	andeq	r9, r0, r0, lsr #8
    93f0:	00009440 	andeq	r9, r0, r0, asr #8
    93f4:	00009460 	andeq	r9, r0, r0, ror #8
    93f8:	00009480 	andeq	r9, r0, r0, lsl #9
    93fc:	000094a0 	andeq	r9, r0, r0, lsr #9
    9400:	e51b3068 	ldr	r3, [fp, #-104]	; 0xffffff98
    9404:	e30c0754 	movw	r0, #51028	; 0xc754
    9408:	e3400001 	movt	r0, #1
    940c:	e1a01003 	mov	r1, r3
    9410:	eb003d0e 	bl	18850 <XHls_macc_SetB>
    9414:	e3a03001 	mov	r3, #1
    9418:	e50b3034 	str	r3, [fp, #-52]	; 0xffffffcc
    941c:	ea000027 	b	94c0 <fmc_imageon_hdmi_framebuffer_init+0x9d8>
    9420:	e51b306c 	ldr	r3, [fp, #-108]	; 0xffffff94
    9424:	e30c0754 	movw	r0, #51028	; 0xc754
    9428:	e3400001 	movt	r0, #1
    942c:	e1a01003 	mov	r1, r3
    9430:	eb003d06 	bl	18850 <XHls_macc_SetB>
    9434:	e3a03002 	mov	r3, #2
    9438:	e50b3034 	str	r3, [fp, #-52]	; 0xffffffcc
    943c:	ea00001f 	b	94c0 <fmc_imageon_hdmi_framebuffer_init+0x9d8>
    9440:	e51b3070 	ldr	r3, [fp, #-112]	; 0xffffff90
    9444:	e30c0754 	movw	r0, #51028	; 0xc754
    9448:	e3400001 	movt	r0, #1
    944c:	e1a01003 	mov	r1, r3
    9450:	eb003cfe 	bl	18850 <XHls_macc_SetB>
    9454:	e3a03003 	mov	r3, #3
    9458:	e50b3034 	str	r3, [fp, #-52]	; 0xffffffcc
    945c:	ea000017 	b	94c0 <fmc_imageon_hdmi_framebuffer_init+0x9d8>
    9460:	e51b3074 	ldr	r3, [fp, #-116]	; 0xffffff8c
    9464:	e30c0754 	movw	r0, #51028	; 0xc754
    9468:	e3400001 	movt	r0, #1
    946c:	e1a01003 	mov	r1, r3
    9470:	eb003cf6 	bl	18850 <XHls_macc_SetB>
    9474:	e3a03004 	mov	r3, #4
    9478:	e50b3034 	str	r3, [fp, #-52]	; 0xffffffcc
    947c:	ea00000f 	b	94c0 <fmc_imageon_hdmi_framebuffer_init+0x9d8>
    9480:	e51b3078 	ldr	r3, [fp, #-120]	; 0xffffff88
    9484:	e30c0754 	movw	r0, #51028	; 0xc754
    9488:	e3400001 	movt	r0, #1
    948c:	e1a01003 	mov	r1, r3
    9490:	eb003cee 	bl	18850 <XHls_macc_SetB>
    9494:	e3a03005 	mov	r3, #5
    9498:	e50b3034 	str	r3, [fp, #-52]	; 0xffffffcc
    949c:	ea000007 	b	94c0 <fmc_imageon_hdmi_framebuffer_init+0x9d8>
    94a0:	e51b307c 	ldr	r3, [fp, #-124]	; 0xffffff84
    94a4:	e30c0754 	movw	r0, #51028	; 0xc754
    94a8:	e3400001 	movt	r0, #1
    94ac:	e1a01003 	mov	r1, r3
    94b0:	eb003ce6 	bl	18850 <XHls_macc_SetB>
    94b4:	e3a03000 	mov	r3, #0
    94b8:	e50b3034 	str	r3, [fp, #-52]	; 0xffffffcc
    94bc:	e1a00000 	nop			; (mov r0, r0)
    94c0:	e30c0754 	movw	r0, #51028	; 0xc754
    94c4:	e3400001 	movt	r0, #1
    94c8:	e51b1060 	ldr	r1, [fp, #-96]	; 0xffffffa0
    94cc:	eb003e13 	bl	18d20 <XHls_macc_SetByte_wroffset>
    94d0:	e30c0754 	movw	r0, #51028	; 0xc754
    94d4:	e3400001 	movt	r0, #1
    94d8:	e3a01000 	mov	r1, #0
    94dc:	eb003da9 	bl	18b88 <XHls_macc_SetAccum_clr>
    94e0:	e30c0754 	movw	r0, #51028	; 0xc754
    94e4:	e3400001 	movt	r0, #1
    94e8:	eb003b37 	bl	181cc <XHls_macc_Start>
    94ec:	e1a00000 	nop			; (mov r0, r0)
    94f0:	e30c0754 	movw	r0, #51028	; 0xc754
    94f4:	e3400001 	movt	r0, #1
    94f8:	eb003bd6 	bl	18458 <XHls_macc_IsReady>
    94fc:	e1a03000 	mov	r3, r0
    9500:	e3530000 	cmp	r3, #0
    9504:	0afffff9 	beq	94f0 <fmc_imageon_hdmi_framebuffer_init+0xa08>
    9508:	ea00002b 	b	95bc <fmc_imageon_hdmi_framebuffer_init+0xad4>
    950c:	e1a00000 	nop			; (mov r0, r0)
    9510:	e30c0754 	movw	r0, #51028	; 0xc754
    9514:	e3400001 	movt	r0, #1
    9518:	eb003bce 	bl	18458 <XHls_macc_IsReady>
    951c:	e1a03000 	mov	r3, r0
    9520:	e3530000 	cmp	r3, #0
    9524:	0afffff9 	beq	9510 <fmc_imageon_hdmi_framebuffer_init+0xa28>
    9528:	e30c0754 	movw	r0, #51028	; 0xc754
    952c:	e3400001 	movt	r0, #1
    9530:	e51b105c 	ldr	r1, [fp, #-92]	; 0xffffffa4
    9534:	eb003c5f 	bl	186b8 <XHls_macc_SetA>
    9538:	e30c0754 	movw	r0, #51028	; 0xc754
    953c:	e3400001 	movt	r0, #1
    9540:	e51b1058 	ldr	r1, [fp, #-88]	; 0xffffffa8
    9544:	eb003cc1 	bl	18850 <XHls_macc_SetB>
    9548:	e30c0754 	movw	r0, #51028	; 0xc754
    954c:	e3400001 	movt	r0, #1
    9550:	e51b1060 	ldr	r1, [fp, #-96]	; 0xffffffa0
    9554:	eb003df1 	bl	18d20 <XHls_macc_SetByte_wroffset>
    9558:	e30c0754 	movw	r0, #51028	; 0xc754
    955c:	e3400001 	movt	r0, #1
    9560:	e51b1064 	ldr	r1, [fp, #-100]	; 0xffffff9c
    9564:	eb003e53 	bl	18eb8 <XHls_macc_SetFrame_len>
    9568:	e30c0754 	movw	r0, #51028	; 0xc754
    956c:	e3400001 	movt	r0, #1
    9570:	e3a01001 	mov	r1, #1
    9574:	eb003d83 	bl	18b88 <XHls_macc_SetAccum_clr>
    9578:	e1a00000 	nop			; (mov r0, r0)
    957c:	e30c0754 	movw	r0, #51028	; 0xc754
    9580:	e3400001 	movt	r0, #1
    9584:	eb003bb3 	bl	18458 <XHls_macc_IsReady>
    9588:	e1a03000 	mov	r3, r0
    958c:	e3530000 	cmp	r3, #0
    9590:	0afffff9 	beq	957c <fmc_imageon_hdmi_framebuffer_init+0xa94>
    9594:	e30c0754 	movw	r0, #51028	; 0xc754
    9598:	e3400001 	movt	r0, #1
    959c:	eb003b0a 	bl	181cc <XHls_macc_Start>
    95a0:	e1a00000 	nop			; (mov r0, r0)
    95a4:	e30c0754 	movw	r0, #51028	; 0xc754
    95a8:	e3400001 	movt	r0, #1
    95ac:	eb003ba9 	bl	18458 <XHls_macc_IsReady>
    95b0:	e1a03000 	mov	r3, r0
    95b4:	e3530000 	cmp	r3, #0
    95b8:	0afffff9 	beq	95a4 <fmc_imageon_hdmi_framebuffer_init+0xabc>
    95bc:	e51b3008 	ldr	r3, [fp, #-8]
    95c0:	e2833001 	add	r3, r3, #1
    95c4:	e50b3008 	str	r3, [fp, #-8]
    95c8:	e51b3008 	ldr	r3, [fp, #-8]
    95cc:	e35300c8 	cmp	r3, #200	; 0xc8
    95d0:	1a000002 	bne	95e0 <fmc_imageon_hdmi_framebuffer_init+0xaf8>
    95d4:	e51b303c 	ldr	r3, [fp, #-60]	; 0xffffffc4
    95d8:	e3a02001 	mov	r2, #1
    95dc:	e5832000 	str	r2, [r3]
    95e0:	eaffff38 	b	92c8 <fmc_imageon_hdmi_framebuffer_init+0x7e0>
    95e4:	eafffe3b 	b	8ed8 <fmc_imageon_hdmi_framebuffer_init+0x3f0>

000095e8 <strcpy>:
    95e8:	e52db004 	push	{fp}		; (str fp, [sp, #-4]!)
    95ec:	e28db000 	add	fp, sp, #0
    95f0:	e24dd00c 	sub	sp, sp, #12
    95f4:	e50b0008 	str	r0, [fp, #-8]
    95f8:	e50b100c 	str	r1, [fp, #-12]
    95fc:	ea000009 	b	9628 <strcpy+0x40>
    9600:	e51b300c 	ldr	r3, [fp, #-12]
    9604:	e5d32000 	ldrb	r2, [r3]
    9608:	e51b3008 	ldr	r3, [fp, #-8]
    960c:	e5c32000 	strb	r2, [r3]
    9610:	e51b3008 	ldr	r3, [fp, #-8]
    9614:	e2833001 	add	r3, r3, #1
    9618:	e50b3008 	str	r3, [fp, #-8]
    961c:	e51b300c 	ldr	r3, [fp, #-12]
    9620:	e2833001 	add	r3, r3, #1
    9624:	e50b300c 	str	r3, [fp, #-12]
    9628:	e51b300c 	ldr	r3, [fp, #-12]
    962c:	e5d33000 	ldrb	r3, [r3]
    9630:	e3530000 	cmp	r3, #0
    9634:	1afffff1 	bne	9600 <strcpy+0x18>
    9638:	e51b3008 	ldr	r3, [fp, #-8]
    963c:	e3a02000 	mov	r2, #0
    9640:	e5c32000 	strb	r2, [r3]
    9644:	e24bd000 	sub	sp, fp, #0
    9648:	e49db004 	pop	{fp}		; (ldr fp, [sp], #4)
    964c:	e12fff1e 	bx	lr

00009650 <fmc_imageon_init>:
    9650:	e92d4810 	push	{r4, fp, lr}
    9654:	e28db008 	add	fp, sp, #8
    9658:	e24dd024 	sub	sp, sp, #36	; 0x24
    965c:	e50b0018 	str	r0, [fp, #-24]	; 0xffffffe8
    9660:	e50b101c 	str	r1, [fp, #-28]	; 0xffffffe4
    9664:	e50b2020 	str	r2, [fp, #-32]	; 0xffffffe0
    9668:	e51b3018 	ldr	r3, [fp, #-24]	; 0xffffffe8
    966c:	e51b2020 	ldr	r2, [fp, #-32]	; 0xffffffe0
    9670:	e5832024 	str	r2, [r3, #36]	; 0x24
    9674:	e51b3018 	ldr	r3, [fp, #-24]	; 0xffffffe8
    9678:	e2833004 	add	r3, r3, #4
    967c:	e1a00003 	mov	r0, r3
    9680:	e51b101c 	ldr	r1, [fp, #-28]	; 0xffffffe4
    9684:	ebffffd7 	bl	95e8 <strcpy>
    9688:	e51b3018 	ldr	r3, [fp, #-24]	; 0xffffffe8
    968c:	e3a02001 	mov	r2, #1
    9690:	e5832028 	str	r2, [r3, #40]	; 0x28
    9694:	e51b3018 	ldr	r3, [fp, #-24]	; 0xffffffe8
    9698:	e5933024 	ldr	r3, [r3, #36]	; 0x24
    969c:	e593304c 	ldr	r3, [r3, #76]	; 0x4c
    96a0:	e51b2018 	ldr	r2, [fp, #-24]	; 0xffffffe8
    96a4:	e5921024 	ldr	r1, [r2, #36]	; 0x24
    96a8:	e51b2018 	ldr	r2, [fp, #-24]	; 0xffffffe8
    96ac:	e5922028 	ldr	r2, [r2, #40]	; 0x28
    96b0:	e1a00001 	mov	r0, r1
    96b4:	e1a01002 	mov	r1, r2
    96b8:	e12fff33 	blx	r3
    96bc:	e51b3018 	ldr	r3, [fp, #-24]	; 0xffffffe8
    96c0:	e3a02000 	mov	r2, #0
    96c4:	e583202c 	str	r2, [r3, #44]	; 0x2c
    96c8:	e51b0018 	ldr	r0, [fp, #-24]	; 0xffffffe8
    96cc:	eb00002c 	bl	9784 <fmc_imageon_iic_mux_reset>
    96d0:	e51b0018 	ldr	r0, [fp, #-24]	; 0xffffffe8
    96d4:	e3a01003 	mov	r1, #3
    96d8:	eb000050 	bl	9820 <fmc_imageon_iic_mux>
    96dc:	e3a03003 	mov	r3, #3
    96e0:	e54b300d 	strb	r3, [fp, #-13]
    96e4:	e3e03015 	mvn	r3, #21
    96e8:	e54b300f 	strb	r3, [fp, #-15]
    96ec:	e51b3018 	ldr	r3, [fp, #-24]	; 0xffffffe8
    96f0:	e5933024 	ldr	r3, [r3, #36]	; 0x24
    96f4:	e5934054 	ldr	r4, [r3, #84]	; 0x54
    96f8:	e51b3018 	ldr	r3, [fp, #-24]	; 0xffffffe8
    96fc:	e5931024 	ldr	r1, [r3, #36]	; 0x24
    9700:	e55b200d 	ldrb	r2, [fp, #-13]
    9704:	e24bc00f 	sub	ip, fp, #15
    9708:	e3a03001 	mov	r3, #1
    970c:	e58d3000 	str	r3, [sp]
    9710:	e1a00001 	mov	r0, r1
    9714:	e3a01020 	mov	r1, #32
    9718:	e1a0300c 	mov	r3, ip
    971c:	e12fff34 	blx	r4
    9720:	e1a03000 	mov	r3, r0
    9724:	e54b300e 	strb	r3, [fp, #-14]
    9728:	e3a03001 	mov	r3, #1
    972c:	e54b300d 	strb	r3, [fp, #-13]
    9730:	e3a03001 	mov	r3, #1
    9734:	e54b300f 	strb	r3, [fp, #-15]
    9738:	e51b3018 	ldr	r3, [fp, #-24]	; 0xffffffe8
    973c:	e5933024 	ldr	r3, [r3, #36]	; 0x24
    9740:	e5934054 	ldr	r4, [r3, #84]	; 0x54
    9744:	e51b3018 	ldr	r3, [fp, #-24]	; 0xffffffe8
    9748:	e5931024 	ldr	r1, [r3, #36]	; 0x24
    974c:	e55b200d 	ldrb	r2, [fp, #-13]
    9750:	e24bc00f 	sub	ip, fp, #15
    9754:	e3a03001 	mov	r3, #1
    9758:	e58d3000 	str	r3, [sp]
    975c:	e1a00001 	mov	r0, r1
    9760:	e3a01020 	mov	r1, #32
    9764:	e1a0300c 	mov	r3, ip
    9768:	e12fff34 	blx	r4
    976c:	e1a03000 	mov	r3, r0
    9770:	e54b300e 	strb	r3, [fp, #-14]
    9774:	e3a03001 	mov	r3, #1
    9778:	e1a00003 	mov	r0, r3
    977c:	e24bd008 	sub	sp, fp, #8
    9780:	e8bd8810 	pop	{r4, fp, pc}

00009784 <fmc_imageon_iic_mux_reset>:
    9784:	e92d4800 	push	{fp, lr}
    9788:	e28db004 	add	fp, sp, #4
    978c:	e24dd008 	sub	sp, sp, #8
    9790:	e50b0008 	str	r0, [fp, #-8]
    9794:	e51b3008 	ldr	r3, [fp, #-8]
    9798:	e5933028 	ldr	r3, [r3, #40]	; 0x28
    979c:	e3c32001 	bic	r2, r3, #1
    97a0:	e51b3008 	ldr	r3, [fp, #-8]
    97a4:	e5832028 	str	r2, [r3, #40]	; 0x28
    97a8:	e51b3008 	ldr	r3, [fp, #-8]
    97ac:	e5933024 	ldr	r3, [r3, #36]	; 0x24
    97b0:	e593304c 	ldr	r3, [r3, #76]	; 0x4c
    97b4:	e51b2008 	ldr	r2, [fp, #-8]
    97b8:	e5921024 	ldr	r1, [r2, #36]	; 0x24
    97bc:	e51b2008 	ldr	r2, [fp, #-8]
    97c0:	e5922028 	ldr	r2, [r2, #40]	; 0x28
    97c4:	e1a00001 	mov	r0, r1
    97c8:	e1a01002 	mov	r1, r2
    97cc:	e12fff33 	blx	r3
    97d0:	e3040240 	movw	r0, #16960	; 0x4240
    97d4:	e340000f 	movt	r0, #15
    97d8:	eb0006bd 	bl	b2d4 <fmc_imageon_wait_usec>
    97dc:	e51b3008 	ldr	r3, [fp, #-8]
    97e0:	e5933028 	ldr	r3, [r3, #40]	; 0x28
    97e4:	e3832001 	orr	r2, r3, #1
    97e8:	e51b3008 	ldr	r3, [fp, #-8]
    97ec:	e5832028 	str	r2, [r3, #40]	; 0x28
    97f0:	e51b3008 	ldr	r3, [fp, #-8]
    97f4:	e5933024 	ldr	r3, [r3, #36]	; 0x24
    97f8:	e593304c 	ldr	r3, [r3, #76]	; 0x4c
    97fc:	e51b2008 	ldr	r2, [fp, #-8]
    9800:	e5921024 	ldr	r1, [r2, #36]	; 0x24
    9804:	e51b2008 	ldr	r2, [fp, #-8]
    9808:	e5922028 	ldr	r2, [r2, #40]	; 0x28
    980c:	e1a00001 	mov	r0, r1
    9810:	e1a01002 	mov	r1, r2
    9814:	e12fff33 	blx	r3
    9818:	e24bd004 	sub	sp, fp, #4
    981c:	e8bd8800 	pop	{fp, pc}

00009820 <fmc_imageon_iic_mux>:
    9820:	e92d4810 	push	{r4, fp, lr}
    9824:	e28db008 	add	fp, sp, #8
    9828:	e24dd01c 	sub	sp, sp, #28
    982c:	e50b0018 	str	r0, [fp, #-24]	; 0xffffffe8
    9830:	e50b101c 	str	r1, [fp, #-28]	; 0xffffffe4
    9834:	e51b301c 	ldr	r3, [fp, #-28]	; 0xffffffe4
    9838:	e3530004 	cmp	r3, #4
    983c:	979ff103 	ldrls	pc, [pc, r3, lsl #2]
    9840:	ea00005e 	b	99c0 <fmc_imageon_iic_mux+0x1a0>
    9844:	00009858 	andeq	r9, r0, r8, asr r8
    9848:	000098a0 	andeq	r9, r0, r0, lsr #17
    984c:	000098e8 	andeq	r9, r0, r8, ror #17
    9850:	00009930 	andeq	r9, r0, r0, lsr r9
    9854:	00009978 	andeq	r9, r0, r8, ror r9
    9858:	e3a03001 	mov	r3, #1
    985c:	e54b300e 	strb	r3, [fp, #-14]
    9860:	e51b3018 	ldr	r3, [fp, #-24]	; 0xffffffe8
    9864:	e5933024 	ldr	r3, [r3, #36]	; 0x24
    9868:	e5934054 	ldr	r4, [r3, #84]	; 0x54
    986c:	e51b3018 	ldr	r3, [fp, #-24]	; 0xffffffe8
    9870:	e5931024 	ldr	r1, [r3, #36]	; 0x24
    9874:	e55b200e 	ldrb	r2, [fp, #-14]
    9878:	e24bc00e 	sub	ip, fp, #14
    987c:	e3a03001 	mov	r3, #1
    9880:	e58d3000 	str	r3, [sp]
    9884:	e1a00001 	mov	r0, r1
    9888:	e3a01070 	mov	r1, #112	; 0x70
    988c:	e1a0300c 	mov	r3, ip
    9890:	e12fff34 	blx	r4
    9894:	e1a03000 	mov	r3, r0
    9898:	e54b300d 	strb	r3, [fp, #-13]
    989c:	ea000047 	b	99c0 <fmc_imageon_iic_mux+0x1a0>
    98a0:	e3a03002 	mov	r3, #2
    98a4:	e54b300e 	strb	r3, [fp, #-14]
    98a8:	e51b3018 	ldr	r3, [fp, #-24]	; 0xffffffe8
    98ac:	e5933024 	ldr	r3, [r3, #36]	; 0x24
    98b0:	e5934054 	ldr	r4, [r3, #84]	; 0x54
    98b4:	e51b3018 	ldr	r3, [fp, #-24]	; 0xffffffe8
    98b8:	e5931024 	ldr	r1, [r3, #36]	; 0x24
    98bc:	e55b200e 	ldrb	r2, [fp, #-14]
    98c0:	e24bc00e 	sub	ip, fp, #14
    98c4:	e3a03001 	mov	r3, #1
    98c8:	e58d3000 	str	r3, [sp]
    98cc:	e1a00001 	mov	r0, r1
    98d0:	e3a01070 	mov	r1, #112	; 0x70
    98d4:	e1a0300c 	mov	r3, ip
    98d8:	e12fff34 	blx	r4
    98dc:	e1a03000 	mov	r3, r0
    98e0:	e54b300d 	strb	r3, [fp, #-13]
    98e4:	ea000035 	b	99c0 <fmc_imageon_iic_mux+0x1a0>
    98e8:	e3a03004 	mov	r3, #4
    98ec:	e54b300e 	strb	r3, [fp, #-14]
    98f0:	e51b3018 	ldr	r3, [fp, #-24]	; 0xffffffe8
    98f4:	e5933024 	ldr	r3, [r3, #36]	; 0x24
    98f8:	e5934054 	ldr	r4, [r3, #84]	; 0x54
    98fc:	e51b3018 	ldr	r3, [fp, #-24]	; 0xffffffe8
    9900:	e5931024 	ldr	r1, [r3, #36]	; 0x24
    9904:	e55b200e 	ldrb	r2, [fp, #-14]
    9908:	e24bc00e 	sub	ip, fp, #14
    990c:	e3a03001 	mov	r3, #1
    9910:	e58d3000 	str	r3, [sp]
    9914:	e1a00001 	mov	r0, r1
    9918:	e3a01070 	mov	r1, #112	; 0x70
    991c:	e1a0300c 	mov	r3, ip
    9920:	e12fff34 	blx	r4
    9924:	e1a03000 	mov	r3, r0
    9928:	e54b300d 	strb	r3, [fp, #-13]
    992c:	ea000023 	b	99c0 <fmc_imageon_iic_mux+0x1a0>
    9930:	e3a03008 	mov	r3, #8
    9934:	e54b300e 	strb	r3, [fp, #-14]
    9938:	e51b3018 	ldr	r3, [fp, #-24]	; 0xffffffe8
    993c:	e5933024 	ldr	r3, [r3, #36]	; 0x24
    9940:	e5934054 	ldr	r4, [r3, #84]	; 0x54
    9944:	e51b3018 	ldr	r3, [fp, #-24]	; 0xffffffe8
    9948:	e5931024 	ldr	r1, [r3, #36]	; 0x24
    994c:	e55b200e 	ldrb	r2, [fp, #-14]
    9950:	e24bc00e 	sub	ip, fp, #14
    9954:	e3a03001 	mov	r3, #1
    9958:	e58d3000 	str	r3, [sp]
    995c:	e1a00001 	mov	r0, r1
    9960:	e3a01070 	mov	r1, #112	; 0x70
    9964:	e1a0300c 	mov	r3, ip
    9968:	e12fff34 	blx	r4
    996c:	e1a03000 	mov	r3, r0
    9970:	e54b300d 	strb	r3, [fp, #-13]
    9974:	ea000011 	b	99c0 <fmc_imageon_iic_mux+0x1a0>
    9978:	e3a03006 	mov	r3, #6
    997c:	e54b300e 	strb	r3, [fp, #-14]
    9980:	e51b3018 	ldr	r3, [fp, #-24]	; 0xffffffe8
    9984:	e5933024 	ldr	r3, [r3, #36]	; 0x24
    9988:	e5934054 	ldr	r4, [r3, #84]	; 0x54
    998c:	e51b3018 	ldr	r3, [fp, #-24]	; 0xffffffe8
    9990:	e5931024 	ldr	r1, [r3, #36]	; 0x24
    9994:	e55b200e 	ldrb	r2, [fp, #-14]
    9998:	e24bc00e 	sub	ip, fp, #14
    999c:	e3a03001 	mov	r3, #1
    99a0:	e58d3000 	str	r3, [sp]
    99a4:	e1a00001 	mov	r0, r1
    99a8:	e3a01070 	mov	r1, #112	; 0x70
    99ac:	e1a0300c 	mov	r3, ip
    99b0:	e12fff34 	blx	r4
    99b4:	e1a03000 	mov	r3, r0
    99b8:	e54b300d 	strb	r3, [fp, #-13]
    99bc:	e1a00000 	nop			; (mov r0, r0)
    99c0:	e24bd008 	sub	sp, fp, #8
    99c4:	e8bd8810 	pop	{r4, fp, pc}

000099c8 <fmc_imageon_iic_config2>:
    99c8:	e92d4810 	push	{r4, fp, lr}
    99cc:	e28db008 	add	fp, sp, #8
    99d0:	e24dd024 	sub	sp, sp, #36	; 0x24
    99d4:	e50b0018 	str	r0, [fp, #-24]	; 0xffffffe8
    99d8:	e50b2020 	str	r2, [fp, #-32]	; 0xffffffe0
    99dc:	e50b3024 	str	r3, [fp, #-36]	; 0xffffffdc
    99e0:	e1a03001 	mov	r3, r1
    99e4:	e54b3019 	strb	r3, [fp, #-25]	; 0xffffffe7
    99e8:	e3a03000 	mov	r3, #0
    99ec:	e50b3010 	str	r3, [fp, #-16]
    99f0:	ea00001b 	b	9a64 <fmc_imageon_iic_config2+0x9c>
    99f4:	e51b3018 	ldr	r3, [fp, #-24]	; 0xffffffe8
    99f8:	e5933024 	ldr	r3, [r3, #36]	; 0x24
    99fc:	e5934054 	ldr	r4, [r3, #84]	; 0x54
    9a00:	e51b3018 	ldr	r3, [fp, #-24]	; 0xffffffe8
    9a04:	e5931024 	ldr	r1, [r3, #36]	; 0x24
    9a08:	e51b3010 	ldr	r3, [fp, #-16]
    9a0c:	e1a03083 	lsl	r3, r3, #1
    9a10:	e51b2020 	ldr	r2, [fp, #-32]	; 0xffffffe0
    9a14:	e0823003 	add	r3, r2, r3
    9a18:	e5d3e000 	ldrb	lr, [r3]
    9a1c:	e51b3010 	ldr	r3, [fp, #-16]
    9a20:	e1a03083 	lsl	r3, r3, #1
    9a24:	e51b2020 	ldr	r2, [fp, #-32]	; 0xffffffe0
    9a28:	e0823003 	add	r3, r2, r3
    9a2c:	e283c001 	add	ip, r3, #1
    9a30:	e55b2019 	ldrb	r2, [fp, #-25]	; 0xffffffe7
    9a34:	e3a03001 	mov	r3, #1
    9a38:	e58d3000 	str	r3, [sp]
    9a3c:	e1a00001 	mov	r0, r1
    9a40:	e1a01002 	mov	r1, r2
    9a44:	e1a0200e 	mov	r2, lr
    9a48:	e1a0300c 	mov	r3, ip
    9a4c:	e12fff34 	blx	r4
    9a50:	e1a03000 	mov	r3, r0
    9a54:	e54b3011 	strb	r3, [fp, #-17]	; 0xffffffef
    9a58:	e51b3010 	ldr	r3, [fp, #-16]
    9a5c:	e2833001 	add	r3, r3, #1
    9a60:	e50b3010 	str	r3, [fp, #-16]
    9a64:	e51b2010 	ldr	r2, [fp, #-16]
    9a68:	e51b3024 	ldr	r3, [fp, #-36]	; 0xffffffdc
    9a6c:	e1520003 	cmp	r2, r3
    9a70:	3affffdf 	bcc	99f4 <fmc_imageon_iic_config2+0x2c>
    9a74:	e24bd008 	sub	sp, fp, #8
    9a78:	e8bd8810 	pop	{r4, fp, pc}

00009a7c <fmc_imageon_iic_config3>:
    9a7c:	e92d4810 	push	{r4, fp, lr}
    9a80:	e28db008 	add	fp, sp, #8
    9a84:	e24dd024 	sub	sp, sp, #36	; 0x24
    9a88:	e50b0018 	str	r0, [fp, #-24]	; 0xffffffe8
    9a8c:	e50b101c 	str	r1, [fp, #-28]	; 0xffffffe4
    9a90:	e50b2020 	str	r2, [fp, #-32]	; 0xffffffe0
    9a94:	e3a03000 	mov	r3, #0
    9a98:	e50b3010 	str	r3, [fp, #-16]
    9a9c:	ea000023 	b	9b30 <fmc_imageon_iic_config3+0xb4>
    9aa0:	e51b3018 	ldr	r3, [fp, #-24]	; 0xffffffe8
    9aa4:	e5933024 	ldr	r3, [r3, #36]	; 0x24
    9aa8:	e5934054 	ldr	r4, [r3, #84]	; 0x54
    9aac:	e51b3018 	ldr	r3, [fp, #-24]	; 0xffffffe8
    9ab0:	e5930024 	ldr	r0, [r3, #36]	; 0x24
    9ab4:	e51b2010 	ldr	r2, [fp, #-16]
    9ab8:	e1a03002 	mov	r3, r2
    9abc:	e1a03083 	lsl	r3, r3, #1
    9ac0:	e0833002 	add	r3, r3, r2
    9ac4:	e51b201c 	ldr	r2, [fp, #-28]	; 0xffffffe4
    9ac8:	e0823003 	add	r3, r2, r3
    9acc:	e5d31000 	ldrb	r1, [r3]
    9ad0:	e51b2010 	ldr	r2, [fp, #-16]
    9ad4:	e1a03002 	mov	r3, r2
    9ad8:	e1a03083 	lsl	r3, r3, #1
    9adc:	e0833002 	add	r3, r3, r2
    9ae0:	e51b201c 	ldr	r2, [fp, #-28]	; 0xffffffe4
    9ae4:	e0823003 	add	r3, r2, r3
    9ae8:	e5d3e001 	ldrb	lr, [r3, #1]
    9aec:	e51b2010 	ldr	r2, [fp, #-16]
    9af0:	e1a03002 	mov	r3, r2
    9af4:	e1a03083 	lsl	r3, r3, #1
    9af8:	e0833002 	add	r3, r3, r2
    9afc:	e51b201c 	ldr	r2, [fp, #-28]	; 0xffffffe4
    9b00:	e0823003 	add	r3, r2, r3
    9b04:	e283c002 	add	ip, r3, #2
    9b08:	e3a03001 	mov	r3, #1
    9b0c:	e58d3000 	str	r3, [sp]
    9b10:	e1a0200e 	mov	r2, lr
    9b14:	e1a0300c 	mov	r3, ip
    9b18:	e12fff34 	blx	r4
    9b1c:	e1a03000 	mov	r3, r0
    9b20:	e54b3011 	strb	r3, [fp, #-17]	; 0xffffffef
    9b24:	e51b3010 	ldr	r3, [fp, #-16]
    9b28:	e2833001 	add	r3, r3, #1
    9b2c:	e50b3010 	str	r3, [fp, #-16]
    9b30:	e51b2010 	ldr	r2, [fp, #-16]
    9b34:	e51b3020 	ldr	r3, [fp, #-32]	; 0xffffffe0
    9b38:	e1520003 	cmp	r2, r3
    9b3c:	3affffd7 	bcc	9aa0 <fmc_imageon_iic_config3+0x24>
    9b40:	e24bd008 	sub	sp, fp, #8
    9b44:	e8bd8810 	pop	{r4, fp, pc}

00009b48 <fmc_imageon_vclk_init>:
    9b48:	e92d4810 	push	{r4, fp, lr}
    9b4c:	e28db008 	add	fp, sp, #8
    9b50:	e24dd01c 	sub	sp, sp, #28
    9b54:	e50b0018 	str	r0, [fp, #-24]	; 0xffffffe8
    9b58:	e51b0018 	ldr	r0, [fp, #-24]	; 0xffffffe8
    9b5c:	e3a01003 	mov	r1, #3
    9b60:	ebffff2e 	bl	9820 <fmc_imageon_iic_mux>
    9b64:	e3a03000 	mov	r3, #0
    9b68:	e50b3010 	str	r3, [fp, #-16]
    9b6c:	ea00001d 	b	9be8 <fmc_imageon_vclk_init+0xa0>
    9b70:	e51b3018 	ldr	r3, [fp, #-24]	; 0xffffffe8
    9b74:	e5933024 	ldr	r3, [r3, #36]	; 0x24
    9b78:	e5934054 	ldr	r4, [r3, #84]	; 0x54
    9b7c:	e51b3018 	ldr	r3, [fp, #-24]	; 0xffffffe8
    9b80:	e5931024 	ldr	r1, [r3, #36]	; 0x24
    9b84:	e30c3030 	movw	r3, #49200	; 0xc030
    9b88:	e3403001 	movt	r3, #1
    9b8c:	e51b2010 	ldr	r2, [fp, #-16]
    9b90:	e7d33082 	ldrb	r3, [r3, r2, lsl #1]
    9b94:	e1e03c83 	mvn	r3, r3, lsl #25
    9b98:	e1e03ca3 	mvn	r3, r3, lsr #25
    9b9c:	e6efe073 	uxtb	lr, r3
    9ba0:	e51b3010 	ldr	r3, [fp, #-16]
    9ba4:	e1a03083 	lsl	r3, r3, #1
    9ba8:	e2832001 	add	r2, r3, #1
    9bac:	e30c3030 	movw	r3, #49200	; 0xc030
    9bb0:	e3403001 	movt	r3, #1
    9bb4:	e082c003 	add	ip, r2, r3
    9bb8:	e3a03001 	mov	r3, #1
    9bbc:	e58d3000 	str	r3, [sp]
    9bc0:	e1a00001 	mov	r0, r1
    9bc4:	e3a01065 	mov	r1, #101	; 0x65
    9bc8:	e1a0200e 	mov	r2, lr
    9bcc:	e1a0300c 	mov	r3, ip
    9bd0:	e12fff34 	blx	r4
    9bd4:	e1a03000 	mov	r3, r0
    9bd8:	e54b3011 	strb	r3, [fp, #-17]	; 0xffffffef
    9bdc:	e51b3010 	ldr	r3, [fp, #-16]
    9be0:	e2833001 	add	r3, r3, #1
    9be4:	e50b3010 	str	r3, [fp, #-16]
    9be8:	e51b3010 	ldr	r3, [fp, #-16]
    9bec:	e353001f 	cmp	r3, #31
    9bf0:	daffffde 	ble	9b70 <fmc_imageon_vclk_init+0x28>
    9bf4:	e24bd008 	sub	sp, fp, #8
    9bf8:	e8bd8810 	pop	{r4, fp, pc}

00009bfc <fmc_imageon_vclk_config>:
    9bfc:	e92d4810 	push	{r4, fp, lr}
    9c00:	e28db008 	add	fp, sp, #8
    9c04:	e24dd01c 	sub	sp, sp, #28
    9c08:	e50b0018 	str	r0, [fp, #-24]	; 0xffffffe8
    9c0c:	e50b101c 	str	r1, [fp, #-28]	; 0xffffffe4
    9c10:	e51b0018 	ldr	r0, [fp, #-24]	; 0xffffffe8
    9c14:	e3a01003 	mov	r1, #3
    9c18:	ebffff00 	bl	9820 <fmc_imageon_iic_mux>
    9c1c:	e51b301c 	ldr	r3, [fp, #-28]	; 0xffffffe4
    9c20:	e3530007 	cmp	r3, #7
    9c24:	979ff103 	ldrls	pc, [pc, r3, lsl #2]
    9c28:	ea00012f 	b	a0ec <fmc_imageon_vclk_config+0x4f0>
    9c2c:	00009c4c 	andeq	r9, r0, ip, asr #24
    9c30:	00009ce0 	andeq	r9, r0, r0, ror #25
    9c34:	00009d74 	andeq	r9, r0, r4, ror sp
    9c38:	00009e08 	andeq	r9, r0, r8, lsl #28
    9c3c:	00009e9c 	muleq	r0, ip, lr
    9c40:	00009f30 	andeq	r9, r0, r0, lsr pc
    9c44:	00009fc4 	andeq	r9, r0, r4, asr #31
    9c48:	0000a058 	andeq	sl, r0, r8, asr r0
    9c4c:	e3a03000 	mov	r3, #0
    9c50:	e50b3010 	str	r3, [fp, #-16]
    9c54:	ea00001d 	b	9cd0 <fmc_imageon_vclk_config+0xd4>
    9c58:	e51b3018 	ldr	r3, [fp, #-24]	; 0xffffffe8
    9c5c:	e5933024 	ldr	r3, [r3, #36]	; 0x24
    9c60:	e5934054 	ldr	r4, [r3, #84]	; 0x54
    9c64:	e51b3018 	ldr	r3, [fp, #-24]	; 0xffffffe8
    9c68:	e5931024 	ldr	r1, [r3, #36]	; 0x24
    9c6c:	e30c3070 	movw	r3, #49264	; 0xc070
    9c70:	e3403001 	movt	r3, #1
    9c74:	e51b2010 	ldr	r2, [fp, #-16]
    9c78:	e7d33082 	ldrb	r3, [r3, r2, lsl #1]
    9c7c:	e1e03c83 	mvn	r3, r3, lsl #25
    9c80:	e1e03ca3 	mvn	r3, r3, lsr #25
    9c84:	e6efe073 	uxtb	lr, r3
    9c88:	e51b3010 	ldr	r3, [fp, #-16]
    9c8c:	e1a03083 	lsl	r3, r3, #1
    9c90:	e2832001 	add	r2, r3, #1
    9c94:	e30c3070 	movw	r3, #49264	; 0xc070
    9c98:	e3403001 	movt	r3, #1
    9c9c:	e082c003 	add	ip, r2, r3
    9ca0:	e3a03001 	mov	r3, #1
    9ca4:	e58d3000 	str	r3, [sp]
    9ca8:	e1a00001 	mov	r0, r1
    9cac:	e3a01065 	mov	r1, #101	; 0x65
    9cb0:	e1a0200e 	mov	r2, lr
    9cb4:	e1a0300c 	mov	r3, ip
    9cb8:	e12fff34 	blx	r4
    9cbc:	e1a03000 	mov	r3, r0
    9cc0:	e54b3011 	strb	r3, [fp, #-17]	; 0xffffffef
    9cc4:	e51b3010 	ldr	r3, [fp, #-16]
    9cc8:	e2833001 	add	r3, r3, #1
    9ccc:	e50b3010 	str	r3, [fp, #-16]
    9cd0:	e51b3010 	ldr	r3, [fp, #-16]
    9cd4:	e3530005 	cmp	r3, #5
    9cd8:	daffffde 	ble	9c58 <fmc_imageon_vclk_config+0x5c>
    9cdc:	ea000102 	b	a0ec <fmc_imageon_vclk_config+0x4f0>
    9ce0:	e3a03000 	mov	r3, #0
    9ce4:	e50b3010 	str	r3, [fp, #-16]
    9ce8:	ea00001d 	b	9d64 <fmc_imageon_vclk_config+0x168>
    9cec:	e51b3018 	ldr	r3, [fp, #-24]	; 0xffffffe8
    9cf0:	e5933024 	ldr	r3, [r3, #36]	; 0x24
    9cf4:	e5934054 	ldr	r4, [r3, #84]	; 0x54
    9cf8:	e51b3018 	ldr	r3, [fp, #-24]	; 0xffffffe8
    9cfc:	e5931024 	ldr	r1, [r3, #36]	; 0x24
    9d00:	e30c307c 	movw	r3, #49276	; 0xc07c
    9d04:	e3403001 	movt	r3, #1
    9d08:	e51b2010 	ldr	r2, [fp, #-16]
    9d0c:	e7d33082 	ldrb	r3, [r3, r2, lsl #1]
    9d10:	e1e03c83 	mvn	r3, r3, lsl #25
    9d14:	e1e03ca3 	mvn	r3, r3, lsr #25
    9d18:	e6efe073 	uxtb	lr, r3
    9d1c:	e51b3010 	ldr	r3, [fp, #-16]
    9d20:	e1a03083 	lsl	r3, r3, #1
    9d24:	e2832001 	add	r2, r3, #1
    9d28:	e30c307c 	movw	r3, #49276	; 0xc07c
    9d2c:	e3403001 	movt	r3, #1
    9d30:	e082c003 	add	ip, r2, r3
    9d34:	e3a03001 	mov	r3, #1
    9d38:	e58d3000 	str	r3, [sp]
    9d3c:	e1a00001 	mov	r0, r1
    9d40:	e3a01065 	mov	r1, #101	; 0x65
    9d44:	e1a0200e 	mov	r2, lr
    9d48:	e1a0300c 	mov	r3, ip
    9d4c:	e12fff34 	blx	r4
    9d50:	e1a03000 	mov	r3, r0
    9d54:	e54b3011 	strb	r3, [fp, #-17]	; 0xffffffef
    9d58:	e51b3010 	ldr	r3, [fp, #-16]
    9d5c:	e2833001 	add	r3, r3, #1
    9d60:	e50b3010 	str	r3, [fp, #-16]
    9d64:	e51b3010 	ldr	r3, [fp, #-16]
    9d68:	e3530005 	cmp	r3, #5
    9d6c:	daffffde 	ble	9cec <fmc_imageon_vclk_config+0xf0>
    9d70:	ea0000dd 	b	a0ec <fmc_imageon_vclk_config+0x4f0>
    9d74:	e3a03000 	mov	r3, #0
    9d78:	e50b3010 	str	r3, [fp, #-16]
    9d7c:	ea00001d 	b	9df8 <fmc_imageon_vclk_config+0x1fc>
    9d80:	e51b3018 	ldr	r3, [fp, #-24]	; 0xffffffe8
    9d84:	e5933024 	ldr	r3, [r3, #36]	; 0x24
    9d88:	e5934054 	ldr	r4, [r3, #84]	; 0x54
    9d8c:	e51b3018 	ldr	r3, [fp, #-24]	; 0xffffffe8
    9d90:	e5931024 	ldr	r1, [r3, #36]	; 0x24
    9d94:	e30c3088 	movw	r3, #49288	; 0xc088
    9d98:	e3403001 	movt	r3, #1
    9d9c:	e51b2010 	ldr	r2, [fp, #-16]
    9da0:	e7d33082 	ldrb	r3, [r3, r2, lsl #1]
    9da4:	e1e03c83 	mvn	r3, r3, lsl #25
    9da8:	e1e03ca3 	mvn	r3, r3, lsr #25
    9dac:	e6efe073 	uxtb	lr, r3
    9db0:	e51b3010 	ldr	r3, [fp, #-16]
    9db4:	e1a03083 	lsl	r3, r3, #1
    9db8:	e2832001 	add	r2, r3, #1
    9dbc:	e30c3088 	movw	r3, #49288	; 0xc088
    9dc0:	e3403001 	movt	r3, #1
    9dc4:	e082c003 	add	ip, r2, r3
    9dc8:	e3a03001 	mov	r3, #1
    9dcc:	e58d3000 	str	r3, [sp]
    9dd0:	e1a00001 	mov	r0, r1
    9dd4:	e3a01065 	mov	r1, #101	; 0x65
    9dd8:	e1a0200e 	mov	r2, lr
    9ddc:	e1a0300c 	mov	r3, ip
    9de0:	e12fff34 	blx	r4
    9de4:	e1a03000 	mov	r3, r0
    9de8:	e54b3011 	strb	r3, [fp, #-17]	; 0xffffffef
    9dec:	e51b3010 	ldr	r3, [fp, #-16]
    9df0:	e2833001 	add	r3, r3, #1
    9df4:	e50b3010 	str	r3, [fp, #-16]
    9df8:	e51b3010 	ldr	r3, [fp, #-16]
    9dfc:	e3530005 	cmp	r3, #5
    9e00:	daffffde 	ble	9d80 <fmc_imageon_vclk_config+0x184>
    9e04:	ea0000b8 	b	a0ec <fmc_imageon_vclk_config+0x4f0>
    9e08:	e3a03000 	mov	r3, #0
    9e0c:	e50b3010 	str	r3, [fp, #-16]
    9e10:	ea00001d 	b	9e8c <fmc_imageon_vclk_config+0x290>
    9e14:	e51b3018 	ldr	r3, [fp, #-24]	; 0xffffffe8
    9e18:	e5933024 	ldr	r3, [r3, #36]	; 0x24
    9e1c:	e5934054 	ldr	r4, [r3, #84]	; 0x54
    9e20:	e51b3018 	ldr	r3, [fp, #-24]	; 0xffffffe8
    9e24:	e5931024 	ldr	r1, [r3, #36]	; 0x24
    9e28:	e30c3094 	movw	r3, #49300	; 0xc094
    9e2c:	e3403001 	movt	r3, #1
    9e30:	e51b2010 	ldr	r2, [fp, #-16]
    9e34:	e7d33082 	ldrb	r3, [r3, r2, lsl #1]
    9e38:	e1e03c83 	mvn	r3, r3, lsl #25
    9e3c:	e1e03ca3 	mvn	r3, r3, lsr #25
    9e40:	e6efe073 	uxtb	lr, r3
    9e44:	e51b3010 	ldr	r3, [fp, #-16]
    9e48:	e1a03083 	lsl	r3, r3, #1
    9e4c:	e2832001 	add	r2, r3, #1
    9e50:	e30c3094 	movw	r3, #49300	; 0xc094
    9e54:	e3403001 	movt	r3, #1
    9e58:	e082c003 	add	ip, r2, r3
    9e5c:	e3a03001 	mov	r3, #1
    9e60:	e58d3000 	str	r3, [sp]
    9e64:	e1a00001 	mov	r0, r1
    9e68:	e3a01065 	mov	r1, #101	; 0x65
    9e6c:	e1a0200e 	mov	r2, lr
    9e70:	e1a0300c 	mov	r3, ip
    9e74:	e12fff34 	blx	r4
    9e78:	e1a03000 	mov	r3, r0
    9e7c:	e54b3011 	strb	r3, [fp, #-17]	; 0xffffffef
    9e80:	e51b3010 	ldr	r3, [fp, #-16]
    9e84:	e2833001 	add	r3, r3, #1
    9e88:	e50b3010 	str	r3, [fp, #-16]
    9e8c:	e51b3010 	ldr	r3, [fp, #-16]
    9e90:	e3530005 	cmp	r3, #5
    9e94:	daffffde 	ble	9e14 <fmc_imageon_vclk_config+0x218>
    9e98:	ea000093 	b	a0ec <fmc_imageon_vclk_config+0x4f0>
    9e9c:	e3a03000 	mov	r3, #0
    9ea0:	e50b3010 	str	r3, [fp, #-16]
    9ea4:	ea00001d 	b	9f20 <fmc_imageon_vclk_config+0x324>
    9ea8:	e51b3018 	ldr	r3, [fp, #-24]	; 0xffffffe8
    9eac:	e5933024 	ldr	r3, [r3, #36]	; 0x24
    9eb0:	e5934054 	ldr	r4, [r3, #84]	; 0x54
    9eb4:	e51b3018 	ldr	r3, [fp, #-24]	; 0xffffffe8
    9eb8:	e5931024 	ldr	r1, [r3, #36]	; 0x24
    9ebc:	e30c30a0 	movw	r3, #49312	; 0xc0a0
    9ec0:	e3403001 	movt	r3, #1
    9ec4:	e51b2010 	ldr	r2, [fp, #-16]
    9ec8:	e7d33082 	ldrb	r3, [r3, r2, lsl #1]
    9ecc:	e1e03c83 	mvn	r3, r3, lsl #25
    9ed0:	e1e03ca3 	mvn	r3, r3, lsr #25
    9ed4:	e6efe073 	uxtb	lr, r3
    9ed8:	e51b3010 	ldr	r3, [fp, #-16]
    9edc:	e1a03083 	lsl	r3, r3, #1
    9ee0:	e2832001 	add	r2, r3, #1
    9ee4:	e30c30a0 	movw	r3, #49312	; 0xc0a0
    9ee8:	e3403001 	movt	r3, #1
    9eec:	e082c003 	add	ip, r2, r3
    9ef0:	e3a03001 	mov	r3, #1
    9ef4:	e58d3000 	str	r3, [sp]
    9ef8:	e1a00001 	mov	r0, r1
    9efc:	e3a01065 	mov	r1, #101	; 0x65
    9f00:	e1a0200e 	mov	r2, lr
    9f04:	e1a0300c 	mov	r3, ip
    9f08:	e12fff34 	blx	r4
    9f0c:	e1a03000 	mov	r3, r0
    9f10:	e54b3011 	strb	r3, [fp, #-17]	; 0xffffffef
    9f14:	e51b3010 	ldr	r3, [fp, #-16]
    9f18:	e2833001 	add	r3, r3, #1
    9f1c:	e50b3010 	str	r3, [fp, #-16]
    9f20:	e51b3010 	ldr	r3, [fp, #-16]
    9f24:	e3530005 	cmp	r3, #5
    9f28:	daffffde 	ble	9ea8 <fmc_imageon_vclk_config+0x2ac>
    9f2c:	ea00006e 	b	a0ec <fmc_imageon_vclk_config+0x4f0>
    9f30:	e3a03000 	mov	r3, #0
    9f34:	e50b3010 	str	r3, [fp, #-16]
    9f38:	ea00001d 	b	9fb4 <fmc_imageon_vclk_config+0x3b8>
    9f3c:	e51b3018 	ldr	r3, [fp, #-24]	; 0xffffffe8
    9f40:	e5933024 	ldr	r3, [r3, #36]	; 0x24
    9f44:	e5934054 	ldr	r4, [r3, #84]	; 0x54
    9f48:	e51b3018 	ldr	r3, [fp, #-24]	; 0xffffffe8
    9f4c:	e5931024 	ldr	r1, [r3, #36]	; 0x24
    9f50:	e30c30ac 	movw	r3, #49324	; 0xc0ac
    9f54:	e3403001 	movt	r3, #1
    9f58:	e51b2010 	ldr	r2, [fp, #-16]
    9f5c:	e7d33082 	ldrb	r3, [r3, r2, lsl #1]
    9f60:	e1e03c83 	mvn	r3, r3, lsl #25
    9f64:	e1e03ca3 	mvn	r3, r3, lsr #25
    9f68:	e6efe073 	uxtb	lr, r3
    9f6c:	e51b3010 	ldr	r3, [fp, #-16]
    9f70:	e1a03083 	lsl	r3, r3, #1
    9f74:	e2832001 	add	r2, r3, #1
    9f78:	e30c30ac 	movw	r3, #49324	; 0xc0ac
    9f7c:	e3403001 	movt	r3, #1
    9f80:	e082c003 	add	ip, r2, r3
    9f84:	e3a03001 	mov	r3, #1
    9f88:	e58d3000 	str	r3, [sp]
    9f8c:	e1a00001 	mov	r0, r1
    9f90:	e3a01065 	mov	r1, #101	; 0x65
    9f94:	e1a0200e 	mov	r2, lr
    9f98:	e1a0300c 	mov	r3, ip
    9f9c:	e12fff34 	blx	r4
    9fa0:	e1a03000 	mov	r3, r0
    9fa4:	e54b3011 	strb	r3, [fp, #-17]	; 0xffffffef
    9fa8:	e51b3010 	ldr	r3, [fp, #-16]
    9fac:	e2833001 	add	r3, r3, #1
    9fb0:	e50b3010 	str	r3, [fp, #-16]
    9fb4:	e51b3010 	ldr	r3, [fp, #-16]
    9fb8:	e3530005 	cmp	r3, #5
    9fbc:	daffffde 	ble	9f3c <fmc_imageon_vclk_config+0x340>
    9fc0:	ea000049 	b	a0ec <fmc_imageon_vclk_config+0x4f0>
    9fc4:	e3a03000 	mov	r3, #0
    9fc8:	e50b3010 	str	r3, [fp, #-16]
    9fcc:	ea00001d 	b	a048 <fmc_imageon_vclk_config+0x44c>
    9fd0:	e51b3018 	ldr	r3, [fp, #-24]	; 0xffffffe8
    9fd4:	e5933024 	ldr	r3, [r3, #36]	; 0x24
    9fd8:	e5934054 	ldr	r4, [r3, #84]	; 0x54
    9fdc:	e51b3018 	ldr	r3, [fp, #-24]	; 0xffffffe8
    9fe0:	e5931024 	ldr	r1, [r3, #36]	; 0x24
    9fe4:	e30c30b8 	movw	r3, #49336	; 0xc0b8
    9fe8:	e3403001 	movt	r3, #1
    9fec:	e51b2010 	ldr	r2, [fp, #-16]
    9ff0:	e7d33082 	ldrb	r3, [r3, r2, lsl #1]
    9ff4:	e1e03c83 	mvn	r3, r3, lsl #25
    9ff8:	e1e03ca3 	mvn	r3, r3, lsr #25
    9ffc:	e6efe073 	uxtb	lr, r3
    a000:	e51b3010 	ldr	r3, [fp, #-16]
    a004:	e1a03083 	lsl	r3, r3, #1
    a008:	e2832001 	add	r2, r3, #1
    a00c:	e30c30b8 	movw	r3, #49336	; 0xc0b8
    a010:	e3403001 	movt	r3, #1
    a014:	e082c003 	add	ip, r2, r3
    a018:	e3a03001 	mov	r3, #1
    a01c:	e58d3000 	str	r3, [sp]
    a020:	e1a00001 	mov	r0, r1
    a024:	e3a01065 	mov	r1, #101	; 0x65
    a028:	e1a0200e 	mov	r2, lr
    a02c:	e1a0300c 	mov	r3, ip
    a030:	e12fff34 	blx	r4
    a034:	e1a03000 	mov	r3, r0
    a038:	e54b3011 	strb	r3, [fp, #-17]	; 0xffffffef
    a03c:	e51b3010 	ldr	r3, [fp, #-16]
    a040:	e2833001 	add	r3, r3, #1
    a044:	e50b3010 	str	r3, [fp, #-16]
    a048:	e51b3010 	ldr	r3, [fp, #-16]
    a04c:	e3530005 	cmp	r3, #5
    a050:	daffffde 	ble	9fd0 <fmc_imageon_vclk_config+0x3d4>
    a054:	ea000024 	b	a0ec <fmc_imageon_vclk_config+0x4f0>
    a058:	e3a03000 	mov	r3, #0
    a05c:	e50b3010 	str	r3, [fp, #-16]
    a060:	ea00001d 	b	a0dc <fmc_imageon_vclk_config+0x4e0>
    a064:	e51b3018 	ldr	r3, [fp, #-24]	; 0xffffffe8
    a068:	e5933024 	ldr	r3, [r3, #36]	; 0x24
    a06c:	e5934054 	ldr	r4, [r3, #84]	; 0x54
    a070:	e51b3018 	ldr	r3, [fp, #-24]	; 0xffffffe8
    a074:	e5931024 	ldr	r1, [r3, #36]	; 0x24
    a078:	e30c30c4 	movw	r3, #49348	; 0xc0c4
    a07c:	e3403001 	movt	r3, #1
    a080:	e51b2010 	ldr	r2, [fp, #-16]
    a084:	e7d33082 	ldrb	r3, [r3, r2, lsl #1]
    a088:	e1e03c83 	mvn	r3, r3, lsl #25
    a08c:	e1e03ca3 	mvn	r3, r3, lsr #25
    a090:	e6efe073 	uxtb	lr, r3
    a094:	e51b3010 	ldr	r3, [fp, #-16]
    a098:	e1a03083 	lsl	r3, r3, #1
    a09c:	e2832001 	add	r2, r3, #1
    a0a0:	e30c30c4 	movw	r3, #49348	; 0xc0c4
    a0a4:	e3403001 	movt	r3, #1
    a0a8:	e082c003 	add	ip, r2, r3
    a0ac:	e3a03001 	mov	r3, #1
    a0b0:	e58d3000 	str	r3, [sp]
    a0b4:	e1a00001 	mov	r0, r1
    a0b8:	e3a01065 	mov	r1, #101	; 0x65
    a0bc:	e1a0200e 	mov	r2, lr
    a0c0:	e1a0300c 	mov	r3, ip
    a0c4:	e12fff34 	blx	r4
    a0c8:	e1a03000 	mov	r3, r0
    a0cc:	e54b3011 	strb	r3, [fp, #-17]	; 0xffffffef
    a0d0:	e51b3010 	ldr	r3, [fp, #-16]
    a0d4:	e2833001 	add	r3, r3, #1
    a0d8:	e50b3010 	str	r3, [fp, #-16]
    a0dc:	e51b3010 	ldr	r3, [fp, #-16]
    a0e0:	e3530005 	cmp	r3, #5
    a0e4:	daffffde 	ble	a064 <fmc_imageon_vclk_config+0x468>
    a0e8:	e1a00000 	nop			; (mov r0, r0)
    a0ec:	e24bd008 	sub	sp, fp, #8
    a0f0:	e8bd8810 	pop	{r4, fp, pc}

0000a0f4 <fmc_imageon_hdmii_init2>:
    a0f4:	e92d4800 	push	{fp, lr}
    a0f8:	e28db004 	add	fp, sp, #4
    a0fc:	e24dd010 	sub	sp, sp, #16
    a100:	e50b0008 	str	r0, [fp, #-8]
    a104:	e50b100c 	str	r1, [fp, #-12]
    a108:	e50b2010 	str	r2, [fp, #-16]
    a10c:	e50b3014 	str	r3, [fp, #-20]	; 0xffffffec
    a110:	e30b0330 	movw	r0, #45872	; 0xb330
    a114:	e3400001 	movt	r0, #1
    a118:	e59b1004 	ldr	r1, [fp, #4]
    a11c:	ebfff5a9 	bl	77c8 <printf>
    a120:	e30c3100 	movw	r3, #49408	; 0xc100
    a124:	e3403001 	movt	r3, #1
    a128:	e5d3301e 	ldrb	r3, [r3, #30]
    a12c:	e1a01003 	mov	r1, r3
    a130:	e30c3100 	movw	r3, #49408	; 0xc100
    a134:	e3403001 	movt	r3, #1
    a138:	e5d3301f 	ldrb	r3, [r3, #31]
    a13c:	e1a02003 	mov	r2, r3
    a140:	e30c3100 	movw	r3, #49408	; 0xc100
    a144:	e3403001 	movt	r3, #1
    a148:	e5d33020 	ldrb	r3, [r3, #32]
    a14c:	e30b0344 	movw	r0, #45892	; 0xb344
    a150:	e3400001 	movt	r0, #1
    a154:	ebfff59b 	bl	77c8 <printf>
    a158:	e30c3100 	movw	r3, #49408	; 0xc100
    a15c:	e3403001 	movt	r3, #1
    a160:	e5d33020 	ldrb	r3, [r3, #32]
    a164:	e3c33001 	bic	r3, r3, #1
    a168:	e6ef2073 	uxtb	r2, r3
    a16c:	e30c3100 	movw	r3, #49408	; 0xc100
    a170:	e3403001 	movt	r3, #1
    a174:	e5c32020 	strb	r2, [r3, #32]
    a178:	e30c3100 	movw	r3, #49408	; 0xc100
    a17c:	e3403001 	movt	r3, #1
    a180:	e5d32020 	ldrb	r2, [r3, #32]
    a184:	e59b3004 	ldr	r3, [fp, #4]
    a188:	e6ef3073 	uxtb	r3, r3
    a18c:	e2033001 	and	r3, r3, #1
    a190:	e6ef3073 	uxtb	r3, r3
    a194:	e1823003 	orr	r3, r2, r3
    a198:	e6ef2073 	uxtb	r2, r3
    a19c:	e30c3100 	movw	r3, #49408	; 0xc100
    a1a0:	e3403001 	movt	r3, #1
    a1a4:	e5c32020 	strb	r2, [r3, #32]
    a1a8:	e30c3100 	movw	r3, #49408	; 0xc100
    a1ac:	e3403001 	movt	r3, #1
    a1b0:	e5d3301e 	ldrb	r3, [r3, #30]
    a1b4:	e1a01003 	mov	r1, r3
    a1b8:	e30c3100 	movw	r3, #49408	; 0xc100
    a1bc:	e3403001 	movt	r3, #1
    a1c0:	e5d3301f 	ldrb	r3, [r3, #31]
    a1c4:	e1a02003 	mov	r2, r3
    a1c8:	e30c3100 	movw	r3, #49408	; 0xc100
    a1cc:	e3403001 	movt	r3, #1
    a1d0:	e5d33020 	ldrb	r3, [r3, #32]
    a1d4:	e30b0380 	movw	r0, #45952	; 0xb380
    a1d8:	e3400001 	movt	r0, #1
    a1dc:	ebfff579 	bl	77c8 <printf>
    a1e0:	e30b03bc 	movw	r0, #46012	; 0xb3bc
    a1e4:	e3400001 	movt	r0, #1
    a1e8:	e59b1008 	ldr	r1, [fp, #8]
    a1ec:	ebfff575 	bl	77c8 <printf>
    a1f0:	e30c3100 	movw	r3, #49408	; 0xc100
    a1f4:	e3403001 	movt	r3, #1
    a1f8:	e5d33021 	ldrb	r3, [r3, #33]	; 0x21
    a1fc:	e1a01003 	mov	r1, r3
    a200:	e30c3100 	movw	r3, #49408	; 0xc100
    a204:	e3403001 	movt	r3, #1
    a208:	e5d33022 	ldrb	r3, [r3, #34]	; 0x22
    a20c:	e1a02003 	mov	r2, r3
    a210:	e30c3100 	movw	r3, #49408	; 0xc100
    a214:	e3403001 	movt	r3, #1
    a218:	e5d33023 	ldrb	r3, [r3, #35]	; 0x23
    a21c:	e30b03d0 	movw	r0, #46032	; 0xb3d0
    a220:	e3400001 	movt	r0, #1
    a224:	ebfff567 	bl	77c8 <printf>
    a228:	e30c3100 	movw	r3, #49408	; 0xc100
    a22c:	e3403001 	movt	r3, #1
    a230:	e5d33023 	ldrb	r3, [r3, #35]	; 0x23
    a234:	e3c3307f 	bic	r3, r3, #127	; 0x7f
    a238:	e6ef2073 	uxtb	r2, r3
    a23c:	e30c3100 	movw	r3, #49408	; 0xc100
    a240:	e3403001 	movt	r3, #1
    a244:	e5c32023 	strb	r2, [r3, #35]	; 0x23
    a248:	e30c3100 	movw	r3, #49408	; 0xc100
    a24c:	e3403001 	movt	r3, #1
    a250:	e5d32023 	ldrb	r2, [r3, #35]	; 0x23
    a254:	e59b3008 	ldr	r3, [fp, #8]
    a258:	e6ef3073 	uxtb	r3, r3
    a25c:	e203301f 	and	r3, r3, #31
    a260:	e6ef3073 	uxtb	r3, r3
    a264:	e1823003 	orr	r3, r2, r3
    a268:	e6ef2073 	uxtb	r2, r3
    a26c:	e30c3100 	movw	r3, #49408	; 0xc100
    a270:	e3403001 	movt	r3, #1
    a274:	e5c32023 	strb	r2, [r3, #35]	; 0x23
    a278:	e30c3100 	movw	r3, #49408	; 0xc100
    a27c:	e3403001 	movt	r3, #1
    a280:	e5d33021 	ldrb	r3, [r3, #33]	; 0x21
    a284:	e1a01003 	mov	r1, r3
    a288:	e30c3100 	movw	r3, #49408	; 0xc100
    a28c:	e3403001 	movt	r3, #1
    a290:	e5d33022 	ldrb	r3, [r3, #34]	; 0x22
    a294:	e1a02003 	mov	r2, r3
    a298:	e30c3100 	movw	r3, #49408	; 0xc100
    a29c:	e3403001 	movt	r3, #1
    a2a0:	e5d33023 	ldrb	r3, [r3, #35]	; 0x23
    a2a4:	e30b040c 	movw	r0, #46092	; 0xb40c
    a2a8:	e3400001 	movt	r0, #1
    a2ac:	ebfff545 	bl	77c8 <printf>
    a2b0:	e51b0008 	ldr	r0, [fp, #-8]
    a2b4:	e51b100c 	ldr	r1, [fp, #-12]
    a2b8:	e51b2010 	ldr	r2, [fp, #-16]
    a2bc:	e51b3014 	ldr	r3, [fp, #-20]	; 0xffffffec
    a2c0:	eb000002 	bl	a2d0 <fmc_imageon_hdmii_init>
    a2c4:	e1a00003 	mov	r0, r3
    a2c8:	e24bd004 	sub	sp, fp, #4
    a2cc:	e8bd8800 	pop	{fp, pc}

0000a2d0 <fmc_imageon_hdmii_init>:
    a2d0:	e92d4800 	push	{fp, lr}
    a2d4:	e28db004 	add	fp, sp, #4
    a2d8:	e24dd010 	sub	sp, sp, #16
    a2dc:	e50b0008 	str	r0, [fp, #-8]
    a2e0:	e50b100c 	str	r1, [fp, #-12]
    a2e4:	e50b2010 	str	r2, [fp, #-16]
    a2e8:	e50b3014 	str	r3, [fp, #-20]	; 0xffffffec
    a2ec:	e51b300c 	ldr	r3, [fp, #-12]
    a2f0:	e3530000 	cmp	r3, #0
    a2f4:	1a00000c 	bne	a32c <fmc_imageon_hdmii_init+0x5c>
    a2f8:	e51b0008 	ldr	r0, [fp, #-8]
    a2fc:	e3a01000 	mov	r1, #0
    a300:	eb000045 	bl	a41c <fmc_imageon_hdmii_set_hpd>
    a304:	e3040240 	movw	r0, #16960	; 0x4240
    a308:	e340000f 	movt	r0, #15
    a30c:	eb0003f0 	bl	b2d4 <fmc_imageon_wait_usec>
    a310:	e51b0008 	ldr	r0, [fp, #-8]
    a314:	e3a01001 	mov	r1, #1
    a318:	eb000077 	bl	a4fc <fmc_imageon_hdmii_set_rst>
    a31c:	e3040240 	movw	r0, #16960	; 0x4240
    a320:	e340000f 	movt	r0, #15
    a324:	eb0003ea 	bl	b2d4 <fmc_imageon_wait_usec>
    a328:	ea000037 	b	a40c <fmc_imageon_hdmii_init+0x13c>
    a32c:	e51b0008 	ldr	r0, [fp, #-8]
    a330:	e3a01000 	mov	r1, #0
    a334:	eb000038 	bl	a41c <fmc_imageon_hdmii_set_hpd>
    a338:	e3040240 	movw	r0, #16960	; 0x4240
    a33c:	e340000f 	movt	r0, #15
    a340:	eb0003e3 	bl	b2d4 <fmc_imageon_wait_usec>
    a344:	e51b0008 	ldr	r0, [fp, #-8]
    a348:	e3a01000 	mov	r1, #0
    a34c:	eb00006a 	bl	a4fc <fmc_imageon_hdmii_set_rst>
    a350:	e3040240 	movw	r0, #16960	; 0x4240
    a354:	e340000f 	movt	r0, #15
    a358:	eb0003dd 	bl	b2d4 <fmc_imageon_wait_usec>
    a35c:	e51b0008 	ldr	r0, [fp, #-8]
    a360:	e3a01002 	mov	r1, #2
    a364:	ebfffd2d 	bl	9820 <fmc_imageon_iic_mux>
    a368:	e51b0008 	ldr	r0, [fp, #-8]
    a36c:	e30c10d4 	movw	r1, #49364	; 0xc0d4
    a370:	e3401001 	movt	r1, #1
    a374:	e3a02007 	mov	r2, #7
    a378:	ebfffdbf 	bl	9a7c <fmc_imageon_iic_config3>
    a37c:	e51b3010 	ldr	r3, [fp, #-16]
    a380:	e3530000 	cmp	r3, #0
    a384:	0a000002 	beq	a394 <fmc_imageon_hdmii_init+0xc4>
    a388:	e51b0008 	ldr	r0, [fp, #-8]
    a38c:	e51b1014 	ldr	r1, [fp, #-20]	; 0xffffffec
    a390:	eb00036b 	bl	b144 <fmc_imageon_hdmii_write_edid>
    a394:	e51b0008 	ldr	r0, [fp, #-8]
    a398:	e30c10f0 	movw	r1, #49392	; 0xc0f0
    a39c:	e3401001 	movt	r1, #1
    a3a0:	e3a02005 	mov	r2, #5
    a3a4:	ebfffdb4 	bl	9a7c <fmc_imageon_iic_config3>
    a3a8:	e51b0008 	ldr	r0, [fp, #-8]
    a3ac:	e3a01001 	mov	r1, #1
    a3b0:	eb000019 	bl	a41c <fmc_imageon_hdmii_set_hpd>
    a3b4:	e3040240 	movw	r0, #16960	; 0x4240
    a3b8:	e340000f 	movt	r0, #15
    a3bc:	eb0003c4 	bl	b2d4 <fmc_imageon_wait_usec>
    a3c0:	e51b0008 	ldr	r0, [fp, #-8]
    a3c4:	e3a01002 	mov	r1, #2
    a3c8:	ebfffd14 	bl	9820 <fmc_imageon_iic_mux>
    a3cc:	e51b0008 	ldr	r0, [fp, #-8]
    a3d0:	e30c1100 	movw	r1, #49408	; 0xc100
    a3d4:	e3401001 	movt	r1, #1
    a3d8:	e3a0202a 	mov	r2, #42	; 0x2a
    a3dc:	ebfffda6 	bl	9a7c <fmc_imageon_iic_config3>
    a3e0:	e51b0008 	ldr	r0, [fp, #-8]
    a3e4:	e3a01002 	mov	r1, #2
    a3e8:	ebfffd0c 	bl	9820 <fmc_imageon_iic_mux>
    a3ec:	e51b0008 	ldr	r0, [fp, #-8]
    a3f0:	e30c1180 	movw	r1, #49536	; 0xc180
    a3f4:	e3401001 	movt	r1, #1
    a3f8:	e3a02002 	mov	r2, #2
    a3fc:	ebfffd9e 	bl	9a7c <fmc_imageon_iic_config3>
    a400:	e30806a0 	movw	r0, #34464	; 0x86a0
    a404:	e3400001 	movt	r0, #1
    a408:	eb0003b1 	bl	b2d4 <fmc_imageon_wait_usec>
    a40c:	e3a03001 	mov	r3, #1
    a410:	e1a00003 	mov	r0, r3
    a414:	e24bd004 	sub	sp, fp, #4
    a418:	e8bd8800 	pop	{fp, pc}

0000a41c <fmc_imageon_hdmii_set_hpd>:
    a41c:	e92d4810 	push	{r4, fp, lr}
    a420:	e28db008 	add	fp, sp, #8
    a424:	e24dd01c 	sub	sp, sp, #28
    a428:	e50b0018 	str	r0, [fp, #-24]	; 0xffffffe8
    a42c:	e50b101c 	str	r1, [fp, #-28]	; 0xffffffe4
    a430:	e51b0018 	ldr	r0, [fp, #-24]	; 0xffffffe8
    a434:	e3a01003 	mov	r1, #3
    a438:	ebfffcf8 	bl	9820 <fmc_imageon_iic_mux>
    a43c:	e3a03001 	mov	r3, #1
    a440:	e54b300d 	strb	r3, [fp, #-13]
    a444:	e51b3018 	ldr	r3, [fp, #-24]	; 0xffffffe8
    a448:	e5933024 	ldr	r3, [r3, #36]	; 0x24
    a44c:	e5934050 	ldr	r4, [r3, #80]	; 0x50
    a450:	e51b3018 	ldr	r3, [fp, #-24]	; 0xffffffe8
    a454:	e5931024 	ldr	r1, [r3, #36]	; 0x24
    a458:	e55b200d 	ldrb	r2, [fp, #-13]
    a45c:	e24bc00f 	sub	ip, fp, #15
    a460:	e3a03001 	mov	r3, #1
    a464:	e58d3000 	str	r3, [sp]
    a468:	e1a00001 	mov	r0, r1
    a46c:	e3a01020 	mov	r1, #32
    a470:	e1a0300c 	mov	r3, ip
    a474:	e12fff34 	blx	r4
    a478:	e1a03000 	mov	r3, r0
    a47c:	e54b300e 	strb	r3, [fp, #-14]
    a480:	e51b301c 	ldr	r3, [fp, #-28]	; 0xffffffe4
    a484:	e3530000 	cmp	r3, #0
    a488:	0a000004 	beq	a4a0 <fmc_imageon_hdmii_set_hpd+0x84>
    a48c:	e55b300f 	ldrb	r3, [fp, #-15]
    a490:	e3833004 	orr	r3, r3, #4
    a494:	e6ef3073 	uxtb	r3, r3
    a498:	e54b300f 	strb	r3, [fp, #-15]
    a49c:	ea000003 	b	a4b0 <fmc_imageon_hdmii_set_hpd+0x94>
    a4a0:	e55b300f 	ldrb	r3, [fp, #-15]
    a4a4:	e3c33004 	bic	r3, r3, #4
    a4a8:	e6ef3073 	uxtb	r3, r3
    a4ac:	e54b300f 	strb	r3, [fp, #-15]
    a4b0:	e51b3018 	ldr	r3, [fp, #-24]	; 0xffffffe8
    a4b4:	e5933024 	ldr	r3, [r3, #36]	; 0x24
    a4b8:	e5934054 	ldr	r4, [r3, #84]	; 0x54
    a4bc:	e51b3018 	ldr	r3, [fp, #-24]	; 0xffffffe8
    a4c0:	e5931024 	ldr	r1, [r3, #36]	; 0x24
    a4c4:	e55b200d 	ldrb	r2, [fp, #-13]
    a4c8:	e24bc00f 	sub	ip, fp, #15
    a4cc:	e3a03001 	mov	r3, #1
    a4d0:	e58d3000 	str	r3, [sp]
    a4d4:	e1a00001 	mov	r0, r1
    a4d8:	e3a01020 	mov	r1, #32
    a4dc:	e1a0300c 	mov	r3, ip
    a4e0:	e12fff34 	blx	r4
    a4e4:	e1a03000 	mov	r3, r0
    a4e8:	e54b300e 	strb	r3, [fp, #-14]
    a4ec:	e3a03001 	mov	r3, #1
    a4f0:	e1a00003 	mov	r0, r3
    a4f4:	e24bd008 	sub	sp, fp, #8
    a4f8:	e8bd8810 	pop	{r4, fp, pc}

0000a4fc <fmc_imageon_hdmii_set_rst>:
    a4fc:	e92d4810 	push	{r4, fp, lr}
    a500:	e28db008 	add	fp, sp, #8
    a504:	e24dd01c 	sub	sp, sp, #28
    a508:	e50b0018 	str	r0, [fp, #-24]	; 0xffffffe8
    a50c:	e50b101c 	str	r1, [fp, #-28]	; 0xffffffe4
    a510:	e51b0018 	ldr	r0, [fp, #-24]	; 0xffffffe8
    a514:	e3a01003 	mov	r1, #3
    a518:	ebfffcc0 	bl	9820 <fmc_imageon_iic_mux>
    a51c:	e3a03001 	mov	r3, #1
    a520:	e54b300d 	strb	r3, [fp, #-13]
    a524:	e51b3018 	ldr	r3, [fp, #-24]	; 0xffffffe8
    a528:	e5933024 	ldr	r3, [r3, #36]	; 0x24
    a52c:	e5934050 	ldr	r4, [r3, #80]	; 0x50
    a530:	e51b3018 	ldr	r3, [fp, #-24]	; 0xffffffe8
    a534:	e5931024 	ldr	r1, [r3, #36]	; 0x24
    a538:	e55b200d 	ldrb	r2, [fp, #-13]
    a53c:	e24bc00f 	sub	ip, fp, #15
    a540:	e3a03001 	mov	r3, #1
    a544:	e58d3000 	str	r3, [sp]
    a548:	e1a00001 	mov	r0, r1
    a54c:	e3a01020 	mov	r1, #32
    a550:	e1a0300c 	mov	r3, ip
    a554:	e12fff34 	blx	r4
    a558:	e1a03000 	mov	r3, r0
    a55c:	e54b300e 	strb	r3, [fp, #-14]
    a560:	e51b301c 	ldr	r3, [fp, #-28]	; 0xffffffe4
    a564:	e3530000 	cmp	r3, #0
    a568:	0a000004 	beq	a580 <fmc_imageon_hdmii_set_rst+0x84>
    a56c:	e55b300f 	ldrb	r3, [fp, #-15]
    a570:	e3c33001 	bic	r3, r3, #1
    a574:	e6ef3073 	uxtb	r3, r3
    a578:	e54b300f 	strb	r3, [fp, #-15]
    a57c:	ea000003 	b	a590 <fmc_imageon_hdmii_set_rst+0x94>
    a580:	e55b300f 	ldrb	r3, [fp, #-15]
    a584:	e3833001 	orr	r3, r3, #1
    a588:	e6ef3073 	uxtb	r3, r3
    a58c:	e54b300f 	strb	r3, [fp, #-15]
    a590:	e51b3018 	ldr	r3, [fp, #-24]	; 0xffffffe8
    a594:	e5933024 	ldr	r3, [r3, #36]	; 0x24
    a598:	e5934054 	ldr	r4, [r3, #84]	; 0x54
    a59c:	e51b3018 	ldr	r3, [fp, #-24]	; 0xffffffe8
    a5a0:	e5931024 	ldr	r1, [r3, #36]	; 0x24
    a5a4:	e55b200d 	ldrb	r2, [fp, #-13]
    a5a8:	e24bc00f 	sub	ip, fp, #15
    a5ac:	e3a03001 	mov	r3, #1
    a5b0:	e58d3000 	str	r3, [sp]
    a5b4:	e1a00001 	mov	r0, r1
    a5b8:	e3a01020 	mov	r1, #32
    a5bc:	e1a0300c 	mov	r3, ip
    a5c0:	e12fff34 	blx	r4
    a5c4:	e1a03000 	mov	r3, r0
    a5c8:	e54b300e 	strb	r3, [fp, #-14]
    a5cc:	e3a03001 	mov	r3, #1
    a5d0:	e1a00003 	mov	r0, r3
    a5d4:	e24bd008 	sub	sp, fp, #8
    a5d8:	e8bd8810 	pop	{r4, fp, pc}

0000a5dc <fmc_imageon_hdmii_get_int>:
    a5dc:	e92d4810 	push	{r4, fp, lr}
    a5e0:	e28db008 	add	fp, sp, #8
    a5e4:	e24dd01c 	sub	sp, sp, #28
    a5e8:	e50b0018 	str	r0, [fp, #-24]	; 0xffffffe8
    a5ec:	e50b101c 	str	r1, [fp, #-28]	; 0xffffffe4
    a5f0:	e51b0018 	ldr	r0, [fp, #-24]	; 0xffffffe8
    a5f4:	e3a01003 	mov	r1, #3
    a5f8:	ebfffc88 	bl	9820 <fmc_imageon_iic_mux>
    a5fc:	e3a03000 	mov	r3, #0
    a600:	e54b3011 	strb	r3, [fp, #-17]	; 0xffffffef
    a604:	e51b3018 	ldr	r3, [fp, #-24]	; 0xffffffe8
    a608:	e5933024 	ldr	r3, [r3, #36]	; 0x24
    a60c:	e5934050 	ldr	r4, [r3, #80]	; 0x50
    a610:	e51b3018 	ldr	r3, [fp, #-24]	; 0xffffffe8
    a614:	e5931024 	ldr	r1, [r3, #36]	; 0x24
    a618:	e55b2011 	ldrb	r2, [fp, #-17]	; 0xffffffef
    a61c:	e24bc013 	sub	ip, fp, #19
    a620:	e3a03001 	mov	r3, #1
    a624:	e58d3000 	str	r3, [sp]
    a628:	e1a00001 	mov	r0, r1
    a62c:	e3a01020 	mov	r1, #32
    a630:	e1a0300c 	mov	r3, ip
    a634:	e12fff34 	blx	r4
    a638:	e1a03000 	mov	r3, r0
    a63c:	e54b3012 	strb	r3, [fp, #-18]	; 0xffffffee
    a640:	e55b3013 	ldrb	r3, [fp, #-19]	; 0xffffffed
    a644:	e2033002 	and	r3, r3, #2
    a648:	e3530000 	cmp	r3, #0
    a64c:	0a000002 	beq	a65c <fmc_imageon_hdmii_get_int+0x80>
    a650:	e3a03001 	mov	r3, #1
    a654:	e50b3010 	str	r3, [fp, #-16]
    a658:	ea000001 	b	a664 <fmc_imageon_hdmii_get_int+0x88>
    a65c:	e3a03000 	mov	r3, #0
    a660:	e50b3010 	str	r3, [fp, #-16]
    a664:	e51b301c 	ldr	r3, [fp, #-28]	; 0xffffffe4
    a668:	e51b2010 	ldr	r2, [fp, #-16]
    a66c:	e5832000 	str	r2, [r3]
    a670:	e3a03001 	mov	r3, #1
    a674:	e1a00003 	mov	r0, r3
    a678:	e24bd008 	sub	sp, fp, #8
    a67c:	e8bd8810 	pop	{r4, fp, pc}

0000a680 <fmc_imageon_hdmii_get_lock>:
    a680:	e92d4810 	push	{r4, fp, lr}
    a684:	e28db008 	add	fp, sp, #8
    a688:	e24dd024 	sub	sp, sp, #36	; 0x24
    a68c:	e50b0020 	str	r0, [fp, #-32]	; 0xffffffe0
    a690:	e3a03007 	mov	r3, #7
    a694:	e54b300d 	strb	r3, [fp, #-13]
    a698:	e51b0020 	ldr	r0, [fp, #-32]	; 0xffffffe0
    a69c:	e3a01002 	mov	r1, #2
    a6a0:	ebfffc5e 	bl	9820 <fmc_imageon_iic_mux>
    a6a4:	e51b3020 	ldr	r3, [fp, #-32]	; 0xffffffe0
    a6a8:	e5933024 	ldr	r3, [r3, #36]	; 0x24
    a6ac:	e5934050 	ldr	r4, [r3, #80]	; 0x50
    a6b0:	e51b3020 	ldr	r3, [fp, #-32]	; 0xffffffe0
    a6b4:	e5931024 	ldr	r1, [r3, #36]	; 0x24
    a6b8:	e55b200d 	ldrb	r2, [fp, #-13]
    a6bc:	e24bc015 	sub	ip, fp, #21
    a6c0:	e3a03001 	mov	r3, #1
    a6c4:	e58d3000 	str	r3, [sp]
    a6c8:	e1a00001 	mov	r0, r1
    a6cc:	e3a01034 	mov	r1, #52	; 0x34
    a6d0:	e1a0300c 	mov	r3, ip
    a6d4:	e12fff34 	blx	r4
    a6d8:	e1a03000 	mov	r3, r0
    a6dc:	e54b300e 	strb	r3, [fp, #-14]
    a6e0:	e55b3015 	ldrb	r3, [fp, #-21]	; 0xffffffeb
    a6e4:	e20330a0 	and	r3, r3, #160	; 0xa0
    a6e8:	e35300a0 	cmp	r3, #160	; 0xa0
    a6ec:	03a03001 	moveq	r3, #1
    a6f0:	13a03000 	movne	r3, #0
    a6f4:	e6ef3073 	uxtb	r3, r3
    a6f8:	e50b3014 	str	r3, [fp, #-20]	; 0xffffffec
    a6fc:	e51b3014 	ldr	r3, [fp, #-20]	; 0xffffffec
    a700:	e1a00003 	mov	r0, r3
    a704:	e24bd008 	sub	sp, fp, #8
    a708:	e8bd8810 	pop	{r4, fp, pc}

0000a70c <fmc_imageon_hdmii_get_timing>:
    a70c:	e92d4810 	push	{r4, fp, lr}
    a710:	e28db008 	add	fp, sp, #8
    a714:	e24ddf5d 	sub	sp, sp, #372	; 0x174
    a718:	e50b0170 	str	r0, [fp, #-368]	; 0xfffffe90
    a71c:	e50b1174 	str	r1, [fp, #-372]	; 0xfffffe8c
    a720:	e51b0170 	ldr	r0, [fp, #-368]	; 0xfffffe90
    a724:	e3a01002 	mov	r1, #2
    a728:	ebfffc3c 	bl	9820 <fmc_imageon_iic_mux>
    a72c:	e3a03000 	mov	r3, #0
    a730:	e50b3010 	str	r3, [fp, #-16]
    a734:	ea000015 	b	a790 <fmc_imageon_hdmii_get_timing+0x84>
    a738:	e51b3010 	ldr	r3, [fp, #-16]
    a73c:	e54b3011 	strb	r3, [fp, #-17]	; 0xffffffef
    a740:	e51b3170 	ldr	r3, [fp, #-368]	; 0xfffffe90
    a744:	e5933024 	ldr	r3, [r3, #36]	; 0x24
    a748:	e5934050 	ldr	r4, [r3, #80]	; 0x50
    a74c:	e51b3170 	ldr	r3, [fp, #-368]	; 0xfffffe90
    a750:	e5931024 	ldr	r1, [r3, #36]	; 0x24
    a754:	e24b2f5a 	sub	r2, fp, #360	; 0x168
    a758:	e51b3010 	ldr	r3, [fp, #-16]
    a75c:	e082c003 	add	ip, r2, r3
    a760:	e55b2011 	ldrb	r2, [fp, #-17]	; 0xffffffef
    a764:	e3a03001 	mov	r3, #1
    a768:	e58d3000 	str	r3, [sp]
    a76c:	e1a00001 	mov	r0, r1
    a770:	e3a01034 	mov	r1, #52	; 0x34
    a774:	e1a0300c 	mov	r3, ip
    a778:	e12fff34 	blx	r4
    a77c:	e1a03000 	mov	r3, r0
    a780:	e54b3012 	strb	r3, [fp, #-18]	; 0xffffffee
    a784:	e51b3010 	ldr	r3, [fp, #-16]
    a788:	e2833001 	add	r3, r3, #1
    a78c:	e50b3010 	str	r3, [fp, #-16]
    a790:	e51b3010 	ldr	r3, [fp, #-16]
    a794:	e35300ff 	cmp	r3, #255	; 0xff
    a798:	daffffe6 	ble	a738 <fmc_imageon_hdmii_get_timing+0x2c>
    a79c:	e55b3163 	ldrb	r3, [fp, #-355]	; 0xfffffe9d
    a7a0:	e1a033a3 	lsr	r3, r3, #7
    a7a4:	e6ef3073 	uxtb	r3, r3
    a7a8:	e2033001 	and	r3, r3, #1
    a7ac:	e50b3018 	str	r3, [fp, #-24]	; 0xffffffe8
    a7b0:	e55b3163 	ldrb	r3, [fp, #-355]	; 0xfffffe9d
    a7b4:	e1a03323 	lsr	r3, r3, #6
    a7b8:	e6ef3073 	uxtb	r3, r3
    a7bc:	e2033001 	and	r3, r3, #1
    a7c0:	e50b301c 	str	r3, [fp, #-28]	; 0xffffffe4
    a7c4:	e55b315d 	ldrb	r3, [fp, #-349]	; 0xfffffea3
    a7c8:	e1a032a3 	lsr	r3, r3, #5
    a7cc:	e6ef3073 	uxtb	r3, r3
    a7d0:	e2033001 	and	r3, r3, #1
    a7d4:	e50b3020 	str	r3, [fp, #-32]	; 0xffffffe0
    a7d8:	e55b315d 	ldrb	r3, [fp, #-349]	; 0xfffffea3
    a7dc:	e1a03323 	lsr	r3, r3, #6
    a7e0:	e6ef3073 	uxtb	r3, r3
    a7e4:	e2033003 	and	r3, r3, #3
    a7e8:	e50b3024 	str	r3, [fp, #-36]	; 0xffffffdc
    a7ec:	e55b3161 	ldrb	r3, [fp, #-353]	; 0xfffffe9f
    a7f0:	e203301f 	and	r3, r3, #31
    a7f4:	e1a03403 	lsl	r3, r3, #8
    a7f8:	e55b2160 	ldrb	r2, [fp, #-352]	; 0xfffffea0
    a7fc:	e1833002 	orr	r3, r3, r2
    a800:	e50b3028 	str	r3, [fp, #-40]	; 0xffffffd8
    a804:	e55b3148 	ldrb	r3, [fp, #-328]	; 0xfffffeb8
    a808:	e203301f 	and	r3, r3, #31
    a80c:	e1a03403 	lsl	r3, r3, #8
    a810:	e55b2147 	ldrb	r2, [fp, #-327]	; 0xfffffeb9
    a814:	e1833002 	orr	r3, r3, r2
    a818:	e50b302c 	str	r3, [fp, #-44]	; 0xffffffd4
    a81c:	e55b3146 	ldrb	r3, [fp, #-326]	; 0xfffffeba
    a820:	e203301f 	and	r3, r3, #31
    a824:	e1a03403 	lsl	r3, r3, #8
    a828:	e55b2145 	ldrb	r2, [fp, #-325]	; 0xfffffebb
    a82c:	e1833002 	orr	r3, r3, r2
    a830:	e50b3030 	str	r3, [fp, #-48]	; 0xffffffd0
    a834:	e55b3144 	ldrb	r3, [fp, #-324]	; 0xfffffebc
    a838:	e203301f 	and	r3, r3, #31
    a83c:	e1a03403 	lsl	r3, r3, #8
    a840:	e55b2143 	ldrb	r2, [fp, #-323]	; 0xfffffebd
    a844:	e1833002 	orr	r3, r3, r2
    a848:	e50b3034 	str	r3, [fp, #-52]	; 0xffffffcc
    a84c:	e55b314a 	ldrb	r3, [fp, #-330]	; 0xfffffeb6
    a850:	e203303f 	and	r3, r3, #63	; 0x3f
    a854:	e1a03403 	lsl	r3, r3, #8
    a858:	e55b2149 	ldrb	r2, [fp, #-329]	; 0xfffffeb7
    a85c:	e1833002 	orr	r3, r3, r2
    a860:	e50b3038 	str	r3, [fp, #-56]	; 0xffffffc8
    a864:	e55b3163 	ldrb	r3, [fp, #-355]	; 0xfffffe9d
    a868:	e1a032a3 	lsr	r3, r3, #5
    a86c:	e6ef3073 	uxtb	r3, r3
    a870:	e2033001 	and	r3, r3, #1
    a874:	e50b303c 	str	r3, [fp, #-60]	; 0xffffffc4
    a878:	e55b315f 	ldrb	r3, [fp, #-351]	; 0xfffffea1
    a87c:	e203301f 	and	r3, r3, #31
    a880:	e1a03403 	lsl	r3, r3, #8
    a884:	e55b215e 	ldrb	r2, [fp, #-350]	; 0xfffffea2
    a888:	e1833002 	orr	r3, r3, r2
    a88c:	e50b3040 	str	r3, [fp, #-64]	; 0xffffffc0
    a890:	e55b313e 	ldrb	r3, [fp, #-318]	; 0xfffffec2
    a894:	e203303f 	and	r3, r3, #63	; 0x3f
    a898:	e1a03403 	lsl	r3, r3, #8
    a89c:	e55b213d 	ldrb	r2, [fp, #-317]	; 0xfffffec3
    a8a0:	e1833002 	orr	r3, r3, r2
    a8a4:	e50b3044 	str	r3, [fp, #-68]	; 0xffffffbc
    a8a8:	e55b313a 	ldrb	r3, [fp, #-314]	; 0xfffffec6
    a8ac:	e203303f 	and	r3, r3, #63	; 0x3f
    a8b0:	e1a03403 	lsl	r3, r3, #8
    a8b4:	e55b2139 	ldrb	r2, [fp, #-313]	; 0xfffffec7
    a8b8:	e1833002 	orr	r3, r3, r2
    a8bc:	e50b3048 	str	r3, [fp, #-72]	; 0xffffffb8
    a8c0:	e55b3136 	ldrb	r3, [fp, #-310]	; 0xfffffeca
    a8c4:	e203303f 	and	r3, r3, #63	; 0x3f
    a8c8:	e1a03403 	lsl	r3, r3, #8
    a8cc:	e55b2135 	ldrb	r2, [fp, #-309]	; 0xfffffecb
    a8d0:	e1833002 	orr	r3, r3, r2
    a8d4:	e50b304c 	str	r3, [fp, #-76]	; 0xffffffb4
    a8d8:	e55b3142 	ldrb	r3, [fp, #-322]	; 0xfffffebe
    a8dc:	e203303f 	and	r3, r3, #63	; 0x3f
    a8e0:	e1a03403 	lsl	r3, r3, #8
    a8e4:	e55b2141 	ldrb	r2, [fp, #-321]	; 0xfffffebf
    a8e8:	e1833002 	orr	r3, r3, r2
    a8ec:	e50b3050 	str	r3, [fp, #-80]	; 0xffffffb0
    a8f0:	e55b315d 	ldrb	r3, [fp, #-349]	; 0xfffffea3
    a8f4:	e203301f 	and	r3, r3, #31
    a8f8:	e1a03403 	lsl	r3, r3, #8
    a8fc:	e55b215c 	ldrb	r2, [fp, #-348]	; 0xfffffea4
    a900:	e1833002 	orr	r3, r3, r2
    a904:	e50b3054 	str	r3, [fp, #-84]	; 0xffffffac
    a908:	e55b313c 	ldrb	r3, [fp, #-316]	; 0xfffffec4
    a90c:	e203303f 	and	r3, r3, #63	; 0x3f
    a910:	e1a03403 	lsl	r3, r3, #8
    a914:	e55b213b 	ldrb	r2, [fp, #-315]	; 0xfffffec5
    a918:	e1833002 	orr	r3, r3, r2
    a91c:	e50b3058 	str	r3, [fp, #-88]	; 0xffffffa8
    a920:	e55b3138 	ldrb	r3, [fp, #-312]	; 0xfffffec8
    a924:	e203303f 	and	r3, r3, #63	; 0x3f
    a928:	e1a03403 	lsl	r3, r3, #8
    a92c:	e55b2137 	ldrb	r2, [fp, #-311]	; 0xfffffec9
    a930:	e1833002 	orr	r3, r3, r2
    a934:	e50b305c 	str	r3, [fp, #-92]	; 0xffffffa4
    a938:	e55b3134 	ldrb	r3, [fp, #-308]	; 0xfffffecc
    a93c:	e203303f 	and	r3, r3, #63	; 0x3f
    a940:	e1a03403 	lsl	r3, r3, #8
    a944:	e55b2133 	ldrb	r2, [fp, #-307]	; 0xfffffecd
    a948:	e1833002 	orr	r3, r3, r2
    a94c:	e50b3060 	str	r3, [fp, #-96]	; 0xffffffa0
    a950:	e55b3140 	ldrb	r3, [fp, #-320]	; 0xfffffec0
    a954:	e203303f 	and	r3, r3, #63	; 0x3f
    a958:	e1a03403 	lsl	r3, r3, #8
    a95c:	e55b213f 	ldrb	r2, [fp, #-319]	; 0xfffffec1
    a960:	e1833002 	orr	r3, r3, r2
    a964:	e50b3064 	str	r3, [fp, #-100]	; 0xffffff9c
    a968:	e55b3163 	ldrb	r3, [fp, #-355]	; 0xfffffe9d
    a96c:	e1a03223 	lsr	r3, r3, #4
    a970:	e6ef3073 	uxtb	r3, r3
    a974:	e2033001 	and	r3, r3, #1
    a978:	e50b3068 	str	r3, [fp, #-104]	; 0xffffff98
    a97c:	e51b0174 	ldr	r0, [fp, #-372]	; 0xfffffe8c
    a980:	e3a01000 	mov	r1, #0
    a984:	e3a02038 	mov	r2, #56	; 0x38
    a988:	eb0007ac 	bl	c840 <memset>
    a98c:	e51b3174 	ldr	r3, [fp, #-372]	; 0xfffffe8c
    a990:	e51b2018 	ldr	r2, [fp, #-24]	; 0xffffffe8
    a994:	e5832000 	str	r2, [r3]
    a998:	e51b3174 	ldr	r3, [fp, #-372]	; 0xfffffe8c
    a99c:	e51b201c 	ldr	r2, [fp, #-28]	; 0xffffffe4
    a9a0:	e5832004 	str	r2, [r3, #4]
    a9a4:	e51b3174 	ldr	r3, [fp, #-372]	; 0xfffffe8c
    a9a8:	e51b2020 	ldr	r2, [fp, #-32]	; 0xffffffe0
    a9ac:	e5832008 	str	r2, [r3, #8]
    a9b0:	e51b3024 	ldr	r3, [fp, #-36]	; 0xffffffdc
    a9b4:	e3530003 	cmp	r3, #3
    a9b8:	0a000003 	beq	a9cc <fmc_imageon_hdmii_get_timing+0x2c0>
    a9bc:	e51b3024 	ldr	r3, [fp, #-36]	; 0xffffffdc
    a9c0:	e2833004 	add	r3, r3, #4
    a9c4:	e1a03083 	lsl	r3, r3, #1
    a9c8:	ea000000 	b	a9d0 <fmc_imageon_hdmii_get_timing+0x2c4>
    a9cc:	e3a03010 	mov	r3, #16
    a9d0:	e51b2174 	ldr	r2, [fp, #-372]	; 0xfffffe8c
    a9d4:	e582300c 	str	r3, [r2, #12]
    a9d8:	e51b3174 	ldr	r3, [fp, #-372]	; 0xfffffe8c
    a9dc:	e51b2028 	ldr	r2, [fp, #-40]	; 0xffffffd8
    a9e0:	e5832010 	str	r2, [r3, #16]
    a9e4:	e51b3174 	ldr	r3, [fp, #-372]	; 0xfffffe8c
    a9e8:	e51b202c 	ldr	r2, [fp, #-44]	; 0xffffffd4
    a9ec:	e5832014 	str	r2, [r3, #20]
    a9f0:	e51b3174 	ldr	r3, [fp, #-372]	; 0xfffffe8c
    a9f4:	e51b2030 	ldr	r2, [fp, #-48]	; 0xffffffd0
    a9f8:	e5832018 	str	r2, [r3, #24]
    a9fc:	e51b3174 	ldr	r3, [fp, #-372]	; 0xfffffe8c
    aa00:	e51b2034 	ldr	r2, [fp, #-52]	; 0xffffffcc
    aa04:	e583201c 	str	r2, [r3, #28]
    aa08:	e51b3174 	ldr	r3, [fp, #-372]	; 0xfffffe8c
    aa0c:	e51b203c 	ldr	r2, [fp, #-60]	; 0xffffffc4
    aa10:	e5832020 	str	r2, [r3, #32]
    aa14:	e51b3020 	ldr	r3, [fp, #-32]	; 0xffffffe0
    aa18:	e3530000 	cmp	r3, #0
    aa1c:	1a000011 	bne	aa68 <fmc_imageon_hdmii_get_timing+0x35c>
    aa20:	e51b3174 	ldr	r3, [fp, #-372]	; 0xfffffe8c
    aa24:	e51b2040 	ldr	r2, [fp, #-64]	; 0xffffffc0
    aa28:	e5832024 	str	r2, [r3, #36]	; 0x24
    aa2c:	e51b3044 	ldr	r3, [fp, #-68]	; 0xffffffbc
    aa30:	e1a020a3 	lsr	r2, r3, #1
    aa34:	e51b3174 	ldr	r3, [fp, #-372]	; 0xfffffe8c
    aa38:	e5832028 	str	r2, [r3, #40]	; 0x28
    aa3c:	e51b3048 	ldr	r3, [fp, #-72]	; 0xffffffb8
    aa40:	e1a020a3 	lsr	r2, r3, #1
    aa44:	e51b3174 	ldr	r3, [fp, #-372]	; 0xfffffe8c
    aa48:	e583202c 	str	r2, [r3, #44]	; 0x2c
    aa4c:	e51b304c 	ldr	r3, [fp, #-76]	; 0xffffffb4
    aa50:	e1a020a3 	lsr	r2, r3, #1
    aa54:	e51b3174 	ldr	r3, [fp, #-372]	; 0xfffffe8c
    aa58:	e5832030 	str	r2, [r3, #48]	; 0x30
    aa5c:	e51b3174 	ldr	r3, [fp, #-372]	; 0xfffffe8c
    aa60:	e51b2068 	ldr	r2, [fp, #-104]	; 0xffffff98
    aa64:	e5832034 	str	r2, [r3, #52]	; 0x34
    aa68:	e3a03001 	mov	r3, #1
    aa6c:	e1a00003 	mov	r0, r3
    aa70:	e24bd008 	sub	sp, fp, #8
    aa74:	e8bd8810 	pop	{r4, fp, pc}

0000aa78 <fmc_imageon_hdmio_init>:
    aa78:	e92d4810 	push	{r4, fp, lr}
    aa7c:	e28db008 	add	fp, sp, #8
    aa80:	e24dd02c 	sub	sp, sp, #44	; 0x2c
    aa84:	e50b0020 	str	r0, [fp, #-32]	; 0xffffffe0
    aa88:	e50b1024 	str	r1, [fp, #-36]	; 0xffffffdc
    aa8c:	e50b2028 	str	r2, [fp, #-40]	; 0xffffffd8
    aa90:	e50b302c 	str	r3, [fp, #-44]	; 0xffffffd4
    aa94:	e51b3024 	ldr	r3, [fp, #-36]	; 0xffffffdc
    aa98:	e3530000 	cmp	r3, #0
    aa9c:	1a000006 	bne	aabc <fmc_imageon_hdmio_init+0x44>
    aaa0:	e51b0020 	ldr	r0, [fp, #-32]	; 0xffffffe0
    aaa4:	e3a01001 	mov	r1, #1
    aaa8:	eb000117 	bl	af0c <fmc_imageon_hdmio_set_pd>
    aaac:	e30806a0 	movw	r0, #34464	; 0x86a0
    aab0:	e3400001 	movt	r0, #1
    aab4:	eb000206 	bl	b2d4 <fmc_imageon_wait_usec>
    aab8:	ea00010f 	b	aefc <fmc_imageon_hdmio_init+0x484>
    aabc:	e51b0020 	ldr	r0, [fp, #-32]	; 0xffffffe0
    aac0:	e3a01000 	mov	r1, #0
    aac4:	eb000110 	bl	af0c <fmc_imageon_hdmio_set_pd>
    aac8:	e30806a0 	movw	r0, #34464	; 0x86a0
    aacc:	e3400001 	movt	r0, #1
    aad0:	eb0001ff 	bl	b2d4 <fmc_imageon_wait_usec>
    aad4:	e51b0020 	ldr	r0, [fp, #-32]	; 0xffffffe0
    aad8:	e3a01001 	mov	r1, #1
    aadc:	ebfffb4f 	bl	9820 <fmc_imageon_iic_mux>
    aae0:	e3a03000 	mov	r3, #0
    aae4:	e50b3014 	str	r3, [fp, #-20]	; 0xffffffec
    aae8:	ea000034 	b	abc0 <fmc_imageon_hdmio_init+0x148>
    aaec:	e30c2188 	movw	r2, #49544	; 0xc188
    aaf0:	e3402001 	movt	r2, #1
    aaf4:	e51b1014 	ldr	r1, [fp, #-20]	; 0xffffffec
    aaf8:	e1a03001 	mov	r3, r1
    aafc:	e1a03083 	lsl	r3, r3, #1
    ab00:	e0833001 	add	r3, r3, r1
    ab04:	e2833001 	add	r3, r3, #1
    ab08:	e0823003 	add	r3, r2, r3
    ab0c:	e5d33000 	ldrb	r3, [r3]
    ab10:	e35300af 	cmp	r3, #175	; 0xaf
    ab14:	1a000026 	bne	abb4 <fmc_imageon_hdmio_init+0x13c>
    ab18:	e51b3028 	ldr	r3, [fp, #-40]	; 0xffffffd8
    ab1c:	e5933000 	ldr	r3, [r3]
    ab20:	e3530000 	cmp	r3, #0
    ab24:	0a000011 	beq	ab70 <fmc_imageon_hdmio_init+0xf8>
    ab28:	e51b3020 	ldr	r3, [fp, #-32]	; 0xffffffe0
    ab2c:	e593302c 	ldr	r3, [r3, #44]	; 0x2c
    ab30:	e3530000 	cmp	r3, #0
    ab34:	0a000002 	beq	ab44 <fmc_imageon_hdmio_init+0xcc>
    ab38:	e30b0448 	movw	r0, #46152	; 0xb448
    ab3c:	e3400001 	movt	r0, #1
    ab40:	ebfff596 	bl	81a0 <uart_puts>
    ab44:	e30c2188 	movw	r2, #49544	; 0xc188
    ab48:	e3402001 	movt	r2, #1
    ab4c:	e51b1014 	ldr	r1, [fp, #-20]	; 0xffffffec
    ab50:	e1a03001 	mov	r3, r1
    ab54:	e1a03083 	lsl	r3, r3, #1
    ab58:	e0833001 	add	r3, r3, r1
    ab5c:	e2833002 	add	r3, r3, #2
    ab60:	e0823003 	add	r3, r2, r3
    ab64:	e3a02006 	mov	r2, #6
    ab68:	e5c32000 	strb	r2, [r3]
    ab6c:	ea000010 	b	abb4 <fmc_imageon_hdmio_init+0x13c>
    ab70:	e51b3020 	ldr	r3, [fp, #-32]	; 0xffffffe0
    ab74:	e593302c 	ldr	r3, [r3, #44]	; 0x2c
    ab78:	e3530000 	cmp	r3, #0
    ab7c:	0a000002 	beq	ab8c <fmc_imageon_hdmio_init+0x114>
    ab80:	e30b0478 	movw	r0, #46200	; 0xb478
    ab84:	e3400001 	movt	r0, #1
    ab88:	ebfff584 	bl	81a0 <uart_puts>
    ab8c:	e30c2188 	movw	r2, #49544	; 0xc188
    ab90:	e3402001 	movt	r2, #1
    ab94:	e51b1014 	ldr	r1, [fp, #-20]	; 0xffffffec
    ab98:	e1a03001 	mov	r3, r1
    ab9c:	e1a03083 	lsl	r3, r3, #1
    aba0:	e0833001 	add	r3, r3, r1
    aba4:	e2833002 	add	r3, r3, #2
    aba8:	e0823003 	add	r3, r2, r3
    abac:	e3a02004 	mov	r2, #4
    abb0:	e5c32000 	strb	r2, [r3]
    abb4:	e51b3014 	ldr	r3, [fp, #-20]	; 0xffffffec
    abb8:	e2833001 	add	r3, r3, #1
    abbc:	e50b3014 	str	r3, [fp, #-20]	; 0xffffffec
    abc0:	e51b3014 	ldr	r3, [fp, #-20]	; 0xffffffec
    abc4:	e3530024 	cmp	r3, #36	; 0x24
    abc8:	daffffc7 	ble	aaec <fmc_imageon_hdmio_init+0x74>
    abcc:	e51b0020 	ldr	r0, [fp, #-32]	; 0xffffffe0
    abd0:	e30c1188 	movw	r1, #49544	; 0xc188
    abd4:	e3401001 	movt	r1, #1
    abd8:	e3a02025 	mov	r2, #37	; 0x25
    abdc:	ebfffba6 	bl	9a7c <fmc_imageon_iic_config3>
    abe0:	e51b3028 	ldr	r3, [fp, #-40]	; 0xffffffd8
    abe4:	e5933014 	ldr	r3, [r3, #20]
    abe8:	e1a03123 	lsr	r3, r3, #2
    abec:	e6ef2073 	uxtb	r2, r3
    abf0:	e30c31f8 	movw	r3, #49656	; 0xc1f8
    abf4:	e3403001 	movt	r3, #1
    abf8:	e5c32002 	strb	r2, [r3, #2]
    abfc:	e51b3028 	ldr	r3, [fp, #-40]	; 0xffffffd8
    ac00:	e5933014 	ldr	r3, [r3, #20]
    ac04:	e6ef3073 	uxtb	r3, r3
    ac08:	e1a03303 	lsl	r3, r3, #6
    ac0c:	e6ef3073 	uxtb	r3, r3
    ac10:	e6ef2073 	uxtb	r2, r3
    ac14:	e51b3028 	ldr	r3, [fp, #-40]	; 0xffffffd8
    ac18:	e5933018 	ldr	r3, [r3, #24]
    ac1c:	e1a03223 	lsr	r3, r3, #4
    ac20:	e6ef3073 	uxtb	r3, r3
    ac24:	e203303f 	and	r3, r3, #63	; 0x3f
    ac28:	e6ef3073 	uxtb	r3, r3
    ac2c:	e1823003 	orr	r3, r2, r3
    ac30:	e6ef3073 	uxtb	r3, r3
    ac34:	e6ef2073 	uxtb	r2, r3
    ac38:	e30c31f8 	movw	r3, #49656	; 0xc1f8
    ac3c:	e3403001 	movt	r3, #1
    ac40:	e5c32005 	strb	r2, [r3, #5]
    ac44:	e51b3028 	ldr	r3, [fp, #-40]	; 0xffffffd8
    ac48:	e5933018 	ldr	r3, [r3, #24]
    ac4c:	e6ef3073 	uxtb	r3, r3
    ac50:	e1a03203 	lsl	r3, r3, #4
    ac54:	e6ef3073 	uxtb	r3, r3
    ac58:	e6ef2073 	uxtb	r2, r3
    ac5c:	e51b3028 	ldr	r3, [fp, #-40]	; 0xffffffd8
    ac60:	e5933028 	ldr	r3, [r3, #40]	; 0x28
    ac64:	e1a03323 	lsr	r3, r3, #6
    ac68:	e6ef3073 	uxtb	r3, r3
    ac6c:	e203300f 	and	r3, r3, #15
    ac70:	e6ef3073 	uxtb	r3, r3
    ac74:	e1823003 	orr	r3, r2, r3
    ac78:	e6ef3073 	uxtb	r3, r3
    ac7c:	e6ef2073 	uxtb	r2, r3
    ac80:	e30c31f8 	movw	r3, #49656	; 0xc1f8
    ac84:	e3403001 	movt	r3, #1
    ac88:	e5c32008 	strb	r2, [r3, #8]
    ac8c:	e51b3028 	ldr	r3, [fp, #-40]	; 0xffffffd8
    ac90:	e5933028 	ldr	r3, [r3, #40]	; 0x28
    ac94:	e6ef3073 	uxtb	r3, r3
    ac98:	e1a03103 	lsl	r3, r3, #2
    ac9c:	e6ef3073 	uxtb	r3, r3
    aca0:	e6ef2073 	uxtb	r2, r3
    aca4:	e51b3028 	ldr	r3, [fp, #-40]	; 0xffffffd8
    aca8:	e593302c 	ldr	r3, [r3, #44]	; 0x2c
    acac:	e1a03423 	lsr	r3, r3, #8
    acb0:	e6ef3073 	uxtb	r3, r3
    acb4:	e2033003 	and	r3, r3, #3
    acb8:	e6ef3073 	uxtb	r3, r3
    acbc:	e1823003 	orr	r3, r2, r3
    acc0:	e6ef3073 	uxtb	r3, r3
    acc4:	e6ef2073 	uxtb	r2, r3
    acc8:	e30c31f8 	movw	r3, #49656	; 0xc1f8
    accc:	e3403001 	movt	r3, #1
    acd0:	e5c3200b 	strb	r2, [r3, #11]
    acd4:	e51b3028 	ldr	r3, [fp, #-40]	; 0xffffffd8
    acd8:	e593302c 	ldr	r3, [r3, #44]	; 0x2c
    acdc:	e6ef2073 	uxtb	r2, r3
    ace0:	e30c31f8 	movw	r3, #49656	; 0xc1f8
    ace4:	e3403001 	movt	r3, #1
    ace8:	e5c3200e 	strb	r2, [r3, #14]
    acec:	e30c31f8 	movw	r3, #49656	; 0xc1f8
    acf0:	e3403001 	movt	r3, #1
    acf4:	e3a02000 	mov	r2, #0
    acf8:	e5c32011 	strb	r2, [r3, #17]
    acfc:	e51b3020 	ldr	r3, [fp, #-32]	; 0xffffffe0
    ad00:	e593302c 	ldr	r3, [r3, #44]	; 0x2c
    ad04:	e3530000 	cmp	r3, #0
    ad08:	0a00002b 	beq	adbc <fmc_imageon_hdmio_init+0x344>
    ad0c:	e3a03000 	mov	r3, #0
    ad10:	e50b3018 	str	r3, [fp, #-24]	; 0xffffffe8
    ad14:	ea000025 	b	adb0 <fmc_imageon_hdmio_init+0x338>
    ad18:	e30c21f8 	movw	r2, #49656	; 0xc1f8
    ad1c:	e3402001 	movt	r2, #1
    ad20:	e51b1018 	ldr	r1, [fp, #-24]	; 0xffffffe8
    ad24:	e1a03001 	mov	r3, r1
    ad28:	e1a03083 	lsl	r3, r3, #1
    ad2c:	e0833001 	add	r3, r3, r1
    ad30:	e0823003 	add	r3, r2, r3
    ad34:	e5d33000 	ldrb	r3, [r3]
    ad38:	e1a0c083 	lsl	ip, r3, #1
    ad3c:	e30c21f8 	movw	r2, #49656	; 0xc1f8
    ad40:	e3402001 	movt	r2, #1
    ad44:	e51b1018 	ldr	r1, [fp, #-24]	; 0xffffffe8
    ad48:	e1a03001 	mov	r3, r1
    ad4c:	e1a03083 	lsl	r3, r3, #1
    ad50:	e0833001 	add	r3, r3, r1
    ad54:	e2833001 	add	r3, r3, #1
    ad58:	e0823003 	add	r3, r2, r3
    ad5c:	e5d33000 	ldrb	r3, [r3]
    ad60:	e1a0e003 	mov	lr, r3
    ad64:	e30c21f8 	movw	r2, #49656	; 0xc1f8
    ad68:	e3402001 	movt	r2, #1
    ad6c:	e51b1018 	ldr	r1, [fp, #-24]	; 0xffffffe8
    ad70:	e1a03001 	mov	r3, r1
    ad74:	e1a03083 	lsl	r3, r3, #1
    ad78:	e0833001 	add	r3, r3, r1
    ad7c:	e2833002 	add	r3, r3, #2
    ad80:	e0823003 	add	r3, r2, r3
    ad84:	e5d33000 	ldrb	r3, [r3]
    ad88:	e58d3000 	str	r3, [sp]
    ad8c:	e30b04a4 	movw	r0, #46244	; 0xb4a4
    ad90:	e3400001 	movt	r0, #1
    ad94:	e51b1018 	ldr	r1, [fp, #-24]	; 0xffffffe8
    ad98:	e1a0200c 	mov	r2, ip
    ad9c:	e1a0300e 	mov	r3, lr
    ada0:	ebfff288 	bl	77c8 <printf>
    ada4:	e51b3018 	ldr	r3, [fp, #-24]	; 0xffffffe8
    ada8:	e2833001 	add	r3, r3, #1
    adac:	e50b3018 	str	r3, [fp, #-24]	; 0xffffffe8
    adb0:	e51b3018 	ldr	r3, [fp, #-24]	; 0xffffffe8
    adb4:	e3530005 	cmp	r3, #5
    adb8:	daffffd6 	ble	ad18 <fmc_imageon_hdmio_init+0x2a0>
    adbc:	e51b0020 	ldr	r0, [fp, #-32]	; 0xffffffe0
    adc0:	e30c11f8 	movw	r1, #49656	; 0xc1f8
    adc4:	e3401001 	movt	r1, #1
    adc8:	e3a02006 	mov	r2, #6
    adcc:	ebfffb2a 	bl	9a7c <fmc_imageon_iic_config3>
    add0:	e30806a0 	movw	r0, #34464	; 0x86a0
    add4:	e3400001 	movt	r0, #1
    add8:	eb00013d 	bl	b2d4 <fmc_imageon_wait_usec>
    addc:	e3a03039 	mov	r3, #57	; 0x39
    ade0:	e54b3019 	strb	r3, [fp, #-25]	; 0xffffffe7
    ade4:	e3e03069 	mvn	r3, #105	; 0x69
    ade8:	e54b301a 	strb	r3, [fp, #-26]	; 0xffffffe6
    adec:	e51b3020 	ldr	r3, [fp, #-32]	; 0xffffffe0
    adf0:	e5933024 	ldr	r3, [r3, #36]	; 0x24
    adf4:	e5934050 	ldr	r4, [r3, #80]	; 0x50
    adf8:	e51b3020 	ldr	r3, [fp, #-32]	; 0xffffffe0
    adfc:	e5930024 	ldr	r0, [r3, #36]	; 0x24
    ae00:	e55b1019 	ldrb	r1, [fp, #-25]	; 0xffffffe7
    ae04:	e55b201a 	ldrb	r2, [fp, #-26]	; 0xffffffe6
    ae08:	e24bc01c 	sub	ip, fp, #28
    ae0c:	e3a03001 	mov	r3, #1
    ae10:	e58d3000 	str	r3, [sp]
    ae14:	e1a0300c 	mov	r3, ip
    ae18:	e12fff34 	blx	r4
    ae1c:	e1a03000 	mov	r3, r0
    ae20:	e54b301b 	strb	r3, [fp, #-27]	; 0xffffffe5
    ae24:	e55b301b 	ldrb	r3, [fp, #-27]	; 0xffffffe5
    ae28:	e3530000 	cmp	r3, #0
    ae2c:	1a000002 	bne	ae3c <fmc_imageon_hdmio_init+0x3c4>
    ae30:	e30b04dc 	movw	r0, #46300	; 0xb4dc
    ae34:	e3400001 	movt	r0, #1
    ae38:	ebfff4d8 	bl	81a0 <uart_puts>
    ae3c:	e51b302c 	ldr	r3, [fp, #-44]	; 0xffffffd4
    ae40:	e3530000 	cmp	r3, #0
    ae44:	0a00002c 	beq	aefc <fmc_imageon_hdmio_init+0x484>
    ae48:	e3a03063 	mov	r3, #99	; 0x63
    ae4c:	e50b3010 	str	r3, [fp, #-16]
    ae50:	ea000017 	b	aeb4 <fmc_imageon_hdmio_init+0x43c>
    ae54:	e51b3020 	ldr	r3, [fp, #-32]	; 0xffffffe0
    ae58:	e5933024 	ldr	r3, [r3, #36]	; 0x24
    ae5c:	e5934050 	ldr	r4, [r3, #80]	; 0x50
    ae60:	e51b3020 	ldr	r3, [fp, #-32]	; 0xffffffe0
    ae64:	e5930024 	ldr	r0, [r3, #36]	; 0x24
    ae68:	e55b1019 	ldrb	r1, [fp, #-25]	; 0xffffffe7
    ae6c:	e55b201a 	ldrb	r2, [fp, #-26]	; 0xffffffe6
    ae70:	e24bc01c 	sub	ip, fp, #28
    ae74:	e3a03001 	mov	r3, #1
    ae78:	e58d3000 	str	r3, [sp]
    ae7c:	e1a0300c 	mov	r3, ip
    ae80:	e12fff34 	blx	r4
    ae84:	e1a03000 	mov	r3, r0
    ae88:	e54b301b 	strb	r3, [fp, #-27]	; 0xffffffe5
    ae8c:	e55b301b 	ldrb	r3, [fp, #-27]	; 0xffffffe5
    ae90:	e3530000 	cmp	r3, #0
    ae94:	1a000006 	bne	aeb4 <fmc_imageon_hdmio_init+0x43c>
    ae98:	e30b0508 	movw	r0, #46344	; 0xb508
    ae9c:	e3400001 	movt	r0, #1
    aea0:	ebfff4be 	bl	81a0 <uart_puts>
    aea4:	e3a03000 	mov	r3, #0
    aea8:	e50b3010 	str	r3, [fp, #-16]
    aeac:	e3a03000 	mov	r3, #0
    aeb0:	ea000012 	b	af00 <fmc_imageon_hdmio_init+0x488>
    aeb4:	e55b301c 	ldrb	r3, [fp, #-28]	; 0xffffffe4
    aeb8:	e20330c0 	and	r3, r3, #192	; 0xc0
    aebc:	e35300c0 	cmp	r3, #192	; 0xc0
    aec0:	0a000005 	beq	aedc <fmc_imageon_hdmio_init+0x464>
    aec4:	e51b3010 	ldr	r3, [fp, #-16]
    aec8:	e2433001 	sub	r3, r3, #1
    aecc:	e50b3010 	str	r3, [fp, #-16]
    aed0:	e51b3010 	ldr	r3, [fp, #-16]
    aed4:	e3530000 	cmp	r3, #0
    aed8:	1affffdd 	bne	ae54 <fmc_imageon_hdmio_init+0x3dc>
    aedc:	e51b3010 	ldr	r3, [fp, #-16]
    aee0:	e3530000 	cmp	r3, #0
    aee4:	1a000004 	bne	aefc <fmc_imageon_hdmio_init+0x484>
    aee8:	e30b054c 	movw	r0, #46412	; 0xb54c
    aeec:	e3400001 	movt	r0, #1
    aef0:	ebfff4aa 	bl	81a0 <uart_puts>
    aef4:	e3a03000 	mov	r3, #0
    aef8:	ea000000 	b	af00 <fmc_imageon_hdmio_init+0x488>
    aefc:	e3a03001 	mov	r3, #1
    af00:	e1a00003 	mov	r0, r3
    af04:	e24bd008 	sub	sp, fp, #8
    af08:	e8bd8810 	pop	{r4, fp, pc}

0000af0c <fmc_imageon_hdmio_set_pd>:
    af0c:	e92d4810 	push	{r4, fp, lr}
    af10:	e28db008 	add	fp, sp, #8
    af14:	e24dd01c 	sub	sp, sp, #28
    af18:	e50b0018 	str	r0, [fp, #-24]	; 0xffffffe8
    af1c:	e50b101c 	str	r1, [fp, #-28]	; 0xffffffe4
    af20:	e51b0018 	ldr	r0, [fp, #-24]	; 0xffffffe8
    af24:	e3a01003 	mov	r1, #3
    af28:	ebfffa3c 	bl	9820 <fmc_imageon_iic_mux>
    af2c:	e3a03001 	mov	r3, #1
    af30:	e54b300d 	strb	r3, [fp, #-13]
    af34:	e51b3018 	ldr	r3, [fp, #-24]	; 0xffffffe8
    af38:	e5933024 	ldr	r3, [r3, #36]	; 0x24
    af3c:	e5934050 	ldr	r4, [r3, #80]	; 0x50
    af40:	e51b3018 	ldr	r3, [fp, #-24]	; 0xffffffe8
    af44:	e5931024 	ldr	r1, [r3, #36]	; 0x24
    af48:	e55b200d 	ldrb	r2, [fp, #-13]
    af4c:	e24bc00f 	sub	ip, fp, #15
    af50:	e3a03001 	mov	r3, #1
    af54:	e58d3000 	str	r3, [sp]
    af58:	e1a00001 	mov	r0, r1
    af5c:	e3a01020 	mov	r1, #32
    af60:	e1a0300c 	mov	r3, ip
    af64:	e12fff34 	blx	r4
    af68:	e1a03000 	mov	r3, r0
    af6c:	e54b300e 	strb	r3, [fp, #-14]
    af70:	e51b301c 	ldr	r3, [fp, #-28]	; 0xffffffe4
    af74:	e3530000 	cmp	r3, #0
    af78:	0a000004 	beq	af90 <fmc_imageon_hdmio_set_pd+0x84>
    af7c:	e55b300f 	ldrb	r3, [fp, #-15]
    af80:	e3833010 	orr	r3, r3, #16
    af84:	e6ef3073 	uxtb	r3, r3
    af88:	e54b300f 	strb	r3, [fp, #-15]
    af8c:	ea000003 	b	afa0 <fmc_imageon_hdmio_set_pd+0x94>
    af90:	e55b300f 	ldrb	r3, [fp, #-15]
    af94:	e3c33010 	bic	r3, r3, #16
    af98:	e6ef3073 	uxtb	r3, r3
    af9c:	e54b300f 	strb	r3, [fp, #-15]
    afa0:	e51b3018 	ldr	r3, [fp, #-24]	; 0xffffffe8
    afa4:	e5933024 	ldr	r3, [r3, #36]	; 0x24
    afa8:	e5934054 	ldr	r4, [r3, #84]	; 0x54
    afac:	e51b3018 	ldr	r3, [fp, #-24]	; 0xffffffe8
    afb0:	e5931024 	ldr	r1, [r3, #36]	; 0x24
    afb4:	e55b200d 	ldrb	r2, [fp, #-13]
    afb8:	e24bc00f 	sub	ip, fp, #15
    afbc:	e3a03001 	mov	r3, #1
    afc0:	e58d3000 	str	r3, [sp]
    afc4:	e1a00001 	mov	r0, r1
    afc8:	e3a01020 	mov	r1, #32
    afcc:	e1a0300c 	mov	r3, ip
    afd0:	e12fff34 	blx	r4
    afd4:	e1a03000 	mov	r3, r0
    afd8:	e54b300e 	strb	r3, [fp, #-14]
    afdc:	e3a03001 	mov	r3, #1
    afe0:	e1a00003 	mov	r0, r3
    afe4:	e24bd008 	sub	sp, fp, #8
    afe8:	e8bd8810 	pop	{r4, fp, pc}

0000afec <fmc_imageon_hdmio_get_hpd>:
    afec:	e92d4810 	push	{r4, fp, lr}
    aff0:	e28db008 	add	fp, sp, #8
    aff4:	e24dd01c 	sub	sp, sp, #28
    aff8:	e50b0018 	str	r0, [fp, #-24]	; 0xffffffe8
    affc:	e50b101c 	str	r1, [fp, #-28]	; 0xffffffe4
    b000:	e51b0018 	ldr	r0, [fp, #-24]	; 0xffffffe8
    b004:	e3a01003 	mov	r1, #3
    b008:	ebfffa04 	bl	9820 <fmc_imageon_iic_mux>
    b00c:	e3a03000 	mov	r3, #0
    b010:	e54b3011 	strb	r3, [fp, #-17]	; 0xffffffef
    b014:	e51b3018 	ldr	r3, [fp, #-24]	; 0xffffffe8
    b018:	e5933024 	ldr	r3, [r3, #36]	; 0x24
    b01c:	e5934050 	ldr	r4, [r3, #80]	; 0x50
    b020:	e51b3018 	ldr	r3, [fp, #-24]	; 0xffffffe8
    b024:	e5931024 	ldr	r1, [r3, #36]	; 0x24
    b028:	e55b2011 	ldrb	r2, [fp, #-17]	; 0xffffffef
    b02c:	e24bc013 	sub	ip, fp, #19
    b030:	e3a03001 	mov	r3, #1
    b034:	e58d3000 	str	r3, [sp]
    b038:	e1a00001 	mov	r0, r1
    b03c:	e3a01020 	mov	r1, #32
    b040:	e1a0300c 	mov	r3, ip
    b044:	e12fff34 	blx	r4
    b048:	e1a03000 	mov	r3, r0
    b04c:	e54b3012 	strb	r3, [fp, #-18]	; 0xffffffee
    b050:	e55b3013 	ldrb	r3, [fp, #-19]	; 0xffffffed
    b054:	e2033008 	and	r3, r3, #8
    b058:	e3530000 	cmp	r3, #0
    b05c:	0a000002 	beq	b06c <fmc_imageon_hdmio_get_hpd+0x80>
    b060:	e3a03001 	mov	r3, #1
    b064:	e50b3010 	str	r3, [fp, #-16]
    b068:	ea000001 	b	b074 <fmc_imageon_hdmio_get_hpd+0x88>
    b06c:	e3a03000 	mov	r3, #0
    b070:	e50b3010 	str	r3, [fp, #-16]
    b074:	e51b2010 	ldr	r2, [fp, #-16]
    b078:	e51b301c 	ldr	r3, [fp, #-28]	; 0xffffffe4
    b07c:	e5832000 	str	r2, [r3]
    b080:	e3a03001 	mov	r3, #1
    b084:	e1a00003 	mov	r0, r3
    b088:	e24bd008 	sub	sp, fp, #8
    b08c:	e8bd8810 	pop	{r4, fp, pc}

0000b090 <fmc_imageon_hdmii_read_edid>:
    b090:	e92d4810 	push	{r4, fp, lr}
    b094:	e28db008 	add	fp, sp, #8
    b098:	e24dd01c 	sub	sp, sp, #28
    b09c:	e50b0018 	str	r0, [fp, #-24]	; 0xffffffe8
    b0a0:	e50b101c 	str	r1, [fp, #-28]	; 0xffffffe4
    b0a4:	e3a03000 	mov	r3, #0
    b0a8:	e54b300d 	strb	r3, [fp, #-13]
    b0ac:	e51b0018 	ldr	r0, [fp, #-24]	; 0xffffffe8
    b0b0:	e3a01002 	mov	r1, #2
    b0b4:	ebfff9d9 	bl	9820 <fmc_imageon_iic_mux>
    b0b8:	e3a03000 	mov	r3, #0
    b0bc:	e50b3014 	str	r3, [fp, #-20]	; 0xffffffec
    b0c0:	ea000018 	b	b128 <fmc_imageon_hdmii_read_edid+0x98>
    b0c4:	e51b3018 	ldr	r3, [fp, #-24]	; 0xffffffe8
    b0c8:	e5933024 	ldr	r3, [r3, #36]	; 0x24
    b0cc:	e5934050 	ldr	r4, [r3, #80]	; 0x50
    b0d0:	e51b3018 	ldr	r3, [fp, #-24]	; 0xffffffe8
    b0d4:	e5931024 	ldr	r1, [r3, #36]	; 0x24
    b0d8:	e51b3014 	ldr	r3, [fp, #-20]	; 0xffffffec
    b0dc:	e6efe073 	uxtb	lr, r3
    b0e0:	e51b3014 	ldr	r3, [fp, #-20]	; 0xffffffec
    b0e4:	e51b201c 	ldr	r2, [fp, #-28]	; 0xffffffe4
    b0e8:	e082c003 	add	ip, r2, r3
    b0ec:	e3a03001 	mov	r3, #1
    b0f0:	e58d3000 	str	r3, [sp]
    b0f4:	e1a00001 	mov	r0, r1
    b0f8:	e3a01036 	mov	r1, #54	; 0x36
    b0fc:	e1a0200e 	mov	r2, lr
    b100:	e1a0300c 	mov	r3, ip
    b104:	e12fff34 	blx	r4
    b108:	e1a03000 	mov	r3, r0
    b10c:	e6ef2073 	uxtb	r2, r3
    b110:	e55b300d 	ldrb	r3, [fp, #-13]
    b114:	e0823003 	add	r3, r2, r3
    b118:	e54b300d 	strb	r3, [fp, #-13]
    b11c:	e51b3014 	ldr	r3, [fp, #-20]	; 0xffffffec
    b120:	e2833001 	add	r3, r3, #1
    b124:	e50b3014 	str	r3, [fp, #-20]	; 0xffffffec
    b128:	e51b3014 	ldr	r3, [fp, #-20]	; 0xffffffec
    b12c:	e35300ff 	cmp	r3, #255	; 0xff
    b130:	daffffe3 	ble	b0c4 <fmc_imageon_hdmii_read_edid+0x34>
    b134:	e55b300d 	ldrb	r3, [fp, #-13]
    b138:	e1a00003 	mov	r0, r3
    b13c:	e24bd008 	sub	sp, fp, #8
    b140:	e8bd8810 	pop	{r4, fp, pc}

0000b144 <fmc_imageon_hdmii_write_edid>:
    b144:	e92d4810 	push	{r4, fp, lr}
    b148:	e28db008 	add	fp, sp, #8
    b14c:	e24dd01c 	sub	sp, sp, #28
    b150:	e50b0018 	str	r0, [fp, #-24]	; 0xffffffe8
    b154:	e50b101c 	str	r1, [fp, #-28]	; 0xffffffe4
    b158:	e3a03000 	mov	r3, #0
    b15c:	e54b300d 	strb	r3, [fp, #-13]
    b160:	e51b0018 	ldr	r0, [fp, #-24]	; 0xffffffe8
    b164:	e3a01002 	mov	r1, #2
    b168:	ebfff9ac 	bl	9820 <fmc_imageon_iic_mux>
    b16c:	e51b0018 	ldr	r0, [fp, #-24]	; 0xffffffe8
    b170:	e30c10ec 	movw	r1, #49388	; 0xc0ec
    b174:	e3401001 	movt	r1, #1
    b178:	e3a02001 	mov	r2, #1
    b17c:	ebfffa3e 	bl	9a7c <fmc_imageon_iic_config3>
    b180:	e3a03000 	mov	r3, #0
    b184:	e50b3014 	str	r3, [fp, #-20]	; 0xffffffec
    b188:	ea000018 	b	b1f0 <fmc_imageon_hdmii_write_edid+0xac>
    b18c:	e51b3018 	ldr	r3, [fp, #-24]	; 0xffffffe8
    b190:	e5933024 	ldr	r3, [r3, #36]	; 0x24
    b194:	e5934054 	ldr	r4, [r3, #84]	; 0x54
    b198:	e51b3018 	ldr	r3, [fp, #-24]	; 0xffffffe8
    b19c:	e5931024 	ldr	r1, [r3, #36]	; 0x24
    b1a0:	e51b3014 	ldr	r3, [fp, #-20]	; 0xffffffec
    b1a4:	e6efe073 	uxtb	lr, r3
    b1a8:	e51b3014 	ldr	r3, [fp, #-20]	; 0xffffffec
    b1ac:	e51b201c 	ldr	r2, [fp, #-28]	; 0xffffffe4
    b1b0:	e082c003 	add	ip, r2, r3
    b1b4:	e3a03001 	mov	r3, #1
    b1b8:	e58d3000 	str	r3, [sp]
    b1bc:	e1a00001 	mov	r0, r1
    b1c0:	e3a01036 	mov	r1, #54	; 0x36
    b1c4:	e1a0200e 	mov	r2, lr
    b1c8:	e1a0300c 	mov	r3, ip
    b1cc:	e12fff34 	blx	r4
    b1d0:	e1a03000 	mov	r3, r0
    b1d4:	e6ef2073 	uxtb	r2, r3
    b1d8:	e55b300d 	ldrb	r3, [fp, #-13]
    b1dc:	e0823003 	add	r3, r2, r3
    b1e0:	e54b300d 	strb	r3, [fp, #-13]
    b1e4:	e51b3014 	ldr	r3, [fp, #-20]	; 0xffffffec
    b1e8:	e2833001 	add	r3, r3, #1
    b1ec:	e50b3014 	str	r3, [fp, #-20]	; 0xffffffec
    b1f0:	e51b3014 	ldr	r3, [fp, #-20]	; 0xffffffec
    b1f4:	e35300ff 	cmp	r3, #255	; 0xff
    b1f8:	daffffe3 	ble	b18c <fmc_imageon_hdmii_write_edid+0x48>
    b1fc:	e51b0018 	ldr	r0, [fp, #-24]	; 0xffffffe8
    b200:	e30c10f0 	movw	r1, #49392	; 0xc0f0
    b204:	e3401001 	movt	r1, #1
    b208:	e3a02005 	mov	r2, #5
    b20c:	ebfffa1a 	bl	9a7c <fmc_imageon_iic_config3>
    b210:	e55b300d 	ldrb	r3, [fp, #-13]
    b214:	e1a00003 	mov	r0, r3
    b218:	e24bd008 	sub	sp, fp, #8
    b21c:	e8bd8810 	pop	{r4, fp, pc}

0000b220 <fmc_imageon_hdmio_read_edid>:
    b220:	e92d4810 	push	{r4, fp, lr}
    b224:	e28db008 	add	fp, sp, #8
    b228:	e24dd01c 	sub	sp, sp, #28
    b22c:	e50b0018 	str	r0, [fp, #-24]	; 0xffffffe8
    b230:	e50b101c 	str	r1, [fp, #-28]	; 0xffffffe4
    b234:	e3a03000 	mov	r3, #0
    b238:	e54b300d 	strb	r3, [fp, #-13]
    b23c:	e51b0018 	ldr	r0, [fp, #-24]	; 0xffffffe8
    b240:	e3a01000 	mov	r1, #0
    b244:	ebfff975 	bl	9820 <fmc_imageon_iic_mux>
    b248:	e3a03000 	mov	r3, #0
    b24c:	e50b3014 	str	r3, [fp, #-20]	; 0xffffffec
    b250:	ea000018 	b	b2b8 <fmc_imageon_hdmio_read_edid+0x98>
    b254:	e51b3018 	ldr	r3, [fp, #-24]	; 0xffffffe8
    b258:	e5933024 	ldr	r3, [r3, #36]	; 0x24
    b25c:	e5934050 	ldr	r4, [r3, #80]	; 0x50
    b260:	e51b3018 	ldr	r3, [fp, #-24]	; 0xffffffe8
    b264:	e5931024 	ldr	r1, [r3, #36]	; 0x24
    b268:	e51b3014 	ldr	r3, [fp, #-20]	; 0xffffffec
    b26c:	e6efe073 	uxtb	lr, r3
    b270:	e51b3014 	ldr	r3, [fp, #-20]	; 0xffffffec
    b274:	e51b201c 	ldr	r2, [fp, #-28]	; 0xffffffe4
    b278:	e082c003 	add	ip, r2, r3
    b27c:	e3a03001 	mov	r3, #1
    b280:	e58d3000 	str	r3, [sp]
    b284:	e1a00001 	mov	r0, r1
    b288:	e3a01050 	mov	r1, #80	; 0x50
    b28c:	e1a0200e 	mov	r2, lr
    b290:	e1a0300c 	mov	r3, ip
    b294:	e12fff34 	blx	r4
    b298:	e1a03000 	mov	r3, r0
    b29c:	e6ef2073 	uxtb	r2, r3
    b2a0:	e55b300d 	ldrb	r3, [fp, #-13]
    b2a4:	e0823003 	add	r3, r2, r3
    b2a8:	e54b300d 	strb	r3, [fp, #-13]
    b2ac:	e51b3014 	ldr	r3, [fp, #-20]	; 0xffffffec
    b2b0:	e2833001 	add	r3, r3, #1
    b2b4:	e50b3014 	str	r3, [fp, #-20]	; 0xffffffec
    b2b8:	e51b3014 	ldr	r3, [fp, #-20]	; 0xffffffec
    b2bc:	e35300ff 	cmp	r3, #255	; 0xff
    b2c0:	daffffe3 	ble	b254 <fmc_imageon_hdmio_read_edid+0x34>
    b2c4:	e55b300d 	ldrb	r3, [fp, #-13]
    b2c8:	e1a00003 	mov	r0, r3
    b2cc:	e24bd008 	sub	sp, fp, #8
    b2d0:	e8bd8810 	pop	{r4, fp, pc}

0000b2d4 <fmc_imageon_wait_usec>:
    b2d4:	e92d4800 	push	{fp, lr}
    b2d8:	e28db004 	add	fp, sp, #4
    b2dc:	e24dd008 	sub	sp, sp, #8
    b2e0:	e50b0008 	str	r0, [fp, #-8]
    b2e4:	e51b0008 	ldr	r0, [fp, #-8]
    b2e8:	eb00135a 	bl	10058 <usleep>
    b2ec:	e24bd004 	sub	sp, fp, #4
    b2f0:	e8bd8800 	pop	{fp, pc}

0000b2f4 <vdet_init>:
    b2f4:	e92d4800 	push	{fp, lr}
    b2f8:	e28db004 	add	fp, sp, #4
    b2fc:	e24dd010 	sub	sp, sp, #16
    b300:	e50b0010 	str	r0, [fp, #-16]
    b304:	e1a03001 	mov	r3, r1
    b308:	e14b31b2 	strh	r3, [fp, #-18]	; 0xffffffee
    b30c:	e15b31b2 	ldrh	r3, [fp, #-18]	; 0xffffffee
    b310:	e1a00003 	mov	r0, r3
    b314:	eb001f69 	bl	130c0 <XVtc_LookupConfig>
    b318:	e50b0008 	str	r0, [fp, #-8]
    b31c:	e51b3008 	ldr	r3, [fp, #-8]
    b320:	e3530000 	cmp	r3, #0
    b324:	1a000001 	bne	b330 <vdet_init+0x3c>
    b328:	e3a03001 	mov	r3, #1
    b32c:	ea00000c 	b	b364 <vdet_init+0x70>
    b330:	e51b3008 	ldr	r3, [fp, #-8]
    b334:	e5933004 	ldr	r3, [r3, #4]
    b338:	e51b0010 	ldr	r0, [fp, #-16]
    b33c:	e51b1008 	ldr	r1, [fp, #-8]
    b340:	e1a02003 	mov	r2, r3
    b344:	eb000559 	bl	c8b0 <XVtc_CfgInitialize>
    b348:	e50b000c 	str	r0, [fp, #-12]
    b34c:	e51b300c 	ldr	r3, [fp, #-12]
    b350:	e3530000 	cmp	r3, #0
    b354:	0a000001 	beq	b360 <vdet_init+0x6c>
    b358:	e3a03001 	mov	r3, #1
    b35c:	ea000000 	b	b364 <vdet_init+0x70>
    b360:	e3a03000 	mov	r3, #0
    b364:	e1a00003 	mov	r0, r3
    b368:	e24bd004 	sub	sp, fp, #4
    b36c:	e8bd8800 	pop	{fp, pc}

0000b370 <vdet_reset>:
    b370:	e92d4800 	push	{fp, lr}
    b374:	e28db004 	add	fp, sp, #4
    b378:	e24dd008 	sub	sp, sp, #8
    b37c:	e50b0008 	str	r0, [fp, #-8]
    b380:	e51b3008 	ldr	r3, [fp, #-8]
    b384:	e5933004 	ldr	r3, [r3, #4]
    b388:	e1a00003 	mov	r0, r3
    b38c:	e3a01102 	mov	r1, #-2147483648	; 0x80000000
    b390:	eb001284 	bl	fda8 <Xil_Out32>
    b394:	e3a03000 	mov	r3, #0
    b398:	e1a00003 	mov	r0, r3
    b39c:	e24bd004 	sub	sp, fp, #4
    b3a0:	e8bd8800 	pop	{fp, pc}

0000b3a4 <vfb_common_init>:
    b3a4:	e92d4800 	push	{fp, lr}
    b3a8:	e28db004 	add	fp, sp, #4
    b3ac:	e24dd018 	sub	sp, sp, #24
    b3b0:	e1a03000 	mov	r3, r0
    b3b4:	e50b101c 	str	r1, [fp, #-28]	; 0xffffffe4
    b3b8:	e14b31b6 	strh	r3, [fp, #-22]	; 0xffffffea
    b3bc:	e15b31b6 	ldrh	r3, [fp, #-22]	; 0xffffffea
    b3c0:	e1a00003 	mov	r0, r3
    b3c4:	eb001f62 	bl	13154 <XAxiVdma_LookupConfig>
    b3c8:	e50b0008 	str	r0, [fp, #-8]
    b3cc:	e51b3008 	ldr	r3, [fp, #-8]
    b3d0:	e3530000 	cmp	r3, #0
    b3d4:	1a000006 	bne	b3f4 <vfb_common_init+0x50>
    b3d8:	e15b31b6 	ldrh	r3, [fp, #-22]	; 0xffffffea
    b3dc:	e30b059c 	movw	r0, #46492	; 0xb59c
    b3e0:	e3400001 	movt	r0, #1
    b3e4:	e1a01003 	mov	r1, r3
    b3e8:	ebfff0f6 	bl	77c8 <printf>
    b3ec:	e3a03001 	mov	r3, #1
    b3f0:	ea000013 	b	b444 <vfb_common_init+0xa0>
    b3f4:	e51b3008 	ldr	r3, [fp, #-8]
    b3f8:	e5933004 	ldr	r3, [r3, #4]
    b3fc:	e51b001c 	ldr	r0, [fp, #-28]	; 0xffffffe4
    b400:	e51b1008 	ldr	r1, [fp, #-8]
    b404:	e1a02003 	mov	r2, r3
    b408:	eb001365 	bl	101a4 <XAxiVdma_CfgInitialize>
    b40c:	e50b000c 	str	r0, [fp, #-12]
    b410:	e51b300c 	ldr	r3, [fp, #-12]
    b414:	e3530000 	cmp	r3, #0
    b418:	0a000005 	beq	b434 <vfb_common_init+0x90>
    b41c:	e30b05bc 	movw	r0, #46524	; 0xb5bc
    b420:	e3400001 	movt	r0, #1
    b424:	e51b100c 	ldr	r1, [fp, #-12]
    b428:	ebfff0e6 	bl	77c8 <printf>
    b42c:	e3a03001 	mov	r3, #1
    b430:	ea000003 	b	b444 <vfb_common_init+0xa0>
    b434:	e51b301c 	ldr	r3, [fp, #-28]	; 0xffffffe4
    b438:	e5933000 	ldr	r3, [r3]
    b43c:	e50b3010 	str	r3, [fp, #-16]
    b440:	e3a03000 	mov	r3, #0
    b444:	e1a00003 	mov	r0, r3
    b448:	e24bd004 	sub	sp, fp, #4
    b44c:	e8bd8800 	pop	{fp, pc}

0000b450 <vfb_rx_init>:
    b450:	e92d4800 	push	{fp, lr}
    b454:	e28db004 	add	fp, sp, #4
    b458:	e24dd020 	sub	sp, sp, #32
    b45c:	e50b0010 	str	r0, [fp, #-16]
    b460:	e50b1014 	str	r1, [fp, #-20]	; 0xffffffec
    b464:	e50b2018 	str	r2, [fp, #-24]	; 0xffffffe8
    b468:	e50b301c 	str	r3, [fp, #-28]	; 0xffffffe4
    b46c:	e59b3004 	ldr	r3, [fp, #4]
    b470:	e58d3000 	str	r3, [sp]
    b474:	e59b3008 	ldr	r3, [fp, #8]
    b478:	e58d3004 	str	r3, [sp, #4]
    b47c:	e51b0010 	ldr	r0, [fp, #-16]
    b480:	e51b1014 	ldr	r1, [fp, #-20]	; 0xffffffec
    b484:	e51b2018 	ldr	r2, [fp, #-24]	; 0xffffffe8
    b488:	e51b301c 	ldr	r3, [fp, #-28]	; 0xffffffe4
    b48c:	eb000041 	bl	b598 <vfb_rx_setup>
    b490:	e50b0008 	str	r0, [fp, #-8]
    b494:	e51b3008 	ldr	r3, [fp, #-8]
    b498:	e3530000 	cmp	r3, #0
    b49c:	0a000001 	beq	b4a8 <vfb_rx_init+0x58>
    b4a0:	e3a03001 	mov	r3, #1
    b4a4:	ea00000b 	b	b4d8 <vfb_rx_init+0x88>
    b4a8:	e51b0010 	ldr	r0, [fp, #-16]
    b4ac:	eb000107 	bl	b8d0 <vfb_rx_start>
    b4b0:	e50b0008 	str	r0, [fp, #-8]
    b4b4:	e51b3008 	ldr	r3, [fp, #-8]
    b4b8:	e3530000 	cmp	r3, #0
    b4bc:	0a000001 	beq	b4c8 <vfb_rx_init+0x78>
    b4c0:	e3a03001 	mov	r3, #1
    b4c4:	ea000003 	b	b4d8 <vfb_rx_init+0x88>
    b4c8:	e51b0010 	ldr	r0, [fp, #-16]
    b4cc:	e3a01002 	mov	r1, #2
    b4d0:	e3a02001 	mov	r2, #1
    b4d4:	eb001581 	bl	10ae0 <XAxiVdma_FsyncSrcSelect>
    b4d8:	e1a00003 	mov	r0, r3
    b4dc:	e24bd004 	sub	sp, fp, #4
    b4e0:	e8bd8800 	pop	{fp, pc}

0000b4e4 <vfb_tx_init>:
    b4e4:	e92d4800 	push	{fp, lr}
    b4e8:	e28db004 	add	fp, sp, #4
    b4ec:	e24dd028 	sub	sp, sp, #40	; 0x28
    b4f0:	e50b0018 	str	r0, [fp, #-24]	; 0xffffffe8
    b4f4:	e50b101c 	str	r1, [fp, #-28]	; 0xffffffe4
    b4f8:	e50b2020 	str	r2, [fp, #-32]	; 0xffffffe0
    b4fc:	e50b3024 	str	r3, [fp, #-36]	; 0xffffffdc
    b500:	e59b3004 	ldr	r3, [fp, #4]
    b504:	e58d3000 	str	r3, [sp]
    b508:	e59b3008 	ldr	r3, [fp, #8]
    b50c:	e58d3004 	str	r3, [sp, #4]
    b510:	e51b0018 	ldr	r0, [fp, #-24]	; 0xffffffe8
    b514:	e51b101c 	ldr	r1, [fp, #-28]	; 0xffffffe4
    b518:	e51b2020 	ldr	r2, [fp, #-32]	; 0xffffffe0
    b51c:	e51b3024 	ldr	r3, [fp, #-36]	; 0xffffffdc
    b520:	eb000083 	bl	b734 <vfb_tx_setup>
    b524:	e50b0008 	str	r0, [fp, #-8]
    b528:	e51b3008 	ldr	r3, [fp, #-8]
    b52c:	e3530000 	cmp	r3, #0
    b530:	0a000001 	beq	b53c <vfb_tx_init+0x58>
    b534:	e3a03001 	mov	r3, #1
    b538:	ea000013 	b	b58c <vfb_tx_init+0xa8>
    b53c:	e51b0018 	ldr	r0, [fp, #-24]	; 0xffffffe8
    b540:	eb0000f7 	bl	b924 <vfb_tx_start>
    b544:	e50b0008 	str	r0, [fp, #-8]
    b548:	e51b3008 	ldr	r3, [fp, #-8]
    b54c:	e3530000 	cmp	r3, #0
    b550:	0a000001 	beq	b55c <vfb_tx_init+0x78>
    b554:	e3a03001 	mov	r3, #1
    b558:	ea00000b 	b	b58c <vfb_tx_init+0xa8>
    b55c:	e51b3018 	ldr	r3, [fp, #-24]	; 0xffffffe8
    b560:	e5933000 	ldr	r3, [r3]
    b564:	e50b300c 	str	r3, [fp, #-12]
    b568:	e51b300c 	ldr	r3, [fp, #-12]
    b56c:	e5933000 	ldr	r3, [r3]
    b570:	e50b3010 	str	r3, [fp, #-16]
    b574:	e51b3010 	ldr	r3, [fp, #-16]
    b578:	e3833080 	orr	r3, r3, #128	; 0x80
    b57c:	e50b3010 	str	r3, [fp, #-16]
    b580:	e51b300c 	ldr	r3, [fp, #-12]
    b584:	e51b2010 	ldr	r2, [fp, #-16]
    b588:	e5832000 	str	r2, [r3]
    b58c:	e1a00003 	mov	r0, r3
    b590:	e24bd004 	sub	sp, fp, #4
    b594:	e8bd8800 	pop	{fp, pc}

0000b598 <vfb_rx_setup>:
    b598:	e92d4800 	push	{fp, lr}
    b59c:	e28db004 	add	fp, sp, #4
    b5a0:	e24dd038 	sub	sp, sp, #56	; 0x38
    b5a4:	e50b0030 	str	r0, [fp, #-48]	; 0xffffffd0
    b5a8:	e50b1034 	str	r1, [fp, #-52]	; 0xffffffcc
    b5ac:	e50b2038 	str	r2, [fp, #-56]	; 0xffffffc8
    b5b0:	e50b303c 	str	r3, [fp, #-60]	; 0xffffffc4
    b5b4:	e51b0038 	ldr	r0, [fp, #-56]	; 0xffffffc8
    b5b8:	eb0003ba 	bl	c4a8 <vres_get_height>
    b5bc:	e50b0010 	str	r0, [fp, #-16]
    b5c0:	e51b0038 	ldr	r0, [fp, #-56]	; 0xffffffc8
    b5c4:	eb0003a2 	bl	c454 <vres_get_width>
    b5c8:	e1a03000 	mov	r3, r0
    b5cc:	e1a03103 	lsl	r3, r3, #2
    b5d0:	e50b3014 	str	r3, [fp, #-20]	; 0xffffffec
    b5d4:	e51b003c 	ldr	r0, [fp, #-60]	; 0xffffffc4
    b5d8:	eb0003b2 	bl	c4a8 <vres_get_height>
    b5dc:	e50b0018 	str	r0, [fp, #-24]	; 0xffffffe8
    b5e0:	e51b003c 	ldr	r0, [fp, #-60]	; 0xffffffc4
    b5e4:	eb00039a 	bl	c454 <vres_get_width>
    b5e8:	e1a03000 	mov	r3, r0
    b5ec:	e1a03103 	lsl	r3, r3, #2
    b5f0:	e50b301c 	str	r3, [fp, #-28]	; 0xffffffe4
    b5f4:	e51b301c 	ldr	r3, [fp, #-28]	; 0xffffffe4
    b5f8:	e50b3020 	str	r3, [fp, #-32]	; 0xffffffe0
    b5fc:	e51b301c 	ldr	r3, [fp, #-28]	; 0xffffffe4
    b600:	e51b2018 	ldr	r2, [fp, #-24]	; 0xffffffe8
    b604:	e0030392 	mul	r3, r2, r3
    b608:	e50b3024 	str	r3, [fp, #-36]	; 0xffffffdc
    b60c:	e51b2010 	ldr	r2, [fp, #-16]
    b610:	e51b3034 	ldr	r3, [fp, #-52]	; 0xffffffcc
    b614:	e5832000 	str	r2, [r3]
    b618:	e51b2014 	ldr	r2, [fp, #-20]	; 0xffffffec
    b61c:	e51b3034 	ldr	r3, [fp, #-52]	; 0xffffffcc
    b620:	e5832004 	str	r2, [r3, #4]
    b624:	e51b2020 	ldr	r2, [fp, #-32]	; 0xffffffe0
    b628:	e51b3034 	ldr	r3, [fp, #-52]	; 0xffffffcc
    b62c:	e5832008 	str	r2, [r3, #8]
    b630:	e51b3034 	ldr	r3, [fp, #-52]	; 0xffffffcc
    b634:	e3a02000 	mov	r2, #0
    b638:	e583200c 	str	r2, [r3, #12]
    b63c:	e51b3034 	ldr	r3, [fp, #-52]	; 0xffffffcc
    b640:	e3a02001 	mov	r2, #1
    b644:	e5832010 	str	r2, [r3, #16]
    b648:	e51b3034 	ldr	r3, [fp, #-52]	; 0xffffffcc
    b64c:	e3a02001 	mov	r2, #1
    b650:	e5832014 	str	r2, [r3, #20]
    b654:	e51b3034 	ldr	r3, [fp, #-52]	; 0xffffffcc
    b658:	e3a02001 	mov	r2, #1
    b65c:	e5832018 	str	r2, [r3, #24]
    b660:	e51b3034 	ldr	r3, [fp, #-52]	; 0xffffffcc
    b664:	e3a02000 	mov	r2, #0
    b668:	e583201c 	str	r2, [r3, #28]
    b66c:	e51b3034 	ldr	r3, [fp, #-52]	; 0xffffffcc
    b670:	e3a02000 	mov	r2, #0
    b674:	e58320a0 	str	r2, [r3, #160]	; 0xa0
    b678:	e51b0030 	ldr	r0, [fp, #-48]	; 0xffffffd0
    b67c:	e3a01001 	mov	r1, #1
    b680:	e51b2034 	ldr	r2, [fp, #-52]	; 0xffffffcc
    b684:	eb0016b1 	bl	11150 <XAxiVdma_DmaConfig>
    b688:	e50b0028 	str	r0, [fp, #-40]	; 0xffffffd8
    b68c:	e51b3028 	ldr	r3, [fp, #-40]	; 0xffffffd8
    b690:	e3530000 	cmp	r3, #0
    b694:	0a000001 	beq	b6a0 <vfb_rx_setup+0x108>
    b698:	e3a03001 	mov	r3, #1
    b69c:	ea000021 	b	b728 <vfb_rx_setup+0x190>
    b6a0:	e59b3004 	ldr	r3, [fp, #4]
    b6a4:	e50b300c 	str	r3, [fp, #-12]
    b6a8:	e3a03000 	mov	r3, #0
    b6ac:	e50b3008 	str	r3, [fp, #-8]
    b6b0:	ea00000b 	b	b6e4 <vfb_rx_setup+0x14c>
    b6b4:	e51b3034 	ldr	r3, [fp, #-52]	; 0xffffffcc
    b6b8:	e51b2008 	ldr	r2, [fp, #-8]
    b6bc:	e2822008 	add	r2, r2, #8
    b6c0:	e51b100c 	ldr	r1, [fp, #-12]
    b6c4:	e7831102 	str	r1, [r3, r2, lsl #2]
    b6c8:	e51b200c 	ldr	r2, [fp, #-12]
    b6cc:	e51b3024 	ldr	r3, [fp, #-36]	; 0xffffffdc
    b6d0:	e0823003 	add	r3, r2, r3
    b6d4:	e50b300c 	str	r3, [fp, #-12]
    b6d8:	e51b3008 	ldr	r3, [fp, #-8]
    b6dc:	e2833001 	add	r3, r3, #1
    b6e0:	e50b3008 	str	r3, [fp, #-8]
    b6e4:	e51b2008 	ldr	r2, [fp, #-8]
    b6e8:	e59b3008 	ldr	r3, [fp, #8]
    b6ec:	e1520003 	cmp	r2, r3
    b6f0:	3affffef 	bcc	b6b4 <vfb_rx_setup+0x11c>
    b6f4:	e51b3034 	ldr	r3, [fp, #-52]	; 0xffffffcc
    b6f8:	e2833020 	add	r3, r3, #32
    b6fc:	e51b0030 	ldr	r0, [fp, #-48]	; 0xffffffd0
    b700:	e3a01001 	mov	r1, #1
    b704:	e1a02003 	mov	r2, r3
    b708:	eb0016ae 	bl	111c8 <XAxiVdma_DmaSetBufferAddr>
    b70c:	e50b0028 	str	r0, [fp, #-40]	; 0xffffffd8
    b710:	e51b3028 	ldr	r3, [fp, #-40]	; 0xffffffd8
    b714:	e3530000 	cmp	r3, #0
    b718:	0a000001 	beq	b724 <vfb_rx_setup+0x18c>
    b71c:	e3a03001 	mov	r3, #1
    b720:	ea000000 	b	b728 <vfb_rx_setup+0x190>
    b724:	e3a03000 	mov	r3, #0
    b728:	e1a00003 	mov	r0, r3
    b72c:	e24bd004 	sub	sp, fp, #4
    b730:	e8bd8800 	pop	{fp, pc}

0000b734 <vfb_tx_setup>:
    b734:	e92d4800 	push	{fp, lr}
    b738:	e28db004 	add	fp, sp, #4
    b73c:	e24dd038 	sub	sp, sp, #56	; 0x38
    b740:	e50b0030 	str	r0, [fp, #-48]	; 0xffffffd0
    b744:	e50b1034 	str	r1, [fp, #-52]	; 0xffffffcc
    b748:	e50b2038 	str	r2, [fp, #-56]	; 0xffffffc8
    b74c:	e50b303c 	str	r3, [fp, #-60]	; 0xffffffc4
    b750:	e51b0038 	ldr	r0, [fp, #-56]	; 0xffffffc8
    b754:	eb000353 	bl	c4a8 <vres_get_height>
    b758:	e50b0010 	str	r0, [fp, #-16]
    b75c:	e51b0038 	ldr	r0, [fp, #-56]	; 0xffffffc8
    b760:	eb00033b 	bl	c454 <vres_get_width>
    b764:	e1a03000 	mov	r3, r0
    b768:	e1a03103 	lsl	r3, r3, #2
    b76c:	e50b3014 	str	r3, [fp, #-20]	; 0xffffffec
    b770:	e51b003c 	ldr	r0, [fp, #-60]	; 0xffffffc4
    b774:	eb00034b 	bl	c4a8 <vres_get_height>
    b778:	e50b0018 	str	r0, [fp, #-24]	; 0xffffffe8
    b77c:	e51b003c 	ldr	r0, [fp, #-60]	; 0xffffffc4
    b780:	eb000333 	bl	c454 <vres_get_width>
    b784:	e1a03000 	mov	r3, r0
    b788:	e1a03103 	lsl	r3, r3, #2
    b78c:	e50b301c 	str	r3, [fp, #-28]	; 0xffffffe4
    b790:	e51b301c 	ldr	r3, [fp, #-28]	; 0xffffffe4
    b794:	e50b3020 	str	r3, [fp, #-32]	; 0xffffffe0
    b798:	e51b301c 	ldr	r3, [fp, #-28]	; 0xffffffe4
    b79c:	e51b2018 	ldr	r2, [fp, #-24]	; 0xffffffe8
    b7a0:	e0030392 	mul	r3, r2, r3
    b7a4:	e50b3024 	str	r3, [fp, #-36]	; 0xffffffdc
    b7a8:	e51b2010 	ldr	r2, [fp, #-16]
    b7ac:	e51b3034 	ldr	r3, [fp, #-52]	; 0xffffffcc
    b7b0:	e5832000 	str	r2, [r3]
    b7b4:	e51b2014 	ldr	r2, [fp, #-20]	; 0xffffffec
    b7b8:	e51b3034 	ldr	r3, [fp, #-52]	; 0xffffffcc
    b7bc:	e5832004 	str	r2, [r3, #4]
    b7c0:	e51b2020 	ldr	r2, [fp, #-32]	; 0xffffffe0
    b7c4:	e51b3034 	ldr	r3, [fp, #-52]	; 0xffffffcc
    b7c8:	e5832008 	str	r2, [r3, #8]
    b7cc:	e51b3034 	ldr	r3, [fp, #-52]	; 0xffffffcc
    b7d0:	e3a02000 	mov	r2, #0
    b7d4:	e583200c 	str	r2, [r3, #12]
    b7d8:	e51b3034 	ldr	r3, [fp, #-52]	; 0xffffffcc
    b7dc:	e3a02000 	mov	r2, #0
    b7e0:	e5832010 	str	r2, [r3, #16]
    b7e4:	e51b3034 	ldr	r3, [fp, #-52]	; 0xffffffcc
    b7e8:	e3a02001 	mov	r2, #1
    b7ec:	e5832014 	str	r2, [r3, #20]
    b7f0:	e51b3034 	ldr	r3, [fp, #-52]	; 0xffffffcc
    b7f4:	e3a02001 	mov	r2, #1
    b7f8:	e5832018 	str	r2, [r3, #24]
    b7fc:	e51b3034 	ldr	r3, [fp, #-52]	; 0xffffffcc
    b800:	e3a02000 	mov	r2, #0
    b804:	e583201c 	str	r2, [r3, #28]
    b808:	e51b3034 	ldr	r3, [fp, #-52]	; 0xffffffcc
    b80c:	e3a02000 	mov	r2, #0
    b810:	e58320a0 	str	r2, [r3, #160]	; 0xa0
    b814:	e51b0030 	ldr	r0, [fp, #-48]	; 0xffffffd0
    b818:	e3a01002 	mov	r1, #2
    b81c:	e51b2034 	ldr	r2, [fp, #-52]	; 0xffffffcc
    b820:	eb00164a 	bl	11150 <XAxiVdma_DmaConfig>
    b824:	e50b0028 	str	r0, [fp, #-40]	; 0xffffffd8
    b828:	e51b3028 	ldr	r3, [fp, #-40]	; 0xffffffd8
    b82c:	e3530000 	cmp	r3, #0
    b830:	0a000001 	beq	b83c <vfb_tx_setup+0x108>
    b834:	e3a03001 	mov	r3, #1
    b838:	ea000021 	b	b8c4 <vfb_tx_setup+0x190>
    b83c:	e59b3004 	ldr	r3, [fp, #4]
    b840:	e50b300c 	str	r3, [fp, #-12]
    b844:	e3a03000 	mov	r3, #0
    b848:	e50b3008 	str	r3, [fp, #-8]
    b84c:	ea00000b 	b	b880 <vfb_tx_setup+0x14c>
    b850:	e51b3034 	ldr	r3, [fp, #-52]	; 0xffffffcc
    b854:	e51b2008 	ldr	r2, [fp, #-8]
    b858:	e2822008 	add	r2, r2, #8
    b85c:	e51b100c 	ldr	r1, [fp, #-12]
    b860:	e7831102 	str	r1, [r3, r2, lsl #2]
    b864:	e51b200c 	ldr	r2, [fp, #-12]
    b868:	e51b3024 	ldr	r3, [fp, #-36]	; 0xffffffdc
    b86c:	e0823003 	add	r3, r2, r3
    b870:	e50b300c 	str	r3, [fp, #-12]
    b874:	e51b3008 	ldr	r3, [fp, #-8]
    b878:	e2833001 	add	r3, r3, #1
    b87c:	e50b3008 	str	r3, [fp, #-8]
    b880:	e51b2008 	ldr	r2, [fp, #-8]
    b884:	e59b3008 	ldr	r3, [fp, #8]
    b888:	e1520003 	cmp	r2, r3
    b88c:	3affffef 	bcc	b850 <vfb_tx_setup+0x11c>
    b890:	e51b3034 	ldr	r3, [fp, #-52]	; 0xffffffcc
    b894:	e2833020 	add	r3, r3, #32
    b898:	e51b0030 	ldr	r0, [fp, #-48]	; 0xffffffd0
    b89c:	e3a01002 	mov	r1, #2
    b8a0:	e1a02003 	mov	r2, r3
    b8a4:	eb001647 	bl	111c8 <XAxiVdma_DmaSetBufferAddr>
    b8a8:	e50b0028 	str	r0, [fp, #-40]	; 0xffffffd8
    b8ac:	e51b3028 	ldr	r3, [fp, #-40]	; 0xffffffd8
    b8b0:	e3530000 	cmp	r3, #0
    b8b4:	0a000001 	beq	b8c0 <vfb_tx_setup+0x18c>
    b8b8:	e3a03001 	mov	r3, #1
    b8bc:	ea000000 	b	b8c4 <vfb_tx_setup+0x190>
    b8c0:	e3a03000 	mov	r3, #0
    b8c4:	e1a00003 	mov	r0, r3
    b8c8:	e24bd004 	sub	sp, fp, #4
    b8cc:	e8bd8800 	pop	{fp, pc}

0000b8d0 <vfb_rx_start>:
    b8d0:	e92d4800 	push	{fp, lr}
    b8d4:	e28db004 	add	fp, sp, #4
    b8d8:	e24dd010 	sub	sp, sp, #16
    b8dc:	e50b0010 	str	r0, [fp, #-16]
    b8e0:	e51b0010 	ldr	r0, [fp, #-16]
    b8e4:	e3a01001 	mov	r1, #1
    b8e8:	eb001657 	bl	1124c <XAxiVdma_DmaStart>
    b8ec:	e50b0008 	str	r0, [fp, #-8]
    b8f0:	e51b3008 	ldr	r3, [fp, #-8]
    b8f4:	e3530000 	cmp	r3, #0
    b8f8:	0a000005 	beq	b914 <vfb_rx_start+0x44>
    b8fc:	e30b05e8 	movw	r0, #46568	; 0xb5e8
    b900:	e3400001 	movt	r0, #1
    b904:	e51b1008 	ldr	r1, [fp, #-8]
    b908:	ebffefae 	bl	77c8 <printf>
    b90c:	e3a03001 	mov	r3, #1
    b910:	ea000000 	b	b918 <vfb_rx_start+0x48>
    b914:	e3a03000 	mov	r3, #0
    b918:	e1a00003 	mov	r0, r3
    b91c:	e24bd004 	sub	sp, fp, #4
    b920:	e8bd8800 	pop	{fp, pc}

0000b924 <vfb_tx_start>:
    b924:	e92d4800 	push	{fp, lr}
    b928:	e28db004 	add	fp, sp, #4
    b92c:	e24dd010 	sub	sp, sp, #16
    b930:	e50b0010 	str	r0, [fp, #-16]
    b934:	e51b0010 	ldr	r0, [fp, #-16]
    b938:	e3a01002 	mov	r1, #2
    b93c:	eb001642 	bl	1124c <XAxiVdma_DmaStart>
    b940:	e50b0008 	str	r0, [fp, #-8]
    b944:	e51b3008 	ldr	r3, [fp, #-8]
    b948:	e3530000 	cmp	r3, #0
    b94c:	0a000005 	beq	b968 <vfb_tx_start+0x44>
    b950:	e30b060c 	movw	r0, #46604	; 0xb60c
    b954:	e3400001 	movt	r0, #1
    b958:	e51b1008 	ldr	r1, [fp, #-8]
    b95c:	ebffef99 	bl	77c8 <printf>
    b960:	e3a03001 	mov	r3, #1
    b964:	ea000000 	b	b96c <vfb_tx_start+0x48>
    b968:	e3a03000 	mov	r3, #0
    b96c:	e1a00003 	mov	r0, r3
    b970:	e24bd004 	sub	sp, fp, #4
    b974:	e8bd8800 	pop	{fp, pc}

0000b978 <vfb_rx_stop>:
    b978:	e92d4800 	push	{fp, lr}
    b97c:	e28db004 	add	fp, sp, #4
    b980:	e24dd008 	sub	sp, sp, #8
    b984:	e50b0008 	str	r0, [fp, #-8]
    b988:	e51b0008 	ldr	r0, [fp, #-8]
    b98c:	e3a01001 	mov	r1, #1
    b990:	eb001649 	bl	112bc <XAxiVdma_DmaStop>
    b994:	e3a03000 	mov	r3, #0
    b998:	e1a00003 	mov	r0, r3
    b99c:	e24bd004 	sub	sp, fp, #4
    b9a0:	e8bd8800 	pop	{fp, pc}

0000b9a4 <vfb_tx_stop>:
    b9a4:	e92d4800 	push	{fp, lr}
    b9a8:	e28db004 	add	fp, sp, #4
    b9ac:	e24dd008 	sub	sp, sp, #8
    b9b0:	e50b0008 	str	r0, [fp, #-8]
    b9b4:	e51b0008 	ldr	r0, [fp, #-8]
    b9b8:	e3a01002 	mov	r1, #2
    b9bc:	eb00163e 	bl	112bc <XAxiVdma_DmaStop>
    b9c0:	e3a03000 	mov	r3, #0
    b9c4:	e1a00003 	mov	r0, r3
    b9c8:	e24bd004 	sub	sp, fp, #4
    b9cc:	e8bd8800 	pop	{fp, pc}

0000b9d0 <vfb_dump_registers>:
    b9d0:	e92d4800 	push	{fp, lr}
    b9d4:	e28db004 	add	fp, sp, #4
    b9d8:	e24dd010 	sub	sp, sp, #16
    b9dc:	e50b0010 	str	r0, [fp, #-16]
    b9e0:	e51b3010 	ldr	r3, [fp, #-16]
    b9e4:	e5933000 	ldr	r3, [r3]
    b9e8:	e50b3008 	str	r3, [fp, #-8]
    b9ec:	e30b063c 	movw	r0, #46652	; 0xb63c
    b9f0:	e3400001 	movt	r0, #1
    b9f4:	e51b1008 	ldr	r1, [fp, #-8]
    b9f8:	ebffef72 	bl	77c8 <printf>
    b9fc:	e51b3008 	ldr	r3, [fp, #-8]
    ba00:	e2833028 	add	r3, r3, #40	; 0x28
    ba04:	e5933000 	ldr	r3, [r3]
    ba08:	e30b0678 	movw	r0, #46712	; 0xb678
    ba0c:	e3400001 	movt	r0, #1
    ba10:	e1a01003 	mov	r1, r3
    ba14:	ebffef6b 	bl	77c8 <printf>
    ba18:	e30b0698 	movw	r0, #46744	; 0xb698
    ba1c:	e3400001 	movt	r0, #1
    ba20:	ebfff1de 	bl	81a0 <uart_puts>
    ba24:	e51b3008 	ldr	r3, [fp, #-8]
    ba28:	e2833030 	add	r3, r3, #48	; 0x30
    ba2c:	e5933000 	ldr	r3, [r3]
    ba30:	e30b06b0 	movw	r0, #46768	; 0xb6b0
    ba34:	e3400001 	movt	r0, #1
    ba38:	e1a01003 	mov	r1, r3
    ba3c:	ebffef61 	bl	77c8 <printf>
    ba40:	e51b3008 	ldr	r3, [fp, #-8]
    ba44:	e2833034 	add	r3, r3, #52	; 0x34
    ba48:	e5933000 	ldr	r3, [r3]
    ba4c:	e30b06d0 	movw	r0, #46800	; 0xb6d0
    ba50:	e3400001 	movt	r0, #1
    ba54:	e1a01003 	mov	r1, r3
    ba58:	ebffef5a 	bl	77c8 <printf>
    ba5c:	e51b3008 	ldr	r3, [fp, #-8]
    ba60:	e28330a8 	add	r3, r3, #168	; 0xa8
    ba64:	e5933000 	ldr	r3, [r3]
    ba68:	e30b06f0 	movw	r0, #46832	; 0xb6f0
    ba6c:	e3400001 	movt	r0, #1
    ba70:	e1a01003 	mov	r1, r3
    ba74:	ebffef53 	bl	77c8 <printf>
    ba78:	e51b3008 	ldr	r3, [fp, #-8]
    ba7c:	e28330ac 	add	r3, r3, #172	; 0xac
    ba80:	e5933000 	ldr	r3, [r3]
    ba84:	e30b0710 	movw	r0, #46864	; 0xb710
    ba88:	e3400001 	movt	r0, #1
    ba8c:	e1a01003 	mov	r1, r3
    ba90:	ebffef4c 	bl	77c8 <printf>
    ba94:	e51b3008 	ldr	r3, [fp, #-8]
    ba98:	e28330b0 	add	r3, r3, #176	; 0xb0
    ba9c:	e5933000 	ldr	r3, [r3]
    baa0:	e30b0730 	movw	r0, #46896	; 0xb730
    baa4:	e3400001 	movt	r0, #1
    baa8:	e1a01003 	mov	r1, r3
    baac:	ebffef45 	bl	77c8 <printf>
    bab0:	e51b3008 	ldr	r3, [fp, #-8]
    bab4:	e28330b4 	add	r3, r3, #180	; 0xb4
    bab8:	e5933000 	ldr	r3, [r3]
    babc:	e30b0750 	movw	r0, #46928	; 0xb750
    bac0:	e3400001 	movt	r0, #1
    bac4:	e1a01003 	mov	r1, r3
    bac8:	ebffef3e 	bl	77c8 <printf>
    bacc:	e51b3008 	ldr	r3, [fp, #-8]
    bad0:	e28330a4 	add	r3, r3, #164	; 0xa4
    bad4:	e5933000 	ldr	r3, [r3]
    bad8:	e30b0770 	movw	r0, #46960	; 0xb770
    badc:	e3400001 	movt	r0, #1
    bae0:	e1a01003 	mov	r1, r3
    bae4:	ebffef37 	bl	77c8 <printf>
    bae8:	e51b3008 	ldr	r3, [fp, #-8]
    baec:	e28330a0 	add	r3, r3, #160	; 0xa0
    baf0:	e5933000 	ldr	r3, [r3]
    baf4:	e30b0790 	movw	r0, #46992	; 0xb790
    baf8:	e3400001 	movt	r0, #1
    bafc:	e1a01003 	mov	r1, r3
    bb00:	ebffef30 	bl	77c8 <printf>
    bb04:	e30b0698 	movw	r0, #46744	; 0xb698
    bb08:	e3400001 	movt	r0, #1
    bb0c:	ebfff1a3 	bl	81a0 <uart_puts>
    bb10:	e51b3008 	ldr	r3, [fp, #-8]
    bb14:	e5933000 	ldr	r3, [r3]
    bb18:	e30b07b0 	movw	r0, #47024	; 0xb7b0
    bb1c:	e3400001 	movt	r0, #1
    bb20:	e1a01003 	mov	r1, r3
    bb24:	ebffef27 	bl	77c8 <printf>
    bb28:	e51b3008 	ldr	r3, [fp, #-8]
    bb2c:	e2833004 	add	r3, r3, #4
    bb30:	e5933000 	ldr	r3, [r3]
    bb34:	e30b07d0 	movw	r0, #47056	; 0xb7d0
    bb38:	e3400001 	movt	r0, #1
    bb3c:	e1a01003 	mov	r1, r3
    bb40:	ebffef20 	bl	77c8 <printf>
    bb44:	e51b3008 	ldr	r3, [fp, #-8]
    bb48:	e2833058 	add	r3, r3, #88	; 0x58
    bb4c:	e5933000 	ldr	r3, [r3]
    bb50:	e30b07f0 	movw	r0, #47088	; 0xb7f0
    bb54:	e3400001 	movt	r0, #1
    bb58:	e1a01003 	mov	r1, r3
    bb5c:	ebffef19 	bl	77c8 <printf>
    bb60:	e51b3008 	ldr	r3, [fp, #-8]
    bb64:	e283305c 	add	r3, r3, #92	; 0x5c
    bb68:	e5933000 	ldr	r3, [r3]
    bb6c:	e30b0810 	movw	r0, #47120	; 0xb810
    bb70:	e3400001 	movt	r0, #1
    bb74:	e1a01003 	mov	r1, r3
    bb78:	ebffef12 	bl	77c8 <printf>
    bb7c:	e51b3008 	ldr	r3, [fp, #-8]
    bb80:	e2833060 	add	r3, r3, #96	; 0x60
    bb84:	e5933000 	ldr	r3, [r3]
    bb88:	e30b0830 	movw	r0, #47152	; 0xb830
    bb8c:	e3400001 	movt	r0, #1
    bb90:	e1a01003 	mov	r1, r3
    bb94:	ebffef0b 	bl	77c8 <printf>
    bb98:	e51b3008 	ldr	r3, [fp, #-8]
    bb9c:	e2833064 	add	r3, r3, #100	; 0x64
    bba0:	e5933000 	ldr	r3, [r3]
    bba4:	e30b0850 	movw	r0, #47184	; 0xb850
    bba8:	e3400001 	movt	r0, #1
    bbac:	e1a01003 	mov	r1, r3
    bbb0:	ebffef04 	bl	77c8 <printf>
    bbb4:	e51b3008 	ldr	r3, [fp, #-8]
    bbb8:	e2833054 	add	r3, r3, #84	; 0x54
    bbbc:	e5933000 	ldr	r3, [r3]
    bbc0:	e30b0870 	movw	r0, #47216	; 0xb870
    bbc4:	e3400001 	movt	r0, #1
    bbc8:	e1a01003 	mov	r1, r3
    bbcc:	ebffeefd 	bl	77c8 <printf>
    bbd0:	e51b3008 	ldr	r3, [fp, #-8]
    bbd4:	e2833050 	add	r3, r3, #80	; 0x50
    bbd8:	e5933000 	ldr	r3, [r3]
    bbdc:	e30b0890 	movw	r0, #47248	; 0xb890
    bbe0:	e3400001 	movt	r0, #1
    bbe4:	e1a01003 	mov	r1, r3
    bbe8:	ebffeef6 	bl	77c8 <printf>
    bbec:	e30b0698 	movw	r0, #46744	; 0xb698
    bbf0:	e3400001 	movt	r0, #1
    bbf4:	ebfff169 	bl	81a0 <uart_puts>
    bbf8:	e51b3008 	ldr	r3, [fp, #-8]
    bbfc:	e28330f0 	add	r3, r3, #240	; 0xf0
    bc00:	e5933000 	ldr	r3, [r3]
    bc04:	e30b08b0 	movw	r0, #47280	; 0xb8b0
    bc08:	e3400001 	movt	r0, #1
    bc0c:	e1a01003 	mov	r1, r3
    bc10:	ebffeeec 	bl	77c8 <printf>
    bc14:	e51b3008 	ldr	r3, [fp, #-8]
    bc18:	e28330f4 	add	r3, r3, #244	; 0xf4
    bc1c:	e5933000 	ldr	r3, [r3]
    bc20:	e30b08d0 	movw	r0, #47312	; 0xb8d0
    bc24:	e3400001 	movt	r0, #1
    bc28:	e1a01003 	mov	r1, r3
    bc2c:	ebffeee5 	bl	77c8 <printf>
    bc30:	e30b0698 	movw	r0, #46744	; 0xb698
    bc34:	e3400001 	movt	r0, #1
    bc38:	ebfff158 	bl	81a0 <uart_puts>
    bc3c:	e3a03000 	mov	r3, #0
    bc40:	e1a00003 	mov	r0, r3
    bc44:	e24bd004 	sub	sp, fp, #4
    bc48:	e8bd8800 	pop	{fp, pc}

0000bc4c <vfb_check_errors>:
    bc4c:	e92d4800 	push	{fp, lr}
    bc50:	e28db004 	add	fp, sp, #4
    bc54:	e24dd018 	sub	sp, sp, #24
    bc58:	e50b0018 	str	r0, [fp, #-24]	; 0xffffffe8
    bc5c:	e1a03001 	mov	r3, r1
    bc60:	e54b3019 	strb	r3, [fp, #-25]	; 0xffffffe7
    bc64:	e51b3018 	ldr	r3, [fp, #-24]	; 0xffffffe8
    bc68:	e5933000 	ldr	r3, [r3]
    bc6c:	e50b3008 	str	r3, [fp, #-8]
    bc70:	e51b3008 	ldr	r3, [fp, #-8]
    bc74:	e2833034 	add	r3, r3, #52	; 0x34
    bc78:	e5933000 	ldr	r3, [r3]
    bc7c:	e1a02003 	mov	r2, r3
    bc80:	e30c3ff0 	movw	r3, #53232	; 0xcff0
    bc84:	e0033002 	and	r3, r3, r2
    bc88:	e50b300c 	str	r3, [fp, #-12]
    bc8c:	e51b3008 	ldr	r3, [fp, #-8]
    bc90:	e2833004 	add	r3, r3, #4
    bc94:	e5933000 	ldr	r3, [r3]
    bc98:	e1a02003 	mov	r2, r3
    bc9c:	e30436f0 	movw	r3, #18160	; 0x46f0
    bca0:	e0033002 	and	r3, r3, r2
    bca4:	e50b3010 	str	r3, [fp, #-16]
    bca8:	e30b08f0 	movw	r0, #47344	; 0xb8f0
    bcac:	e3400001 	movt	r0, #1
    bcb0:	ebfff13a 	bl	81a0 <uart_puts>
    bcb4:	e51b300c 	ldr	r3, [fp, #-12]
    bcb8:	e1a02803 	lsl	r2, r3, #16
    bcbc:	e51b3010 	ldr	r3, [fp, #-16]
    bcc0:	e1823003 	orr	r3, r2, r3
    bcc4:	e50b3014 	str	r3, [fp, #-20]	; 0xffffffec
    bcc8:	e51b3014 	ldr	r3, [fp, #-20]	; 0xffffffec
    bccc:	e3530000 	cmp	r3, #0
    bcd0:	0a000083 	beq	bee4 <vfb_check_errors+0x298>
    bcd4:	e51b300c 	ldr	r3, [fp, #-12]
    bcd8:	e2033901 	and	r3, r3, #16384	; 0x4000
    bcdc:	e3530000 	cmp	r3, #0
    bce0:	0a000002 	beq	bcf0 <vfb_check_errors+0xa4>
    bce4:	e30b0914 	movw	r0, #47380	; 0xb914
    bce8:	e3400001 	movt	r0, #1
    bcec:	ebfff12b 	bl	81a0 <uart_puts>
    bcf0:	e51b300c 	ldr	r3, [fp, #-12]
    bcf4:	e2033902 	and	r3, r3, #32768	; 0x8000
    bcf8:	e3530000 	cmp	r3, #0
    bcfc:	0a000002 	beq	bd0c <vfb_check_errors+0xc0>
    bd00:	e30b092c 	movw	r0, #47404	; 0xb92c
    bd04:	e3400001 	movt	r0, #1
    bd08:	ebfff124 	bl	81a0 <uart_puts>
    bd0c:	e51b300c 	ldr	r3, [fp, #-12]
    bd10:	e2033b02 	and	r3, r3, #2048	; 0x800
    bd14:	e3530000 	cmp	r3, #0
    bd18:	0a000002 	beq	bd28 <vfb_check_errors+0xdc>
    bd1c:	e30b0948 	movw	r0, #47432	; 0xb948
    bd20:	e3400001 	movt	r0, #1
    bd24:	ebfff11d 	bl	81a0 <uart_puts>
    bd28:	e51b300c 	ldr	r3, [fp, #-12]
    bd2c:	e2033b01 	and	r3, r3, #1024	; 0x400
    bd30:	e3530000 	cmp	r3, #0
    bd34:	0a000002 	beq	bd44 <vfb_check_errors+0xf8>
    bd38:	e30b0964 	movw	r0, #47460	; 0xb964
    bd3c:	e3400001 	movt	r0, #1
    bd40:	ebfff116 	bl	81a0 <uart_puts>
    bd44:	e51b300c 	ldr	r3, [fp, #-12]
    bd48:	e2033c02 	and	r3, r3, #512	; 0x200
    bd4c:	e3530000 	cmp	r3, #0
    bd50:	0a000002 	beq	bd60 <vfb_check_errors+0x114>
    bd54:	e30b0980 	movw	r0, #47488	; 0xb980
    bd58:	e3400001 	movt	r0, #1
    bd5c:	ebfff10f 	bl	81a0 <uart_puts>
    bd60:	e51b300c 	ldr	r3, [fp, #-12]
    bd64:	e2033c01 	and	r3, r3, #256	; 0x100
    bd68:	e3530000 	cmp	r3, #0
    bd6c:	0a000002 	beq	bd7c <vfb_check_errors+0x130>
    bd70:	e30b099c 	movw	r0, #47516	; 0xb99c
    bd74:	e3400001 	movt	r0, #1
    bd78:	ebfff108 	bl	81a0 <uart_puts>
    bd7c:	e51b300c 	ldr	r3, [fp, #-12]
    bd80:	e2033080 	and	r3, r3, #128	; 0x80
    bd84:	e3530000 	cmp	r3, #0
    bd88:	0a000002 	beq	bd98 <vfb_check_errors+0x14c>
    bd8c:	e30b09b8 	movw	r0, #47544	; 0xb9b8
    bd90:	e3400001 	movt	r0, #1
    bd94:	ebfff101 	bl	81a0 <uart_puts>
    bd98:	e51b300c 	ldr	r3, [fp, #-12]
    bd9c:	e2033040 	and	r3, r3, #64	; 0x40
    bda0:	e3530000 	cmp	r3, #0
    bda4:	0a000002 	beq	bdb4 <vfb_check_errors+0x168>
    bda8:	e30b09d4 	movw	r0, #47572	; 0xb9d4
    bdac:	e3400001 	movt	r0, #1
    bdb0:	ebfff0fa 	bl	81a0 <uart_puts>
    bdb4:	e51b300c 	ldr	r3, [fp, #-12]
    bdb8:	e2033020 	and	r3, r3, #32
    bdbc:	e3530000 	cmp	r3, #0
    bdc0:	0a000002 	beq	bdd0 <vfb_check_errors+0x184>
    bdc4:	e30b09f0 	movw	r0, #47600	; 0xb9f0
    bdc8:	e3400001 	movt	r0, #1
    bdcc:	ebfff0f3 	bl	81a0 <uart_puts>
    bdd0:	e51b300c 	ldr	r3, [fp, #-12]
    bdd4:	e2033010 	and	r3, r3, #16
    bdd8:	e3530000 	cmp	r3, #0
    bddc:	0a000002 	beq	bdec <vfb_check_errors+0x1a0>
    bde0:	e30b0a0c 	movw	r0, #47628	; 0xba0c
    bde4:	e3400001 	movt	r0, #1
    bde8:	ebfff0ec 	bl	81a0 <uart_puts>
    bdec:	e51b3010 	ldr	r3, [fp, #-16]
    bdf0:	e2033901 	and	r3, r3, #16384	; 0x4000
    bdf4:	e3530000 	cmp	r3, #0
    bdf8:	0a000002 	beq	be08 <vfb_check_errors+0x1bc>
    bdfc:	e30b0a28 	movw	r0, #47656	; 0xba28
    be00:	e3400001 	movt	r0, #1
    be04:	ebfff0e5 	bl	81a0 <uart_puts>
    be08:	e51b3010 	ldr	r3, [fp, #-16]
    be0c:	e2033b01 	and	r3, r3, #1024	; 0x400
    be10:	e3530000 	cmp	r3, #0
    be14:	0a000002 	beq	be24 <vfb_check_errors+0x1d8>
    be18:	e30b0a40 	movw	r0, #47680	; 0xba40
    be1c:	e3400001 	movt	r0, #1
    be20:	ebfff0de 	bl	81a0 <uart_puts>
    be24:	e51b3010 	ldr	r3, [fp, #-16]
    be28:	e2033c02 	and	r3, r3, #512	; 0x200
    be2c:	e3530000 	cmp	r3, #0
    be30:	0a000002 	beq	be40 <vfb_check_errors+0x1f4>
    be34:	e30b0a5c 	movw	r0, #47708	; 0xba5c
    be38:	e3400001 	movt	r0, #1
    be3c:	ebfff0d7 	bl	81a0 <uart_puts>
    be40:	e51b3010 	ldr	r3, [fp, #-16]
    be44:	e2033080 	and	r3, r3, #128	; 0x80
    be48:	e3530000 	cmp	r3, #0
    be4c:	0a000002 	beq	be5c <vfb_check_errors+0x210>
    be50:	e30b0a78 	movw	r0, #47736	; 0xba78
    be54:	e3400001 	movt	r0, #1
    be58:	ebfff0d0 	bl	81a0 <uart_puts>
    be5c:	e51b3010 	ldr	r3, [fp, #-16]
    be60:	e2033040 	and	r3, r3, #64	; 0x40
    be64:	e3530000 	cmp	r3, #0
    be68:	0a000002 	beq	be78 <vfb_check_errors+0x22c>
    be6c:	e30b0a94 	movw	r0, #47764	; 0xba94
    be70:	e3400001 	movt	r0, #1
    be74:	ebfff0c9 	bl	81a0 <uart_puts>
    be78:	e51b3010 	ldr	r3, [fp, #-16]
    be7c:	e2033020 	and	r3, r3, #32
    be80:	e3530000 	cmp	r3, #0
    be84:	0a000002 	beq	be94 <vfb_check_errors+0x248>
    be88:	e30b0ab0 	movw	r0, #47792	; 0xbab0
    be8c:	e3400001 	movt	r0, #1
